
MTA_response_box.elf:     file format elf32-littlearm

Sections:
Idx Name          Size      VMA       LMA       File off  Algn
  0 .text         0000c474  00000000  00000000  00010000  2**2
                  CONTENTS, ALLOC, LOAD, READONLY, CODE
  1 .relocate     00000140  20000000  0000c474  00020000  2**2
                  CONTENTS, ALLOC, LOAD, DATA
  2 .bss          0000098c  20000140  0000c5b4  00020140  2**2
                  ALLOC
  3 .stack        00002004  20000acc  0000cf40  00020140  2**0
                  ALLOC
  4 .ARM.attributes 00000028  00000000  00000000  00020140  2**0
                  CONTENTS, READONLY
  5 .comment      00000059  00000000  00000000  00020168  2**0
                  CONTENTS, READONLY
  6 .debug_frame  000009dc  00000000  00000000  000201c4  2**2
                  CONTENTS, READONLY, DEBUGGING

Disassembly of section .text:

00000000 <exception_table>:
       0:	d0 2a 00 20 55 01 00 00 51 01 00 00 51 01 00 00     .*. U...Q...Q...
	...
      2c:	51 01 00 00 00 00 00 00 00 00 00 00 51 01 00 00     Q...........Q...
      3c:	51 01 00 00 51 01 00 00 51 01 00 00 51 01 00 00     Q...Q...Q...Q...
      4c:	69 24 00 00 c5 1f 00 00 85 23 00 00 51 01 00 00     i$.......#..Q...
      5c:	a5 39 00 00 51 01 00 00 51 01 00 00 f1 2a 00 00     .9..Q...Q....*..
      6c:	51 01 00 00 51 01 00 00 51 01 00 00 51 01 00 00     Q...Q...Q...Q...
      7c:	51 01 00 00 51 01 00 00 51 01 00 00 51 01 00 00     Q...Q...Q...Q...
      8c:	51 01 00 00 51 01 00 00 51 01 00 00 51 01 00 00     Q...Q...Q...Q...
      9c:	29 1d 00 00 51 01 00 00 35 1e 00 00 51 01 00 00     )...Q...5...Q...
      ac:	51 01 00 00 00 00 00 00                             Q.......

000000b4 <__do_global_dtors_aux>:
      b4:	b510      	push	{r4, lr}
      b6:	4c06      	ldr	r4, [pc, #24]	; (d0 <__do_global_dtors_aux+0x1c>)
      b8:	7823      	ldrb	r3, [r4, #0]
      ba:	2b00      	cmp	r3, #0
      bc:	d107      	bne.n	ce <__do_global_dtors_aux+0x1a>
      be:	4b05      	ldr	r3, [pc, #20]	; (d4 <__do_global_dtors_aux+0x20>)
      c0:	2b00      	cmp	r3, #0
      c2:	d002      	beq.n	ca <__do_global_dtors_aux+0x16>
      c4:	4804      	ldr	r0, [pc, #16]	; (d8 <__do_global_dtors_aux+0x24>)
      c6:	e000      	b.n	ca <__do_global_dtors_aux+0x16>
      c8:	bf00      	nop
      ca:	2301      	movs	r3, #1
      cc:	7023      	strb	r3, [r4, #0]
      ce:	bd10      	pop	{r4, pc}
      d0:	20000140 	.word	0x20000140
      d4:	00000000 	.word	0x00000000
      d8:	0000c474 	.word	0x0000c474

000000dc <frame_dummy>:
      dc:	4b08      	ldr	r3, [pc, #32]	; (100 <frame_dummy+0x24>)
      de:	b510      	push	{r4, lr}
      e0:	2b00      	cmp	r3, #0
      e2:	d003      	beq.n	ec <frame_dummy+0x10>
      e4:	4907      	ldr	r1, [pc, #28]	; (104 <frame_dummy+0x28>)
      e6:	4808      	ldr	r0, [pc, #32]	; (108 <frame_dummy+0x2c>)
      e8:	e000      	b.n	ec <frame_dummy+0x10>
      ea:	bf00      	nop
      ec:	4807      	ldr	r0, [pc, #28]	; (10c <frame_dummy+0x30>)
      ee:	6803      	ldr	r3, [r0, #0]
      f0:	2b00      	cmp	r3, #0
      f2:	d100      	bne.n	f6 <frame_dummy+0x1a>
      f4:	bd10      	pop	{r4, pc}
      f6:	4b06      	ldr	r3, [pc, #24]	; (110 <frame_dummy+0x34>)
      f8:	2b00      	cmp	r3, #0
      fa:	d0fb      	beq.n	f4 <frame_dummy+0x18>
      fc:	4798      	blx	r3
      fe:	e7f9      	b.n	f4 <frame_dummy+0x18>
     100:	00000000 	.word	0x00000000
     104:	20000144 	.word	0x20000144
     108:	0000c474 	.word	0x0000c474
     10c:	0000c474 	.word	0x0000c474
     110:	00000000 	.word	0x00000000

00000114 <atmel_start_init>:
     114:	b510      	push	{r4, lr}
     116:	4b07      	ldr	r3, [pc, #28]	; (134 <atmel_start_init+0x20>)
     118:	4798      	blx	r3
     11a:	4b07      	ldr	r3, [pc, #28]	; (138 <atmel_start_init+0x24>)
     11c:	4798      	blx	r3
     11e:	4b07      	ldr	r3, [pc, #28]	; (13c <atmel_start_init+0x28>)
     120:	4798      	blx	r3
     122:	4b07      	ldr	r3, [pc, #28]	; (140 <atmel_start_init+0x2c>)
     124:	4807      	ldr	r0, [pc, #28]	; (144 <atmel_start_init+0x30>)
     126:	4798      	blx	r3
     128:	4b07      	ldr	r3, [pc, #28]	; (148 <atmel_start_init+0x34>)
     12a:	4798      	blx	r3
     12c:	4b07      	ldr	r3, [pc, #28]	; (14c <atmel_start_init+0x38>)
     12e:	4798      	blx	r3
     130:	bd10      	pop	{r4, pc}
     132:	46c0      	nop			; (mov r8, r8)
     134:	000008ed 	.word	0x000008ed
     138:	00005acd 	.word	0x00005acd
     13c:	00006c69 	.word	0x00006c69
     140:	00007191 	.word	0x00007191
     144:	00008514 	.word	0x00008514
     148:	00006c35 	.word	0x00006c35
     14c:	00005a05 	.word	0x00005a05

00000150 <Dummy_Handler>:
     150:	e7fe      	b.n	150 <Dummy_Handler>
	...

00000154 <Reset_Handler>:
     154:	4821      	ldr	r0, [pc, #132]	; (1dc <Reset_Handler+0x88>)
     156:	4922      	ldr	r1, [pc, #136]	; (1e0 <Reset_Handler+0x8c>)
     158:	b570      	push	{r4, r5, r6, lr}
     15a:	4288      	cmp	r0, r1
     15c:	d004      	beq.n	168 <Reset_Handler+0x14>
     15e:	2300      	movs	r3, #0
     160:	4c20      	ldr	r4, [pc, #128]	; (1e4 <Reset_Handler+0x90>)
     162:	18ca      	adds	r2, r1, r3
     164:	42a2      	cmp	r2, r4
     166:	d332      	bcc.n	1ce <Reset_Handler+0x7a>
     168:	2100      	movs	r1, #0
     16a:	4b1f      	ldr	r3, [pc, #124]	; (1e8 <Reset_Handler+0x94>)
     16c:	4a1f      	ldr	r2, [pc, #124]	; (1ec <Reset_Handler+0x98>)
     16e:	4293      	cmp	r3, r2
     170:	d331      	bcc.n	1d6 <Reset_Handler+0x82>
     172:	21ff      	movs	r1, #255	; 0xff
     174:	4b1e      	ldr	r3, [pc, #120]	; (1f0 <Reset_Handler+0x9c>)
     176:	4a1f      	ldr	r2, [pc, #124]	; (1f4 <Reset_Handler+0xa0>)
     178:	438b      	bics	r3, r1
     17a:	6093      	str	r3, [r2, #8]
     17c:	2202      	movs	r2, #2
     17e:	250c      	movs	r5, #12
     180:	2408      	movs	r4, #8
     182:	2630      	movs	r6, #48	; 0x30
     184:	4b1c      	ldr	r3, [pc, #112]	; (1f8 <Reset_Handler+0xa4>)
     186:	481d      	ldr	r0, [pc, #116]	; (1fc <Reset_Handler+0xa8>)
     188:	625a      	str	r2, [r3, #36]	; 0x24
     18a:	78c3      	ldrb	r3, [r0, #3]
     18c:	39fc      	subs	r1, #252	; 0xfc
     18e:	438b      	bics	r3, r1
     190:	4313      	orrs	r3, r2
     192:	70c3      	strb	r3, [r0, #3]
     194:	78c3      	ldrb	r3, [r0, #3]
     196:	43ab      	bics	r3, r5
     198:	4323      	orrs	r3, r4
     19a:	70c3      	strb	r3, [r0, #3]
     19c:	4b18      	ldr	r3, [pc, #96]	; (200 <Reset_Handler+0xac>)
     19e:	7b98      	ldrb	r0, [r3, #14]
     1a0:	43b0      	bics	r0, r6
     1a2:	0006      	movs	r6, r0
     1a4:	2020      	movs	r0, #32
     1a6:	4330      	orrs	r0, r6
     1a8:	7398      	strb	r0, [r3, #14]
     1aa:	7b98      	ldrb	r0, [r3, #14]
     1ac:	43a8      	bics	r0, r5
     1ae:	4304      	orrs	r4, r0
     1b0:	739c      	strb	r4, [r3, #14]
     1b2:	7b98      	ldrb	r0, [r3, #14]
     1b4:	4388      	bics	r0, r1
     1b6:	4302      	orrs	r2, r0
     1b8:	739a      	strb	r2, [r3, #14]
     1ba:	2380      	movs	r3, #128	; 0x80
     1bc:	4a11      	ldr	r2, [pc, #68]	; (204 <Reset_Handler+0xb0>)
     1be:	6851      	ldr	r1, [r2, #4]
     1c0:	430b      	orrs	r3, r1
     1c2:	6053      	str	r3, [r2, #4]
     1c4:	4b10      	ldr	r3, [pc, #64]	; (208 <Reset_Handler+0xb4>)
     1c6:	4798      	blx	r3
     1c8:	4b10      	ldr	r3, [pc, #64]	; (20c <Reset_Handler+0xb8>)
     1ca:	4798      	blx	r3
     1cc:	e7fe      	b.n	1cc <Reset_Handler+0x78>
     1ce:	58c5      	ldr	r5, [r0, r3]
     1d0:	3304      	adds	r3, #4
     1d2:	6015      	str	r5, [r2, #0]
     1d4:	e7c5      	b.n	162 <Reset_Handler+0xe>
     1d6:	c302      	stmia	r3!, {r1}
     1d8:	e7c9      	b.n	16e <Reset_Handler+0x1a>
     1da:	46c0      	nop			; (mov r8, r8)
     1dc:	0000c474 	.word	0x0000c474
     1e0:	20000000 	.word	0x20000000
     1e4:	20000140 	.word	0x20000140
     1e8:	20000140 	.word	0x20000140
     1ec:	20000acc 	.word	0x20000acc
     1f0:	00000000 	.word	0x00000000
     1f4:	e000ed00 	.word	0xe000ed00
     1f8:	410070fc 	.word	0x410070fc
     1fc:	41005000 	.word	0x41005000
     200:	41004800 	.word	0x41004800
     204:	41004000 	.word	0x41004000
     208:	00007015 	.word	0x00007015
     20c:	00004af9 	.word	0x00004af9

00000210 <_gpio_set_pin_function>:
     210:	b570      	push	{r4, r5, r6, lr}
     212:	241f      	movs	r4, #31
     214:	0942      	lsrs	r2, r0, #5
     216:	b2c0      	uxtb	r0, r0
     218:	4004      	ands	r4, r0
     21a:	23ff      	movs	r3, #255	; 0xff
     21c:	1c4d      	adds	r5, r1, #1
     21e:	d109      	bne.n	234 <_gpio_set_pin_function+0x24>
     220:	401a      	ands	r2, r3
     222:	01d2      	lsls	r2, r2, #7
     224:	4b14      	ldr	r3, [pc, #80]	; (278 <_gpio_set_pin_function+0x68>)
     226:	18a2      	adds	r2, r4, r2
     228:	18d2      	adds	r2, r2, r3
     22a:	7813      	ldrb	r3, [r2, #0]
     22c:	3102      	adds	r1, #2
     22e:	438b      	bics	r3, r1
     230:	7013      	strb	r3, [r2, #0]
     232:	bd70      	pop	{r4, r5, r6, pc}
     234:	2501      	movs	r5, #1
     236:	4013      	ands	r3, r2
     238:	4a10      	ldr	r2, [pc, #64]	; (27c <_gpio_set_pin_function+0x6c>)
     23a:	01db      	lsls	r3, r3, #7
     23c:	189b      	adds	r3, r3, r2
     23e:	191e      	adds	r6, r3, r4
     240:	3640      	adds	r6, #64	; 0x40
     242:	7832      	ldrb	r2, [r6, #0]
     244:	43aa      	bics	r2, r5
     246:	432a      	orrs	r2, r5
     248:	7032      	strb	r2, [r6, #0]
     24a:	0862      	lsrs	r2, r4, #1
     24c:	4228      	tst	r0, r5
     24e:	d009      	beq.n	264 <_gpio_set_pin_function+0x54>
     250:	200f      	movs	r0, #15
     252:	189a      	adds	r2, r3, r2
     254:	3230      	adds	r2, #48	; 0x30
     256:	7813      	ldrb	r3, [r2, #0]
     258:	0109      	lsls	r1, r1, #4
     25a:	4003      	ands	r3, r0
     25c:	4319      	orrs	r1, r3
     25e:	b2c9      	uxtb	r1, r1
     260:	7011      	strb	r1, [r2, #0]
     262:	e7e6      	b.n	232 <_gpio_set_pin_function+0x22>
     264:	200f      	movs	r0, #15
     266:	189b      	adds	r3, r3, r2
     268:	3330      	adds	r3, #48	; 0x30
     26a:	781a      	ldrb	r2, [r3, #0]
     26c:	4001      	ands	r1, r0
     26e:	4382      	bics	r2, r0
     270:	4311      	orrs	r1, r2
     272:	7019      	strb	r1, [r3, #0]
     274:	e7dd      	b.n	232 <_gpio_set_pin_function+0x22>
     276:	46c0      	nop			; (mov r8, r8)
     278:	41004440 	.word	0x41004440
     27c:	41004400 	.word	0x41004400

00000280 <gpio_set_pin_pull_mode>:
     280:	221f      	movs	r2, #31
     282:	0943      	lsrs	r3, r0, #5
     284:	b510      	push	{r4, lr}
     286:	4010      	ands	r0, r2
     288:	2901      	cmp	r1, #1
     28a:	d00d      	beq.n	2a8 <gpio_set_pin_pull_mode+0x28>
     28c:	2900      	cmp	r1, #0
     28e:	d002      	beq.n	296 <gpio_set_pin_pull_mode+0x16>
     290:	2902      	cmp	r1, #2
     292:	d018      	beq.n	2c6 <gpio_set_pin_pull_mode+0x46>
     294:	bd10      	pop	{r4, pc}
     296:	2104      	movs	r1, #4
     298:	4a13      	ldr	r2, [pc, #76]	; (2e8 <gpio_set_pin_pull_mode+0x68>)
     29a:	01db      	lsls	r3, r3, #7
     29c:	18c3      	adds	r3, r0, r3
     29e:	189b      	adds	r3, r3, r2
     2a0:	781a      	ldrb	r2, [r3, #0]
     2a2:	438a      	bics	r2, r1
     2a4:	701a      	strb	r2, [r3, #0]
     2a6:	e7f5      	b.n	294 <gpio_set_pin_pull_mode+0x14>
     2a8:	22c0      	movs	r2, #192	; 0xc0
     2aa:	4081      	lsls	r1, r0
     2ac:	01db      	lsls	r3, r3, #7
     2ae:	05d2      	lsls	r2, r2, #23
     2b0:	189c      	adds	r4, r3, r2
     2b2:	4a0d      	ldr	r2, [pc, #52]	; (2e8 <gpio_set_pin_pull_mode+0x68>)
     2b4:	18c3      	adds	r3, r0, r3
     2b6:	189b      	adds	r3, r3, r2
     2b8:	2204      	movs	r2, #4
     2ba:	6061      	str	r1, [r4, #4]
     2bc:	7818      	ldrb	r0, [r3, #0]
     2be:	4302      	orrs	r2, r0
     2c0:	701a      	strb	r2, [r3, #0]
     2c2:	61a1      	str	r1, [r4, #24]
     2c4:	e7e6      	b.n	294 <gpio_set_pin_pull_mode+0x14>
     2c6:	2201      	movs	r2, #1
     2c8:	21c0      	movs	r1, #192	; 0xc0
     2ca:	4082      	lsls	r2, r0
     2cc:	01db      	lsls	r3, r3, #7
     2ce:	05c9      	lsls	r1, r1, #23
     2d0:	185c      	adds	r4, r3, r1
     2d2:	4905      	ldr	r1, [pc, #20]	; (2e8 <gpio_set_pin_pull_mode+0x68>)
     2d4:	18c3      	adds	r3, r0, r3
     2d6:	185b      	adds	r3, r3, r1
     2d8:	2104      	movs	r1, #4
     2da:	6062      	str	r2, [r4, #4]
     2dc:	7818      	ldrb	r0, [r3, #0]
     2de:	4301      	orrs	r1, r0
     2e0:	7019      	strb	r1, [r3, #0]
     2e2:	6162      	str	r2, [r4, #20]
     2e4:	e7d6      	b.n	294 <gpio_set_pin_pull_mode+0x14>
     2e6:	46c0      	nop			; (mov r8, r8)
     2e8:	41004440 	.word	0x41004440

000002ec <gpio_set_pin_direction>:
     2ec:	221f      	movs	r2, #31
     2ee:	0943      	lsrs	r3, r0, #5
     2f0:	4010      	ands	r0, r2
     2f2:	3a1e      	subs	r2, #30
     2f4:	4082      	lsls	r2, r0
     2f6:	2901      	cmp	r1, #1
     2f8:	d016      	beq.n	328 <gpio_set_pin_direction+0x3c>
     2fa:	2900      	cmp	r1, #0
     2fc:	d002      	beq.n	304 <gpio_set_pin_direction+0x18>
     2fe:	2902      	cmp	r1, #2
     300:	d020      	beq.n	344 <gpio_set_pin_direction+0x58>
     302:	4770      	bx	lr
     304:	21c0      	movs	r1, #192	; 0xc0
     306:	01db      	lsls	r3, r3, #7
     308:	05c9      	lsls	r1, r1, #23
     30a:	1859      	adds	r1, r3, r1
     30c:	604a      	str	r2, [r1, #4]
     30e:	2180      	movs	r1, #128	; 0x80
     310:	b290      	uxth	r0, r2
     312:	05c9      	lsls	r1, r1, #23
     314:	4301      	orrs	r1, r0
     316:	4813      	ldr	r0, [pc, #76]	; (364 <gpio_set_pin_direction+0x78>)
     318:	181b      	adds	r3, r3, r0
     31a:	6299      	str	r1, [r3, #40]	; 0x28
     31c:	0c11      	lsrs	r1, r2, #16
     31e:	22c0      	movs	r2, #192	; 0xc0
     320:	0612      	lsls	r2, r2, #24
     322:	430a      	orrs	r2, r1
     324:	629a      	str	r2, [r3, #40]	; 0x28
     326:	e7ec      	b.n	302 <gpio_set_pin_direction+0x16>
     328:	21c0      	movs	r1, #192	; 0xc0
     32a:	01db      	lsls	r3, r3, #7
     32c:	05c9      	lsls	r1, r1, #23
     32e:	1859      	adds	r1, r3, r1
     330:	604a      	str	r2, [r1, #4]
     332:	490d      	ldr	r1, [pc, #52]	; (368 <gpio_set_pin_direction+0x7c>)
     334:	b290      	uxth	r0, r2
     336:	4301      	orrs	r1, r0
     338:	480a      	ldr	r0, [pc, #40]	; (364 <gpio_set_pin_direction+0x78>)
     33a:	181b      	adds	r3, r3, r0
     33c:	6299      	str	r1, [r3, #40]	; 0x28
     33e:	0c11      	lsrs	r1, r2, #16
     340:	4a0a      	ldr	r2, [pc, #40]	; (36c <gpio_set_pin_direction+0x80>)
     342:	e7ee      	b.n	322 <gpio_set_pin_direction+0x36>
     344:	21c0      	movs	r1, #192	; 0xc0
     346:	01db      	lsls	r3, r3, #7
     348:	05c9      	lsls	r1, r1, #23
     34a:	1859      	adds	r1, r3, r1
     34c:	608a      	str	r2, [r1, #8]
     34e:	2180      	movs	r1, #128	; 0x80
     350:	b290      	uxth	r0, r2
     352:	05c9      	lsls	r1, r1, #23
     354:	4301      	orrs	r1, r0
     356:	4803      	ldr	r0, [pc, #12]	; (364 <gpio_set_pin_direction+0x78>)
     358:	0c12      	lsrs	r2, r2, #16
     35a:	181b      	adds	r3, r3, r0
     35c:	6299      	str	r1, [r3, #40]	; 0x28
     35e:	21c0      	movs	r1, #192	; 0xc0
     360:	0609      	lsls	r1, r1, #24
     362:	e7de      	b.n	322 <gpio_set_pin_direction+0x36>
     364:	41004400 	.word	0x41004400
     368:	40020000 	.word	0x40020000
     36c:	c0020000 	.word	0xc0020000

00000370 <ADC_0_init>:
     370:	2380      	movs	r3, #128	; 0x80
     372:	b5f0      	push	{r4, r5, r6, r7, lr}
     374:	4a13      	ldr	r2, [pc, #76]	; (3c4 <ADC_0_init+0x54>)
     376:	025b      	lsls	r3, r3, #9
     378:	6a11      	ldr	r1, [r2, #32]
     37a:	b085      	sub	sp, #20
     37c:	430b      	orrs	r3, r1
     37e:	6213      	str	r3, [r2, #32]
     380:	4a11      	ldr	r2, [pc, #68]	; (3c8 <ADC_0_init+0x58>)
     382:	4b12      	ldr	r3, [pc, #72]	; (3cc <ADC_0_init+0x5c>)
     384:	2400      	movs	r4, #0
     386:	805a      	strh	r2, [r3, #2]
     388:	4b11      	ldr	r3, [pc, #68]	; (3d0 <ADC_0_init+0x60>)
     38a:	4d12      	ldr	r5, [pc, #72]	; (3d4 <ADC_0_init+0x64>)
     38c:	9301      	str	r3, [sp, #4]
     38e:	2301      	movs	r3, #1
     390:	4e11      	ldr	r6, [pc, #68]	; (3d8 <ADC_0_init+0x68>)
     392:	9300      	str	r3, [sp, #0]
     394:	002a      	movs	r2, r5
     396:	0023      	movs	r3, r4
     398:	9402      	str	r4, [sp, #8]
     39a:	4910      	ldr	r1, [pc, #64]	; (3dc <ADC_0_init+0x6c>)
     39c:	0030      	movs	r0, r6
     39e:	4f10      	ldr	r7, [pc, #64]	; (3e0 <ADC_0_init+0x70>)
     3a0:	47b8      	blx	r7
     3a2:	1c6a      	adds	r2, r5, #1
     3a4:	0021      	movs	r1, r4
     3a6:	2310      	movs	r3, #16
     3a8:	0030      	movs	r0, r6
     3aa:	4d0e      	ldr	r5, [pc, #56]	; (3e4 <ADC_0_init+0x74>)
     3ac:	47a8      	blx	r5
     3ae:	0021      	movs	r1, r4
     3b0:	2003      	movs	r0, #3
     3b2:	4b0d      	ldr	r3, [pc, #52]	; (3e8 <ADC_0_init+0x78>)
     3b4:	4798      	blx	r3
     3b6:	490d      	ldr	r1, [pc, #52]	; (3ec <ADC_0_init+0x7c>)
     3b8:	2003      	movs	r0, #3
     3ba:	4b0d      	ldr	r3, [pc, #52]	; (3f0 <ADC_0_init+0x80>)
     3bc:	4798      	blx	r3
     3be:	b005      	add	sp, #20
     3c0:	bdf0      	pop	{r4, r5, r6, r7, pc}
     3c2:	46c0      	nop			; (mov r8, r8)
     3c4:	40000400 	.word	0x40000400
     3c8:	0000401e 	.word	0x0000401e
     3cc:	40000c00 	.word	0x40000c00
     3d0:	2000096c 	.word	0x2000096c
     3d4:	2000015c 	.word	0x2000015c
     3d8:	2000091c 	.word	0x2000091c
     3dc:	42004000 	.word	0x42004000
     3e0:	00000bc5 	.word	0x00000bc5
     3e4:	00000c11 	.word	0x00000c11
     3e8:	000002ed 	.word	0x000002ed
     3ec:	00030001 	.word	0x00030001
     3f0:	00000211 	.word	0x00000211

000003f4 <EXTERNAL_IRQ_0_init>:
     3f4:	b5f8      	push	{r3, r4, r5, r6, r7, lr}
     3f6:	4a63      	ldr	r2, [pc, #396]	; (584 <EXTERNAL_IRQ_0_init+0x190>)
     3f8:	4b63      	ldr	r3, [pc, #396]	; (588 <EXTERNAL_IRQ_0_init+0x194>)
     3fa:	4e64      	ldr	r6, [pc, #400]	; (58c <EXTERNAL_IRQ_0_init+0x198>)
     3fc:	805a      	strh	r2, [r3, #2]
     3fe:	2101      	movs	r1, #1
     400:	2020      	movs	r0, #32
     402:	47b0      	blx	r6
     404:	4b62      	ldr	r3, [pc, #392]	; (590 <EXTERNAL_IRQ_0_init+0x19c>)
     406:	2102      	movs	r1, #2
     408:	2020      	movs	r0, #32
     40a:	4798      	blx	r3
     40c:	2180      	movs	r1, #128	; 0x80
     40e:	4c61      	ldr	r4, [pc, #388]	; (594 <EXTERNAL_IRQ_0_init+0x1a0>)
     410:	0389      	lsls	r1, r1, #14
     412:	2020      	movs	r0, #32
     414:	47a0      	blx	r4
     416:	2101      	movs	r1, #1
     418:	2021      	movs	r0, #33	; 0x21
     41a:	47b0      	blx	r6
     41c:	4b5c      	ldr	r3, [pc, #368]	; (590 <EXTERNAL_IRQ_0_init+0x19c>)
     41e:	2102      	movs	r1, #2
     420:	2021      	movs	r0, #33	; 0x21
     422:	4798      	blx	r3
     424:	2184      	movs	r1, #132	; 0x84
     426:	4d5c      	ldr	r5, [pc, #368]	; (598 <EXTERNAL_IRQ_0_init+0x1a4>)
     428:	0389      	lsls	r1, r1, #14
     42a:	2021      	movs	r0, #33	; 0x21
     42c:	47a0      	blx	r4
     42e:	2101      	movs	r1, #1
     430:	2022      	movs	r0, #34	; 0x22
     432:	47b0      	blx	r6
     434:	002a      	movs	r2, r5
     436:	2704      	movs	r7, #4
     438:	2188      	movs	r1, #136	; 0x88
     43a:	32c2      	adds	r2, #194	; 0xc2
     43c:	7813      	ldrb	r3, [r2, #0]
     43e:	0389      	lsls	r1, r1, #14
     440:	43bb      	bics	r3, r7
     442:	7013      	strb	r3, [r2, #0]
     444:	2022      	movs	r0, #34	; 0x22
     446:	47a0      	blx	r4
     448:	2101      	movs	r1, #1
     44a:	2023      	movs	r0, #35	; 0x23
     44c:	47b0      	blx	r6
     44e:	4b50      	ldr	r3, [pc, #320]	; (590 <EXTERNAL_IRQ_0_init+0x19c>)
     450:	2101      	movs	r1, #1
     452:	2023      	movs	r0, #35	; 0x23
     454:	4798      	blx	r3
     456:	218c      	movs	r1, #140	; 0x8c
     458:	2023      	movs	r0, #35	; 0x23
     45a:	0389      	lsls	r1, r1, #14
     45c:	47a0      	blx	r4
     45e:	2101      	movs	r1, #1
     460:	2029      	movs	r0, #41	; 0x29
     462:	47b0      	blx	r6
     464:	002a      	movs	r2, r5
     466:	2180      	movs	r1, #128	; 0x80
     468:	32c9      	adds	r2, #201	; 0xc9
     46a:	7813      	ldrb	r3, [r2, #0]
     46c:	02c9      	lsls	r1, r1, #11
     46e:	43bb      	bics	r3, r7
     470:	7013      	strb	r3, [r2, #0]
     472:	2029      	movs	r0, #41	; 0x29
     474:	47a0      	blx	r4
     476:	2101      	movs	r1, #1
     478:	202e      	movs	r0, #46	; 0x2e
     47a:	47b0      	blx	r6
     47c:	002a      	movs	r2, r5
     47e:	21a0      	movs	r1, #160	; 0xa0
     480:	32ce      	adds	r2, #206	; 0xce
     482:	7813      	ldrb	r3, [r2, #0]
     484:	02c9      	lsls	r1, r1, #11
     486:	43bb      	bics	r3, r7
     488:	7013      	strb	r3, [r2, #0]
     48a:	202e      	movs	r0, #46	; 0x2e
     48c:	47a0      	blx	r4
     48e:	0038      	movs	r0, r7
     490:	2101      	movs	r1, #1
     492:	47b0      	blx	r6
     494:	002a      	movs	r2, r5
     496:	21c0      	movs	r1, #192	; 0xc0
     498:	3244      	adds	r2, #68	; 0x44
     49a:	7813      	ldrb	r3, [r2, #0]
     49c:	0038      	movs	r0, r7
     49e:	43bb      	bics	r3, r7
     4a0:	7013      	strb	r3, [r2, #0]
     4a2:	02c9      	lsls	r1, r1, #11
     4a4:	47a0      	blx	r4
     4a6:	2101      	movs	r1, #1
     4a8:	202d      	movs	r0, #45	; 0x2d
     4aa:	47b0      	blx	r6
     4ac:	002a      	movs	r2, r5
     4ae:	21e0      	movs	r1, #224	; 0xe0
     4b0:	32cd      	adds	r2, #205	; 0xcd
     4b2:	7813      	ldrb	r3, [r2, #0]
     4b4:	02c9      	lsls	r1, r1, #11
     4b6:	43bb      	bics	r3, r7
     4b8:	7013      	strb	r3, [r2, #0]
     4ba:	202d      	movs	r0, #45	; 0x2d
     4bc:	47a0      	blx	r4
     4be:	2101      	movs	r1, #1
     4c0:	2028      	movs	r0, #40	; 0x28
     4c2:	47b0      	blx	r6
     4c4:	002a      	movs	r2, r5
     4c6:	21a0      	movs	r1, #160	; 0xa0
     4c8:	32c8      	adds	r2, #200	; 0xc8
     4ca:	7813      	ldrb	r3, [r2, #0]
     4cc:	0389      	lsls	r1, r1, #14
     4ce:	43bb      	bics	r3, r7
     4d0:	7013      	strb	r3, [r2, #0]
     4d2:	2028      	movs	r0, #40	; 0x28
     4d4:	47a0      	blx	r4
     4d6:	2101      	movs	r1, #1
     4d8:	202f      	movs	r0, #47	; 0x2f
     4da:	47b0      	blx	r6
     4dc:	002a      	movs	r2, r5
     4de:	21a4      	movs	r1, #164	; 0xa4
     4e0:	32cf      	adds	r2, #207	; 0xcf
     4e2:	7813      	ldrb	r3, [r2, #0]
     4e4:	0389      	lsls	r1, r1, #14
     4e6:	43bb      	bics	r3, r7
     4e8:	7013      	strb	r3, [r2, #0]
     4ea:	202f      	movs	r0, #47	; 0x2f
     4ec:	47a0      	blx	r4
     4ee:	2101      	movs	r1, #1
     4f0:	2005      	movs	r0, #5
     4f2:	47b0      	blx	r6
     4f4:	002a      	movs	r2, r5
     4f6:	21a8      	movs	r1, #168	; 0xa8
     4f8:	3245      	adds	r2, #69	; 0x45
     4fa:	7813      	ldrb	r3, [r2, #0]
     4fc:	0389      	lsls	r1, r1, #14
     4fe:	43bb      	bics	r3, r7
     500:	7013      	strb	r3, [r2, #0]
     502:	2005      	movs	r0, #5
     504:	47a0      	blx	r4
     506:	2101      	movs	r1, #1
     508:	202c      	movs	r0, #44	; 0x2c
     50a:	47b0      	blx	r6
     50c:	002a      	movs	r2, r5
     50e:	21ac      	movs	r1, #172	; 0xac
     510:	32cc      	adds	r2, #204	; 0xcc
     512:	7813      	ldrb	r3, [r2, #0]
     514:	0389      	lsls	r1, r1, #14
     516:	43bb      	bics	r3, r7
     518:	7013      	strb	r3, [r2, #0]
     51a:	202c      	movs	r0, #44	; 0x2c
     51c:	47a0      	blx	r4
     51e:	2101      	movs	r1, #1
     520:	2006      	movs	r0, #6
     522:	47b0      	blx	r6
     524:	002a      	movs	r2, r5
     526:	21b0      	movs	r1, #176	; 0xb0
     528:	3246      	adds	r2, #70	; 0x46
     52a:	7813      	ldrb	r3, [r2, #0]
     52c:	0389      	lsls	r1, r1, #14
     52e:	43bb      	bics	r3, r7
     530:	7013      	strb	r3, [r2, #0]
     532:	2006      	movs	r0, #6
     534:	47a0      	blx	r4
     536:	2101      	movs	r1, #1
     538:	202b      	movs	r0, #43	; 0x2b
     53a:	47b0      	blx	r6
     53c:	002a      	movs	r2, r5
     53e:	21b4      	movs	r1, #180	; 0xb4
     540:	32cb      	adds	r2, #203	; 0xcb
     542:	7813      	ldrb	r3, [r2, #0]
     544:	0389      	lsls	r1, r1, #14
     546:	43bb      	bics	r3, r7
     548:	7013      	strb	r3, [r2, #0]
     54a:	202b      	movs	r0, #43	; 0x2b
     54c:	47a0      	blx	r4
     54e:	2101      	movs	r1, #1
     550:	2007      	movs	r0, #7
     552:	47b0      	blx	r6
     554:	002a      	movs	r2, r5
     556:	21b8      	movs	r1, #184	; 0xb8
     558:	3247      	adds	r2, #71	; 0x47
     55a:	7813      	ldrb	r3, [r2, #0]
     55c:	0389      	lsls	r1, r1, #14
     55e:	43bb      	bics	r3, r7
     560:	7013      	strb	r3, [r2, #0]
     562:	2007      	movs	r0, #7
     564:	47a0      	blx	r4
     566:	2101      	movs	r1, #1
     568:	202a      	movs	r0, #42	; 0x2a
     56a:	47b0      	blx	r6
     56c:	21bc      	movs	r1, #188	; 0xbc
     56e:	35ca      	adds	r5, #202	; 0xca
     570:	782b      	ldrb	r3, [r5, #0]
     572:	0389      	lsls	r1, r1, #14
     574:	43bb      	bics	r3, r7
     576:	702b      	strb	r3, [r5, #0]
     578:	202a      	movs	r0, #42	; 0x2a
     57a:	47a0      	blx	r4
     57c:	4b07      	ldr	r3, [pc, #28]	; (59c <EXTERNAL_IRQ_0_init+0x1a8>)
     57e:	4798      	blx	r3
     580:	bdf8      	pop	{r3, r4, r5, r6, r7, pc}
     582:	46c0      	nop			; (mov r8, r8)
     584:	00004005 	.word	0x00004005
     588:	40000c00 	.word	0x40000c00
     58c:	000002ed 	.word	0x000002ed
     590:	00000281 	.word	0x00000281
     594:	00000211 	.word	0x00000211
     598:	41004400 	.word	0x41004400
     59c:	00000e99 	.word	0x00000e99

000005a0 <FLASH_0_CLOCK_init>:
     5a0:	2304      	movs	r3, #4
     5a2:	4a02      	ldr	r2, [pc, #8]	; (5ac <FLASH_0_CLOCK_init+0xc>)
     5a4:	69d1      	ldr	r1, [r2, #28]
     5a6:	430b      	orrs	r3, r1
     5a8:	61d3      	str	r3, [r2, #28]
     5aa:	4770      	bx	lr
     5ac:	40000400 	.word	0x40000400

000005b0 <FLASH_0_init>:
     5b0:	b510      	push	{r4, lr}
     5b2:	4b03      	ldr	r3, [pc, #12]	; (5c0 <FLASH_0_init+0x10>)
     5b4:	4798      	blx	r3
     5b6:	4903      	ldr	r1, [pc, #12]	; (5c4 <FLASH_0_init+0x14>)
     5b8:	4803      	ldr	r0, [pc, #12]	; (5c8 <FLASH_0_init+0x18>)
     5ba:	4b04      	ldr	r3, [pc, #16]	; (5cc <FLASH_0_init+0x1c>)
     5bc:	4798      	blx	r3
     5be:	bd10      	pop	{r4, pc}
     5c0:	000005a1 	.word	0x000005a1
     5c4:	41004000 	.word	0x41004000
     5c8:	20000900 	.word	0x20000900
     5cc:	00000f5d 	.word	0x00000f5d

000005d0 <SPI_0_PORT_init>:
     5d0:	b570      	push	{r4, r5, r6, lr}
     5d2:	2380      	movs	r3, #128	; 0x80
     5d4:	26c0      	movs	r6, #192	; 0xc0
     5d6:	005b      	lsls	r3, r3, #1
     5d8:	05f6      	lsls	r6, r6, #23
     5da:	6173      	str	r3, [r6, #20]
     5dc:	4d0e      	ldr	r5, [pc, #56]	; (618 <SPI_0_PORT_init+0x48>)
     5de:	2102      	movs	r1, #2
     5e0:	2008      	movs	r0, #8
     5e2:	47a8      	blx	r5
     5e4:	4c0d      	ldr	r4, [pc, #52]	; (61c <SPI_0_PORT_init+0x4c>)
     5e6:	490e      	ldr	r1, [pc, #56]	; (620 <SPI_0_PORT_init+0x50>)
     5e8:	2008      	movs	r0, #8
     5ea:	47a0      	blx	r4
     5ec:	2380      	movs	r3, #128	; 0x80
     5ee:	009b      	lsls	r3, r3, #2
     5f0:	6173      	str	r3, [r6, #20]
     5f2:	2102      	movs	r1, #2
     5f4:	2009      	movs	r0, #9
     5f6:	47a8      	blx	r5
     5f8:	490a      	ldr	r1, [pc, #40]	; (624 <SPI_0_PORT_init+0x54>)
     5fa:	2009      	movs	r0, #9
     5fc:	47a0      	blx	r4
     5fe:	2101      	movs	r1, #1
     600:	200b      	movs	r0, #11
     602:	47a8      	blx	r5
     604:	2104      	movs	r1, #4
     606:	4a08      	ldr	r2, [pc, #32]	; (628 <SPI_0_PORT_init+0x58>)
     608:	200b      	movs	r0, #11
     60a:	7813      	ldrb	r3, [r2, #0]
     60c:	438b      	bics	r3, r1
     60e:	7013      	strb	r3, [r2, #0]
     610:	4906      	ldr	r1, [pc, #24]	; (62c <SPI_0_PORT_init+0x5c>)
     612:	47a0      	blx	r4
     614:	bd70      	pop	{r4, r5, r6, pc}
     616:	46c0      	nop			; (mov r8, r8)
     618:	000002ed 	.word	0x000002ed
     61c:	00000211 	.word	0x00000211
     620:	00080002 	.word	0x00080002
     624:	00090002 	.word	0x00090002
     628:	4100444b 	.word	0x4100444b
     62c:	000b0002 	.word	0x000b0002

00000630 <SPI_0_CLOCK_init>:
     630:	2304      	movs	r3, #4
     632:	4a04      	ldr	r2, [pc, #16]	; (644 <SPI_0_CLOCK_init+0x14>)
     634:	6a11      	ldr	r1, [r2, #32]
     636:	430b      	orrs	r3, r1
     638:	6213      	str	r3, [r2, #32]
     63a:	4a03      	ldr	r2, [pc, #12]	; (648 <SPI_0_CLOCK_init+0x18>)
     63c:	4b03      	ldr	r3, [pc, #12]	; (64c <SPI_0_CLOCK_init+0x1c>)
     63e:	805a      	strh	r2, [r3, #2]
     640:	4770      	bx	lr
     642:	46c0      	nop			; (mov r8, r8)
     644:	40000400 	.word	0x40000400
     648:	00004014 	.word	0x00004014
     64c:	40000c00 	.word	0x40000c00

00000650 <SPI_0_init>:
     650:	b510      	push	{r4, lr}
     652:	4b04      	ldr	r3, [pc, #16]	; (664 <SPI_0_init+0x14>)
     654:	4798      	blx	r3
     656:	4904      	ldr	r1, [pc, #16]	; (668 <SPI_0_init+0x18>)
     658:	4b04      	ldr	r3, [pc, #16]	; (66c <SPI_0_init+0x1c>)
     65a:	4805      	ldr	r0, [pc, #20]	; (670 <SPI_0_init+0x20>)
     65c:	4798      	blx	r3
     65e:	4b05      	ldr	r3, [pc, #20]	; (674 <SPI_0_init+0x24>)
     660:	4798      	blx	r3
     662:	bd10      	pop	{r4, pc}
     664:	00000631 	.word	0x00000631
     668:	42000800 	.word	0x42000800
     66c:	0000116d 	.word	0x0000116d
     670:	20000984 	.word	0x20000984
     674:	000005d1 	.word	0x000005d1

00000678 <USART_1_CLOCK_init>:
     678:	2308      	movs	r3, #8
     67a:	4a04      	ldr	r2, [pc, #16]	; (68c <USART_1_CLOCK_init+0x14>)
     67c:	6a11      	ldr	r1, [r2, #32]
     67e:	430b      	orrs	r3, r1
     680:	6213      	str	r3, [r2, #32]
     682:	4a03      	ldr	r2, [pc, #12]	; (690 <USART_1_CLOCK_init+0x18>)
     684:	4b03      	ldr	r3, [pc, #12]	; (694 <USART_1_CLOCK_init+0x1c>)
     686:	805a      	strh	r2, [r3, #2]
     688:	4770      	bx	lr
     68a:	46c0      	nop			; (mov r8, r8)
     68c:	40000400 	.word	0x40000400
     690:	00004015 	.word	0x00004015
     694:	40000c00 	.word	0x40000c00

00000698 <USART_1_PORT_init>:
     698:	b510      	push	{r4, lr}
     69a:	4904      	ldr	r1, [pc, #16]	; (6ac <USART_1_PORT_init+0x14>)
     69c:	4c04      	ldr	r4, [pc, #16]	; (6b0 <USART_1_PORT_init+0x18>)
     69e:	2010      	movs	r0, #16
     6a0:	47a0      	blx	r4
     6a2:	4904      	ldr	r1, [pc, #16]	; (6b4 <USART_1_PORT_init+0x1c>)
     6a4:	2011      	movs	r0, #17
     6a6:	47a0      	blx	r4
     6a8:	bd10      	pop	{r4, pc}
     6aa:	46c0      	nop			; (mov r8, r8)
     6ac:	00100002 	.word	0x00100002
     6b0:	00000211 	.word	0x00000211
     6b4:	00110002 	.word	0x00110002

000006b8 <USART_1_init>:
     6b8:	b513      	push	{r0, r1, r4, lr}
     6ba:	4b07      	ldr	r3, [pc, #28]	; (6d8 <USART_1_init+0x20>)
     6bc:	4798      	blx	r3
     6be:	2300      	movs	r3, #0
     6c0:	4a06      	ldr	r2, [pc, #24]	; (6dc <USART_1_init+0x24>)
     6c2:	9300      	str	r3, [sp, #0]
     6c4:	3211      	adds	r2, #17
     6c6:	4906      	ldr	r1, [pc, #24]	; (6e0 <USART_1_init+0x28>)
     6c8:	3310      	adds	r3, #16
     6ca:	4c06      	ldr	r4, [pc, #24]	; (6e4 <USART_1_init+0x2c>)
     6cc:	4806      	ldr	r0, [pc, #24]	; (6e8 <USART_1_init+0x30>)
     6ce:	47a0      	blx	r4
     6d0:	4b06      	ldr	r3, [pc, #24]	; (6ec <USART_1_init+0x34>)
     6d2:	4798      	blx	r3
     6d4:	bd13      	pop	{r0, r1, r4, pc}
     6d6:	46c0      	nop			; (mov r8, r8)
     6d8:	00000679 	.word	0x00000679
     6dc:	2000015c 	.word	0x2000015c
     6e0:	42000c00 	.word	0x42000c00
     6e4:	0000146d 	.word	0x0000146d
     6e8:	200009a8 	.word	0x200009a8
     6ec:	00000699 	.word	0x00000699

000006f0 <I2C_0_PORT_init>:
     6f0:	b570      	push	{r4, r5, r6, lr}
     6f2:	4c09      	ldr	r4, [pc, #36]	; (718 <I2C_0_PORT_init+0x28>)
     6f4:	2604      	movs	r6, #4
     6f6:	0022      	movs	r2, r4
     6f8:	3256      	adds	r2, #86	; 0x56
     6fa:	7813      	ldrb	r3, [r2, #0]
     6fc:	4d07      	ldr	r5, [pc, #28]	; (71c <I2C_0_PORT_init+0x2c>)
     6fe:	43b3      	bics	r3, r6
     700:	7013      	strb	r3, [r2, #0]
     702:	3457      	adds	r4, #87	; 0x57
     704:	4906      	ldr	r1, [pc, #24]	; (720 <I2C_0_PORT_init+0x30>)
     706:	2016      	movs	r0, #22
     708:	47a8      	blx	r5
     70a:	7823      	ldrb	r3, [r4, #0]
     70c:	4905      	ldr	r1, [pc, #20]	; (724 <I2C_0_PORT_init+0x34>)
     70e:	43b3      	bics	r3, r6
     710:	7023      	strb	r3, [r4, #0]
     712:	2017      	movs	r0, #23
     714:	47a8      	blx	r5
     716:	bd70      	pop	{r4, r5, r6, pc}
     718:	41004400 	.word	0x41004400
     71c:	00000211 	.word	0x00000211
     720:	00160002 	.word	0x00160002
     724:	00170002 	.word	0x00170002

00000728 <I2C_0_CLOCK_init>:
     728:	2320      	movs	r3, #32
     72a:	4a05      	ldr	r2, [pc, #20]	; (740 <I2C_0_CLOCK_init+0x18>)
     72c:	6a11      	ldr	r1, [r2, #32]
     72e:	430b      	orrs	r3, r1
     730:	6213      	str	r3, [r2, #32]
     732:	4b04      	ldr	r3, [pc, #16]	; (744 <I2C_0_CLOCK_init+0x1c>)
     734:	4a04      	ldr	r2, [pc, #16]	; (748 <I2C_0_CLOCK_init+0x20>)
     736:	805a      	strh	r2, [r3, #2]
     738:	4a04      	ldr	r2, [pc, #16]	; (74c <I2C_0_CLOCK_init+0x24>)
     73a:	805a      	strh	r2, [r3, #2]
     73c:	4770      	bx	lr
     73e:	46c0      	nop			; (mov r8, r8)
     740:	40000400 	.word	0x40000400
     744:	40000c00 	.word	0x40000c00
     748:	00004017 	.word	0x00004017
     74c:	00004313 	.word	0x00004313

00000750 <I2C_0_init>:
     750:	b510      	push	{r4, lr}
     752:	4b04      	ldr	r3, [pc, #16]	; (764 <I2C_0_init+0x14>)
     754:	4798      	blx	r3
     756:	4904      	ldr	r1, [pc, #16]	; (768 <I2C_0_init+0x18>)
     758:	4b04      	ldr	r3, [pc, #16]	; (76c <I2C_0_init+0x1c>)
     75a:	4805      	ldr	r0, [pc, #20]	; (770 <I2C_0_init+0x20>)
     75c:	4798      	blx	r3
     75e:	4b05      	ldr	r3, [pc, #20]	; (774 <I2C_0_init+0x24>)
     760:	4798      	blx	r3
     762:	bd10      	pop	{r4, pc}
     764:	00000729 	.word	0x00000729
     768:	42001400 	.word	0x42001400
     76c:	00001139 	.word	0x00001139
     770:	200009f8 	.word	0x200009f8
     774:	000006f1 	.word	0x000006f1

00000778 <USART_0_PORT_init>:
     778:	b510      	push	{r4, lr}
     77a:	4904      	ldr	r1, [pc, #16]	; (78c <USART_0_PORT_init+0x14>)
     77c:	4c04      	ldr	r4, [pc, #16]	; (790 <USART_0_PORT_init+0x18>)
     77e:	2036      	movs	r0, #54	; 0x36
     780:	47a0      	blx	r4
     782:	4904      	ldr	r1, [pc, #16]	; (794 <USART_0_PORT_init+0x1c>)
     784:	2037      	movs	r0, #55	; 0x37
     786:	47a0      	blx	r4
     788:	bd10      	pop	{r4, pc}
     78a:	46c0      	nop			; (mov r8, r8)
     78c:	00360003 	.word	0x00360003
     790:	00000211 	.word	0x00000211
     794:	00370003 	.word	0x00370003

00000798 <USART_0_CLOCK_init>:
     798:	2380      	movs	r3, #128	; 0x80
     79a:	4a04      	ldr	r2, [pc, #16]	; (7ac <USART_0_CLOCK_init+0x14>)
     79c:	6a11      	ldr	r1, [r2, #32]
     79e:	430b      	orrs	r3, r1
     7a0:	6213      	str	r3, [r2, #32]
     7a2:	4a03      	ldr	r2, [pc, #12]	; (7b0 <USART_0_CLOCK_init+0x18>)
     7a4:	4b03      	ldr	r3, [pc, #12]	; (7b4 <USART_0_CLOCK_init+0x1c>)
     7a6:	805a      	strh	r2, [r3, #2]
     7a8:	4770      	bx	lr
     7aa:	46c0      	nop			; (mov r8, r8)
     7ac:	40000400 	.word	0x40000400
     7b0:	00004019 	.word	0x00004019
     7b4:	40000c00 	.word	0x40000c00

000007b8 <USART_0_init>:
     7b8:	b510      	push	{r4, lr}
     7ba:	4b05      	ldr	r3, [pc, #20]	; (7d0 <USART_0_init+0x18>)
     7bc:	4798      	blx	r3
     7be:	2200      	movs	r2, #0
     7c0:	4904      	ldr	r1, [pc, #16]	; (7d4 <USART_0_init+0x1c>)
     7c2:	4b05      	ldr	r3, [pc, #20]	; (7d8 <USART_0_init+0x20>)
     7c4:	4805      	ldr	r0, [pc, #20]	; (7dc <USART_0_init+0x24>)
     7c6:	4798      	blx	r3
     7c8:	4b05      	ldr	r3, [pc, #20]	; (7e0 <USART_0_init+0x28>)
     7ca:	4798      	blx	r3
     7cc:	bd10      	pop	{r4, pc}
     7ce:	46c0      	nop			; (mov r8, r8)
     7d0:	00000799 	.word	0x00000799
     7d4:	42001c00 	.word	0x42001c00
     7d8:	000015c1 	.word	0x000015c1
     7dc:	2000099c 	.word	0x2000099c
     7e0:	00000779 	.word	0x00000779

000007e4 <DAC_0_PORT_init>:
     7e4:	b510      	push	{r4, lr}
     7e6:	2100      	movs	r1, #0
     7e8:	2002      	movs	r0, #2
     7ea:	4b03      	ldr	r3, [pc, #12]	; (7f8 <DAC_0_PORT_init+0x14>)
     7ec:	4798      	blx	r3
     7ee:	4903      	ldr	r1, [pc, #12]	; (7fc <DAC_0_PORT_init+0x18>)
     7f0:	2002      	movs	r0, #2
     7f2:	4b03      	ldr	r3, [pc, #12]	; (800 <DAC_0_PORT_init+0x1c>)
     7f4:	4798      	blx	r3
     7f6:	bd10      	pop	{r4, pc}
     7f8:	000002ed 	.word	0x000002ed
     7fc:	00020001 	.word	0x00020001
     800:	00000211 	.word	0x00000211

00000804 <DAC_0_CLOCK_init>:
     804:	2380      	movs	r3, #128	; 0x80
     806:	4a04      	ldr	r2, [pc, #16]	; (818 <DAC_0_CLOCK_init+0x14>)
     808:	02db      	lsls	r3, r3, #11
     80a:	6a11      	ldr	r1, [r2, #32]
     80c:	430b      	orrs	r3, r1
     80e:	6213      	str	r3, [r2, #32]
     810:	4a02      	ldr	r2, [pc, #8]	; (81c <DAC_0_CLOCK_init+0x18>)
     812:	4b03      	ldr	r3, [pc, #12]	; (820 <DAC_0_CLOCK_init+0x1c>)
     814:	805a      	strh	r2, [r3, #2]
     816:	4770      	bx	lr
     818:	40000400 	.word	0x40000400
     81c:	00004021 	.word	0x00004021
     820:	40000c00 	.word	0x40000c00

00000824 <DAC_0_init>:
     824:	b510      	push	{r4, lr}
     826:	4b04      	ldr	r3, [pc, #16]	; (838 <DAC_0_init+0x14>)
     828:	4798      	blx	r3
     82a:	4904      	ldr	r1, [pc, #16]	; (83c <DAC_0_init+0x18>)
     82c:	4b04      	ldr	r3, [pc, #16]	; (840 <DAC_0_init+0x1c>)
     82e:	4805      	ldr	r0, [pc, #20]	; (844 <DAC_0_init+0x20>)
     830:	4798      	blx	r3
     832:	4b05      	ldr	r3, [pc, #20]	; (848 <DAC_0_init+0x24>)
     834:	4798      	blx	r3
     836:	bd10      	pop	{r4, pc}
     838:	00000805 	.word	0x00000805
     83c:	42004800 	.word	0x42004800
     840:	00000da1 	.word	0x00000da1
     844:	20000948 	.word	0x20000948
     848:	000007e5 	.word	0x000007e5

0000084c <USB_0_PORT_init>:
     84c:	b5f8      	push	{r3, r4, r5, r6, r7, lr}
     84e:	2102      	movs	r1, #2
     850:	4f10      	ldr	r7, [pc, #64]	; (894 <USB_0_PORT_init+0x48>)
     852:	2018      	movs	r0, #24
     854:	4c10      	ldr	r4, [pc, #64]	; (898 <USB_0_PORT_init+0x4c>)
     856:	47b8      	blx	r7
     858:	26c0      	movs	r6, #192	; 0xc0
     85a:	2380      	movs	r3, #128	; 0x80
     85c:	0022      	movs	r2, r4
     85e:	2504      	movs	r5, #4
     860:	05f6      	lsls	r6, r6, #23
     862:	045b      	lsls	r3, r3, #17
     864:	3258      	adds	r2, #88	; 0x58
     866:	6173      	str	r3, [r6, #20]
     868:	7813      	ldrb	r3, [r2, #0]
     86a:	490c      	ldr	r1, [pc, #48]	; (89c <USB_0_PORT_init+0x50>)
     86c:	43ab      	bics	r3, r5
     86e:	7013      	strb	r3, [r2, #0]
     870:	2018      	movs	r0, #24
     872:	4b0b      	ldr	r3, [pc, #44]	; (8a0 <USB_0_PORT_init+0x54>)
     874:	4798      	blx	r3
     876:	2102      	movs	r1, #2
     878:	2019      	movs	r0, #25
     87a:	47b8      	blx	r7
     87c:	2380      	movs	r3, #128	; 0x80
     87e:	049b      	lsls	r3, r3, #18
     880:	6173      	str	r3, [r6, #20]
     882:	3459      	adds	r4, #89	; 0x59
     884:	7823      	ldrb	r3, [r4, #0]
     886:	4907      	ldr	r1, [pc, #28]	; (8a4 <USB_0_PORT_init+0x58>)
     888:	43ab      	bics	r3, r5
     88a:	7023      	strb	r3, [r4, #0]
     88c:	2019      	movs	r0, #25
     88e:	4b04      	ldr	r3, [pc, #16]	; (8a0 <USB_0_PORT_init+0x54>)
     890:	4798      	blx	r3
     892:	bdf8      	pop	{r3, r4, r5, r6, r7, pc}
     894:	000002ed 	.word	0x000002ed
     898:	41004400 	.word	0x41004400
     89c:	00180006 	.word	0x00180006
     8a0:	00000211 	.word	0x00000211
     8a4:	00190006 	.word	0x00190006

000008a8 <USB_0_CLOCK_init>:
     8a8:	2220      	movs	r2, #32
     8aa:	4b06      	ldr	r3, [pc, #24]	; (8c4 <USB_0_CLOCK_init+0x1c>)
     8ac:	69d9      	ldr	r1, [r3, #28]
     8ae:	430a      	orrs	r2, r1
     8b0:	61da      	str	r2, [r3, #28]
     8b2:	2240      	movs	r2, #64	; 0x40
     8b4:	6959      	ldr	r1, [r3, #20]
     8b6:	430a      	orrs	r2, r1
     8b8:	615a      	str	r2, [r3, #20]
     8ba:	4a03      	ldr	r2, [pc, #12]	; (8c8 <USB_0_CLOCK_init+0x20>)
     8bc:	4b03      	ldr	r3, [pc, #12]	; (8cc <USB_0_CLOCK_init+0x24>)
     8be:	805a      	strh	r2, [r3, #2]
     8c0:	4770      	bx	lr
     8c2:	46c0      	nop			; (mov r8, r8)
     8c4:	40000400 	.word	0x40000400
     8c8:	00004706 	.word	0x00004706
     8cc:	40000c00 	.word	0x40000c00

000008d0 <USB_0_init>:
     8d0:	b510      	push	{r4, lr}
     8d2:	4b03      	ldr	r3, [pc, #12]	; (8e0 <USB_0_init+0x10>)
     8d4:	4798      	blx	r3
     8d6:	4b03      	ldr	r3, [pc, #12]	; (8e4 <USB_0_init+0x14>)
     8d8:	4798      	blx	r3
     8da:	4b03      	ldr	r3, [pc, #12]	; (8e8 <USB_0_init+0x18>)
     8dc:	4798      	blx	r3
     8de:	bd10      	pop	{r4, pc}
     8e0:	000008a9 	.word	0x000008a9
     8e4:	000017d5 	.word	0x000017d5
     8e8:	0000084d 	.word	0x0000084d

000008ec <system_init>:
     8ec:	b5f8      	push	{r3, r4, r5, r6, r7, lr}
     8ee:	4b84      	ldr	r3, [pc, #528]	; (b00 <system_init+0x214>)
     8f0:	4798      	blx	r3
     8f2:	27c0      	movs	r7, #192	; 0xc0
     8f4:	2380      	movs	r3, #128	; 0x80
     8f6:	4d83      	ldr	r5, [pc, #524]	; (b04 <system_init+0x218>)
     8f8:	05ff      	lsls	r7, r7, #23
     8fa:	00db      	lsls	r3, r3, #3
     8fc:	4e82      	ldr	r6, [pc, #520]	; (b08 <system_init+0x21c>)
     8fe:	617b      	str	r3, [r7, #20]
     900:	2102      	movs	r1, #2
     902:	200a      	movs	r0, #10
     904:	47b0      	blx	r6
     906:	002a      	movs	r2, r5
     908:	2401      	movs	r4, #1
     90a:	324a      	adds	r2, #74	; 0x4a
     90c:	7813      	ldrb	r3, [r2, #0]
     90e:	0021      	movs	r1, r4
     910:	43a3      	bics	r3, r4
     912:	7013      	strb	r3, [r2, #0]
     914:	200c      	movs	r0, #12
     916:	47b0      	blx	r6
     918:	0021      	movs	r1, r4
     91a:	200c      	movs	r0, #12
     91c:	4b7b      	ldr	r3, [pc, #492]	; (b0c <system_init+0x220>)
     91e:	4798      	blx	r3
     920:	002a      	movs	r2, r5
     922:	324c      	adds	r2, #76	; 0x4c
     924:	7813      	ldrb	r3, [r2, #0]
     926:	2102      	movs	r1, #2
     928:	43a3      	bics	r3, r4
     92a:	7013      	strb	r3, [r2, #0]
     92c:	2380      	movs	r3, #128	; 0x80
     92e:	019b      	lsls	r3, r3, #6
     930:	617b      	str	r3, [r7, #20]
     932:	200d      	movs	r0, #13
     934:	47b0      	blx	r6
     936:	002a      	movs	r2, r5
     938:	324d      	adds	r2, #77	; 0x4d
     93a:	7813      	ldrb	r3, [r2, #0]
     93c:	2102      	movs	r1, #2
     93e:	43a3      	bics	r3, r4
     940:	7013      	strb	r3, [r2, #0]
     942:	2380      	movs	r3, #128	; 0x80
     944:	035b      	lsls	r3, r3, #13
     946:	617b      	str	r3, [r7, #20]
     948:	2014      	movs	r0, #20
     94a:	47b0      	blx	r6
     94c:	002a      	movs	r2, r5
     94e:	3254      	adds	r2, #84	; 0x54
     950:	7813      	ldrb	r3, [r2, #0]
     952:	2102      	movs	r1, #2
     954:	43a3      	bics	r3, r4
     956:	7013      	strb	r3, [r2, #0]
     958:	2380      	movs	r3, #128	; 0x80
     95a:	039b      	lsls	r3, r3, #14
     95c:	617b      	str	r3, [r7, #20]
     95e:	2015      	movs	r0, #21
     960:	47b0      	blx	r6
     962:	002a      	movs	r2, r5
     964:	3255      	adds	r2, #85	; 0x55
     966:	7813      	ldrb	r3, [r2, #0]
     968:	2102      	movs	r1, #2
     96a:	43a3      	bics	r3, r4
     96c:	7013      	strb	r3, [r2, #0]
     96e:	2012      	movs	r0, #18
     970:	47b0      	blx	r6
     972:	2380      	movs	r3, #128	; 0x80
     974:	002a      	movs	r2, r5
     976:	2104      	movs	r1, #4
     978:	02db      	lsls	r3, r3, #11
     97a:	3252      	adds	r2, #82	; 0x52
     97c:	617b      	str	r3, [r7, #20]
     97e:	7813      	ldrb	r3, [r2, #0]
     980:	2012      	movs	r0, #18
     982:	438b      	bics	r3, r1
     984:	7013      	strb	r3, [r2, #0]
     986:	3902      	subs	r1, #2
     988:	4b61      	ldr	r3, [pc, #388]	; (b10 <system_init+0x224>)
     98a:	4798      	blx	r3
     98c:	0021      	movs	r1, r4
     98e:	2013      	movs	r0, #19
     990:	47b0      	blx	r6
     992:	2102      	movs	r1, #2
     994:	2013      	movs	r0, #19
     996:	4b5d      	ldr	r3, [pc, #372]	; (b0c <system_init+0x220>)
     998:	4798      	blx	r3
     99a:	002a      	movs	r2, r5
     99c:	3253      	adds	r2, #83	; 0x53
     99e:	7813      	ldrb	r3, [r2, #0]
     9a0:	2102      	movs	r1, #2
     9a2:	43a3      	bics	r3, r4
     9a4:	7013      	strb	r3, [r2, #0]
     9a6:	2380      	movs	r3, #128	; 0x80
     9a8:	01db      	lsls	r3, r3, #7
     9aa:	617b      	str	r3, [r7, #20]
     9ac:	200e      	movs	r0, #14
     9ae:	47b0      	blx	r6
     9b0:	002a      	movs	r2, r5
     9b2:	324e      	adds	r2, #78	; 0x4e
     9b4:	7813      	ldrb	r3, [r2, #0]
     9b6:	2102      	movs	r1, #2
     9b8:	43a3      	bics	r3, r4
     9ba:	7013      	strb	r3, [r2, #0]
     9bc:	2380      	movs	r3, #128	; 0x80
     9be:	021b      	lsls	r3, r3, #8
     9c0:	617b      	str	r3, [r7, #20]
     9c2:	200f      	movs	r0, #15
     9c4:	47b0      	blx	r6
     9c6:	002a      	movs	r2, r5
     9c8:	324f      	adds	r2, #79	; 0x4f
     9ca:	7813      	ldrb	r3, [r2, #0]
     9cc:	0021      	movs	r1, r4
     9ce:	43a3      	bics	r3, r4
     9d0:	7013      	strb	r3, [r2, #0]
     9d2:	201b      	movs	r0, #27
     9d4:	47b0      	blx	r6
     9d6:	0021      	movs	r1, r4
     9d8:	201b      	movs	r0, #27
     9da:	4b4c      	ldr	r3, [pc, #304]	; (b0c <system_init+0x220>)
     9dc:	4798      	blx	r3
     9de:	002a      	movs	r2, r5
     9e0:	325b      	adds	r2, #91	; 0x5b
     9e2:	7813      	ldrb	r3, [r2, #0]
     9e4:	2102      	movs	r1, #2
     9e6:	43a3      	bics	r3, r4
     9e8:	7013      	strb	r3, [r2, #0]
     9ea:	2380      	movs	r3, #128	; 0x80
     9ec:	055b      	lsls	r3, r3, #21
     9ee:	617b      	str	r3, [r7, #20]
     9f0:	201c      	movs	r0, #28
     9f2:	47b0      	blx	r6
     9f4:	002a      	movs	r2, r5
     9f6:	325c      	adds	r2, #92	; 0x5c
     9f8:	7813      	ldrb	r3, [r2, #0]
     9fa:	0021      	movs	r1, r4
     9fc:	43a3      	bics	r3, r4
     9fe:	7013      	strb	r3, [r2, #0]
     a00:	2024      	movs	r0, #36	; 0x24
     a02:	47b0      	blx	r6
     a04:	2102      	movs	r1, #2
     a06:	2024      	movs	r0, #36	; 0x24
     a08:	4b40      	ldr	r3, [pc, #256]	; (b0c <system_init+0x220>)
     a0a:	4798      	blx	r3
     a0c:	002a      	movs	r2, r5
     a0e:	32c4      	adds	r2, #196	; 0xc4
     a10:	7813      	ldrb	r3, [r2, #0]
     a12:	0021      	movs	r1, r4
     a14:	43a3      	bics	r3, r4
     a16:	7013      	strb	r3, [r2, #0]
     a18:	2025      	movs	r0, #37	; 0x25
     a1a:	47b0      	blx	r6
     a1c:	2102      	movs	r1, #2
     a1e:	2025      	movs	r0, #37	; 0x25
     a20:	4b3a      	ldr	r3, [pc, #232]	; (b0c <system_init+0x220>)
     a22:	4798      	blx	r3
     a24:	002a      	movs	r2, r5
     a26:	32c5      	adds	r2, #197	; 0xc5
     a28:	7813      	ldrb	r3, [r2, #0]
     a2a:	0021      	movs	r1, r4
     a2c:	43a3      	bics	r3, r4
     a2e:	7013      	strb	r3, [r2, #0]
     a30:	2026      	movs	r0, #38	; 0x26
     a32:	47b0      	blx	r6
     a34:	0021      	movs	r1, r4
     a36:	2026      	movs	r0, #38	; 0x26
     a38:	4b34      	ldr	r3, [pc, #208]	; (b0c <system_init+0x220>)
     a3a:	4798      	blx	r3
     a3c:	002a      	movs	r2, r5
     a3e:	32c6      	adds	r2, #198	; 0xc6
     a40:	7813      	ldrb	r3, [r2, #0]
     a42:	0021      	movs	r1, r4
     a44:	43a3      	bics	r3, r4
     a46:	7013      	strb	r3, [r2, #0]
     a48:	2027      	movs	r0, #39	; 0x27
     a4a:	47b0      	blx	r6
     a4c:	0021      	movs	r1, r4
     a4e:	2027      	movs	r0, #39	; 0x27
     a50:	4b2e      	ldr	r3, [pc, #184]	; (b0c <system_init+0x220>)
     a52:	4798      	blx	r3
     a54:	002a      	movs	r2, r5
     a56:	32c7      	adds	r2, #199	; 0xc7
     a58:	7813      	ldrb	r3, [r2, #0]
     a5a:	3794      	adds	r7, #148	; 0x94
     a5c:	43a3      	bics	r3, r4
     a5e:	7013      	strb	r3, [r2, #0]
     a60:	2380      	movs	r3, #128	; 0x80
     a62:	029b      	lsls	r3, r3, #10
     a64:	603b      	str	r3, [r7, #0]
     a66:	2102      	movs	r1, #2
     a68:	2031      	movs	r0, #49	; 0x31
     a6a:	47b0      	blx	r6
     a6c:	002a      	movs	r2, r5
     a6e:	32d1      	adds	r2, #209	; 0xd1
     a70:	7813      	ldrb	r3, [r2, #0]
     a72:	2102      	movs	r1, #2
     a74:	43a3      	bics	r3, r4
     a76:	7013      	strb	r3, [r2, #0]
     a78:	2380      	movs	r3, #128	; 0x80
     a7a:	025b      	lsls	r3, r3, #9
     a7c:	603b      	str	r3, [r7, #0]
     a7e:	2030      	movs	r0, #48	; 0x30
     a80:	47b0      	blx	r6
     a82:	002a      	movs	r2, r5
     a84:	32d0      	adds	r2, #208	; 0xd0
     a86:	7813      	ldrb	r3, [r2, #0]
     a88:	0021      	movs	r1, r4
     a8a:	43a3      	bics	r3, r4
     a8c:	7013      	strb	r3, [r2, #0]
     a8e:	203e      	movs	r0, #62	; 0x3e
     a90:	47b0      	blx	r6
     a92:	0021      	movs	r1, r4
     a94:	203e      	movs	r0, #62	; 0x3e
     a96:	4b1d      	ldr	r3, [pc, #116]	; (b0c <system_init+0x220>)
     a98:	4798      	blx	r3
     a9a:	002a      	movs	r2, r5
     a9c:	32de      	adds	r2, #222	; 0xde
     a9e:	7813      	ldrb	r3, [r2, #0]
     aa0:	0021      	movs	r1, r4
     aa2:	43a3      	bics	r3, r4
     aa4:	203f      	movs	r0, #63	; 0x3f
     aa6:	7013      	strb	r3, [r2, #0]
     aa8:	47b0      	blx	r6
     aaa:	2204      	movs	r2, #4
     aac:	35df      	adds	r5, #223	; 0xdf
     aae:	782b      	ldrb	r3, [r5, #0]
     ab0:	4393      	bics	r3, r2
     ab2:	702b      	strb	r3, [r5, #0]
     ab4:	782b      	ldrb	r3, [r5, #0]
     ab6:	43a3      	bics	r3, r4
     ab8:	702b      	strb	r3, [r5, #0]
     aba:	4b16      	ldr	r3, [pc, #88]	; (b14 <system_init+0x228>)
     abc:	4798      	blx	r3
     abe:	4b16      	ldr	r3, [pc, #88]	; (b18 <system_init+0x22c>)
     ac0:	4798      	blx	r3
     ac2:	4b16      	ldr	r3, [pc, #88]	; (b1c <system_init+0x230>)
     ac4:	4798      	blx	r3
     ac6:	4b16      	ldr	r3, [pc, #88]	; (b20 <system_init+0x234>)
     ac8:	4798      	blx	r3
     aca:	4b16      	ldr	r3, [pc, #88]	; (b24 <system_init+0x238>)
     acc:	4798      	blx	r3
     ace:	4b16      	ldr	r3, [pc, #88]	; (b28 <system_init+0x23c>)
     ad0:	4798      	blx	r3
     ad2:	4b16      	ldr	r3, [pc, #88]	; (b2c <system_init+0x240>)
     ad4:	4798      	blx	r3
     ad6:	2320      	movs	r3, #32
     ad8:	4a15      	ldr	r2, [pc, #84]	; (b30 <system_init+0x244>)
     ada:	6991      	ldr	r1, [r2, #24]
     adc:	430b      	orrs	r3, r1
     ade:	6193      	str	r3, [r2, #24]
     ae0:	4a14      	ldr	r2, [pc, #80]	; (b34 <system_init+0x248>)
     ae2:	4b15      	ldr	r3, [pc, #84]	; (b38 <system_init+0x24c>)
     ae4:	805a      	strh	r2, [r3, #2]
     ae6:	4b15      	ldr	r3, [pc, #84]	; (b3c <system_init+0x250>)
     ae8:	4798      	blx	r3
     aea:	4915      	ldr	r1, [pc, #84]	; (b40 <system_init+0x254>)
     aec:	0002      	movs	r2, r0
     aee:	4b15      	ldr	r3, [pc, #84]	; (b44 <system_init+0x258>)
     af0:	4815      	ldr	r0, [pc, #84]	; (b48 <system_init+0x25c>)
     af2:	4798      	blx	r3
     af4:	4b15      	ldr	r3, [pc, #84]	; (b4c <system_init+0x260>)
     af6:	4798      	blx	r3
     af8:	4b15      	ldr	r3, [pc, #84]	; (b50 <system_init+0x264>)
     afa:	4798      	blx	r3
     afc:	bdf8      	pop	{r3, r4, r5, r6, r7, pc}
     afe:	46c0      	nop			; (mov r8, r8)
     b00:	00001dbd 	.word	0x00001dbd
     b04:	41004400 	.word	0x41004400
     b08:	000002ed 	.word	0x000002ed
     b0c:	00000281 	.word	0x00000281
     b10:	00000211 	.word	0x00000211
     b14:	00000371 	.word	0x00000371
     b18:	000003f5 	.word	0x000003f5
     b1c:	000005b1 	.word	0x000005b1
     b20:	00000651 	.word	0x00000651
     b24:	000006b9 	.word	0x000006b9
     b28:	00000751 	.word	0x00000751
     b2c:	000007b9 	.word	0x000007b9
     b30:	40000400 	.word	0x40000400
     b34:	00004004 	.word	0x00004004
     b38:	40000c00 	.word	0x40000c00
     b3c:	00002463 	.word	0x00002463
     b40:	40001400 	.word	0x40001400
     b44:	000012ad 	.word	0x000012ad
     b48:	20000a18 	.word	0x20000a18
     b4c:	00000825 	.word	0x00000825
     b50:	000008d1 	.word	0x000008d1

00000b54 <adc_async_window_threshold_reached>:
     b54:	6983      	ldr	r3, [r0, #24]
     b56:	b510      	push	{r4, lr}
     b58:	2b00      	cmp	r3, #0
     b5a:	d000      	beq.n	b5e <adc_async_window_threshold_reached+0xa>
     b5c:	4798      	blx	r3
     b5e:	bd10      	pop	{r4, pc}

00000b60 <adc_async_error_occured>:
     b60:	69c3      	ldr	r3, [r0, #28]
     b62:	b510      	push	{r4, lr}
     b64:	2b00      	cmp	r3, #0
     b66:	d000      	beq.n	b6a <adc_async_error_occured+0xa>
     b68:	4798      	blx	r3
     b6a:	bd10      	pop	{r4, pc}

00000b6c <adc_async_channel_conversion_done>:
     b6c:	b5f7      	push	{r0, r1, r2, r4, r5, r6, r7, lr}
     b6e:	2418      	movs	r4, #24
     b70:	6a03      	ldr	r3, [r0, #32]
     b72:	0005      	movs	r5, r0
     b74:	5c5b      	ldrb	r3, [r3, r1]
     b76:	9201      	str	r2, [sp, #4]
     b78:	435c      	muls	r4, r3
     b7a:	6a83      	ldr	r3, [r0, #40]	; 0x28
     b7c:	000e      	movs	r6, r1
     b7e:	191c      	adds	r4, r3, r4
     b80:	466b      	mov	r3, sp
     b82:	1d27      	adds	r7, r4, #4
     b84:	7919      	ldrb	r1, [r3, #4]
     b86:	0038      	movs	r0, r7
     b88:	4b0c      	ldr	r3, [pc, #48]	; (bbc <adc_async_channel_conversion_done+0x50>)
     b8a:	4798      	blx	r3
     b8c:	0028      	movs	r0, r5
     b8e:	4b0c      	ldr	r3, [pc, #48]	; (bc0 <adc_async_channel_conversion_done+0x54>)
     b90:	4798      	blx	r3
     b92:	2801      	cmp	r0, #1
     b94:	d907      	bls.n	ba6 <adc_async_channel_conversion_done+0x3a>
     b96:	9b01      	ldr	r3, [sp, #4]
     b98:	0038      	movs	r0, r7
     b9a:	0a19      	lsrs	r1, r3, #8
     b9c:	4b07      	ldr	r3, [pc, #28]	; (bbc <adc_async_channel_conversion_done+0x50>)
     b9e:	4798      	blx	r3
     ba0:	8aa3      	ldrh	r3, [r4, #20]
     ba2:	3301      	adds	r3, #1
     ba4:	82a3      	strh	r3, [r4, #20]
     ba6:	8aa3      	ldrh	r3, [r4, #20]
     ba8:	3301      	adds	r3, #1
     baa:	82a3      	strh	r3, [r4, #20]
     bac:	6823      	ldr	r3, [r4, #0]
     bae:	2b00      	cmp	r3, #0
     bb0:	d002      	beq.n	bb8 <adc_async_channel_conversion_done+0x4c>
     bb2:	0031      	movs	r1, r6
     bb4:	0028      	movs	r0, r5
     bb6:	4798      	blx	r3
     bb8:	bdf7      	pop	{r0, r1, r2, r4, r5, r6, r7, pc}
     bba:	46c0      	nop			; (mov r8, r8)
     bbc:	00001b67 	.word	0x00001b67
     bc0:	00001cd1 	.word	0x00001cd1

00000bc4 <adc_async_init>:
     bc4:	b570      	push	{r4, r5, r6, lr}
     bc6:	0004      	movs	r4, r0
     bc8:	a804      	add	r0, sp, #16
     bca:	7805      	ldrb	r5, [r0, #0]
     bcc:	26ff      	movs	r6, #255	; 0xff
     bce:	2000      	movs	r0, #0
     bd0:	5416      	strb	r6, [r2, r0]
     bd2:	3001      	adds	r0, #1
     bd4:	b2c0      	uxtb	r0, r0
     bd6:	4283      	cmp	r3, r0
     bd8:	d2fa      	bcs.n	bd0 <adc_async_init+0xc>
     bda:	6222      	str	r2, [r4, #32]
     bdc:	1d62      	adds	r2, r4, #5
     bde:	77d3      	strb	r3, [r2, #31]
     be0:	1da3      	adds	r3, r4, #6
     be2:	77dd      	strb	r5, [r3, #31]
     be4:	9b05      	ldr	r3, [sp, #20]
     be6:	0020      	movs	r0, r4
     be8:	62a3      	str	r3, [r4, #40]	; 0x28
     bea:	4b05      	ldr	r3, [pc, #20]	; (c00 <adc_async_init+0x3c>)
     bec:	4798      	blx	r3
     bee:	2800      	cmp	r0, #0
     bf0:	d105      	bne.n	bfe <adc_async_init+0x3a>
     bf2:	4b04      	ldr	r3, [pc, #16]	; (c04 <adc_async_init+0x40>)
     bf4:	60a3      	str	r3, [r4, #8]
     bf6:	4b04      	ldr	r3, [pc, #16]	; (c08 <adc_async_init+0x44>)
     bf8:	6023      	str	r3, [r4, #0]
     bfa:	4b04      	ldr	r3, [pc, #16]	; (c0c <adc_async_init+0x48>)
     bfc:	6063      	str	r3, [r4, #4]
     bfe:	bd70      	pop	{r4, r5, r6, pc}
     c00:	00001c79 	.word	0x00001c79
     c04:	00000b6d 	.word	0x00000b6d
     c08:	00000b55 	.word	0x00000b55
     c0c:	00000b61 	.word	0x00000b61

00000c10 <adc_async_register_channel_buffer>:
     c10:	b5f7      	push	{r0, r1, r2, r4, r5, r6, r7, lr}
     c12:	000e      	movs	r6, r1
     c14:	0011      	movs	r1, r2
     c16:	6a02      	ldr	r2, [r0, #32]
     c18:	0005      	movs	r5, r0
     c1a:	5d90      	ldrb	r0, [r2, r6]
     c1c:	9301      	str	r3, [sp, #4]
     c1e:	28ff      	cmp	r0, #255	; 0xff
     c20:	d120      	bne.n	c64 <adc_async_register_channel_buffer+0x54>
     c22:	2400      	movs	r4, #0
     c24:	1d68      	adds	r0, r5, #5
     c26:	7fc7      	ldrb	r7, [r0, #31]
     c28:	0020      	movs	r0, r4
     c2a:	5c13      	ldrb	r3, [r2, r0]
     c2c:	2bff      	cmp	r3, #255	; 0xff
     c2e:	d001      	beq.n	c34 <adc_async_register_channel_buffer+0x24>
     c30:	3401      	adds	r4, #1
     c32:	b2e4      	uxtb	r4, r4
     c34:	3001      	adds	r0, #1
     c36:	b2c0      	uxtb	r0, r0
     c38:	4287      	cmp	r7, r0
     c3a:	d2f6      	bcs.n	c2a <adc_async_register_channel_buffer+0x1a>
     c3c:	1daa      	adds	r2, r5, #6
     c3e:	7fd2      	ldrb	r2, [r2, #31]
     c40:	42a2      	cmp	r2, r4
     c42:	d312      	bcc.n	c6a <adc_async_register_channel_buffer+0x5a>
     c44:	2718      	movs	r7, #24
     c46:	4367      	muls	r7, r4
     c48:	6aab      	ldr	r3, [r5, #40]	; 0x28
     c4a:	9a01      	ldr	r2, [sp, #4]
     c4c:	19d8      	adds	r0, r3, r7
     c4e:	3004      	adds	r0, #4
     c50:	4b07      	ldr	r3, [pc, #28]	; (c70 <adc_async_register_channel_buffer+0x60>)
     c52:	4798      	blx	r3
     c54:	2800      	cmp	r0, #0
     c56:	d105      	bne.n	c64 <adc_async_register_channel_buffer+0x54>
     c58:	6a2b      	ldr	r3, [r5, #32]
     c5a:	559c      	strb	r4, [r3, r6]
     c5c:	6aab      	ldr	r3, [r5, #40]	; 0x28
     c5e:	19df      	adds	r7, r3, r7
     c60:	82b8      	strh	r0, [r7, #20]
     c62:	bdfe      	pop	{r1, r2, r3, r4, r5, r6, r7, pc}
     c64:	200d      	movs	r0, #13
     c66:	4240      	negs	r0, r0
     c68:	e7fb      	b.n	c62 <adc_async_register_channel_buffer+0x52>
     c6a:	201c      	movs	r0, #28
     c6c:	e7fb      	b.n	c66 <adc_async_register_channel_buffer+0x56>
     c6e:	46c0      	nop			; (mov r8, r8)
     c70:	00001b2d 	.word	0x00001b2d

00000c74 <adc_async_enable_channel>:
     c74:	b510      	push	{r4, lr}
     c76:	4b02      	ldr	r3, [pc, #8]	; (c80 <adc_async_enable_channel+0xc>)
     c78:	4798      	blx	r3
     c7a:	2000      	movs	r0, #0
     c7c:	bd10      	pop	{r4, pc}
     c7e:	46c0      	nop			; (mov r8, r8)
     c80:	00001cc5 	.word	0x00001cc5

00000c84 <adc_async_register_callback>:
     c84:	b570      	push	{r4, r5, r6, lr}
     c86:	2a01      	cmp	r2, #1
     c88:	d013      	beq.n	cb2 <adc_async_register_callback+0x2e>
     c8a:	2a00      	cmp	r2, #0
     c8c:	d004      	beq.n	c98 <adc_async_register_callback+0x14>
     c8e:	2a02      	cmp	r2, #2
     c90:	d011      	beq.n	cb6 <adc_async_register_callback+0x32>
     c92:	200d      	movs	r0, #13
     c94:	4240      	negs	r0, r0
     c96:	e00b      	b.n	cb0 <adc_async_register_callback+0x2c>
     c98:	6a04      	ldr	r4, [r0, #32]
     c9a:	5c65      	ldrb	r5, [r4, r1]
     c9c:	2418      	movs	r4, #24
     c9e:	436c      	muls	r4, r5
     ca0:	6a85      	ldr	r5, [r0, #40]	; 0x28
     ca2:	5163      	str	r3, [r4, r5]
     ca4:	1e5c      	subs	r4, r3, #1
     ca6:	41a3      	sbcs	r3, r4
     ca8:	4c04      	ldr	r4, [pc, #16]	; (cbc <adc_async_register_callback+0x38>)
     caa:	b2db      	uxtb	r3, r3
     cac:	47a0      	blx	r4
     cae:	2000      	movs	r0, #0
     cb0:	bd70      	pop	{r4, r5, r6, pc}
     cb2:	6183      	str	r3, [r0, #24]
     cb4:	e7f6      	b.n	ca4 <adc_async_register_callback+0x20>
     cb6:	61c3      	str	r3, [r0, #28]
     cb8:	e7f4      	b.n	ca4 <adc_async_register_callback+0x20>
     cba:	46c0      	nop			; (mov r8, r8)
     cbc:	00001d09 	.word	0x00001d09

00000cc0 <adc_async_read_channel>:
     cc0:	b5f0      	push	{r4, r5, r6, r7, lr}
     cc2:	0007      	movs	r7, r0
     cc4:	000c      	movs	r4, r1
     cc6:	b085      	sub	sp, #20
     cc8:	001e      	movs	r6, r3
     cca:	4b15      	ldr	r3, [pc, #84]	; (d20 <adc_async_read_channel+0x60>)
     ccc:	0015      	movs	r5, r2
     cce:	4798      	blx	r3
     cd0:	6a3b      	ldr	r3, [r7, #32]
     cd2:	a803      	add	r0, sp, #12
     cd4:	5d1b      	ldrb	r3, [r3, r4]
     cd6:	2418      	movs	r4, #24
     cd8:	435c      	muls	r4, r3
     cda:	6abb      	ldr	r3, [r7, #40]	; 0x28
     cdc:	191c      	adds	r4, r3, r4
     cde:	4b11      	ldr	r3, [pc, #68]	; (d24 <adc_async_read_channel+0x64>)
     ce0:	4798      	blx	r3
     ce2:	1d23      	adds	r3, r4, #4
     ce4:	9300      	str	r3, [sp, #0]
     ce6:	0018      	movs	r0, r3
     ce8:	4b0f      	ldr	r3, [pc, #60]	; (d28 <adc_async_read_channel+0x68>)
     cea:	4798      	blx	r3
     cec:	4b0f      	ldr	r3, [pc, #60]	; (d2c <adc_async_read_channel+0x6c>)
     cee:	0007      	movs	r7, r0
     cf0:	a803      	add	r0, sp, #12
     cf2:	4798      	blx	r3
     cf4:	19ab      	adds	r3, r5, r6
     cf6:	002e      	movs	r6, r5
     cf8:	19ef      	adds	r7, r5, r7
     cfa:	9301      	str	r3, [sp, #4]
     cfc:	1b70      	subs	r0, r6, r5
     cfe:	b280      	uxth	r0, r0
     d00:	42be      	cmp	r6, r7
     d02:	d002      	beq.n	d0a <adc_async_read_channel+0x4a>
     d04:	9b01      	ldr	r3, [sp, #4]
     d06:	429e      	cmp	r6, r3
     d08:	d104      	bne.n	d14 <adc_async_read_channel+0x54>
     d0a:	8aa3      	ldrh	r3, [r4, #20]
     d0c:	1a1b      	subs	r3, r3, r0
     d0e:	82a3      	strh	r3, [r4, #20]
     d10:	b005      	add	sp, #20
     d12:	bdf0      	pop	{r4, r5, r6, r7, pc}
     d14:	0031      	movs	r1, r6
     d16:	9800      	ldr	r0, [sp, #0]
     d18:	4b05      	ldr	r3, [pc, #20]	; (d30 <adc_async_read_channel+0x70>)
     d1a:	4798      	blx	r3
     d1c:	3601      	adds	r6, #1
     d1e:	e7ed      	b.n	cfc <adc_async_read_channel+0x3c>
     d20:	00001cd1 	.word	0x00001cd1
     d24:	00000d45 	.word	0x00000d45
     d28:	00001b89 	.word	0x00001b89
     d2c:	00000d53 	.word	0x00000d53
     d30:	00001b45 	.word	0x00001b45

00000d34 <adc_async_start_conversion>:
     d34:	b510      	push	{r4, lr}
     d36:	4b02      	ldr	r3, [pc, #8]	; (d40 <adc_async_start_conversion+0xc>)
     d38:	4798      	blx	r3
     d3a:	2000      	movs	r0, #0
     d3c:	bd10      	pop	{r4, pc}
     d3e:	46c0      	nop			; (mov r8, r8)
     d40:	00001cf1 	.word	0x00001cf1

00000d44 <atomic_enter_critical>:
     d44:	f3ef 8310 	mrs	r3, PRIMASK
     d48:	6003      	str	r3, [r0, #0]
     d4a:	b672      	cpsid	i
     d4c:	f3bf 8f5f 	dmb	sy
     d50:	4770      	bx	lr

00000d52 <atomic_leave_critical>:
     d52:	f3bf 8f5f 	dmb	sy
     d56:	6803      	ldr	r3, [r0, #0]
     d58:	f383 8810 	msr	PRIMASK, r3
     d5c:	4770      	bx	lr

00000d5e <dac_tx_error>:
     d5e:	3808      	subs	r0, #8
     d60:	6843      	ldr	r3, [r0, #4]
     d62:	b510      	push	{r4, lr}
     d64:	2b00      	cmp	r3, #0
     d66:	d000      	beq.n	d6a <dac_tx_error+0xc>
     d68:	4798      	blx	r3
     d6a:	bd10      	pop	{r4, pc}

00000d6c <dac_tx_ready>:
     d6c:	00cb      	lsls	r3, r1, #3
     d6e:	18c3      	adds	r3, r0, r3
     d70:	b510      	push	{r4, lr}
     d72:	699c      	ldr	r4, [r3, #24]
     d74:	000a      	movs	r2, r1
     d76:	2c00      	cmp	r4, #0
     d78:	d009      	beq.n	d8e <dac_tx_ready+0x22>
     d7a:	3c01      	subs	r4, #1
     d7c:	619c      	str	r4, [r3, #24]
     d7e:	2c00      	cmp	r4, #0
     d80:	d006      	beq.n	d90 <dac_tx_ready+0x24>
     d82:	6959      	ldr	r1, [r3, #20]
     d84:	1c8c      	adds	r4, r1, #2
     d86:	615c      	str	r4, [r3, #20]
     d88:	8849      	ldrh	r1, [r1, #2]
     d8a:	4b04      	ldr	r3, [pc, #16]	; (d9c <dac_tx_ready+0x30>)
     d8c:	4798      	blx	r3
     d8e:	bd10      	pop	{r4, pc}
     d90:	3808      	subs	r0, #8
     d92:	6803      	ldr	r3, [r0, #0]
     d94:	2b00      	cmp	r3, #0
     d96:	d0fa      	beq.n	d8e <dac_tx_ready+0x22>
     d98:	4798      	blx	r3
     d9a:	e7f8      	b.n	d8e <dac_tx_ready+0x22>
     d9c:	00001eed 	.word	0x00001eed

00000da0 <dac_async_init>:
     da0:	b510      	push	{r4, lr}
     da2:	4b06      	ldr	r3, [pc, #24]	; (dbc <dac_async_init+0x1c>)
     da4:	0004      	movs	r4, r0
     da6:	3008      	adds	r0, #8
     da8:	4798      	blx	r3
     daa:	2800      	cmp	r0, #0
     dac:	d105      	bne.n	dba <dac_async_init+0x1a>
     dae:	4b04      	ldr	r3, [pc, #16]	; (dc0 <dac_async_init+0x20>)
     db0:	61e0      	str	r0, [r4, #28]
     db2:	60a3      	str	r3, [r4, #8]
     db4:	4b03      	ldr	r3, [pc, #12]	; (dc4 <dac_async_init+0x24>)
     db6:	6220      	str	r0, [r4, #32]
     db8:	60e3      	str	r3, [r4, #12]
     dba:	bd10      	pop	{r4, pc}
     dbc:	00001e79 	.word	0x00001e79
     dc0:	00000d6d 	.word	0x00000d6d
     dc4:	00000d5f 	.word	0x00000d5f

00000dc8 <dac_async_enable_channel>:
     dc8:	b510      	push	{r4, lr}
     dca:	3008      	adds	r0, #8
     dcc:	4b01      	ldr	r3, [pc, #4]	; (dd4 <dac_async_enable_channel+0xc>)
     dce:	4798      	blx	r3
     dd0:	2000      	movs	r0, #0
     dd2:	bd10      	pop	{r4, pc}
     dd4:	00001ebd 	.word	0x00001ebd

00000dd8 <dac_async_write>:
     dd8:	b5f7      	push	{r0, r1, r2, r4, r5, r6, r7, lr}
     dda:	0006      	movs	r6, r0
     ddc:	3608      	adds	r6, #8
     dde:	0004      	movs	r4, r0
     de0:	9301      	str	r3, [sp, #4]
     de2:	0030      	movs	r0, r6
     de4:	4b0a      	ldr	r3, [pc, #40]	; (e10 <dac_async_write+0x38>)
     de6:	000d      	movs	r5, r1
     de8:	0017      	movs	r7, r2
     dea:	4798      	blx	r3
     dec:	2800      	cmp	r0, #0
     dee:	d00b      	beq.n	e08 <dac_async_write+0x30>
     df0:	00eb      	lsls	r3, r5, #3
     df2:	18e4      	adds	r4, r4, r3
     df4:	9b01      	ldr	r3, [sp, #4]
     df6:	0030      	movs	r0, r6
     df8:	6223      	str	r3, [r4, #32]
     dfa:	61e7      	str	r7, [r4, #28]
     dfc:	8839      	ldrh	r1, [r7, #0]
     dfe:	002a      	movs	r2, r5
     e00:	4b04      	ldr	r3, [pc, #16]	; (e14 <dac_async_write+0x3c>)
     e02:	4798      	blx	r3
     e04:	2000      	movs	r0, #0
     e06:	bdfe      	pop	{r1, r2, r3, r4, r5, r6, r7, pc}
     e08:	200d      	movs	r0, #13
     e0a:	4240      	negs	r0, r0
     e0c:	e7fb      	b.n	e06 <dac_async_write+0x2e>
     e0e:	46c0      	nop			; (mov r8, r8)
     e10:	00001ed5 	.word	0x00001ed5
     e14:	00001eed 	.word	0x00001eed

00000e18 <delay_us>:
     e18:	4b04      	ldr	r3, [pc, #16]	; (e2c <delay_us+0x14>)
     e1a:	b510      	push	{r4, lr}
     e1c:	681c      	ldr	r4, [r3, #0]
     e1e:	4b04      	ldr	r3, [pc, #16]	; (e30 <delay_us+0x18>)
     e20:	4798      	blx	r3
     e22:	4b04      	ldr	r3, [pc, #16]	; (e34 <delay_us+0x1c>)
     e24:	0001      	movs	r1, r0
     e26:	0020      	movs	r0, r4
     e28:	4798      	blx	r3
     e2a:	bd10      	pop	{r4, pc}
     e2c:	20000184 	.word	0x20000184
     e30:	00001d7d 	.word	0x00001d7d
     e34:	00001db5 	.word	0x00001db5

00000e38 <delay_ms>:
     e38:	4b04      	ldr	r3, [pc, #16]	; (e4c <delay_ms+0x14>)
     e3a:	b510      	push	{r4, lr}
     e3c:	681c      	ldr	r4, [r3, #0]
     e3e:	4b04      	ldr	r3, [pc, #16]	; (e50 <delay_ms+0x18>)
     e40:	4798      	blx	r3
     e42:	4b04      	ldr	r3, [pc, #16]	; (e54 <delay_ms+0x1c>)
     e44:	0001      	movs	r1, r0
     e46:	0020      	movs	r0, r4
     e48:	4798      	blx	r3
     e4a:	bd10      	pop	{r4, pc}
     e4c:	20000184 	.word	0x20000184
     e50:	00001d99 	.word	0x00001d99
     e54:	00001db5 	.word	0x00001db5

00000e58 <process_ext_irq>:
     e58:	b570      	push	{r4, r5, r6, lr}
     e5a:	2110      	movs	r1, #16
     e5c:	2500      	movs	r5, #0
     e5e:	4c0d      	ldr	r4, [pc, #52]	; (e94 <process_ext_irq+0x3c>)
     e60:	194b      	adds	r3, r1, r5
     e62:	105b      	asrs	r3, r3, #1
     e64:	b2da      	uxtb	r2, r3
     e66:	2b0f      	cmp	r3, #15
     e68:	dc08      	bgt.n	e7c <process_ext_irq+0x24>
     e6a:	00db      	lsls	r3, r3, #3
     e6c:	18e6      	adds	r6, r4, r3
     e6e:	6876      	ldr	r6, [r6, #4]
     e70:	4286      	cmp	r6, r0
     e72:	d104      	bne.n	e7e <process_ext_irq+0x26>
     e74:	58e3      	ldr	r3, [r4, r3]
     e76:	2b00      	cmp	r3, #0
     e78:	d000      	beq.n	e7c <process_ext_irq+0x24>
     e7a:	4798      	blx	r3
     e7c:	bd70      	pop	{r4, r5, r6, pc}
     e7e:	4286      	cmp	r6, r0
     e80:	d204      	bcs.n	e8c <process_ext_irq+0x34>
     e82:	3201      	adds	r2, #1
     e84:	b2d5      	uxtb	r5, r2
     e86:	428d      	cmp	r5, r1
     e88:	d9ea      	bls.n	e60 <process_ext_irq+0x8>
     e8a:	e7f7      	b.n	e7c <process_ext_irq+0x24>
     e8c:	3a01      	subs	r2, #1
     e8e:	b2d1      	uxtb	r1, r2
     e90:	e7f9      	b.n	e86 <process_ext_irq+0x2e>
     e92:	46c0      	nop			; (mov r8, r8)
     e94:	20000188 	.word	0x20000188

00000e98 <ext_irq_init>:
     e98:	2300      	movs	r3, #0
     e9a:	b510      	push	{r4, lr}
     e9c:	2401      	movs	r4, #1
     e9e:	0019      	movs	r1, r3
     ea0:	4a05      	ldr	r2, [pc, #20]	; (eb8 <ext_irq_init+0x20>)
     ea2:	4264      	negs	r4, r4
     ea4:	18d0      	adds	r0, r2, r3
     ea6:	6044      	str	r4, [r0, #4]
     ea8:	5099      	str	r1, [r3, r2]
     eaa:	3308      	adds	r3, #8
     eac:	2b80      	cmp	r3, #128	; 0x80
     eae:	d1f9      	bne.n	ea4 <ext_irq_init+0xc>
     eb0:	4b02      	ldr	r3, [pc, #8]	; (ebc <ext_irq_init+0x24>)
     eb2:	4803      	ldr	r0, [pc, #12]	; (ec0 <ext_irq_init+0x28>)
     eb4:	4798      	blx	r3
     eb6:	bd10      	pop	{r4, pc}
     eb8:	20000188 	.word	0x20000188
     ebc:	00001f0d 	.word	0x00001f0d
     ec0:	00000e59 	.word	0x00000e59

00000ec4 <ext_irq_register>:
     ec4:	b5f7      	push	{r0, r1, r2, r4, r5, r6, r7, lr}
     ec6:	2200      	movs	r2, #0
     ec8:	4b1c      	ldr	r3, [pc, #112]	; (f3c <ext_irq_register+0x78>)
     eca:	00d4      	lsls	r4, r2, #3
     ecc:	191d      	adds	r5, r3, r4
     ece:	686d      	ldr	r5, [r5, #4]
     ed0:	4285      	cmp	r5, r0
     ed2:	d106      	bne.n	ee2 <ext_irq_register+0x1e>
     ed4:	50e1      	str	r1, [r4, r3]
     ed6:	2900      	cmp	r1, #0
     ed8:	d000      	beq.n	edc <ext_irq_register+0x18>
     eda:	2101      	movs	r1, #1
     edc:	4b18      	ldr	r3, [pc, #96]	; (f40 <ext_irq_register+0x7c>)
     ede:	4798      	blx	r3
     ee0:	bdfe      	pop	{r1, r2, r3, r4, r5, r6, r7, pc}
     ee2:	3201      	adds	r2, #1
     ee4:	2a10      	cmp	r2, #16
     ee6:	d1f0      	bne.n	eca <ext_irq_register+0x6>
     ee8:	2400      	movs	r4, #0
     eea:	2900      	cmp	r1, #0
     eec:	d022      	beq.n	f34 <ext_irq_register+0x70>
     eee:	00e2      	lsls	r2, r4, #3
     ef0:	589d      	ldr	r5, [r3, r2]
     ef2:	2d00      	cmp	r5, #0
     ef4:	d11b      	bne.n	f2e <ext_irq_register+0x6a>
     ef6:	001d      	movs	r5, r3
     ef8:	5099      	str	r1, [r3, r2]
     efa:	189a      	adds	r2, r3, r2
     efc:	4694      	mov	ip, r2
     efe:	3580      	adds	r5, #128	; 0x80
     f00:	6050      	str	r0, [r2, #4]
     f02:	9501      	str	r5, [sp, #4]
     f04:	4661      	mov	r1, ip
     f06:	685c      	ldr	r4, [r3, #4]
     f08:	684d      	ldr	r5, [r1, #4]
     f0a:	42a5      	cmp	r5, r4
     f0c:	d20a      	bcs.n	f24 <ext_irq_register+0x60>
     f0e:	1c65      	adds	r5, r4, #1
     f10:	d008      	beq.n	f24 <ext_irq_register+0x60>
     f12:	001f      	movs	r7, r3
     f14:	4665      	mov	r5, ip
     f16:	6819      	ldr	r1, [r3, #0]
     f18:	9100      	str	r1, [sp, #0]
     f1a:	cd42      	ldmia	r5!, {r1, r6}
     f1c:	c742      	stmia	r7!, {r1, r6}
     f1e:	9900      	ldr	r1, [sp, #0]
     f20:	6054      	str	r4, [r2, #4]
     f22:	6011      	str	r1, [r2, #0]
     f24:	9901      	ldr	r1, [sp, #4]
     f26:	3308      	adds	r3, #8
     f28:	4299      	cmp	r1, r3
     f2a:	d1eb      	bne.n	f04 <ext_irq_register+0x40>
     f2c:	e7d5      	b.n	eda <ext_irq_register+0x16>
     f2e:	3401      	adds	r4, #1
     f30:	2c10      	cmp	r4, #16
     f32:	d1dc      	bne.n	eee <ext_irq_register+0x2a>
     f34:	200d      	movs	r0, #13
     f36:	4240      	negs	r0, r0
     f38:	e7d2      	b.n	ee0 <ext_irq_register+0x1c>
     f3a:	46c0      	nop			; (mov r8, r8)
     f3c:	20000188 	.word	0x20000188
     f40:	00001f81 	.word	0x00001f81

00000f44 <flash_ready>:
     f44:	6943      	ldr	r3, [r0, #20]
     f46:	b510      	push	{r4, lr}
     f48:	2b00      	cmp	r3, #0
     f4a:	d000      	beq.n	f4e <flash_ready+0xa>
     f4c:	4798      	blx	r3
     f4e:	bd10      	pop	{r4, pc}

00000f50 <flash_error>:
     f50:	6983      	ldr	r3, [r0, #24]
     f52:	b510      	push	{r4, lr}
     f54:	2b00      	cmp	r3, #0
     f56:	d000      	beq.n	f5a <flash_error+0xa>
     f58:	4798      	blx	r3
     f5a:	bd10      	pop	{r4, pc}

00000f5c <flash_init>:
     f5c:	b510      	push	{r4, lr}
     f5e:	4b05      	ldr	r3, [pc, #20]	; (f74 <flash_init+0x18>)
     f60:	0004      	movs	r4, r0
     f62:	4798      	blx	r3
     f64:	2800      	cmp	r0, #0
     f66:	d103      	bne.n	f70 <flash_init+0x14>
     f68:	4b03      	ldr	r3, [pc, #12]	; (f78 <flash_init+0x1c>)
     f6a:	6023      	str	r3, [r4, #0]
     f6c:	4b03      	ldr	r3, [pc, #12]	; (f7c <flash_init+0x20>)
     f6e:	6063      	str	r3, [r4, #4]
     f70:	bd10      	pop	{r4, pc}
     f72:	46c0      	nop			; (mov r8, r8)
     f74:	00002105 	.word	0x00002105
     f78:	00000f45 	.word	0x00000f45
     f7c:	00000f51 	.word	0x00000f51

00000f80 <flash_read>:
     f80:	b5f7      	push	{r0, r1, r2, r4, r5, r6, r7, lr}
     f82:	001e      	movs	r6, r3
     f84:	4b0c      	ldr	r3, [pc, #48]	; (fb8 <flash_read+0x38>)
     f86:	0004      	movs	r4, r0
     f88:	000d      	movs	r5, r1
     f8a:	9201      	str	r2, [sp, #4]
     f8c:	4798      	blx	r3
     f8e:	4b0b      	ldr	r3, [pc, #44]	; (fbc <flash_read+0x3c>)
     f90:	0007      	movs	r7, r0
     f92:	0020      	movs	r0, r4
     f94:	4798      	blx	r3
     f96:	4347      	muls	r7, r0
     f98:	42af      	cmp	r7, r5
     f9a:	d30a      	bcc.n	fb2 <flash_read+0x32>
     f9c:	19ab      	adds	r3, r5, r6
     f9e:	429f      	cmp	r7, r3
     fa0:	d307      	bcc.n	fb2 <flash_read+0x32>
     fa2:	0020      	movs	r0, r4
     fa4:	0033      	movs	r3, r6
     fa6:	9a01      	ldr	r2, [sp, #4]
     fa8:	0029      	movs	r1, r5
     faa:	4c05      	ldr	r4, [pc, #20]	; (fc0 <flash_read+0x40>)
     fac:	47a0      	blx	r4
     fae:	2000      	movs	r0, #0
     fb0:	bdfe      	pop	{r1, r2, r3, r4, r5, r6, r7, pc}
     fb2:	200e      	movs	r0, #14
     fb4:	4240      	negs	r0, r0
     fb6:	e7fb      	b.n	fb0 <flash_read+0x30>
     fb8:	00002139 	.word	0x00002139
     fbc:	0000213d 	.word	0x0000213d
     fc0:	00002143 	.word	0x00002143

00000fc4 <flash_write>:
     fc4:	b5f7      	push	{r0, r1, r2, r4, r5, r6, r7, lr}
     fc6:	001f      	movs	r7, r3
     fc8:	4b10      	ldr	r3, [pc, #64]	; (100c <flash_write+0x48>)
     fca:	0005      	movs	r5, r0
     fcc:	000e      	movs	r6, r1
     fce:	9201      	str	r2, [sp, #4]
     fd0:	4798      	blx	r3
     fd2:	4b0f      	ldr	r3, [pc, #60]	; (1010 <flash_write+0x4c>)
     fd4:	0004      	movs	r4, r0
     fd6:	0028      	movs	r0, r5
     fd8:	4798      	blx	r3
     fda:	4344      	muls	r4, r0
     fdc:	42b4      	cmp	r4, r6
     fde:	d310      	bcc.n	1002 <flash_write+0x3e>
     fe0:	19f3      	adds	r3, r6, r7
     fe2:	429c      	cmp	r4, r3
     fe4:	d30d      	bcc.n	1002 <flash_write+0x3e>
     fe6:	0031      	movs	r1, r6
     fe8:	0028      	movs	r0, r5
     fea:	4b0a      	ldr	r3, [pc, #40]	; (1014 <flash_write+0x50>)
     fec:	4798      	blx	r3
     fee:	1e04      	subs	r4, r0, #0
     ff0:	d10a      	bne.n	1008 <flash_write+0x44>
     ff2:	0028      	movs	r0, r5
     ff4:	003b      	movs	r3, r7
     ff6:	9a01      	ldr	r2, [sp, #4]
     ff8:	0031      	movs	r1, r6
     ffa:	4d07      	ldr	r5, [pc, #28]	; (1018 <flash_write+0x54>)
     ffc:	47a8      	blx	r5
     ffe:	0020      	movs	r0, r4
    1000:	bdfe      	pop	{r1, r2, r3, r4, r5, r6, r7, pc}
    1002:	200e      	movs	r0, #14
    1004:	4240      	negs	r0, r0
    1006:	e7fb      	b.n	1000 <flash_write+0x3c>
    1008:	2011      	movs	r0, #17
    100a:	e7fb      	b.n	1004 <flash_write+0x40>
    100c:	00002139 	.word	0x00002139
    1010:	0000213d 	.word	0x0000213d
    1014:	0000236d 	.word	0x0000236d
    1018:	0000218d 	.word	0x0000218d

0000101c <flash_append>:
    101c:	b5f7      	push	{r0, r1, r2, r4, r5, r6, r7, lr}
    101e:	001f      	movs	r7, r3
    1020:	4b10      	ldr	r3, [pc, #64]	; (1064 <flash_append+0x48>)
    1022:	0005      	movs	r5, r0
    1024:	000e      	movs	r6, r1
    1026:	9201      	str	r2, [sp, #4]
    1028:	4798      	blx	r3
    102a:	4b0f      	ldr	r3, [pc, #60]	; (1068 <flash_append+0x4c>)
    102c:	0004      	movs	r4, r0
    102e:	0028      	movs	r0, r5
    1030:	4798      	blx	r3
    1032:	4344      	muls	r4, r0
    1034:	42b4      	cmp	r4, r6
    1036:	d310      	bcc.n	105a <flash_append+0x3e>
    1038:	19f3      	adds	r3, r6, r7
    103a:	429c      	cmp	r4, r3
    103c:	d30d      	bcc.n	105a <flash_append+0x3e>
    103e:	0031      	movs	r1, r6
    1040:	0028      	movs	r0, r5
    1042:	4b0a      	ldr	r3, [pc, #40]	; (106c <flash_append+0x50>)
    1044:	4798      	blx	r3
    1046:	1e04      	subs	r4, r0, #0
    1048:	d10a      	bne.n	1060 <flash_append+0x44>
    104a:	0028      	movs	r0, r5
    104c:	003b      	movs	r3, r7
    104e:	9a01      	ldr	r2, [sp, #4]
    1050:	0031      	movs	r1, r6
    1052:	4d07      	ldr	r5, [pc, #28]	; (1070 <flash_append+0x54>)
    1054:	47a8      	blx	r5
    1056:	0020      	movs	r0, r4
    1058:	bdfe      	pop	{r1, r2, r3, r4, r5, r6, r7, pc}
    105a:	200e      	movs	r0, #14
    105c:	4240      	negs	r0, r0
    105e:	e7fb      	b.n	1058 <flash_append+0x3c>
    1060:	2011      	movs	r0, #17
    1062:	e7fb      	b.n	105c <flash_append+0x40>
    1064:	00002139 	.word	0x00002139
    1068:	0000213d 	.word	0x0000213d
    106c:	0000236d 	.word	0x0000236d
    1070:	00002265 	.word	0x00002265

00001074 <flash_erase>:
    1074:	b5f7      	push	{r0, r1, r2, r4, r5, r6, r7, lr}
    1076:	4b13      	ldr	r3, [pc, #76]	; (10c4 <flash_erase+0x50>)
    1078:	000e      	movs	r6, r1
    107a:	0004      	movs	r4, r0
    107c:	0015      	movs	r5, r2
    107e:	4798      	blx	r3
    1080:	4b11      	ldr	r3, [pc, #68]	; (10c8 <flash_erase+0x54>)
    1082:	9001      	str	r0, [sp, #4]
    1084:	0020      	movs	r0, r4
    1086:	4798      	blx	r3
    1088:	4b0e      	ldr	r3, [pc, #56]	; (10c4 <flash_erase+0x50>)
    108a:	0007      	movs	r7, r0
    108c:	0020      	movs	r0, r4
    108e:	4798      	blx	r3
    1090:	3801      	subs	r0, #1
    1092:	4030      	ands	r0, r6
    1094:	9000      	str	r0, [sp, #0]
    1096:	d010      	beq.n	10ba <flash_erase+0x46>
    1098:	200e      	movs	r0, #14
    109a:	4240      	negs	r0, r0
    109c:	e00c      	b.n	10b8 <flash_erase+0x44>
    109e:	9901      	ldr	r1, [sp, #4]
    10a0:	0030      	movs	r0, r6
    10a2:	4b0a      	ldr	r3, [pc, #40]	; (10cc <flash_erase+0x58>)
    10a4:	4798      	blx	r3
    10a6:	1940      	adds	r0, r0, r5
    10a8:	4287      	cmp	r7, r0
    10aa:	d308      	bcc.n	10be <flash_erase+0x4a>
    10ac:	0020      	movs	r0, r4
    10ae:	002a      	movs	r2, r5
    10b0:	0031      	movs	r1, r6
    10b2:	4b07      	ldr	r3, [pc, #28]	; (10d0 <flash_erase+0x5c>)
    10b4:	4798      	blx	r3
    10b6:	9800      	ldr	r0, [sp, #0]
    10b8:	bdfe      	pop	{r1, r2, r3, r4, r5, r6, r7, pc}
    10ba:	42af      	cmp	r7, r5
    10bc:	d2ef      	bcs.n	109e <flash_erase+0x2a>
    10be:	200d      	movs	r0, #13
    10c0:	e7eb      	b.n	109a <flash_erase+0x26>
    10c2:	46c0      	nop			; (mov r8, r8)
    10c4:	00002139 	.word	0x00002139
    10c8:	0000213d 	.word	0x0000213d
    10cc:	00006cd5 	.word	0x00006cd5
    10d0:	000022c5 	.word	0x000022c5

000010d4 <flash_get_page_size>:
    10d4:	b510      	push	{r4, lr}
    10d6:	4b01      	ldr	r3, [pc, #4]	; (10dc <flash_get_page_size+0x8>)
    10d8:	4798      	blx	r3
    10da:	bd10      	pop	{r4, pc}
    10dc:	00002139 	.word	0x00002139

000010e0 <i2c_m_sync_write>:
    10e0:	b51f      	push	{r0, r1, r2, r3, r4, lr}
    10e2:	0014      	movs	r4, r2
    10e4:	3814      	subs	r0, #20
    10e6:	8b82      	ldrh	r2, [r0, #28]
    10e8:	ab01      	add	r3, sp, #4
    10ea:	801a      	strh	r2, [r3, #0]
    10ec:	4a05      	ldr	r2, [pc, #20]	; (1104 <i2c_m_sync_write+0x24>)
    10ee:	9103      	str	r1, [sp, #12]
    10f0:	805a      	strh	r2, [r3, #2]
    10f2:	0019      	movs	r1, r3
    10f4:	4b04      	ldr	r3, [pc, #16]	; (1108 <i2c_m_sync_write+0x28>)
    10f6:	9402      	str	r4, [sp, #8]
    10f8:	4798      	blx	r3
    10fa:	2800      	cmp	r0, #0
    10fc:	d100      	bne.n	1100 <i2c_m_sync_write+0x20>
    10fe:	0020      	movs	r0, r4
    1100:	b004      	add	sp, #16
    1102:	bd10      	pop	{r4, pc}
    1104:	ffff8000 	.word	0xffff8000
    1108:	0000299d 	.word	0x0000299d

0000110c <i2c_m_sync_read>:
    110c:	b51f      	push	{r0, r1, r2, r3, r4, lr}
    110e:	0014      	movs	r4, r2
    1110:	3814      	subs	r0, #20
    1112:	8b82      	ldrh	r2, [r0, #28]
    1114:	ab01      	add	r3, sp, #4
    1116:	801a      	strh	r2, [r3, #0]
    1118:	4a05      	ldr	r2, [pc, #20]	; (1130 <i2c_m_sync_read+0x24>)
    111a:	9103      	str	r1, [sp, #12]
    111c:	805a      	strh	r2, [r3, #2]
    111e:	0019      	movs	r1, r3
    1120:	4b04      	ldr	r3, [pc, #16]	; (1134 <i2c_m_sync_read+0x28>)
    1122:	9402      	str	r4, [sp, #8]
    1124:	4798      	blx	r3
    1126:	2800      	cmp	r0, #0
    1128:	d100      	bne.n	112c <i2c_m_sync_read+0x20>
    112a:	0020      	movs	r0, r4
    112c:	b004      	add	sp, #16
    112e:	bd10      	pop	{r4, pc}
    1130:	ffff8001 	.word	0xffff8001
    1134:	0000299d 	.word	0x0000299d

00001138 <i2c_m_sync_init>:
    1138:	b510      	push	{r4, lr}
    113a:	4b05      	ldr	r3, [pc, #20]	; (1150 <i2c_m_sync_init+0x18>)
    113c:	0004      	movs	r4, r0
    113e:	4798      	blx	r3
    1140:	2800      	cmp	r0, #0
    1142:	d103      	bne.n	114c <i2c_m_sync_init+0x14>
    1144:	4b03      	ldr	r3, [pc, #12]	; (1154 <i2c_m_sync_init+0x1c>)
    1146:	61a3      	str	r3, [r4, #24]
    1148:	4b03      	ldr	r3, [pc, #12]	; (1158 <i2c_m_sync_init+0x20>)
    114a:	6163      	str	r3, [r4, #20]
    114c:	bd10      	pop	{r4, pc}
    114e:	46c0      	nop			; (mov r8, r8)
    1150:	0000298d 	.word	0x0000298d
    1154:	0000110d 	.word	0x0000110d
    1158:	000010e1 	.word	0x000010e1

0000115c <io_write>:
    115c:	b510      	push	{r4, lr}
    115e:	6803      	ldr	r3, [r0, #0]
    1160:	4798      	blx	r3
    1162:	bd10      	pop	{r4, pc}

00001164 <io_read>:
    1164:	b510      	push	{r4, lr}
    1166:	6843      	ldr	r3, [r0, #4]
    1168:	4798      	blx	r3
    116a:	bd10      	pop	{r4, pc}

0000116c <spi_m_sync_init>:
    116c:	b510      	push	{r4, lr}
    116e:	4b07      	ldr	r3, [pc, #28]	; (118c <spi_m_sync_init+0x20>)
    1170:	0004      	movs	r4, r0
    1172:	6041      	str	r1, [r0, #4]
    1174:	3004      	adds	r0, #4
    1176:	4798      	blx	r3
    1178:	2800      	cmp	r0, #0
    117a:	db06      	blt.n	118a <spi_m_sync_init+0x1e>
    117c:	2000      	movs	r0, #0
    117e:	4b04      	ldr	r3, [pc, #16]	; (1190 <spi_m_sync_init+0x24>)
    1180:	82a3      	strh	r3, [r4, #20]
    1182:	4b04      	ldr	r3, [pc, #16]	; (1194 <spi_m_sync_init+0x28>)
    1184:	6123      	str	r3, [r4, #16]
    1186:	4b04      	ldr	r3, [pc, #16]	; (1198 <spi_m_sync_init+0x2c>)
    1188:	60e3      	str	r3, [r4, #12]
    118a:	bd10      	pop	{r4, pc}
    118c:	00002b5d 	.word	0x00002b5d
    1190:	ffff8000 	.word	0xffff8000
    1194:	000011d9 	.word	0x000011d9
    1198:	000011bd 	.word	0x000011bd

0000119c <spi_m_sync_transfer>:
    119c:	b57f      	push	{r0, r1, r2, r3, r4, r5, r6, lr}
    119e:	680b      	ldr	r3, [r1, #0]
    11a0:	3004      	adds	r0, #4
    11a2:	9303      	str	r3, [sp, #12]
    11a4:	684b      	ldr	r3, [r1, #4]
    11a6:	9304      	str	r3, [sp, #16]
    11a8:	688b      	ldr	r3, [r1, #8]
    11aa:	a903      	add	r1, sp, #12
    11ac:	9301      	str	r3, [sp, #4]
    11ae:	9305      	str	r3, [sp, #20]
    11b0:	4b01      	ldr	r3, [pc, #4]	; (11b8 <spi_m_sync_transfer+0x1c>)
    11b2:	4798      	blx	r3
    11b4:	b007      	add	sp, #28
    11b6:	bd00      	pop	{pc}
    11b8:	00002be9 	.word	0x00002be9

000011bc <_spi_m_sync_io_write>:
    11bc:	b51f      	push	{r0, r1, r2, r3, r4, lr}
    11be:	2300      	movs	r3, #0
    11c0:	9101      	str	r1, [sp, #4]
    11c2:	9302      	str	r3, [sp, #8]
    11c4:	a901      	add	r1, sp, #4
    11c6:	4b03      	ldr	r3, [pc, #12]	; (11d4 <_spi_m_sync_io_write+0x18>)
    11c8:	380c      	subs	r0, #12
    11ca:	9203      	str	r2, [sp, #12]
    11cc:	4798      	blx	r3
    11ce:	b005      	add	sp, #20
    11d0:	bd00      	pop	{pc}
    11d2:	46c0      	nop			; (mov r8, r8)
    11d4:	0000119d 	.word	0x0000119d

000011d8 <_spi_m_sync_io_read>:
    11d8:	b51f      	push	{r0, r1, r2, r3, r4, lr}
    11da:	2300      	movs	r3, #0
    11dc:	9102      	str	r1, [sp, #8]
    11de:	9301      	str	r3, [sp, #4]
    11e0:	a901      	add	r1, sp, #4
    11e2:	4b03      	ldr	r3, [pc, #12]	; (11f0 <_spi_m_sync_io_read+0x18>)
    11e4:	380c      	subs	r0, #12
    11e6:	9203      	str	r2, [sp, #12]
    11e8:	4798      	blx	r3
    11ea:	b005      	add	sp, #20
    11ec:	bd00      	pop	{pc}
    11ee:	46c0      	nop			; (mov r8, r8)
    11f0:	0000119d 	.word	0x0000119d

000011f4 <timer_add_timer_task>:
    11f4:	b5f7      	push	{r0, r1, r2, r4, r5, r6, r7, lr}
    11f6:	6805      	ldr	r5, [r0, #0]
    11f8:	2d00      	cmp	r5, #0
    11fa:	d102      	bne.n	1202 <timer_add_timer_task+0xe>
    11fc:	4b11      	ldr	r3, [pc, #68]	; (1244 <timer_add_timer_task+0x50>)
    11fe:	4798      	blx	r3
    1200:	bdf7      	pop	{r0, r1, r2, r4, r5, r6, r7, pc}
    1202:	2601      	movs	r6, #1
    1204:	002c      	movs	r4, r5
    1206:	2700      	movs	r7, #0
    1208:	688b      	ldr	r3, [r1, #8]
    120a:	9300      	str	r3, [sp, #0]
    120c:	1ab3      	subs	r3, r6, r2
    120e:	9301      	str	r3, [sp, #4]
    1210:	68a6      	ldr	r6, [r4, #8]
    1212:	6863      	ldr	r3, [r4, #4]
    1214:	46b4      	mov	ip, r6
    1216:	4293      	cmp	r3, r2
    1218:	d80d      	bhi.n	1236 <timer_add_timer_task+0x42>
    121a:	4463      	add	r3, ip
    121c:	1a9b      	subs	r3, r3, r2
    121e:	9e00      	ldr	r6, [sp, #0]
    1220:	42b3      	cmp	r3, r6
    1222:	d20c      	bcs.n	123e <timer_add_timer_task+0x4a>
    1224:	6823      	ldr	r3, [r4, #0]
    1226:	0027      	movs	r7, r4
    1228:	2b00      	cmp	r3, #0
    122a:	d102      	bne.n	1232 <timer_add_timer_task+0x3e>
    122c:	0038      	movs	r0, r7
    122e:	4b06      	ldr	r3, [pc, #24]	; (1248 <timer_add_timer_task+0x54>)
    1230:	e7e5      	b.n	11fe <timer_add_timer_task+0xa>
    1232:	001c      	movs	r4, r3
    1234:	e7ec      	b.n	1210 <timer_add_timer_task+0x1c>
    1236:	9e01      	ldr	r6, [sp, #4]
    1238:	18f3      	adds	r3, r6, r3
    123a:	4463      	add	r3, ip
    123c:	e7ef      	b.n	121e <timer_add_timer_task+0x2a>
    123e:	42a5      	cmp	r5, r4
    1240:	d1f4      	bne.n	122c <timer_add_timer_task+0x38>
    1242:	e7db      	b.n	11fc <timer_add_timer_task+0x8>
    1244:	00001af5 	.word	0x00001af5
    1248:	00001afd 	.word	0x00001afd

0000124c <timer_process_counted>:
    124c:	b5f8      	push	{r3, r4, r5, r6, r7, lr}
    124e:	6903      	ldr	r3, [r0, #16]
    1250:	0005      	movs	r5, r0
    1252:	1c5e      	adds	r6, r3, #1
    1254:	7e03      	ldrb	r3, [r0, #24]
    1256:	6944      	ldr	r4, [r0, #20]
    1258:	6106      	str	r6, [r0, #16]
    125a:	07db      	lsls	r3, r3, #31
    125c:	d402      	bmi.n	1264 <timer_process_counted+0x18>
    125e:	7e03      	ldrb	r3, [r0, #24]
    1260:	079b      	lsls	r3, r3, #30
    1262:	d517      	bpl.n	1294 <timer_process_counted+0x48>
    1264:	2302      	movs	r3, #2
    1266:	7e2a      	ldrb	r2, [r5, #24]
    1268:	4313      	orrs	r3, r2
    126a:	762b      	strb	r3, [r5, #24]
    126c:	bdf8      	pop	{r3, r4, r5, r6, r7, pc}
    126e:	002f      	movs	r7, r5
    1270:	3714      	adds	r7, #20
    1272:	4b0c      	ldr	r3, [pc, #48]	; (12a4 <timer_process_counted+0x58>)
    1274:	0038      	movs	r0, r7
    1276:	4798      	blx	r3
    1278:	7c23      	ldrb	r3, [r4, #16]
    127a:	2b01      	cmp	r3, #1
    127c:	d105      	bne.n	128a <timer_process_counted+0x3e>
    127e:	6066      	str	r6, [r4, #4]
    1280:	0032      	movs	r2, r6
    1282:	0021      	movs	r1, r4
    1284:	0038      	movs	r0, r7
    1286:	4b08      	ldr	r3, [pc, #32]	; (12a8 <timer_process_counted+0x5c>)
    1288:	4798      	blx	r3
    128a:	696f      	ldr	r7, [r5, #20]
    128c:	68e3      	ldr	r3, [r4, #12]
    128e:	0020      	movs	r0, r4
    1290:	4798      	blx	r3
    1292:	003c      	movs	r4, r7
    1294:	2c00      	cmp	r4, #0
    1296:	d0e9      	beq.n	126c <timer_process_counted+0x20>
    1298:	6863      	ldr	r3, [r4, #4]
    129a:	68a2      	ldr	r2, [r4, #8]
    129c:	1af3      	subs	r3, r6, r3
    129e:	4293      	cmp	r3, r2
    12a0:	d2e5      	bcs.n	126e <timer_process_counted+0x22>
    12a2:	e7e3      	b.n	126c <timer_process_counted+0x20>
    12a4:	00001b1f 	.word	0x00001b1f
    12a8:	000011f5 	.word	0x000011f5

000012ac <timer_init>:
    12ac:	b510      	push	{r4, lr}
    12ae:	4b04      	ldr	r3, [pc, #16]	; (12c0 <timer_init+0x14>)
    12b0:	0004      	movs	r4, r0
    12b2:	4798      	blx	r3
    12b4:	2000      	movs	r0, #0
    12b6:	4b03      	ldr	r3, [pc, #12]	; (12c4 <timer_init+0x18>)
    12b8:	6120      	str	r0, [r4, #16]
    12ba:	6023      	str	r3, [r4, #0]
    12bc:	bd10      	pop	{r4, pc}
    12be:	46c0      	nop			; (mov r8, r8)
    12c0:	000023dd 	.word	0x000023dd
    12c4:	0000124d 	.word	0x0000124d

000012c8 <timer_start>:
    12c8:	b570      	push	{r4, r5, r6, lr}
    12ca:	4b06      	ldr	r3, [pc, #24]	; (12e4 <timer_start+0x1c>)
    12cc:	0005      	movs	r5, r0
    12ce:	4798      	blx	r3
    12d0:	1e04      	subs	r4, r0, #0
    12d2:	d104      	bne.n	12de <timer_start+0x16>
    12d4:	0028      	movs	r0, r5
    12d6:	4b04      	ldr	r3, [pc, #16]	; (12e8 <timer_start+0x20>)
    12d8:	4798      	blx	r3
    12da:	0020      	movs	r0, r4
    12dc:	bd70      	pop	{r4, r5, r6, pc}
    12de:	2011      	movs	r0, #17
    12e0:	4240      	negs	r0, r0
    12e2:	e7fb      	b.n	12dc <timer_start+0x14>
    12e4:	00002449 	.word	0x00002449
    12e8:	00002419 	.word	0x00002419

000012ec <timer_add_task>:
    12ec:	b5f0      	push	{r4, r5, r6, r7, lr}
    12ee:	0007      	movs	r7, r0
    12f0:	2501      	movs	r5, #1
    12f2:	7e03      	ldrb	r3, [r0, #24]
    12f4:	3714      	adds	r7, #20
    12f6:	432b      	orrs	r3, r5
    12f8:	7603      	strb	r3, [r0, #24]
    12fa:	b085      	sub	sp, #20
    12fc:	0004      	movs	r4, r0
    12fe:	4b14      	ldr	r3, [pc, #80]	; (1350 <timer_add_task+0x64>)
    1300:	0038      	movs	r0, r7
    1302:	000e      	movs	r6, r1
    1304:	4798      	blx	r3
    1306:	9001      	str	r0, [sp, #4]
    1308:	2800      	cmp	r0, #0
    130a:	d006      	beq.n	131a <timer_add_task+0x2e>
    130c:	7e23      	ldrb	r3, [r4, #24]
    130e:	43ab      	bics	r3, r5
    1310:	7623      	strb	r3, [r4, #24]
    1312:	3d13      	subs	r5, #19
    1314:	0028      	movs	r0, r5
    1316:	b005      	add	sp, #20
    1318:	bdf0      	pop	{r4, r5, r6, r7, pc}
    131a:	6922      	ldr	r2, [r4, #16]
    131c:	0031      	movs	r1, r6
    131e:	6072      	str	r2, [r6, #4]
    1320:	2602      	movs	r6, #2
    1322:	4b0c      	ldr	r3, [pc, #48]	; (1354 <timer_add_task+0x68>)
    1324:	0038      	movs	r0, r7
    1326:	4798      	blx	r3
    1328:	7e23      	ldrb	r3, [r4, #24]
    132a:	43ab      	bics	r3, r5
    132c:	7623      	strb	r3, [r4, #24]
    132e:	7e23      	ldrb	r3, [r4, #24]
    1330:	9d01      	ldr	r5, [sp, #4]
    1332:	4233      	tst	r3, r6
    1334:	d0ee      	beq.n	1314 <timer_add_task+0x28>
    1336:	a803      	add	r0, sp, #12
    1338:	4b07      	ldr	r3, [pc, #28]	; (1358 <timer_add_task+0x6c>)
    133a:	4798      	blx	r3
    133c:	7e23      	ldrb	r3, [r4, #24]
    133e:	0020      	movs	r0, r4
    1340:	43b3      	bics	r3, r6
    1342:	7623      	strb	r3, [r4, #24]
    1344:	4b05      	ldr	r3, [pc, #20]	; (135c <timer_add_task+0x70>)
    1346:	4798      	blx	r3
    1348:	a803      	add	r0, sp, #12
    134a:	4b05      	ldr	r3, [pc, #20]	; (1360 <timer_add_task+0x74>)
    134c:	4798      	blx	r3
    134e:	e7e1      	b.n	1314 <timer_add_task+0x28>
    1350:	00001ae5 	.word	0x00001ae5
    1354:	000011f5 	.word	0x000011f5
    1358:	00000d45 	.word	0x00000d45
    135c:	00002461 	.word	0x00002461
    1360:	00000d53 	.word	0x00000d53

00001364 <usart_transmission_complete>:
    1364:	2300      	movs	r3, #0
    1366:	3808      	subs	r0, #8
    1368:	b510      	push	{r4, lr}
    136a:	6303      	str	r3, [r0, #48]	; 0x30
    136c:	6a43      	ldr	r3, [r0, #36]	; 0x24
    136e:	2b00      	cmp	r3, #0
    1370:	d000      	beq.n	1374 <usart_transmission_complete+0x10>
    1372:	4798      	blx	r3
    1374:	bd10      	pop	{r4, pc}

00001376 <usart_error>:
    1376:	2300      	movs	r3, #0
    1378:	3808      	subs	r0, #8
    137a:	b510      	push	{r4, lr}
    137c:	6303      	str	r3, [r0, #48]	; 0x30
    137e:	6ac3      	ldr	r3, [r0, #44]	; 0x2c
    1380:	2b00      	cmp	r3, #0
    1382:	d000      	beq.n	1386 <usart_error+0x10>
    1384:	4798      	blx	r3
    1386:	bd10      	pop	{r4, pc}

00001388 <usart_fill_rx_buffer>:
    1388:	b510      	push	{r4, lr}
    138a:	0004      	movs	r4, r0
    138c:	4b04      	ldr	r3, [pc, #16]	; (13a0 <usart_fill_rx_buffer+0x18>)
    138e:	302c      	adds	r0, #44	; 0x2c
    1390:	4798      	blx	r3
    1392:	6a23      	ldr	r3, [r4, #32]
    1394:	3c08      	subs	r4, #8
    1396:	2b00      	cmp	r3, #0
    1398:	d001      	beq.n	139e <usart_fill_rx_buffer+0x16>
    139a:	0020      	movs	r0, r4
    139c:	4798      	blx	r3
    139e:	bd10      	pop	{r4, pc}
    13a0:	00001b67 	.word	0x00001b67

000013a4 <usart_async_write>:
    13a4:	b570      	push	{r4, r5, r6, lr}
    13a6:	0014      	movs	r4, r2
    13a8:	0002      	movs	r2, r0
    13aa:	1d83      	adds	r3, r0, #6
    13ac:	324c      	adds	r2, #76	; 0x4c
    13ae:	8fde      	ldrh	r6, [r3, #62]	; 0x3e
    13b0:	8815      	ldrh	r5, [r2, #0]
    13b2:	42ae      	cmp	r6, r5
    13b4:	d10a      	bne.n	13cc <usart_async_write+0x28>
    13b6:	6481      	str	r1, [r0, #72]	; 0x48
    13b8:	8014      	strh	r4, [r2, #0]
    13ba:	2200      	movs	r2, #0
    13bc:	87da      	strh	r2, [r3, #62]	; 0x3e
    13be:	2301      	movs	r3, #1
    13c0:	3008      	adds	r0, #8
    13c2:	6283      	str	r3, [r0, #40]	; 0x28
    13c4:	4b03      	ldr	r3, [pc, #12]	; (13d4 <usart_async_write+0x30>)
    13c6:	4798      	blx	r3
    13c8:	0020      	movs	r0, r4
    13ca:	bd70      	pop	{r4, r5, r6, pc}
    13cc:	201c      	movs	r0, #28
    13ce:	4240      	negs	r0, r0
    13d0:	e7fb      	b.n	13ca <usart_async_write+0x26>
    13d2:	46c0      	nop			; (mov r8, r8)
    13d4:	00002941 	.word	0x00002941

000013d8 <usart_process_byte_sent>:
    13d8:	0001      	movs	r1, r0
    13da:	b510      	push	{r4, lr}
    13dc:	0004      	movs	r4, r0
    13de:	8f83      	ldrh	r3, [r0, #60]	; 0x3c
    13e0:	3044      	adds	r0, #68	; 0x44
    13e2:	8800      	ldrh	r0, [r0, #0]
    13e4:	3908      	subs	r1, #8
    13e6:	4298      	cmp	r0, r3
    13e8:	d00a      	beq.n	1400 <usart_process_byte_sent+0x28>
    13ea:	6c89      	ldr	r1, [r1, #72]	; 0x48
    13ec:	1c58      	adds	r0, r3, #1
    13ee:	87a0      	strh	r0, [r4, #60]	; 0x3c
    13f0:	5cc9      	ldrb	r1, [r1, r3]
    13f2:	0020      	movs	r0, r4
    13f4:	4b04      	ldr	r3, [pc, #16]	; (1408 <usart_process_byte_sent+0x30>)
    13f6:	4798      	blx	r3
    13f8:	0020      	movs	r0, r4
    13fa:	4b04      	ldr	r3, [pc, #16]	; (140c <usart_process_byte_sent+0x34>)
    13fc:	4798      	blx	r3
    13fe:	bd10      	pop	{r4, pc}
    1400:	0020      	movs	r0, r4
    1402:	4b03      	ldr	r3, [pc, #12]	; (1410 <usart_process_byte_sent+0x38>)
    1404:	e7fa      	b.n	13fc <usart_process_byte_sent+0x24>
    1406:	46c0      	nop			; (mov r8, r8)
    1408:	00002909 	.word	0x00002909
    140c:	00002941 	.word	0x00002941
    1410:	00002949 	.word	0x00002949

00001414 <usart_async_read>:
    1414:	b5f0      	push	{r4, r5, r6, r7, lr}
    1416:	0005      	movs	r5, r0
    1418:	b085      	sub	sp, #20
    141a:	a803      	add	r0, sp, #12
    141c:	4b0f      	ldr	r3, [pc, #60]	; (145c <usart_async_read+0x48>)
    141e:	3534      	adds	r5, #52	; 0x34
    1420:	000e      	movs	r6, r1
    1422:	0014      	movs	r4, r2
    1424:	4798      	blx	r3
    1426:	4b0e      	ldr	r3, [pc, #56]	; (1460 <usart_async_read+0x4c>)
    1428:	0028      	movs	r0, r5
    142a:	4798      	blx	r3
    142c:	4b0d      	ldr	r3, [pc, #52]	; (1464 <usart_async_read+0x50>)
    142e:	0007      	movs	r7, r0
    1430:	a803      	add	r0, sp, #12
    1432:	4798      	blx	r3
    1434:	1933      	adds	r3, r6, r4
    1436:	0034      	movs	r4, r6
    1438:	19f7      	adds	r7, r6, r7
    143a:	9301      	str	r3, [sp, #4]
    143c:	1ba0      	subs	r0, r4, r6
    143e:	b280      	uxth	r0, r0
    1440:	42bc      	cmp	r4, r7
    1442:	d002      	beq.n	144a <usart_async_read+0x36>
    1444:	9b01      	ldr	r3, [sp, #4]
    1446:	429c      	cmp	r4, r3
    1448:	d101      	bne.n	144e <usart_async_read+0x3a>
    144a:	b005      	add	sp, #20
    144c:	bdf0      	pop	{r4, r5, r6, r7, pc}
    144e:	0021      	movs	r1, r4
    1450:	0028      	movs	r0, r5
    1452:	4b05      	ldr	r3, [pc, #20]	; (1468 <usart_async_read+0x54>)
    1454:	4798      	blx	r3
    1456:	3401      	adds	r4, #1
    1458:	e7f0      	b.n	143c <usart_async_read+0x28>
    145a:	46c0      	nop			; (mov r8, r8)
    145c:	00000d45 	.word	0x00000d45
    1460:	00001b89 	.word	0x00001b89
    1464:	00000d53 	.word	0x00000d53
    1468:	00001b45 	.word	0x00001b45

0000146c <usart_async_init>:
    146c:	b570      	push	{r4, r5, r6, lr}
    146e:	0004      	movs	r4, r0
    1470:	000d      	movs	r5, r1
    1472:	3034      	adds	r0, #52	; 0x34
    1474:	0011      	movs	r1, r2
    1476:	001a      	movs	r2, r3
    1478:	4b0d      	ldr	r3, [pc, #52]	; (14b0 <usart_async_init+0x44>)
    147a:	4798      	blx	r3
    147c:	2800      	cmp	r0, #0
    147e:	d113      	bne.n	14a8 <usart_async_init+0x3c>
    1480:	0020      	movs	r0, r4
    1482:	0029      	movs	r1, r5
    1484:	3008      	adds	r0, #8
    1486:	4b0b      	ldr	r3, [pc, #44]	; (14b4 <usart_async_init+0x48>)
    1488:	4798      	blx	r3
    148a:	2800      	cmp	r0, #0
    148c:	d10b      	bne.n	14a6 <usart_async_init+0x3a>
    148e:	4b0a      	ldr	r3, [pc, #40]	; (14b8 <usart_async_init+0x4c>)
    1490:	6063      	str	r3, [r4, #4]
    1492:	4b0a      	ldr	r3, [pc, #40]	; (14bc <usart_async_init+0x50>)
    1494:	6023      	str	r3, [r4, #0]
    1496:	4b0a      	ldr	r3, [pc, #40]	; (14c0 <usart_async_init+0x54>)
    1498:	60a3      	str	r3, [r4, #8]
    149a:	4b0a      	ldr	r3, [pc, #40]	; (14c4 <usart_async_init+0x58>)
    149c:	60e3      	str	r3, [r4, #12]
    149e:	4b0a      	ldr	r3, [pc, #40]	; (14c8 <usart_async_init+0x5c>)
    14a0:	6123      	str	r3, [r4, #16]
    14a2:	4b0a      	ldr	r3, [pc, #40]	; (14cc <usart_async_init+0x60>)
    14a4:	6163      	str	r3, [r4, #20]
    14a6:	bd70      	pop	{r4, r5, r6, pc}
    14a8:	200d      	movs	r0, #13
    14aa:	4240      	negs	r0, r0
    14ac:	e7fb      	b.n	14a6 <usart_async_init+0x3a>
    14ae:	46c0      	nop			; (mov r8, r8)
    14b0:	00001b2d 	.word	0x00001b2d
    14b4:	00002879 	.word	0x00002879
    14b8:	00001415 	.word	0x00001415
    14bc:	000013a5 	.word	0x000013a5
    14c0:	000013d9 	.word	0x000013d9
    14c4:	00001389 	.word	0x00001389
    14c8:	00001365 	.word	0x00001365
    14cc:	00001377 	.word	0x00001377

000014d0 <usart_async_enable>:
    14d0:	b510      	push	{r4, lr}
    14d2:	3008      	adds	r0, #8
    14d4:	4b01      	ldr	r3, [pc, #4]	; (14dc <usart_async_enable+0xc>)
    14d6:	4798      	blx	r3
    14d8:	2000      	movs	r0, #0
    14da:	bd10      	pop	{r4, pc}
    14dc:	000028e9 	.word	0x000028e9

000014e0 <usart_async_get_io_descriptor>:
    14e0:	6008      	str	r0, [r1, #0]
    14e2:	2000      	movs	r0, #0
    14e4:	4770      	bx	lr
	...

000014e8 <usart_async_register_callback>:
    14e8:	b510      	push	{r4, lr}
    14ea:	2901      	cmp	r1, #1
    14ec:	d010      	beq.n	1510 <usart_async_register_callback+0x28>
    14ee:	2900      	cmp	r1, #0
    14f0:	d004      	beq.n	14fc <usart_async_register_callback+0x14>
    14f2:	2902      	cmp	r1, #2
    14f4:	d013      	beq.n	151e <usart_async_register_callback+0x36>
    14f6:	200d      	movs	r0, #13
    14f8:	4240      	negs	r0, r0
    14fa:	e008      	b.n	150e <usart_async_register_callback+0x26>
    14fc:	6282      	str	r2, [r0, #40]	; 0x28
    14fe:	1e53      	subs	r3, r2, #1
    1500:	419a      	sbcs	r2, r3
    1502:	2101      	movs	r1, #1
    1504:	b2d2      	uxtb	r2, r2
    1506:	3008      	adds	r0, #8
    1508:	4b08      	ldr	r3, [pc, #32]	; (152c <usart_async_register_callback+0x44>)
    150a:	4798      	blx	r3
    150c:	2000      	movs	r0, #0
    150e:	bd10      	pop	{r4, pc}
    1510:	6242      	str	r2, [r0, #36]	; 0x24
    1512:	1e53      	subs	r3, r2, #1
    1514:	419a      	sbcs	r2, r3
    1516:	3008      	adds	r0, #8
    1518:	b2d2      	uxtb	r2, r2
    151a:	2102      	movs	r1, #2
    151c:	e7f4      	b.n	1508 <usart_async_register_callback+0x20>
    151e:	62c2      	str	r2, [r0, #44]	; 0x2c
    1520:	1e53      	subs	r3, r2, #1
    1522:	419a      	sbcs	r2, r3
    1524:	3008      	adds	r0, #8
    1526:	b2d2      	uxtb	r2, r2
    1528:	2103      	movs	r1, #3
    152a:	e7ed      	b.n	1508 <usart_async_register_callback+0x20>
    152c:	00002951 	.word	0x00002951

00001530 <usart_async_is_tx_empty>:
    1530:	b510      	push	{r4, lr}
    1532:	3008      	adds	r0, #8
    1534:	4b01      	ldr	r3, [pc, #4]	; (153c <usart_async_is_tx_empty+0xc>)
    1536:	4798      	blx	r3
    1538:	bd10      	pop	{r4, pc}
    153a:	46c0      	nop			; (mov r8, r8)
    153c:	0000292d 	.word	0x0000292d

00001540 <usart_sync_write>:
    1540:	b5f7      	push	{r0, r1, r2, r4, r5, r6, r7, lr}
    1542:	0004      	movs	r4, r0
    1544:	000f      	movs	r7, r1
    1546:	9201      	str	r2, [sp, #4]
    1548:	0025      	movs	r5, r4
    154a:	3508      	adds	r5, #8
    154c:	0028      	movs	r0, r5
    154e:	4e0c      	ldr	r6, [pc, #48]	; (1580 <usart_sync_write+0x40>)
    1550:	47b0      	blx	r6
    1552:	2800      	cmp	r0, #0
    1554:	d0f8      	beq.n	1548 <usart_sync_write+0x8>
    1556:	2400      	movs	r4, #0
    1558:	5d39      	ldrb	r1, [r7, r4]
    155a:	0028      	movs	r0, r5
    155c:	4b09      	ldr	r3, [pc, #36]	; (1584 <usart_sync_write+0x44>)
    155e:	4798      	blx	r3
    1560:	0028      	movs	r0, r5
    1562:	47b0      	blx	r6
    1564:	2800      	cmp	r0, #0
    1566:	d0fb      	beq.n	1560 <usart_sync_write+0x20>
    1568:	9b01      	ldr	r3, [sp, #4]
    156a:	3401      	adds	r4, #1
    156c:	429c      	cmp	r4, r3
    156e:	d3f3      	bcc.n	1558 <usart_sync_write+0x18>
    1570:	0028      	movs	r0, r5
    1572:	4b05      	ldr	r3, [pc, #20]	; (1588 <usart_sync_write+0x48>)
    1574:	4798      	blx	r3
    1576:	2800      	cmp	r0, #0
    1578:	d0fa      	beq.n	1570 <usart_sync_write+0x30>
    157a:	0020      	movs	r0, r4
    157c:	bdfe      	pop	{r1, r2, r3, r4, r5, r6, r7, pc}
    157e:	46c0      	nop			; (mov r8, r8)
    1580:	00002919 	.word	0x00002919
    1584:	00002901 	.word	0x00002901
    1588:	00002923 	.word	0x00002923

0000158c <usart_sync_read>:
    158c:	b5f7      	push	{r0, r1, r2, r4, r5, r6, r7, lr}
    158e:	0007      	movs	r7, r0
    1590:	000e      	movs	r6, r1
    1592:	2400      	movs	r4, #0
    1594:	9201      	str	r2, [sp, #4]
    1596:	003d      	movs	r5, r7
    1598:	3508      	adds	r5, #8
    159a:	0028      	movs	r0, r5
    159c:	4b06      	ldr	r3, [pc, #24]	; (15b8 <usart_sync_read+0x2c>)
    159e:	4798      	blx	r3
    15a0:	2800      	cmp	r0, #0
    15a2:	d0f8      	beq.n	1596 <usart_sync_read+0xa>
    15a4:	4b05      	ldr	r3, [pc, #20]	; (15bc <usart_sync_read+0x30>)
    15a6:	0028      	movs	r0, r5
    15a8:	4798      	blx	r3
    15aa:	9b01      	ldr	r3, [sp, #4]
    15ac:	5530      	strb	r0, [r6, r4]
    15ae:	3401      	adds	r4, #1
    15b0:	429c      	cmp	r4, r3
    15b2:	d3f0      	bcc.n	1596 <usart_sync_read+0xa>
    15b4:	0020      	movs	r0, r4
    15b6:	bdfe      	pop	{r1, r2, r3, r4, r5, r6, r7, pc}
    15b8:	00002937 	.word	0x00002937
    15bc:	00002911 	.word	0x00002911

000015c0 <usart_sync_init>:
    15c0:	b510      	push	{r4, lr}
    15c2:	4b05      	ldr	r3, [pc, #20]	; (15d8 <usart_sync_init+0x18>)
    15c4:	0004      	movs	r4, r0
    15c6:	3008      	adds	r0, #8
    15c8:	4798      	blx	r3
    15ca:	2800      	cmp	r0, #0
    15cc:	d103      	bne.n	15d6 <usart_sync_init+0x16>
    15ce:	4b03      	ldr	r3, [pc, #12]	; (15dc <usart_sync_init+0x1c>)
    15d0:	6063      	str	r3, [r4, #4]
    15d2:	4b03      	ldr	r3, [pc, #12]	; (15e0 <usart_sync_init+0x20>)
    15d4:	6023      	str	r3, [r4, #0]
    15d6:	bd10      	pop	{r4, pc}
    15d8:	00002869 	.word	0x00002869
    15dc:	0000158d 	.word	0x0000158d
    15e0:	00001541 	.word	0x00001541

000015e4 <usart_sync_enable>:
    15e4:	b510      	push	{r4, lr}
    15e6:	3008      	adds	r0, #8
    15e8:	4b01      	ldr	r3, [pc, #4]	; (15f0 <usart_sync_enable+0xc>)
    15ea:	4798      	blx	r3
    15ec:	2000      	movs	r0, #0
    15ee:	bd10      	pop	{r4, pc}
    15f0:	000028d1 	.word	0x000028d1

000015f4 <_usb_d_find_ep>:
    15f4:	220f      	movs	r2, #15
    15f6:	2300      	movs	r3, #0
    15f8:	b570      	push	{r4, r5, r6, lr}
    15fa:	4c0a      	ldr	r4, [pc, #40]	; (1624 <_usb_d_find_ep+0x30>)
    15fc:	4002      	ands	r2, r0
    15fe:	015e      	lsls	r6, r3, #5
    1600:	19a5      	adds	r5, r4, r6
    1602:	786d      	ldrb	r5, [r5, #1]
    1604:	b259      	sxtb	r1, r3
    1606:	4285      	cmp	r5, r0
    1608:	d009      	beq.n	161e <_usb_d_find_ep+0x2a>
    160a:	5d36      	ldrb	r6, [r6, r4]
    160c:	2e00      	cmp	r6, #0
    160e:	d101      	bne.n	1614 <_usb_d_find_ep+0x20>
    1610:	42aa      	cmp	r2, r5
    1612:	d004      	beq.n	161e <_usb_d_find_ep+0x2a>
    1614:	3301      	adds	r3, #1
    1616:	2b0d      	cmp	r3, #13
    1618:	d1f1      	bne.n	15fe <_usb_d_find_ep+0xa>
    161a:	2101      	movs	r1, #1
    161c:	4249      	negs	r1, r1
    161e:	0008      	movs	r0, r1
    1620:	bd70      	pop	{r4, r5, r6, pc}
    1622:	46c0      	nop			; (mov r8, r8)
    1624:	20000208 	.word	0x20000208

00001628 <usb_d_dummy_cb_false>:
    1628:	2000      	movs	r0, #0
    162a:	4770      	bx	lr

0000162c <usb_d_cb_trans_more>:
    162c:	b570      	push	{r4, r5, r6, lr}
    162e:	4b08      	ldr	r3, [pc, #32]	; (1650 <usb_d_cb_trans_more+0x24>)
    1630:	0004      	movs	r4, r0
    1632:	000d      	movs	r5, r1
    1634:	4798      	blx	r3
    1636:	4b07      	ldr	r3, [pc, #28]	; (1654 <usb_d_cb_trans_more+0x28>)
    1638:	0140      	lsls	r0, r0, #5
    163a:	181b      	adds	r3, r3, r0
    163c:	789a      	ldrb	r2, [r3, #2]
    163e:	2000      	movs	r0, #0
    1640:	2a03      	cmp	r2, #3
    1642:	d103      	bne.n	164c <usb_d_cb_trans_more+0x20>
    1644:	699b      	ldr	r3, [r3, #24]
    1646:	0029      	movs	r1, r5
    1648:	0020      	movs	r0, r4
    164a:	4798      	blx	r3
    164c:	bd70      	pop	{r4, r5, r6, pc}
    164e:	46c0      	nop			; (mov r8, r8)
    1650:	000015f5 	.word	0x000015f5
    1654:	20000208 	.word	0x20000208

00001658 <_usb_d_cb_trans_done>:
    1658:	b5f0      	push	{r4, r5, r6, r7, lr}
    165a:	4b39      	ldr	r3, [pc, #228]	; (1740 <_usb_d_cb_trans_done+0xe8>)
    165c:	b087      	sub	sp, #28
    165e:	9000      	str	r0, [sp, #0]
    1660:	000f      	movs	r7, r1
    1662:	9201      	str	r2, [sp, #4]
    1664:	4798      	blx	r3
    1666:	4d37      	ldr	r5, [pc, #220]	; (1744 <_usb_d_cb_trans_done+0xec>)
    1668:	0144      	lsls	r4, r0, #5
    166a:	2f00      	cmp	r7, #0
    166c:	d142      	bne.n	16f4 <_usb_d_cb_trans_done+0x9c>
    166e:	192e      	adds	r6, r5, r4
    1670:	70f7      	strb	r7, [r6, #3]
    1672:	5d29      	ldrb	r1, [r5, r4]
    1674:	2900      	cmp	r1, #0
    1676:	d134      	bne.n	16e2 <_usb_d_cb_trans_done+0x8a>
    1678:	0022      	movs	r2, r4
    167a:	78b7      	ldrb	r7, [r6, #2]
    167c:	320c      	adds	r2, #12
    167e:	7870      	ldrb	r0, [r6, #1]
    1680:	69f3      	ldr	r3, [r6, #28]
    1682:	2f03      	cmp	r7, #3
    1684:	d128      	bne.n	16d8 <_usb_d_cb_trans_done+0x80>
    1686:	270c      	movs	r7, #12
    1688:	18aa      	adds	r2, r5, r2
    168a:	3101      	adds	r1, #1
    168c:	57f7      	ldrsb	r7, [r6, r7]
    168e:	4798      	blx	r3
    1690:	7873      	ldrb	r3, [r6, #1]
    1692:	2800      	cmp	r0, #0
    1694:	d00d      	beq.n	16b2 <_usb_d_cb_trans_done+0x5a>
    1696:	2205      	movs	r2, #5
    1698:	70b2      	strb	r2, [r6, #2]
    169a:	3a03      	subs	r2, #3
    169c:	70f2      	strb	r2, [r6, #3]
    169e:	0018      	movs	r0, r3
    16a0:	2f00      	cmp	r7, #0
    16a2:	db01      	blt.n	16a8 <_usb_d_cb_trans_done+0x50>
    16a4:	2080      	movs	r0, #128	; 0x80
    16a6:	4318      	orrs	r0, r3
    16a8:	2101      	movs	r1, #1
    16aa:	4b27      	ldr	r3, [pc, #156]	; (1748 <_usb_d_cb_trans_done+0xf0>)
    16ac:	4798      	blx	r3
    16ae:	b007      	add	sp, #28
    16b0:	bdf0      	pop	{r4, r5, r6, r7, pc}
    16b2:	2204      	movs	r2, #4
    16b4:	70b2      	strb	r2, [r6, #2]
    16b6:	aa03      	add	r2, sp, #12
    16b8:	9003      	str	r0, [sp, #12]
    16ba:	6050      	str	r0, [r2, #4]
    16bc:	2f00      	cmp	r7, #0
    16be:	db08      	blt.n	16d2 <_usb_d_cb_trans_done+0x7a>
    16c0:	2080      	movs	r0, #128	; 0x80
    16c2:	4303      	orrs	r3, r0
    16c4:	7213      	strb	r3, [r2, #8]
    16c6:	2301      	movs	r3, #1
    16c8:	0010      	movs	r0, r2
    16ca:	7253      	strb	r3, [r2, #9]
    16cc:	4b1f      	ldr	r3, [pc, #124]	; (174c <_usb_d_cb_trans_done+0xf4>)
    16ce:	4798      	blx	r3
    16d0:	e7ed      	b.n	16ae <_usb_d_cb_trans_done+0x56>
    16d2:	200f      	movs	r0, #15
    16d4:	4003      	ands	r3, r0
    16d6:	e7f5      	b.n	16c4 <_usb_d_cb_trans_done+0x6c>
    16d8:	18aa      	adds	r2, r5, r2
    16da:	4798      	blx	r3
    16dc:	2302      	movs	r3, #2
    16de:	70b3      	strb	r3, [r6, #2]
    16e0:	e7e5      	b.n	16ae <_usb_d_cb_trans_done+0x56>
    16e2:	2301      	movs	r3, #1
    16e4:	70b3      	strb	r3, [r6, #2]
    16e6:	192c      	adds	r4, r5, r4
    16e8:	78e1      	ldrb	r1, [r4, #3]
    16ea:	69e3      	ldr	r3, [r4, #28]
    16ec:	9a01      	ldr	r2, [sp, #4]
    16ee:	9800      	ldr	r0, [sp, #0]
    16f0:	4798      	blx	r3
    16f2:	e7dc      	b.n	16ae <_usb_d_cb_trans_done+0x56>
    16f4:	192b      	adds	r3, r5, r4
    16f6:	2f01      	cmp	r7, #1
    16f8:	d10c      	bne.n	1714 <_usb_d_cb_trans_done+0xbc>
    16fa:	2202      	movs	r2, #2
    16fc:	70da      	strb	r2, [r3, #3]
    16fe:	5d29      	ldrb	r1, [r5, r4]
    1700:	2900      	cmp	r1, #0
    1702:	d104      	bne.n	170e <_usb_d_cb_trans_done+0xb6>
    1704:	709a      	strb	r2, [r3, #2]
    1706:	9800      	ldr	r0, [sp, #0]
    1708:	4b0f      	ldr	r3, [pc, #60]	; (1748 <_usb_d_cb_trans_done+0xf0>)
    170a:	4798      	blx	r3
    170c:	e7eb      	b.n	16e6 <_usb_d_cb_trans_done+0x8e>
    170e:	2205      	movs	r2, #5
    1710:	709a      	strb	r2, [r3, #2]
    1712:	e7e8      	b.n	16e6 <_usb_d_cb_trans_done+0x8e>
    1714:	2f02      	cmp	r7, #2
    1716:	d108      	bne.n	172a <_usb_d_cb_trans_done+0xd2>
    1718:	2204      	movs	r2, #4
    171a:	70da      	strb	r2, [r3, #3]
    171c:	5d2a      	ldrb	r2, [r5, r4]
    171e:	2a00      	cmp	r2, #0
    1720:	d101      	bne.n	1726 <_usb_d_cb_trans_done+0xce>
    1722:	709f      	strb	r7, [r3, #2]
    1724:	e7c3      	b.n	16ae <_usb_d_cb_trans_done+0x56>
    1726:	2201      	movs	r2, #1
    1728:	e7f2      	b.n	1710 <_usb_d_cb_trans_done+0xb8>
    172a:	2f03      	cmp	r7, #3
    172c:	d104      	bne.n	1738 <_usb_d_cb_trans_done+0xe0>
    172e:	2200      	movs	r2, #0
    1730:	709a      	strb	r2, [r3, #2]
    1732:	3205      	adds	r2, #5
    1734:	70da      	strb	r2, [r3, #3]
    1736:	e7d6      	b.n	16e6 <_usb_d_cb_trans_done+0x8e>
    1738:	2206      	movs	r2, #6
    173a:	709a      	strb	r2, [r3, #2]
    173c:	e7fa      	b.n	1734 <_usb_d_cb_trans_done+0xdc>
    173e:	46c0      	nop			; (mov r8, r8)
    1740:	000015f5 	.word	0x000015f5
    1744:	20000208 	.word	0x20000208
    1748:	00003715 	.word	0x00003715
    174c:	0000383d 	.word	0x0000383d

00001750 <usb_d_cb_trans_setup>:
    1750:	b5f0      	push	{r4, r5, r6, r7, lr}
    1752:	4b1c      	ldr	r3, [pc, #112]	; (17c4 <usb_d_cb_trans_setup+0x74>)
    1754:	b085      	sub	sp, #20
    1756:	0004      	movs	r4, r0
    1758:	4798      	blx	r3
    175a:	4f1b      	ldr	r7, [pc, #108]	; (17c8 <usb_d_cb_trans_setup+0x78>)
    175c:	0143      	lsls	r3, r0, #5
    175e:	9303      	str	r3, [sp, #12]
    1760:	330c      	adds	r3, #12
    1762:	18fb      	adds	r3, r7, r3
    1764:	9301      	str	r3, [sp, #4]
    1766:	0019      	movs	r1, r3
    1768:	0020      	movs	r0, r4
    176a:	4b18      	ldr	r3, [pc, #96]	; (17cc <usb_d_cb_trans_setup+0x7c>)
    176c:	4798      	blx	r3
    176e:	2680      	movs	r6, #128	; 0x80
    1770:	b2c0      	uxtb	r0, r0
    1772:	4d17      	ldr	r5, [pc, #92]	; (17d0 <usb_d_cb_trans_setup+0x80>)
    1774:	4276      	negs	r6, r6
    1776:	2808      	cmp	r0, #8
    1778:	d008      	beq.n	178c <usb_d_cb_trans_setup+0x3c>
    177a:	2101      	movs	r1, #1
    177c:	0020      	movs	r0, r4
    177e:	47a8      	blx	r5
    1780:	2101      	movs	r1, #1
    1782:	4334      	orrs	r4, r6
    1784:	b2e0      	uxtb	r0, r4
    1786:	47a8      	blx	r5
    1788:	b005      	add	sp, #20
    178a:	bdf0      	pop	{r4, r5, r6, r7, pc}
    178c:	2100      	movs	r1, #0
    178e:	4326      	orrs	r6, r4
    1790:	0020      	movs	r0, r4
    1792:	47a8      	blx	r5
    1794:	b2f3      	uxtb	r3, r6
    1796:	2100      	movs	r1, #0
    1798:	0018      	movs	r0, r3
    179a:	9302      	str	r3, [sp, #8]
    179c:	47a8      	blx	r5
    179e:	9b03      	ldr	r3, [sp, #12]
    17a0:	9901      	ldr	r1, [sp, #4]
    17a2:	18fe      	adds	r6, r7, r3
    17a4:	2701      	movs	r7, #1
    17a6:	0020      	movs	r0, r4
    17a8:	70b7      	strb	r7, [r6, #2]
    17aa:	6973      	ldr	r3, [r6, #20]
    17ac:	4798      	blx	r3
    17ae:	2800      	cmp	r0, #0
    17b0:	d1ea      	bne.n	1788 <usb_d_cb_trans_setup+0x38>
    17b2:	2305      	movs	r3, #5
    17b4:	0039      	movs	r1, r7
    17b6:	70b3      	strb	r3, [r6, #2]
    17b8:	0020      	movs	r0, r4
    17ba:	47a8      	blx	r5
    17bc:	0039      	movs	r1, r7
    17be:	9802      	ldr	r0, [sp, #8]
    17c0:	e7e1      	b.n	1786 <usb_d_cb_trans_setup+0x36>
    17c2:	46c0      	nop			; (mov r8, r8)
    17c4:	000015f5 	.word	0x000015f5
    17c8:	20000208 	.word	0x20000208
    17cc:	000037e5 	.word	0x000037e5
    17d0:	00003715 	.word	0x00003715

000017d4 <usb_d_init>:
    17d4:	b510      	push	{r4, lr}
    17d6:	4b12      	ldr	r3, [pc, #72]	; (1820 <usb_d_init+0x4c>)
    17d8:	4798      	blx	r3
    17da:	2800      	cmp	r0, #0
    17dc:	db1f      	blt.n	181e <usb_d_init+0x4a>
    17de:	22d0      	movs	r2, #208	; 0xd0
    17e0:	4c10      	ldr	r4, [pc, #64]	; (1824 <usb_d_init+0x50>)
    17e2:	0052      	lsls	r2, r2, #1
    17e4:	0020      	movs	r0, r4
    17e6:	4b10      	ldr	r3, [pc, #64]	; (1828 <usb_d_init+0x54>)
    17e8:	2100      	movs	r1, #0
    17ea:	4798      	blx	r3
    17ec:	20ff      	movs	r0, #255	; 0xff
    17ee:	1c63      	adds	r3, r4, #1
    17f0:	4a0e      	ldr	r2, [pc, #56]	; (182c <usb_d_init+0x58>)
    17f2:	34a2      	adds	r4, #162	; 0xa2
    17f4:	34ff      	adds	r4, #255	; 0xff
    17f6:	0019      	movs	r1, r3
    17f8:	7018      	strb	r0, [r3, #0]
    17fa:	3113      	adds	r1, #19
    17fc:	3320      	adds	r3, #32
    17fe:	600a      	str	r2, [r1, #0]
    1800:	604a      	str	r2, [r1, #4]
    1802:	608a      	str	r2, [r1, #8]
    1804:	42a3      	cmp	r3, r4
    1806:	d1f6      	bne.n	17f6 <usb_d_init+0x22>
    1808:	4c09      	ldr	r4, [pc, #36]	; (1830 <usb_d_init+0x5c>)
    180a:	490a      	ldr	r1, [pc, #40]	; (1834 <usb_d_init+0x60>)
    180c:	2000      	movs	r0, #0
    180e:	47a0      	blx	r4
    1810:	4909      	ldr	r1, [pc, #36]	; (1838 <usb_d_init+0x64>)
    1812:	2001      	movs	r0, #1
    1814:	47a0      	blx	r4
    1816:	2002      	movs	r0, #2
    1818:	4908      	ldr	r1, [pc, #32]	; (183c <usb_d_init+0x68>)
    181a:	47a0      	blx	r4
    181c:	2000      	movs	r0, #0
    181e:	bd10      	pop	{r4, pc}
    1820:	00003369 	.word	0x00003369
    1824:	20000208 	.word	0x20000208
    1828:	0000708d 	.word	0x0000708d
    182c:	00001629 	.word	0x00001629
    1830:	00003979 	.word	0x00003979
    1834:	00001751 	.word	0x00001751
    1838:	0000162d 	.word	0x0000162d
    183c:	00001659 	.word	0x00001659

00001840 <usb_d_register_callback>:
    1840:	b510      	push	{r4, lr}
    1842:	4b01      	ldr	r3, [pc, #4]	; (1848 <usb_d_register_callback+0x8>)
    1844:	4798      	blx	r3
    1846:	bd10      	pop	{r4, pc}
    1848:	00003955 	.word	0x00003955

0000184c <usb_d_enable>:
    184c:	b510      	push	{r4, lr}
    184e:	4b01      	ldr	r3, [pc, #4]	; (1854 <usb_d_enable+0x8>)
    1850:	4798      	blx	r3
    1852:	bd10      	pop	{r4, pc}
    1854:	0000342d 	.word	0x0000342d

00001858 <usb_d_attach>:
    1858:	b510      	push	{r4, lr}
    185a:	4b01      	ldr	r3, [pc, #4]	; (1860 <usb_d_attach+0x8>)
    185c:	4798      	blx	r3
    185e:	bd10      	pop	{r4, pc}
    1860:	00003475 	.word	0x00003475

00001864 <usb_d_set_address>:
    1864:	b510      	push	{r4, lr}
    1866:	4b01      	ldr	r3, [pc, #4]	; (186c <usb_d_set_address+0x8>)
    1868:	4798      	blx	r3
    186a:	bd10      	pop	{r4, pc}
    186c:	00003485 	.word	0x00003485

00001870 <usb_d_ep_init>:
    1870:	b5f8      	push	{r3, r4, r5, r6, r7, lr}
    1872:	4c10      	ldr	r4, [pc, #64]	; (18b4 <usb_d_ep_init+0x44>)
    1874:	0006      	movs	r6, r0
    1876:	000d      	movs	r5, r1
    1878:	0017      	movs	r7, r2
    187a:	47a0      	blx	r4
    187c:	2800      	cmp	r0, #0
    187e:	da13      	bge.n	18a8 <usb_d_ep_init+0x38>
    1880:	20ff      	movs	r0, #255	; 0xff
    1882:	47a0      	blx	r4
    1884:	1e04      	subs	r4, r0, #0
    1886:	db12      	blt.n	18ae <usb_d_ep_init+0x3e>
    1888:	003a      	movs	r2, r7
    188a:	0029      	movs	r1, r5
    188c:	0030      	movs	r0, r6
    188e:	4b0a      	ldr	r3, [pc, #40]	; (18b8 <usb_d_ep_init+0x48>)
    1890:	4798      	blx	r3
    1892:	2800      	cmp	r0, #0
    1894:	db07      	blt.n	18a6 <usb_d_ep_init+0x36>
    1896:	4b09      	ldr	r3, [pc, #36]	; (18bc <usb_d_ep_init+0x4c>)
    1898:	0164      	lsls	r4, r4, #5
    189a:	191a      	adds	r2, r3, r4
    189c:	7056      	strb	r6, [r2, #1]
    189e:	2203      	movs	r2, #3
    18a0:	2000      	movs	r0, #0
    18a2:	4015      	ands	r5, r2
    18a4:	54e5      	strb	r5, [r4, r3]
    18a6:	bdf8      	pop	{r3, r4, r5, r6, r7, pc}
    18a8:	2014      	movs	r0, #20
    18aa:	4240      	negs	r0, r0
    18ac:	e7fb      	b.n	18a6 <usb_d_ep_init+0x36>
    18ae:	2015      	movs	r0, #21
    18b0:	e7fb      	b.n	18aa <usb_d_ep_init+0x3a>
    18b2:	46c0      	nop			; (mov r8, r8)
    18b4:	000015f5 	.word	0x000015f5
    18b8:	00003495 	.word	0x00003495
    18bc:	20000208 	.word	0x20000208

000018c0 <usb_d_ep0_init>:
    18c0:	2100      	movs	r1, #0
    18c2:	b510      	push	{r4, lr}
    18c4:	b282      	uxth	r2, r0
    18c6:	4b02      	ldr	r3, [pc, #8]	; (18d0 <usb_d_ep0_init+0x10>)
    18c8:	0008      	movs	r0, r1
    18ca:	4798      	blx	r3
    18cc:	bd10      	pop	{r4, pc}
    18ce:	46c0      	nop			; (mov r8, r8)
    18d0:	00001871 	.word	0x00001871

000018d4 <usb_d_ep_deinit>:
    18d4:	b570      	push	{r4, r5, r6, lr}
    18d6:	4b07      	ldr	r3, [pc, #28]	; (18f4 <usb_d_ep_deinit+0x20>)
    18d8:	0005      	movs	r5, r0
    18da:	4798      	blx	r3
    18dc:	1e04      	subs	r4, r0, #0
    18de:	db07      	blt.n	18f0 <usb_d_ep_deinit+0x1c>
    18e0:	4b05      	ldr	r3, [pc, #20]	; (18f8 <usb_d_ep_deinit+0x24>)
    18e2:	0028      	movs	r0, r5
    18e4:	4798      	blx	r3
    18e6:	4b05      	ldr	r3, [pc, #20]	; (18fc <usb_d_ep_deinit+0x28>)
    18e8:	0164      	lsls	r4, r4, #5
    18ea:	191c      	adds	r4, r3, r4
    18ec:	23ff      	movs	r3, #255	; 0xff
    18ee:	7063      	strb	r3, [r4, #1]
    18f0:	bd70      	pop	{r4, r5, r6, pc}
    18f2:	46c0      	nop			; (mov r8, r8)
    18f4:	000015f5 	.word	0x000015f5
    18f8:	0000355d 	.word	0x0000355d
    18fc:	20000208 	.word	0x20000208

00001900 <usb_d_ep_enable>:
    1900:	b570      	push	{r4, r5, r6, lr}
    1902:	4b0c      	ldr	r3, [pc, #48]	; (1934 <usb_d_ep_enable+0x34>)
    1904:	0005      	movs	r5, r0
    1906:	4798      	blx	r3
    1908:	2800      	cmp	r0, #0
    190a:	db0f      	blt.n	192c <usb_d_ep_enable+0x2c>
    190c:	4c0a      	ldr	r4, [pc, #40]	; (1938 <usb_d_ep_enable+0x38>)
    190e:	0140      	lsls	r0, r0, #5
    1910:	5d03      	ldrb	r3, [r0, r4]
    1912:	1824      	adds	r4, r4, r0
    1914:	425a      	negs	r2, r3
    1916:	4153      	adcs	r3, r2
    1918:	3301      	adds	r3, #1
    191a:	70a3      	strb	r3, [r4, #2]
    191c:	0028      	movs	r0, r5
    191e:	4b07      	ldr	r3, [pc, #28]	; (193c <usb_d_ep_enable+0x3c>)
    1920:	4798      	blx	r3
    1922:	2800      	cmp	r0, #0
    1924:	da01      	bge.n	192a <usb_d_ep_enable+0x2a>
    1926:	2300      	movs	r3, #0
    1928:	70a3      	strb	r3, [r4, #2]
    192a:	bd70      	pop	{r4, r5, r6, pc}
    192c:	2012      	movs	r0, #18
    192e:	4240      	negs	r0, r0
    1930:	e7fb      	b.n	192a <usb_d_ep_enable+0x2a>
    1932:	46c0      	nop			; (mov r8, r8)
    1934:	000015f5 	.word	0x000015f5
    1938:	20000208 	.word	0x20000208
    193c:	000035d9 	.word	0x000035d9

00001940 <usb_d_ep_transfer>:
    1940:	b5f0      	push	{r4, r5, r6, r7, lr}
    1942:	7a03      	ldrb	r3, [r0, #8]
    1944:	b08b      	sub	sp, #44	; 0x2c
    1946:	0005      	movs	r5, r0
    1948:	9301      	str	r3, [sp, #4]
    194a:	0018      	movs	r0, r3
    194c:	4b35      	ldr	r3, [pc, #212]	; (1a24 <usb_d_ep_transfer+0xe4>)
    194e:	4798      	blx	r3
    1950:	7a6b      	ldrb	r3, [r5, #9]
    1952:	1e06      	subs	r6, r0, #0
    1954:	9303      	str	r3, [sp, #12]
    1956:	686c      	ldr	r4, [r5, #4]
    1958:	db62      	blt.n	1a20 <usb_d_ep_transfer+0xe0>
    195a:	4b33      	ldr	r3, [pc, #204]	; (1a28 <usb_d_ep_transfer+0xe8>)
    195c:	a806      	add	r0, sp, #24
    195e:	4798      	blx	r3
    1960:	0173      	lsls	r3, r6, #5
    1962:	9300      	str	r3, [sp, #0]
    1964:	9a00      	ldr	r2, [sp, #0]
    1966:	4b31      	ldr	r3, [pc, #196]	; (1a2c <usb_d_ep_transfer+0xec>)
    1968:	189e      	adds	r6, r3, r2
    196a:	78b3      	ldrb	r3, [r6, #2]
    196c:	aa04      	add	r2, sp, #16
    196e:	1dd7      	adds	r7, r2, #7
    1970:	703b      	strb	r3, [r7, #0]
    1972:	783b      	ldrb	r3, [r7, #0]
    1974:	b2db      	uxtb	r3, r3
    1976:	9302      	str	r3, [sp, #8]
    1978:	9a02      	ldr	r2, [sp, #8]
    197a:	4b2d      	ldr	r3, [pc, #180]	; (1a30 <usb_d_ep_transfer+0xf0>)
    197c:	2a01      	cmp	r2, #1
    197e:	d11d      	bne.n	19bc <usb_d_ep_transfer+0x7c>
    1980:	3202      	adds	r2, #2
    1982:	70b2      	strb	r2, [r6, #2]
    1984:	a806      	add	r0, sp, #24
    1986:	4798      	blx	r3
    1988:	4b28      	ldr	r3, [pc, #160]	; (1a2c <usb_d_ep_transfer+0xec>)
    198a:	9a00      	ldr	r2, [sp, #0]
    198c:	5cd3      	ldrb	r3, [r2, r3]
    198e:	2b00      	cmp	r3, #0
    1990:	d025      	beq.n	19de <usb_d_ep_transfer+0x9e>
    1992:	9b01      	ldr	r3, [sp, #4]
    1994:	09da      	lsrs	r2, r3, #7
    1996:	9b03      	ldr	r3, [sp, #12]
    1998:	1e59      	subs	r1, r3, #1
    199a:	418b      	sbcs	r3, r1
    199c:	b2db      	uxtb	r3, r3
    199e:	7a29      	ldrb	r1, [r5, #8]
    19a0:	682d      	ldr	r5, [r5, #0]
    19a2:	a807      	add	r0, sp, #28
    19a4:	9507      	str	r5, [sp, #28]
    19a6:	6044      	str	r4, [r0, #4]
    19a8:	2a00      	cmp	r2, #0
    19aa:	d036      	beq.n	1a1a <usb_d_ep_transfer+0xda>
    19ac:	2280      	movs	r2, #128	; 0x80
    19ae:	430a      	orrs	r2, r1
    19b0:	7243      	strb	r3, [r0, #9]
    19b2:	4b20      	ldr	r3, [pc, #128]	; (1a34 <usb_d_ep_transfer+0xf4>)
    19b4:	7202      	strb	r2, [r0, #8]
    19b6:	4798      	blx	r3
    19b8:	b00b      	add	sp, #44	; 0x2c
    19ba:	bdf0      	pop	{r4, r5, r6, r7, pc}
    19bc:	a806      	add	r0, sp, #24
    19be:	4798      	blx	r3
    19c0:	783b      	ldrb	r3, [r7, #0]
    19c2:	2002      	movs	r0, #2
    19c4:	b2db      	uxtb	r3, r3
    19c6:	2b05      	cmp	r3, #5
    19c8:	d0f6      	beq.n	19b8 <usb_d_ep_transfer+0x78>
    19ca:	2b06      	cmp	r3, #6
    19cc:	d004      	beq.n	19d8 <usb_d_ep_transfer+0x98>
    19ce:	2001      	movs	r0, #1
    19d0:	2b00      	cmp	r3, #0
    19d2:	d1f1      	bne.n	19b8 <usb_d_ep_transfer+0x78>
    19d4:	2013      	movs	r0, #19
    19d6:	e000      	b.n	19da <usb_d_ep_transfer+0x9a>
    19d8:	2010      	movs	r0, #16
    19da:	4240      	negs	r0, r0
    19dc:	e7ec      	b.n	19b8 <usb_d_ep_transfer+0x78>
    19de:	7cf2      	ldrb	r2, [r6, #19]
    19e0:	7cb3      	ldrb	r3, [r6, #18]
    19e2:	0212      	lsls	r2, r2, #8
    19e4:	189b      	adds	r3, r3, r2
    19e6:	b29b      	uxth	r3, r3
    19e8:	2b00      	cmp	r3, #0
    19ea:	d105      	bne.n	19f8 <usb_d_ep_transfer+0xb8>
    19ec:	2204      	movs	r2, #4
    19ee:	001c      	movs	r4, r3
    19f0:	9b02      	ldr	r3, [sp, #8]
    19f2:	70b2      	strb	r2, [r6, #2]
    19f4:	001a      	movs	r2, r3
    19f6:	e7d2      	b.n	199e <usb_d_ep_transfer+0x5e>
    19f8:	429c      	cmp	r4, r3
    19fa:	d900      	bls.n	19fe <usb_d_ep_transfer+0xbe>
    19fc:	001c      	movs	r4, r3
    19fe:	490b      	ldr	r1, [pc, #44]	; (1a2c <usb_d_ep_transfer+0xec>)
    1a00:	9a00      	ldr	r2, [sp, #0]
    1a02:	468c      	mov	ip, r1
    1a04:	4462      	add	r2, ip
    1a06:	7b12      	ldrb	r2, [r2, #12]
    1a08:	2a7f      	cmp	r2, #127	; 0x7f
    1a0a:	d904      	bls.n	1a16 <usb_d_ep_transfer+0xd6>
    1a0c:	429c      	cmp	r4, r3
    1a0e:	419b      	sbcs	r3, r3
    1a10:	2201      	movs	r2, #1
    1a12:	425b      	negs	r3, r3
    1a14:	e7c3      	b.n	199e <usb_d_ep_transfer+0x5e>
    1a16:	2300      	movs	r3, #0
    1a18:	e7ec      	b.n	19f4 <usb_d_ep_transfer+0xb4>
    1a1a:	220f      	movs	r2, #15
    1a1c:	400a      	ands	r2, r1
    1a1e:	e7c7      	b.n	19b0 <usb_d_ep_transfer+0x70>
    1a20:	2012      	movs	r0, #18
    1a22:	e7da      	b.n	19da <usb_d_ep_transfer+0x9a>
    1a24:	000015f5 	.word	0x000015f5
    1a28:	00000d45 	.word	0x00000d45
    1a2c:	20000208 	.word	0x20000208
    1a30:	00000d53 	.word	0x00000d53
    1a34:	0000383d 	.word	0x0000383d

00001a38 <usb_d_ep_halt>:
    1a38:	b5f8      	push	{r3, r4, r5, r6, r7, lr}
    1a3a:	0004      	movs	r4, r0
    1a3c:	1e0d      	subs	r5, r1, #0
    1a3e:	d11b      	bne.n	1a78 <usb_d_ep_halt+0x40>
    1a40:	4b12      	ldr	r3, [pc, #72]	; (1a8c <usb_d_ep_halt+0x54>)
    1a42:	4798      	blx	r3
    1a44:	1e06      	subs	r6, r0, #0
    1a46:	db1e      	blt.n	1a86 <usb_d_ep_halt+0x4e>
    1a48:	2102      	movs	r1, #2
    1a4a:	0020      	movs	r0, r4
    1a4c:	4f10      	ldr	r7, [pc, #64]	; (1a90 <usb_d_ep_halt+0x58>)
    1a4e:	47b8      	blx	r7
    1a50:	2800      	cmp	r0, #0
    1a52:	d010      	beq.n	1a76 <usb_d_ep_halt+0x3e>
    1a54:	0029      	movs	r1, r5
    1a56:	0020      	movs	r0, r4
    1a58:	47b8      	blx	r7
    1a5a:	2800      	cmp	r0, #0
    1a5c:	db0b      	blt.n	1a76 <usb_d_ep_halt+0x3e>
    1a5e:	4b0d      	ldr	r3, [pc, #52]	; (1a94 <usb_d_ep_halt+0x5c>)
    1a60:	0176      	lsls	r6, r6, #5
    1a62:	199e      	adds	r6, r3, r6
    1a64:	2103      	movs	r1, #3
    1a66:	2301      	movs	r3, #1
    1a68:	70f1      	strb	r1, [r6, #3]
    1a6a:	70b3      	strb	r3, [r6, #2]
    1a6c:	002a      	movs	r2, r5
    1a6e:	69f3      	ldr	r3, [r6, #28]
    1a70:	0020      	movs	r0, r4
    1a72:	4798      	blx	r3
    1a74:	0028      	movs	r0, r5
    1a76:	bdf8      	pop	{r3, r4, r5, r6, r7, pc}
    1a78:	4b05      	ldr	r3, [pc, #20]	; (1a90 <usb_d_ep_halt+0x58>)
    1a7a:	2901      	cmp	r1, #1
    1a7c:	d000      	beq.n	1a80 <usb_d_ep_halt+0x48>
    1a7e:	2102      	movs	r1, #2
    1a80:	0020      	movs	r0, r4
    1a82:	4798      	blx	r3
    1a84:	e7f7      	b.n	1a76 <usb_d_ep_halt+0x3e>
    1a86:	2012      	movs	r0, #18
    1a88:	4240      	negs	r0, r0
    1a8a:	e7f4      	b.n	1a76 <usb_d_ep_halt+0x3e>
    1a8c:	000015f5 	.word	0x000015f5
    1a90:	00003715 	.word	0x00003715
    1a94:	20000208 	.word	0x20000208

00001a98 <usb_d_ep_register_callback>:
    1a98:	b570      	push	{r4, r5, r6, lr}
    1a9a:	4b0f      	ldr	r3, [pc, #60]	; (1ad8 <usb_d_ep_register_callback+0x40>)
    1a9c:	0015      	movs	r5, r2
    1a9e:	000c      	movs	r4, r1
    1aa0:	4798      	blx	r3
    1aa2:	2d00      	cmp	r5, #0
    1aa4:	d100      	bne.n	1aa8 <usb_d_ep_register_callback+0x10>
    1aa6:	4d0d      	ldr	r5, [pc, #52]	; (1adc <usb_d_ep_register_callback+0x44>)
    1aa8:	2800      	cmp	r0, #0
    1aaa:	db05      	blt.n	1ab8 <usb_d_ep_register_callback+0x20>
    1aac:	2c01      	cmp	r4, #1
    1aae:	d009      	beq.n	1ac4 <usb_d_ep_register_callback+0x2c>
    1ab0:	2c00      	cmp	r4, #0
    1ab2:	d002      	beq.n	1aba <usb_d_ep_register_callback+0x22>
    1ab4:	2c02      	cmp	r4, #2
    1ab6:	d00a      	beq.n	1ace <usb_d_ep_register_callback+0x36>
    1ab8:	bd70      	pop	{r4, r5, r6, pc}
    1aba:	4b09      	ldr	r3, [pc, #36]	; (1ae0 <usb_d_ep_register_callback+0x48>)
    1abc:	0140      	lsls	r0, r0, #5
    1abe:	1818      	adds	r0, r3, r0
    1ac0:	6145      	str	r5, [r0, #20]
    1ac2:	e7f9      	b.n	1ab8 <usb_d_ep_register_callback+0x20>
    1ac4:	4b06      	ldr	r3, [pc, #24]	; (1ae0 <usb_d_ep_register_callback+0x48>)
    1ac6:	0140      	lsls	r0, r0, #5
    1ac8:	1818      	adds	r0, r3, r0
    1aca:	6185      	str	r5, [r0, #24]
    1acc:	e7f4      	b.n	1ab8 <usb_d_ep_register_callback+0x20>
    1ace:	4b04      	ldr	r3, [pc, #16]	; (1ae0 <usb_d_ep_register_callback+0x48>)
    1ad0:	0140      	lsls	r0, r0, #5
    1ad2:	1818      	adds	r0, r3, r0
    1ad4:	61c5      	str	r5, [r0, #28]
    1ad6:	e7ef      	b.n	1ab8 <usb_d_ep_register_callback+0x20>
    1ad8:	000015f5 	.word	0x000015f5
    1adc:	00001629 	.word	0x00001629
    1ae0:	20000208 	.word	0x20000208

00001ae4 <is_list_element>:
    1ae4:	6800      	ldr	r0, [r0, #0]
    1ae6:	2800      	cmp	r0, #0
    1ae8:	d100      	bne.n	1aec <is_list_element+0x8>
    1aea:	4770      	bx	lr
    1aec:	4288      	cmp	r0, r1
    1aee:	d1f9      	bne.n	1ae4 <is_list_element>
    1af0:	2001      	movs	r0, #1
    1af2:	e7fa      	b.n	1aea <is_list_element+0x6>

00001af4 <list_insert_as_head>:
    1af4:	6803      	ldr	r3, [r0, #0]
    1af6:	600b      	str	r3, [r1, #0]
    1af8:	6001      	str	r1, [r0, #0]
    1afa:	4770      	bx	lr

00001afc <list_insert_after>:
    1afc:	6803      	ldr	r3, [r0, #0]
    1afe:	600b      	str	r3, [r1, #0]
    1b00:	6001      	str	r1, [r0, #0]
    1b02:	4770      	bx	lr

00001b04 <list_insert_at_end>:
    1b04:	6803      	ldr	r3, [r0, #0]
    1b06:	2b00      	cmp	r3, #0
    1b08:	d103      	bne.n	1b12 <list_insert_at_end+0xe>
    1b0a:	6001      	str	r1, [r0, #0]
    1b0c:	600b      	str	r3, [r1, #0]
    1b0e:	4770      	bx	lr
    1b10:	0013      	movs	r3, r2
    1b12:	681a      	ldr	r2, [r3, #0]
    1b14:	2a00      	cmp	r2, #0
    1b16:	d1fb      	bne.n	1b10 <list_insert_at_end+0xc>
    1b18:	6019      	str	r1, [r3, #0]
    1b1a:	600a      	str	r2, [r1, #0]
    1b1c:	e7f7      	b.n	1b0e <list_insert_at_end+0xa>

00001b1e <list_remove_head>:
    1b1e:	6803      	ldr	r3, [r0, #0]
    1b20:	2b00      	cmp	r3, #0
    1b22:	d001      	beq.n	1b28 <list_remove_head+0xa>
    1b24:	681a      	ldr	r2, [r3, #0]
    1b26:	6002      	str	r2, [r0, #0]
    1b28:	0018      	movs	r0, r3
    1b2a:	4770      	bx	lr

00001b2c <ringbuffer_init>:
    1b2c:	1e53      	subs	r3, r2, #1
    1b2e:	401a      	ands	r2, r3
    1b30:	d105      	bne.n	1b3e <ringbuffer_init+0x12>
    1b32:	6043      	str	r3, [r0, #4]
    1b34:	6082      	str	r2, [r0, #8]
    1b36:	60c2      	str	r2, [r0, #12]
    1b38:	6001      	str	r1, [r0, #0]
    1b3a:	0010      	movs	r0, r2
    1b3c:	4770      	bx	lr
    1b3e:	200d      	movs	r0, #13
    1b40:	4240      	negs	r0, r0
    1b42:	e7fb      	b.n	1b3c <ringbuffer_init+0x10>

00001b44 <ringbuffer_get>:
    1b44:	6883      	ldr	r3, [r0, #8]
    1b46:	68c2      	ldr	r2, [r0, #12]
    1b48:	429a      	cmp	r2, r3
    1b4a:	d009      	beq.n	1b60 <ringbuffer_get+0x1c>
    1b4c:	6842      	ldr	r2, [r0, #4]
    1b4e:	4013      	ands	r3, r2
    1b50:	6802      	ldr	r2, [r0, #0]
    1b52:	5cd3      	ldrb	r3, [r2, r3]
    1b54:	700b      	strb	r3, [r1, #0]
    1b56:	6883      	ldr	r3, [r0, #8]
    1b58:	3301      	adds	r3, #1
    1b5a:	6083      	str	r3, [r0, #8]
    1b5c:	2000      	movs	r0, #0
    1b5e:	4770      	bx	lr
    1b60:	200a      	movs	r0, #10
    1b62:	4240      	negs	r0, r0
    1b64:	e7fb      	b.n	1b5e <ringbuffer_get+0x1a>

00001b66 <ringbuffer_put>:
    1b66:	68c2      	ldr	r2, [r0, #12]
    1b68:	6843      	ldr	r3, [r0, #4]
    1b6a:	4013      	ands	r3, r2
    1b6c:	6802      	ldr	r2, [r0, #0]
    1b6e:	54d1      	strb	r1, [r2, r3]
    1b70:	68c3      	ldr	r3, [r0, #12]
    1b72:	6881      	ldr	r1, [r0, #8]
    1b74:	6842      	ldr	r2, [r0, #4]
    1b76:	1a59      	subs	r1, r3, r1
    1b78:	4291      	cmp	r1, r2
    1b7a:	d901      	bls.n	1b80 <ringbuffer_put+0x1a>
    1b7c:	1a9a      	subs	r2, r3, r2
    1b7e:	6082      	str	r2, [r0, #8]
    1b80:	3301      	adds	r3, #1
    1b82:	60c3      	str	r3, [r0, #12]
    1b84:	2000      	movs	r0, #0
    1b86:	4770      	bx	lr

00001b88 <ringbuffer_num>:
    1b88:	68c3      	ldr	r3, [r0, #12]
    1b8a:	6880      	ldr	r0, [r0, #8]
    1b8c:	1a18      	subs	r0, r3, r0
    1b8e:	4770      	bx	lr

00001b90 <_sbrk>:
    1b90:	4b05      	ldr	r3, [pc, #20]	; (1ba8 <_sbrk+0x18>)
    1b92:	0002      	movs	r2, r0
    1b94:	6819      	ldr	r1, [r3, #0]
    1b96:	2900      	cmp	r1, #0
    1b98:	d101      	bne.n	1b9e <_sbrk+0xe>
    1b9a:	4904      	ldr	r1, [pc, #16]	; (1bac <_sbrk+0x1c>)
    1b9c:	6019      	str	r1, [r3, #0]
    1b9e:	6818      	ldr	r0, [r3, #0]
    1ba0:	1882      	adds	r2, r0, r2
    1ba2:	601a      	str	r2, [r3, #0]
    1ba4:	4770      	bx	lr
    1ba6:	46c0      	nop			; (mov r8, r8)
    1ba8:	200003a8 	.word	0x200003a8
    1bac:	20002ad0 	.word	0x20002ad0

00001bb0 <_close>:
    1bb0:	2001      	movs	r0, #1
    1bb2:	4240      	negs	r0, r0
    1bb4:	4770      	bx	lr

00001bb6 <_fstat>:
    1bb6:	2380      	movs	r3, #128	; 0x80
    1bb8:	019b      	lsls	r3, r3, #6
    1bba:	2000      	movs	r0, #0
    1bbc:	604b      	str	r3, [r1, #4]
    1bbe:	4770      	bx	lr

00001bc0 <_isatty>:
    1bc0:	2001      	movs	r0, #1
    1bc2:	4770      	bx	lr

00001bc4 <_lseek>:
    1bc4:	2000      	movs	r0, #0
    1bc6:	4770      	bx	lr

00001bc8 <hri_adc_wait_for_sync>:
    1bc8:	7e43      	ldrb	r3, [r0, #25]
    1bca:	09db      	lsrs	r3, r3, #7
    1bcc:	d1fc      	bne.n	1bc8 <hri_adc_wait_for_sync>
    1bce:	4770      	bx	lr

00001bd0 <_adc_init>:
    1bd0:	b5f8      	push	{r3, r4, r5, r6, r7, lr}
    1bd2:	4b24      	ldr	r3, [pc, #144]	; (1c64 <_adc_init+0x94>)
    1bd4:	0004      	movs	r4, r0
    1bd6:	681a      	ldr	r2, [r3, #0]
    1bd8:	23e0      	movs	r3, #224	; 0xe0
    1bda:	0157      	lsls	r7, r2, #5
    1bdc:	00db      	lsls	r3, r3, #3
    1bde:	401f      	ands	r7, r3
    1be0:	4b21      	ldr	r3, [pc, #132]	; (1c68 <_adc_init+0x98>)
    1be2:	0152      	lsls	r2, r2, #5
    1be4:	681b      	ldr	r3, [r3, #0]
    1be6:	4e21      	ldr	r6, [pc, #132]	; (1c6c <_adc_init+0x9c>)
    1be8:	0edb      	lsrs	r3, r3, #27
    1bea:	4313      	orrs	r3, r2
    1bec:	b2db      	uxtb	r3, r3
    1bee:	431f      	orrs	r7, r3
    1bf0:	000d      	movs	r5, r1
    1bf2:	47b0      	blx	r6
    1bf4:	7823      	ldrb	r3, [r4, #0]
    1bf6:	079b      	lsls	r3, r3, #30
    1bf8:	d503      	bpl.n	1c02 <_adc_init+0x32>
    1bfa:	2300      	movs	r3, #0
    1bfc:	0020      	movs	r0, r4
    1bfe:	7023      	strb	r3, [r4, #0]
    1c00:	47b0      	blx	r6
    1c02:	2301      	movs	r3, #1
    1c04:	0020      	movs	r0, r4
    1c06:	7023      	strb	r3, [r4, #0]
    1c08:	47b0      	blx	r6
    1c0a:	231c      	movs	r3, #28
    1c0c:	435d      	muls	r5, r3
    1c0e:	4b18      	ldr	r3, [pc, #96]	; (1c70 <_adc_init+0xa0>)
    1c10:	8527      	strh	r7, [r4, #40]	; 0x28
    1c12:	195d      	adds	r5, r3, r5
    1c14:	78ab      	ldrb	r3, [r5, #2]
    1c16:	7eaa      	ldrb	r2, [r5, #26]
    1c18:	7063      	strb	r3, [r4, #1]
    1c1a:	78eb      	ldrb	r3, [r5, #3]
    1c1c:	0020      	movs	r0, r4
    1c1e:	70a3      	strb	r3, [r4, #2]
    1c20:	792b      	ldrb	r3, [r5, #4]
    1c22:	70e3      	strb	r3, [r4, #3]
    1c24:	7c2b      	ldrb	r3, [r5, #16]
    1c26:	7523      	strb	r3, [r4, #20]
    1c28:	8aeb      	ldrh	r3, [r5, #22]
    1c2a:	84a3      	strh	r3, [r4, #36]	; 0x24
    1c2c:	8b2b      	ldrh	r3, [r5, #24]
    1c2e:	84e3      	strh	r3, [r4, #38]	; 0x26
    1c30:	0023      	movs	r3, r4
    1c32:	332a      	adds	r3, #42	; 0x2a
    1c34:	701a      	strb	r2, [r3, #0]
    1c36:	88eb      	ldrh	r3, [r5, #6]
    1c38:	80a3      	strh	r3, [r4, #4]
    1c3a:	47b0      	blx	r6
    1c3c:	68eb      	ldr	r3, [r5, #12]
    1c3e:	0020      	movs	r0, r4
    1c40:	6123      	str	r3, [r4, #16]
    1c42:	47b0      	blx	r6
    1c44:	7a2b      	ldrb	r3, [r5, #8]
    1c46:	0020      	movs	r0, r4
    1c48:	7223      	strb	r3, [r4, #8]
    1c4a:	47b0      	blx	r6
    1c4c:	8a6b      	ldrh	r3, [r5, #18]
    1c4e:	0020      	movs	r0, r4
    1c50:	83a3      	strh	r3, [r4, #28]
    1c52:	47b0      	blx	r6
    1c54:	8aab      	ldrh	r3, [r5, #20]
    1c56:	0020      	movs	r0, r4
    1c58:	8423      	strh	r3, [r4, #32]
    1c5a:	47b0      	blx	r6
    1c5c:	786b      	ldrb	r3, [r5, #1]
    1c5e:	2000      	movs	r0, #0
    1c60:	7023      	strb	r3, [r4, #0]
    1c62:	bdf8      	pop	{r3, r4, r5, r6, r7, pc}
    1c64:	00806024 	.word	0x00806024
    1c68:	00806020 	.word	0x00806020
    1c6c:	00001bc9 	.word	0x00001bc9
    1c70:	00008538 	.word	0x00008538

00001c74 <_adc_get_regs.isra.1>:
    1c74:	2000      	movs	r0, #0
    1c76:	4770      	bx	lr

00001c78 <_adc_async_init>:
    1c78:	b570      	push	{r4, r5, r6, lr}
    1c7a:	4b0d      	ldr	r3, [pc, #52]	; (1cb0 <_adc_async_init+0x38>)
    1c7c:	000d      	movs	r5, r1
    1c7e:	0004      	movs	r4, r0
    1c80:	4798      	blx	r3
    1c82:	4b0c      	ldr	r3, [pc, #48]	; (1cb4 <_adc_async_init+0x3c>)
    1c84:	0001      	movs	r1, r0
    1c86:	0028      	movs	r0, r5
    1c88:	4798      	blx	r3
    1c8a:	2800      	cmp	r0, #0
    1c8c:	d10f      	bne.n	1cae <_adc_async_init+0x36>
    1c8e:	4b0a      	ldr	r3, [pc, #40]	; (1cb8 <_adc_async_init+0x40>)
    1c90:	490a      	ldr	r1, [pc, #40]	; (1cbc <_adc_async_init+0x44>)
    1c92:	601c      	str	r4, [r3, #0]
    1c94:	2380      	movs	r3, #128	; 0x80
    1c96:	041b      	lsls	r3, r3, #16
    1c98:	6165      	str	r5, [r4, #20]
    1c9a:	4a09      	ldr	r2, [pc, #36]	; (1cc0 <_adc_async_init+0x48>)
    1c9c:	67cb      	str	r3, [r1, #124]	; 0x7c
    1c9e:	f3bf 8f4f 	dsb	sy
    1ca2:	f3bf 8f6f 	isb	sy
    1ca6:	21c0      	movs	r1, #192	; 0xc0
    1ca8:	0049      	lsls	r1, r1, #1
    1caa:	5053      	str	r3, [r2, r1]
    1cac:	6013      	str	r3, [r2, #0]
    1cae:	bd70      	pop	{r4, r5, r6, pc}
    1cb0:	00001c75 	.word	0x00001c75
    1cb4:	00001bd1 	.word	0x00001bd1
    1cb8:	200003ac 	.word	0x200003ac
    1cbc:	e000e104 	.word	0xe000e104
    1cc0:	e000e100 	.word	0xe000e100

00001cc4 <_adc_async_enable_channel>:
    1cc4:	2302      	movs	r3, #2
    1cc6:	6942      	ldr	r2, [r0, #20]
    1cc8:	7811      	ldrb	r1, [r2, #0]
    1cca:	430b      	orrs	r3, r1
    1ccc:	7013      	strb	r3, [r2, #0]
    1cce:	4770      	bx	lr

00001cd0 <_adc_async_get_data_size>:
    1cd0:	b510      	push	{r4, lr}
    1cd2:	6944      	ldr	r4, [r0, #20]
    1cd4:	4b05      	ldr	r3, [pc, #20]	; (1cec <_adc_async_get_data_size+0x1c>)
    1cd6:	0020      	movs	r0, r4
    1cd8:	4798      	blx	r3
    1cda:	88a0      	ldrh	r0, [r4, #4]
    1cdc:	0680      	lsls	r0, r0, #26
    1cde:	0f80      	lsrs	r0, r0, #30
    1ce0:	3803      	subs	r0, #3
    1ce2:	1e43      	subs	r3, r0, #1
    1ce4:	4198      	sbcs	r0, r3
    1ce6:	3001      	adds	r0, #1
    1ce8:	bd10      	pop	{r4, pc}
    1cea:	46c0      	nop			; (mov r8, r8)
    1cec:	00001bc9 	.word	0x00001bc9

00001cf0 <_adc_async_convert>:
    1cf0:	2302      	movs	r3, #2
    1cf2:	b510      	push	{r4, lr}
    1cf4:	6940      	ldr	r0, [r0, #20]
    1cf6:	7b02      	ldrb	r2, [r0, #12]
    1cf8:	4313      	orrs	r3, r2
    1cfa:	7303      	strb	r3, [r0, #12]
    1cfc:	4b01      	ldr	r3, [pc, #4]	; (1d04 <_adc_async_convert+0x14>)
    1cfe:	4798      	blx	r3
    1d00:	bd10      	pop	{r4, pc}
    1d02:	46c0      	nop			; (mov r8, r8)
    1d04:	00001bc9 	.word	0x00001bc9

00001d08 <_adc_async_set_irq_state>:
    1d08:	6941      	ldr	r1, [r0, #20]
    1d0a:	2a01      	cmp	r2, #1
    1d0c:	d104      	bne.n	1d18 <_adc_async_set_irq_state+0x10>
    1d0e:	3203      	adds	r2, #3
    1d10:	2b00      	cmp	r3, #0
    1d12:	d107      	bne.n	1d24 <_adc_async_set_irq_state+0x1c>
    1d14:	758a      	strb	r2, [r1, #22]
    1d16:	4770      	bx	lr
    1d18:	2a02      	cmp	r2, #2
    1d1a:	d0f9      	beq.n	1d10 <_adc_async_set_irq_state+0x8>
    1d1c:	2a00      	cmp	r2, #0
    1d1e:	d1fa      	bne.n	1d16 <_adc_async_set_irq_state+0xe>
    1d20:	3201      	adds	r2, #1
    1d22:	e7f5      	b.n	1d10 <_adc_async_set_irq_state+0x8>
    1d24:	75ca      	strb	r2, [r1, #23]
    1d26:	e7f6      	b.n	1d16 <_adc_async_set_irq_state+0xe>

00001d28 <ADC_Handler>:
    1d28:	4b12      	ldr	r3, [pc, #72]	; (1d74 <ADC_Handler+0x4c>)
    1d2a:	b570      	push	{r4, r5, r6, lr}
    1d2c:	681c      	ldr	r4, [r3, #0]
    1d2e:	6965      	ldr	r5, [r4, #20]
    1d30:	7e2b      	ldrb	r3, [r5, #24]
    1d32:	7dea      	ldrb	r2, [r5, #23]
    1d34:	4013      	ands	r3, r2
    1d36:	0019      	movs	r1, r3
    1d38:	2201      	movs	r2, #1
    1d3a:	4011      	ands	r1, r2
    1d3c:	d00a      	beq.n	1d54 <ADC_Handler+0x2c>
    1d3e:	762a      	strb	r2, [r5, #24]
    1d40:	0028      	movs	r0, r5
    1d42:	4b0d      	ldr	r3, [pc, #52]	; (1d78 <ADC_Handler+0x50>)
    1d44:	68a6      	ldr	r6, [r4, #8]
    1d46:	4798      	blx	r3
    1d48:	8b6a      	ldrh	r2, [r5, #26]
    1d4a:	2100      	movs	r1, #0
    1d4c:	b292      	uxth	r2, r2
    1d4e:	0020      	movs	r0, r4
    1d50:	47b0      	blx	r6
    1d52:	bd70      	pop	{r4, r5, r6, pc}
    1d54:	2002      	movs	r0, #2
    1d56:	001a      	movs	r2, r3
    1d58:	4002      	ands	r2, r0
    1d5a:	d004      	beq.n	1d66 <ADC_Handler+0x3e>
    1d5c:	7628      	strb	r0, [r5, #24]
    1d5e:	6863      	ldr	r3, [r4, #4]
    1d60:	0020      	movs	r0, r4
    1d62:	4798      	blx	r3
    1d64:	e7f5      	b.n	1d52 <ADC_Handler+0x2a>
    1d66:	2104      	movs	r1, #4
    1d68:	420b      	tst	r3, r1
    1d6a:	d0f2      	beq.n	1d52 <ADC_Handler+0x2a>
    1d6c:	7629      	strb	r1, [r5, #24]
    1d6e:	6823      	ldr	r3, [r4, #0]
    1d70:	0011      	movs	r1, r2
    1d72:	e7f5      	b.n	1d60 <ADC_Handler+0x38>
    1d74:	200003ac 	.word	0x200003ac
    1d78:	00001bc9 	.word	0x00001bc9

00001d7c <_get_cycles_for_us>:
    1d7c:	0003      	movs	r3, r0
    1d7e:	20c8      	movs	r0, #200	; 0xc8
    1d80:	2196      	movs	r1, #150	; 0x96
    1d82:	0080      	lsls	r0, r0, #2
    1d84:	4358      	muls	r0, r3
    1d86:	b510      	push	{r4, lr}
    1d88:	302c      	adds	r0, #44	; 0x2c
    1d8a:	30ff      	adds	r0, #255	; 0xff
    1d8c:	0049      	lsls	r1, r1, #1
    1d8e:	4b01      	ldr	r3, [pc, #4]	; (1d94 <_get_cycles_for_us+0x18>)
    1d90:	4798      	blx	r3
    1d92:	bd10      	pop	{r4, pc}
    1d94:	00006cd5 	.word	0x00006cd5

00001d98 <_get_cycles_for_ms>:
    1d98:	0003      	movs	r3, r0
    1d9a:	20c8      	movs	r0, #200	; 0xc8
    1d9c:	0080      	lsls	r0, r0, #2
    1d9e:	4358      	muls	r0, r3
    1da0:	b510      	push	{r4, lr}
    1da2:	4b03      	ldr	r3, [pc, #12]	; (1db0 <_get_cycles_for_ms+0x18>)
    1da4:	3002      	adds	r0, #2
    1da6:	2103      	movs	r1, #3
    1da8:	4798      	blx	r3
    1daa:	230a      	movs	r3, #10
    1dac:	4358      	muls	r0, r3
    1dae:	bd10      	pop	{r4, pc}
    1db0:	00006cd5 	.word	0x00006cd5

00001db4 <_delay_cycles>:
    1db4:	3901      	subs	r1, #1
    1db6:	d8fd      	bhi.n	1db4 <_delay_cycles>
    1db8:	4770      	bx	lr
	...

00001dbc <_init_chip>:
    1dbc:	b510      	push	{r4, lr}
    1dbe:	4b06      	ldr	r3, [pc, #24]	; (1dd8 <_init_chip+0x1c>)
    1dc0:	685a      	ldr	r2, [r3, #4]
    1dc2:	605a      	str	r2, [r3, #4]
    1dc4:	4b05      	ldr	r3, [pc, #20]	; (1ddc <_init_chip+0x20>)
    1dc6:	4798      	blx	r3
    1dc8:	4b05      	ldr	r3, [pc, #20]	; (1de0 <_init_chip+0x24>)
    1dca:	4798      	blx	r3
    1dcc:	4b05      	ldr	r3, [pc, #20]	; (1de4 <_init_chip+0x28>)
    1dce:	4798      	blx	r3
    1dd0:	20ff      	movs	r0, #255	; 0xff
    1dd2:	4b05      	ldr	r3, [pc, #20]	; (1de8 <_init_chip+0x2c>)
    1dd4:	4798      	blx	r3
    1dd6:	bd10      	pop	{r4, pc}
    1dd8:	41004000 	.word	0x41004000
    1ddc:	000023b5 	.word	0x000023b5
    1de0:	00002ca9 	.word	0x00002ca9
    1de4:	00002ce9 	.word	0x00002ce9
    1de8:	00002059 	.word	0x00002059

00001dec <hri_dac_wait_for_sync>:
    1dec:	79c3      	ldrb	r3, [r0, #7]
    1dee:	09db      	lsrs	r3, r3, #7
    1df0:	d1fc      	bne.n	1dec <hri_dac_wait_for_sync>
    1df2:	4770      	bx	lr

00001df4 <_dac_init>:
    1df4:	b570      	push	{r4, r5, r6, lr}
    1df6:	0004      	movs	r4, r0
    1df8:	4d0d      	ldr	r5, [pc, #52]	; (1e30 <_dac_init+0x3c>)
    1dfa:	47a8      	blx	r5
    1dfc:	0020      	movs	r0, r4
    1dfe:	47a8      	blx	r5
    1e00:	7823      	ldrb	r3, [r4, #0]
    1e02:	079b      	lsls	r3, r3, #30
    1e04:	d505      	bpl.n	1e12 <_dac_init+0x1e>
    1e06:	2300      	movs	r3, #0
    1e08:	0020      	movs	r0, r4
    1e0a:	7023      	strb	r3, [r4, #0]
    1e0c:	47a8      	blx	r5
    1e0e:	0020      	movs	r0, r4
    1e10:	47a8      	blx	r5
    1e12:	2301      	movs	r3, #1
    1e14:	0020      	movs	r0, r4
    1e16:	7023      	strb	r3, [r4, #0]
    1e18:	47a8      	blx	r5
    1e1a:	0020      	movs	r0, r4
    1e1c:	47a8      	blx	r5
    1e1e:	2600      	movs	r6, #0
    1e20:	2341      	movs	r3, #65	; 0x41
    1e22:	70a6      	strb	r6, [r4, #2]
    1e24:	0020      	movs	r0, r4
    1e26:	7063      	strb	r3, [r4, #1]
    1e28:	7026      	strb	r6, [r4, #0]
    1e2a:	47a8      	blx	r5
    1e2c:	0030      	movs	r0, r6
    1e2e:	bd70      	pop	{r4, r5, r6, pc}
    1e30:	00001ded 	.word	0x00001ded

00001e34 <DAC_Handler>:
    1e34:	2201      	movs	r2, #1
    1e36:	4b0f      	ldr	r3, [pc, #60]	; (1e74 <DAC_Handler+0x40>)
    1e38:	b510      	push	{r4, lr}
    1e3a:	6818      	ldr	r0, [r3, #0]
    1e3c:	6903      	ldr	r3, [r0, #16]
    1e3e:	7999      	ldrb	r1, [r3, #6]
    1e40:	4011      	ands	r1, r2
    1e42:	d005      	beq.n	1e50 <DAC_Handler+0x1c>
    1e44:	719a      	strb	r2, [r3, #6]
    1e46:	6843      	ldr	r3, [r0, #4]
    1e48:	2100      	movs	r1, #0
    1e4a:	2b00      	cmp	r3, #0
    1e4c:	d109      	bne.n	1e62 <DAC_Handler+0x2e>
    1e4e:	bd10      	pop	{r4, pc}
    1e50:	799c      	ldrb	r4, [r3, #6]
    1e52:	0864      	lsrs	r4, r4, #1
    1e54:	4214      	tst	r4, r2
    1e56:	d006      	beq.n	1e66 <DAC_Handler+0x32>
    1e58:	2202      	movs	r2, #2
    1e5a:	719a      	strb	r2, [r3, #6]
    1e5c:	6803      	ldr	r3, [r0, #0]
    1e5e:	2b00      	cmp	r3, #0
    1e60:	d0f5      	beq.n	1e4e <DAC_Handler+0x1a>
    1e62:	4798      	blx	r3
    1e64:	e7f3      	b.n	1e4e <DAC_Handler+0x1a>
    1e66:	7999      	ldrb	r1, [r3, #6]
    1e68:	0889      	lsrs	r1, r1, #2
    1e6a:	4211      	tst	r1, r2
    1e6c:	d0ef      	beq.n	1e4e <DAC_Handler+0x1a>
    1e6e:	2204      	movs	r2, #4
    1e70:	719a      	strb	r2, [r3, #6]
    1e72:	e7ec      	b.n	1e4e <DAC_Handler+0x1a>
    1e74:	200003b0 	.word	0x200003b0

00001e78 <_dac_async_init>:
    1e78:	b570      	push	{r4, r5, r6, lr}
    1e7a:	4b0c      	ldr	r3, [pc, #48]	; (1eac <_dac_async_init+0x34>)
    1e7c:	0004      	movs	r4, r0
    1e7e:	0008      	movs	r0, r1
    1e80:	000d      	movs	r5, r1
    1e82:	4798      	blx	r3
    1e84:	2800      	cmp	r0, #0
    1e86:	d10f      	bne.n	1ea8 <_dac_async_init+0x30>
    1e88:	4b09      	ldr	r3, [pc, #36]	; (1eb0 <_dac_async_init+0x38>)
    1e8a:	490a      	ldr	r1, [pc, #40]	; (1eb4 <_dac_async_init+0x3c>)
    1e8c:	601c      	str	r4, [r3, #0]
    1e8e:	2380      	movs	r3, #128	; 0x80
    1e90:	049b      	lsls	r3, r3, #18
    1e92:	6125      	str	r5, [r4, #16]
    1e94:	4a08      	ldr	r2, [pc, #32]	; (1eb8 <_dac_async_init+0x40>)
    1e96:	67cb      	str	r3, [r1, #124]	; 0x7c
    1e98:	f3bf 8f4f 	dsb	sy
    1e9c:	f3bf 8f6f 	isb	sy
    1ea0:	21c0      	movs	r1, #192	; 0xc0
    1ea2:	0049      	lsls	r1, r1, #1
    1ea4:	5053      	str	r3, [r2, r1]
    1ea6:	6013      	str	r3, [r2, #0]
    1ea8:	bd70      	pop	{r4, r5, r6, pc}
    1eaa:	46c0      	nop			; (mov r8, r8)
    1eac:	00001df5 	.word	0x00001df5
    1eb0:	200003b0 	.word	0x200003b0
    1eb4:	e000e104 	.word	0xe000e104
    1eb8:	e000e100 	.word	0xe000e100

00001ebc <_dac_async_enable_channel>:
    1ebc:	2302      	movs	r3, #2
    1ebe:	6900      	ldr	r0, [r0, #16]
    1ec0:	b510      	push	{r4, lr}
    1ec2:	7802      	ldrb	r2, [r0, #0]
    1ec4:	4313      	orrs	r3, r2
    1ec6:	7003      	strb	r3, [r0, #0]
    1ec8:	4b01      	ldr	r3, [pc, #4]	; (1ed0 <_dac_async_enable_channel+0x14>)
    1eca:	4798      	blx	r3
    1ecc:	bd10      	pop	{r4, pc}
    1ece:	46c0      	nop			; (mov r8, r8)
    1ed0:	00001ded 	.word	0x00001ded

00001ed4 <_dac_async_is_channel_enable>:
    1ed4:	b510      	push	{r4, lr}
    1ed6:	6904      	ldr	r4, [r0, #16]
    1ed8:	4b03      	ldr	r3, [pc, #12]	; (1ee8 <_dac_async_is_channel_enable+0x14>)
    1eda:	0020      	movs	r0, r4
    1edc:	4798      	blx	r3
    1ede:	7820      	ldrb	r0, [r4, #0]
    1ee0:	0780      	lsls	r0, r0, #30
    1ee2:	0fc0      	lsrs	r0, r0, #31
    1ee4:	bd10      	pop	{r4, pc}
    1ee6:	46c0      	nop			; (mov r8, r8)
    1ee8:	00001ded 	.word	0x00001ded

00001eec <_dac_async_write_data>:
    1eec:	b510      	push	{r4, lr}
    1eee:	6900      	ldr	r0, [r0, #16]
    1ef0:	4b01      	ldr	r3, [pc, #4]	; (1ef8 <_dac_async_write_data+0xc>)
    1ef2:	8181      	strh	r1, [r0, #12]
    1ef4:	4798      	blx	r3
    1ef6:	bd10      	pop	{r4, pc}
    1ef8:	00001ded 	.word	0x00001ded

00001efc <hri_eic_wait_for_sync.constprop.3>:
    1efc:	4a02      	ldr	r2, [pc, #8]	; (1f08 <hri_eic_wait_for_sync.constprop.3+0xc>)
    1efe:	7853      	ldrb	r3, [r2, #1]
    1f00:	09db      	lsrs	r3, r3, #7
    1f02:	d1fc      	bne.n	1efe <hri_eic_wait_for_sync.constprop.3+0x2>
    1f04:	4770      	bx	lr
    1f06:	46c0      	nop			; (mov r8, r8)
    1f08:	40001800 	.word	0x40001800

00001f0c <_ext_irq_init>:
    1f0c:	b5f8      	push	{r3, r4, r5, r6, r7, lr}
    1f0e:	4c16      	ldr	r4, [pc, #88]	; (1f68 <_ext_irq_init+0x5c>)
    1f10:	4d16      	ldr	r5, [pc, #88]	; (1f6c <_ext_irq_init+0x60>)
    1f12:	0007      	movs	r7, r0
    1f14:	47a8      	blx	r5
    1f16:	47a8      	blx	r5
    1f18:	7823      	ldrb	r3, [r4, #0]
    1f1a:	079b      	lsls	r3, r3, #30
    1f1c:	d503      	bpl.n	1f26 <_ext_irq_init+0x1a>
    1f1e:	2300      	movs	r3, #0
    1f20:	7023      	strb	r3, [r4, #0]
    1f22:	47a8      	blx	r5
    1f24:	47a8      	blx	r5
    1f26:	2301      	movs	r3, #1
    1f28:	2600      	movs	r6, #0
    1f2a:	7023      	strb	r3, [r4, #0]
    1f2c:	47a8      	blx	r5
    1f2e:	47a8      	blx	r5
    1f30:	4b0f      	ldr	r3, [pc, #60]	; (1f70 <_ext_irq_init+0x64>)
    1f32:	70a6      	strb	r6, [r4, #2]
    1f34:	6066      	str	r6, [r4, #4]
    1f36:	6166      	str	r6, [r4, #20]
    1f38:	61a3      	str	r3, [r4, #24]
    1f3a:	61e3      	str	r3, [r4, #28]
    1f3c:	2302      	movs	r3, #2
    1f3e:	7822      	ldrb	r2, [r4, #0]
    1f40:	4313      	orrs	r3, r2
    1f42:	7023      	strb	r3, [r4, #0]
    1f44:	47a8      	blx	r5
    1f46:	2310      	movs	r3, #16
    1f48:	490a      	ldr	r1, [pc, #40]	; (1f74 <_ext_irq_init+0x68>)
    1f4a:	4a0b      	ldr	r2, [pc, #44]	; (1f78 <_ext_irq_init+0x6c>)
    1f4c:	67cb      	str	r3, [r1, #124]	; 0x7c
    1f4e:	f3bf 8f4f 	dsb	sy
    1f52:	f3bf 8f6f 	isb	sy
    1f56:	21c0      	movs	r1, #192	; 0xc0
    1f58:	0049      	lsls	r1, r1, #1
    1f5a:	5053      	str	r3, [r2, r1]
    1f5c:	6013      	str	r3, [r2, #0]
    1f5e:	4b07      	ldr	r3, [pc, #28]	; (1f7c <_ext_irq_init+0x70>)
    1f60:	0030      	movs	r0, r6
    1f62:	601f      	str	r7, [r3, #0]
    1f64:	bdf8      	pop	{r3, r4, r5, r6, r7, pc}
    1f66:	46c0      	nop			; (mov r8, r8)
    1f68:	40001800 	.word	0x40001800
    1f6c:	00001efd 	.word	0x00001efd
    1f70:	22222222 	.word	0x22222222
    1f74:	e000e104 	.word	0xe000e104
    1f78:	e000e100 	.word	0xe000e100
    1f7c:	200003b4 	.word	0x200003b4

00001f80 <_ext_irq_enable>:
    1f80:	2300      	movs	r3, #0
    1f82:	b530      	push	{r4, r5, lr}
    1f84:	4a0d      	ldr	r2, [pc, #52]	; (1fbc <_ext_irq_enable+0x3c>)
    1f86:	00dc      	lsls	r4, r3, #3
    1f88:	1915      	adds	r5, r2, r4
    1f8a:	686d      	ldr	r5, [r5, #4]
    1f8c:	4285      	cmp	r5, r0
    1f8e:	d105      	bne.n	1f9c <_ext_irq_enable+0x1c>
    1f90:	5ca0      	ldrb	r0, [r4, r2]
    1f92:	28ff      	cmp	r0, #255	; 0xff
    1f94:	d106      	bne.n	1fa4 <_ext_irq_enable+0x24>
    1f96:	200d      	movs	r0, #13
    1f98:	4240      	negs	r0, r0
    1f9a:	e00a      	b.n	1fb2 <_ext_irq_enable+0x32>
    1f9c:	3301      	adds	r3, #1
    1f9e:	2b10      	cmp	r3, #16
    1fa0:	d1f1      	bne.n	1f86 <_ext_irq_enable+0x6>
    1fa2:	e7f8      	b.n	1f96 <_ext_irq_enable+0x16>
    1fa4:	2301      	movs	r3, #1
    1fa6:	4a06      	ldr	r2, [pc, #24]	; (1fc0 <_ext_irq_enable+0x40>)
    1fa8:	4083      	lsls	r3, r0
    1faa:	2900      	cmp	r1, #0
    1fac:	d002      	beq.n	1fb4 <_ext_irq_enable+0x34>
    1fae:	60d3      	str	r3, [r2, #12]
    1fb0:	2000      	movs	r0, #0
    1fb2:	bd30      	pop	{r4, r5, pc}
    1fb4:	6093      	str	r3, [r2, #8]
    1fb6:	6113      	str	r3, [r2, #16]
    1fb8:	e7fa      	b.n	1fb0 <_ext_irq_enable+0x30>
    1fba:	46c0      	nop			; (mov r8, r8)
    1fbc:	00008554 	.word	0x00008554
    1fc0:	40001800 	.word	0x40001800

00001fc4 <EIC_Handler>:
    1fc4:	b5f0      	push	{r4, r5, r6, r7, lr}
    1fc6:	2601      	movs	r6, #1
    1fc8:	4d1f      	ldr	r5, [pc, #124]	; (2048 <STACK_SIZE+0x48>)
    1fca:	b085      	sub	sp, #20
    1fcc:	692b      	ldr	r3, [r5, #16]
    1fce:	68ea      	ldr	r2, [r5, #12]
    1fd0:	4276      	negs	r6, r6
    1fd2:	4013      	ands	r3, r2
    1fd4:	9303      	str	r3, [sp, #12]
    1fd6:	9b03      	ldr	r3, [sp, #12]
    1fd8:	612b      	str	r3, [r5, #16]
    1fda:	9b03      	ldr	r3, [sp, #12]
    1fdc:	2b00      	cmp	r3, #0
    1fde:	d11a      	bne.n	2016 <STACK_SIZE+0x16>
    1fe0:	b005      	add	sp, #20
    1fe2:	bdf0      	pop	{r4, r5, r6, r7, pc}
    1fe4:	2010      	movs	r0, #16
    1fe6:	2200      	movs	r2, #0
    1fe8:	4f18      	ldr	r7, [pc, #96]	; (204c <STACK_SIZE+0x4c>)
    1fea:	1883      	adds	r3, r0, r2
    1fec:	105b      	asrs	r3, r3, #1
    1fee:	b2d9      	uxtb	r1, r3
    1ff0:	00db      	lsls	r3, r3, #3
    1ff2:	9101      	str	r1, [sp, #4]
    1ff4:	5dd9      	ldrb	r1, [r3, r7]
    1ff6:	468c      	mov	ip, r1
    1ff8:	42a1      	cmp	r1, r4
    1ffa:	d11a      	bne.n	2032 <STACK_SIZE+0x32>
    1ffc:	18fb      	adds	r3, r7, r3
    1ffe:	685e      	ldr	r6, [r3, #4]
    2000:	1c73      	adds	r3, r6, #1
    2002:	d003      	beq.n	200c <STACK_SIZE+0xc>
    2004:	4b12      	ldr	r3, [pc, #72]	; (2050 <STACK_SIZE+0x50>)
    2006:	0030      	movs	r0, r6
    2008:	681b      	ldr	r3, [r3, #0]
    200a:	4798      	blx	r3
    200c:	2201      	movs	r2, #1
    200e:	40a2      	lsls	r2, r4
    2010:	9b03      	ldr	r3, [sp, #12]
    2012:	4393      	bics	r3, r2
    2014:	9303      	str	r3, [sp, #12]
    2016:	9803      	ldr	r0, [sp, #12]
    2018:	4b0e      	ldr	r3, [pc, #56]	; (2054 <STACK_SIZE+0x54>)
    201a:	4798      	blx	r3
    201c:	3801      	subs	r0, #1
    201e:	b244      	sxtb	r4, r0
    2020:	1c63      	adds	r3, r4, #1
    2022:	d1df      	bne.n	1fe4 <EIC_Handler+0x20>
    2024:	692b      	ldr	r3, [r5, #16]
    2026:	68ea      	ldr	r2, [r5, #12]
    2028:	4013      	ands	r3, r2
    202a:	9303      	str	r3, [sp, #12]
    202c:	9b03      	ldr	r3, [sp, #12]
    202e:	612b      	str	r3, [r5, #16]
    2030:	e7d3      	b.n	1fda <EIC_Handler+0x16>
    2032:	9901      	ldr	r1, [sp, #4]
    2034:	45a4      	cmp	ip, r4
    2036:	da04      	bge.n	2042 <STACK_SIZE+0x42>
    2038:	3101      	adds	r1, #1
    203a:	b2ca      	uxtb	r2, r1
    203c:	4290      	cmp	r0, r2
    203e:	d2d4      	bcs.n	1fea <EIC_Handler+0x26>
    2040:	e7de      	b.n	2000 <STACK_SIZE>
    2042:	3901      	subs	r1, #1
    2044:	b2c8      	uxtb	r0, r1
    2046:	e7f9      	b.n	203c <STACK_SIZE+0x3c>
    2048:	40001800 	.word	0x40001800
    204c:	00008554 	.word	0x00008554
    2050:	200003b4 	.word	0x200003b4
    2054:	00006fc1 	.word	0x00006fc1

00002058 <_gclk_init_generators_by_fref>:
    2058:	07c3      	lsls	r3, r0, #31
    205a:	d416      	bmi.n	208a <_gclk_init_generators_by_fref+0x32>
    205c:	0703      	lsls	r3, r0, #28
    205e:	d508      	bpl.n	2072 <_gclk_init_generators_by_fref+0x1a>
    2060:	2204      	movs	r2, #4
    2062:	4b0f      	ldr	r3, [pc, #60]	; (20a0 <_gclk_init_generators_by_fref+0x48>)
    2064:	32ff      	adds	r2, #255	; 0xff
    2066:	609a      	str	r2, [r3, #8]
    2068:	4a0e      	ldr	r2, [pc, #56]	; (20a4 <_gclk_init_generators_by_fref+0x4c>)
    206a:	605a      	str	r2, [r3, #4]
    206c:	785a      	ldrb	r2, [r3, #1]
    206e:	09d2      	lsrs	r2, r2, #7
    2070:	d1fc      	bne.n	206c <_gclk_init_generators_by_fref+0x14>
    2072:	0603      	lsls	r3, r0, #24
    2074:	d508      	bpl.n	2088 <_gclk_init_generators_by_fref+0x30>
    2076:	2208      	movs	r2, #8
    2078:	4b09      	ldr	r3, [pc, #36]	; (20a0 <_gclk_init_generators_by_fref+0x48>)
    207a:	32ff      	adds	r2, #255	; 0xff
    207c:	609a      	str	r2, [r3, #8]
    207e:	4a0a      	ldr	r2, [pc, #40]	; (20a8 <_gclk_init_generators_by_fref+0x50>)
    2080:	605a      	str	r2, [r3, #4]
    2082:	785a      	ldrb	r2, [r3, #1]
    2084:	09d2      	lsrs	r2, r2, #7
    2086:	d1fc      	bne.n	2082 <_gclk_init_generators_by_fref+0x2a>
    2088:	4770      	bx	lr
    208a:	2280      	movs	r2, #128	; 0x80
    208c:	4b04      	ldr	r3, [pc, #16]	; (20a0 <_gclk_init_generators_by_fref+0x48>)
    208e:	0052      	lsls	r2, r2, #1
    2090:	609a      	str	r2, [r3, #8]
    2092:	2283      	movs	r2, #131	; 0x83
    2094:	0252      	lsls	r2, r2, #9
    2096:	605a      	str	r2, [r3, #4]
    2098:	785a      	ldrb	r2, [r3, #1]
    209a:	09d2      	lsrs	r2, r2, #7
    209c:	d1fc      	bne.n	2098 <_gclk_init_generators_by_fref+0x40>
    209e:	e7dd      	b.n	205c <_gclk_init_generators_by_fref+0x4>
    20a0:	40000c00 	.word	0x40000c00
    20a4:	00010303 	.word	0x00010303
    20a8:	00010707 	.word	0x00010707

000020ac <_flash_program.constprop.1>:
    20ac:	b5f0      	push	{r4, r5, r6, r7, lr}
    20ae:	2401      	movs	r4, #1
    20b0:	0849      	lsrs	r1, r1, #1
    20b2:	7d05      	ldrb	r5, [r0, #20]
    20b4:	4225      	tst	r5, r4
    20b6:	d0fc      	beq.n	20b2 <_flash_program.constprop.1+0x6>
    20b8:	4c10      	ldr	r4, [pc, #64]	; (20fc <_flash_program.constprop.1+0x50>)
    20ba:	8004      	strh	r4, [r0, #0]
    20bc:	2401      	movs	r4, #1
    20be:	7d05      	ldrb	r5, [r0, #20]
    20c0:	4225      	tst	r5, r4
    20c2:	d0fc      	beq.n	20be <_flash_program.constprop.1+0x12>
    20c4:	2420      	movs	r4, #32
    20c6:	34ff      	adds	r4, #255	; 0xff
    20c8:	8304      	strh	r4, [r0, #24]
    20ca:	2400      	movs	r4, #0
    20cc:	004e      	lsls	r6, r1, #1
    20ce:	429c      	cmp	r4, r3
    20d0:	d307      	bcc.n	20e2 <_flash_program.constprop.1+0x36>
    20d2:	2301      	movs	r3, #1
    20d4:	7d02      	ldrb	r2, [r0, #20]
    20d6:	421a      	tst	r2, r3
    20d8:	d0fc      	beq.n	20d4 <_flash_program.constprop.1+0x28>
    20da:	4b09      	ldr	r3, [pc, #36]	; (2100 <_flash_program.constprop.1+0x54>)
    20dc:	61c1      	str	r1, [r0, #28]
    20de:	8003      	strh	r3, [r0, #0]
    20e0:	bdf0      	pop	{r4, r5, r6, r7, pc}
    20e2:	5d17      	ldrb	r7, [r2, r4]
    20e4:	b2bd      	uxth	r5, r7
    20e6:	2c3e      	cmp	r4, #62	; 0x3e
    20e8:	d803      	bhi.n	20f2 <_flash_program.constprop.1+0x46>
    20ea:	1915      	adds	r5, r2, r4
    20ec:	786d      	ldrb	r5, [r5, #1]
    20ee:	022d      	lsls	r5, r5, #8
    20f0:	433d      	orrs	r5, r7
    20f2:	3402      	adds	r4, #2
    20f4:	8035      	strh	r5, [r6, #0]
    20f6:	b2a4      	uxth	r4, r4
    20f8:	3602      	adds	r6, #2
    20fa:	e7e8      	b.n	20ce <_flash_program.constprop.1+0x22>
    20fc:	ffffa544 	.word	0xffffa544
    2100:	ffffa504 	.word	0xffffa504

00002104 <_flash_init>:
    2104:	229e      	movs	r2, #158	; 0x9e
    2106:	6101      	str	r1, [r0, #16]
    2108:	684b      	ldr	r3, [r1, #4]
    210a:	4013      	ands	r3, r2
    210c:	604b      	str	r3, [r1, #4]
    210e:	4b08      	ldr	r3, [pc, #32]	; (2130 <_flash_init+0x2c>)
    2110:	3a7e      	subs	r2, #126	; 0x7e
    2112:	6018      	str	r0, [r3, #0]
    2114:	4b07      	ldr	r3, [pc, #28]	; (2134 <_flash_init+0x30>)
    2116:	1d19      	adds	r1, r3, #4
    2118:	67ca      	str	r2, [r1, #124]	; 0x7c
    211a:	f3bf 8f4f 	dsb	sy
    211e:	f3bf 8f6f 	isb	sy
    2122:	21c0      	movs	r1, #192	; 0xc0
    2124:	0049      	lsls	r1, r1, #1
    2126:	505a      	str	r2, [r3, r1]
    2128:	2000      	movs	r0, #0
    212a:	601a      	str	r2, [r3, #0]
    212c:	4770      	bx	lr
    212e:	46c0      	nop			; (mov r8, r8)
    2130:	200003b8 	.word	0x200003b8
    2134:	e000e100 	.word	0xe000e100

00002138 <_flash_get_page_size>:
    2138:	2040      	movs	r0, #64	; 0x40
    213a:	4770      	bx	lr

0000213c <_flash_get_total_pages>:
    213c:	2080      	movs	r0, #128	; 0x80
    213e:	0140      	lsls	r0, r0, #5
    2140:	4770      	bx	lr

00002142 <_flash_read>:
    2142:	b570      	push	{r4, r5, r6, lr}
    2144:	2501      	movs	r5, #1
    2146:	6900      	ldr	r0, [r0, #16]
    2148:	084c      	lsrs	r4, r1, #1
    214a:	7d06      	ldrb	r6, [r0, #20]
    214c:	422e      	tst	r6, r5
    214e:	d0fc      	beq.n	214a <_flash_read+0x8>
    2150:	2620      	movs	r6, #32
    2152:	36ff      	adds	r6, #255	; 0xff
    2154:	8306      	strh	r6, [r0, #24]
    2156:	2000      	movs	r0, #0
    2158:	4229      	tst	r1, r5
    215a:	d005      	beq.n	2168 <_flash_read+0x26>
    215c:	43a9      	bics	r1, r5
    215e:	8809      	ldrh	r1, [r1, #0]
    2160:	3401      	adds	r4, #1
    2162:	0a09      	lsrs	r1, r1, #8
    2164:	7011      	strb	r1, [r2, #0]
    2166:	3001      	adds	r0, #1
    2168:	0064      	lsls	r4, r4, #1
    216a:	1a24      	subs	r4, r4, r0
    216c:	1e5e      	subs	r6, r3, #1
    216e:	4298      	cmp	r0, r3
    2170:	d300      	bcc.n	2174 <_flash_read+0x32>
    2172:	bd70      	pop	{r4, r5, r6, pc}
    2174:	1901      	adds	r1, r0, r4
    2176:	8809      	ldrh	r1, [r1, #0]
    2178:	b289      	uxth	r1, r1
    217a:	5411      	strb	r1, [r2, r0]
    217c:	42b0      	cmp	r0, r6
    217e:	d202      	bcs.n	2186 <_flash_read+0x44>
    2180:	1815      	adds	r5, r2, r0
    2182:	0a09      	lsrs	r1, r1, #8
    2184:	7069      	strb	r1, [r5, #1]
    2186:	3002      	adds	r0, #2
    2188:	e7f1      	b.n	216e <_flash_read+0x2c>
	...

0000218c <_flash_write>:
    218c:	b5f0      	push	{r4, r5, r6, r7, lr}
    218e:	000d      	movs	r5, r1
    2190:	b0c7      	sub	sp, #284	; 0x11c
    2192:	9002      	str	r0, [sp, #8]
    2194:	9203      	str	r2, [sp, #12]
    2196:	9301      	str	r3, [sp, #4]
    2198:	23ff      	movs	r3, #255	; 0xff
    219a:	002c      	movs	r4, r5
    219c:	439c      	bics	r4, r3
    219e:	0023      	movs	r3, r4
    21a0:	1c66      	adds	r6, r4, #1
    21a2:	33ff      	adds	r3, #255	; 0xff
    21a4:	9304      	str	r3, [sp, #16]
    21a6:	36ff      	adds	r6, #255	; 0xff
    21a8:	9400      	str	r4, [sp, #0]
    21aa:	9b00      	ldr	r3, [sp, #0]
    21ac:	9900      	ldr	r1, [sp, #0]
    21ae:	1b1a      	subs	r2, r3, r4
    21b0:	ab06      	add	r3, sp, #24
    21b2:	18d2      	adds	r2, r2, r3
    21b4:	9802      	ldr	r0, [sp, #8]
    21b6:	2340      	movs	r3, #64	; 0x40
    21b8:	4f27      	ldr	r7, [pc, #156]	; (2258 <_flash_write+0xcc>)
    21ba:	47b8      	blx	r7
    21bc:	9b00      	ldr	r3, [sp, #0]
    21be:	3340      	adds	r3, #64	; 0x40
    21c0:	9300      	str	r3, [sp, #0]
    21c2:	42b3      	cmp	r3, r6
    21c4:	d1f1      	bne.n	21aa <_flash_write+0x1e>
    21c6:	223f      	movs	r2, #63	; 0x3f
    21c8:	002e      	movs	r6, r5
    21ca:	1b2b      	subs	r3, r5, r4
    21cc:	0999      	lsrs	r1, r3, #6
    21ce:	4013      	ands	r3, r2
    21d0:	9a03      	ldr	r2, [sp, #12]
    21d2:	1b50      	subs	r0, r2, r5
    21d4:	9f03      	ldr	r7, [sp, #12]
    21d6:	1b72      	subs	r2, r6, r5
    21d8:	18ba      	adds	r2, r7, r2
    21da:	9205      	str	r2, [sp, #20]
    21dc:	9a04      	ldr	r2, [sp, #16]
    21de:	4296      	cmp	r6, r2
    21e0:	d802      	bhi.n	21e8 <_flash_write+0x5c>
    21e2:	9a01      	ldr	r2, [sp, #4]
    21e4:	2a00      	cmp	r2, #0
    21e6:	d126      	bne.n	2236 <_flash_write+0xaa>
    21e8:	2201      	movs	r2, #1
    21ea:	9b02      	ldr	r3, [sp, #8]
    21ec:	691b      	ldr	r3, [r3, #16]
    21ee:	7d19      	ldrb	r1, [r3, #20]
    21f0:	4211      	tst	r1, r2
    21f2:	d0fc      	beq.n	21ee <_flash_write+0x62>
    21f4:	2220      	movs	r2, #32
    21f6:	0025      	movs	r5, r4
    21f8:	32ff      	adds	r2, #255	; 0xff
    21fa:	831a      	strh	r2, [r3, #24]
    21fc:	0862      	lsrs	r2, r4, #1
    21fe:	61da      	str	r2, [r3, #28]
    2200:	4a16      	ldr	r2, [pc, #88]	; (225c <_flash_write+0xd0>)
    2202:	801a      	strh	r2, [r3, #0]
    2204:	9802      	ldr	r0, [sp, #8]
    2206:	1b2a      	subs	r2, r5, r4
    2208:	ab06      	add	r3, sp, #24
    220a:	18d2      	adds	r2, r2, r3
    220c:	0029      	movs	r1, r5
    220e:	2340      	movs	r3, #64	; 0x40
    2210:	6900      	ldr	r0, [r0, #16]
    2212:	4f13      	ldr	r7, [pc, #76]	; (2260 <_flash_write+0xd4>)
    2214:	47b8      	blx	r7
    2216:	9b00      	ldr	r3, [sp, #0]
    2218:	3540      	adds	r5, #64	; 0x40
    221a:	42ab      	cmp	r3, r5
    221c:	d1f2      	bne.n	2204 <_flash_write+0x78>
    221e:	9b05      	ldr	r3, [sp, #20]
    2220:	9a04      	ldr	r2, [sp, #16]
    2222:	9303      	str	r3, [sp, #12]
    2224:	9b01      	ldr	r3, [sp, #4]
    2226:	18f3      	adds	r3, r6, r3
    2228:	3b01      	subs	r3, #1
    222a:	429a      	cmp	r2, r3
    222c:	d301      	bcc.n	2232 <_flash_write+0xa6>
    222e:	b047      	add	sp, #284	; 0x11c
    2230:	bdf0      	pop	{r4, r5, r6, r7, pc}
    2232:	0035      	movs	r5, r6
    2234:	e7b0      	b.n	2198 <_flash_write+0xc>
    2236:	018a      	lsls	r2, r1, #6
    2238:	af06      	add	r7, sp, #24
    223a:	19d2      	adds	r2, r2, r7
    223c:	5d87      	ldrb	r7, [r0, r6]
    223e:	3601      	adds	r6, #1
    2240:	54d7      	strb	r7, [r2, r3]
    2242:	223f      	movs	r2, #63	; 0x3f
    2244:	3301      	adds	r3, #1
    2246:	4013      	ands	r3, r2
    2248:	425a      	negs	r2, r3
    224a:	415a      	adcs	r2, r3
    224c:	1889      	adds	r1, r1, r2
    224e:	9a01      	ldr	r2, [sp, #4]
    2250:	3a01      	subs	r2, #1
    2252:	9201      	str	r2, [sp, #4]
    2254:	e7be      	b.n	21d4 <_flash_write+0x48>
    2256:	46c0      	nop			; (mov r8, r8)
    2258:	00002143 	.word	0x00002143
    225c:	ffffa502 	.word	0xffffa502
    2260:	000020ad 	.word	0x000020ad

00002264 <_flash_append>:
    2264:	b5f0      	push	{r4, r5, r6, r7, lr}
    2266:	001f      	movs	r7, r3
    2268:	000d      	movs	r5, r1
    226a:	233f      	movs	r3, #63	; 0x3f
    226c:	b085      	sub	sp, #20
    226e:	9002      	str	r0, [sp, #8]
    2270:	9203      	str	r2, [sp, #12]
    2272:	439d      	bics	r5, r3
    2274:	2400      	movs	r4, #0
    2276:	42a9      	cmp	r1, r5
    2278:	d00b      	beq.n	2292 <_flash_append+0x2e>
    227a:	1a6c      	subs	r4, r5, r1
    227c:	3440      	adds	r4, #64	; 0x40
    227e:	42bc      	cmp	r4, r7
    2280:	d900      	bls.n	2284 <_flash_append+0x20>
    2282:	003c      	movs	r4, r7
    2284:	9802      	ldr	r0, [sp, #8]
    2286:	b2a3      	uxth	r3, r4
    2288:	9a03      	ldr	r2, [sp, #12]
    228a:	6900      	ldr	r0, [r0, #16]
    228c:	4e0c      	ldr	r6, [pc, #48]	; (22c0 <_flash_append+0x5c>)
    228e:	47b0      	blx	r6
    2290:	3540      	adds	r5, #64	; 0x40
    2292:	42bc      	cmp	r4, r7
    2294:	d301      	bcc.n	229a <_flash_append+0x36>
    2296:	b005      	add	sp, #20
    2298:	bdf0      	pop	{r4, r5, r6, r7, pc}
    229a:	1b3b      	subs	r3, r7, r4
    229c:	9301      	str	r3, [sp, #4]
    229e:	2b40      	cmp	r3, #64	; 0x40
    22a0:	d901      	bls.n	22a6 <_flash_append+0x42>
    22a2:	2340      	movs	r3, #64	; 0x40
    22a4:	9301      	str	r3, [sp, #4]
    22a6:	466b      	mov	r3, sp
    22a8:	9a03      	ldr	r2, [sp, #12]
    22aa:	9802      	ldr	r0, [sp, #8]
    22ac:	889b      	ldrh	r3, [r3, #4]
    22ae:	1912      	adds	r2, r2, r4
    22b0:	0029      	movs	r1, r5
    22b2:	6900      	ldr	r0, [r0, #16]
    22b4:	4e02      	ldr	r6, [pc, #8]	; (22c0 <_flash_append+0x5c>)
    22b6:	47b0      	blx	r6
    22b8:	9b01      	ldr	r3, [sp, #4]
    22ba:	3540      	adds	r5, #64	; 0x40
    22bc:	18e4      	adds	r4, r4, r3
    22be:	e7e8      	b.n	2292 <_flash_append+0x2e>
    22c0:	000020ad 	.word	0x000020ad

000022c4 <_flash_erase>:
    22c4:	b5f0      	push	{r4, r5, r6, r7, lr}
    22c6:	000d      	movs	r5, r1
    22c8:	21ff      	movs	r1, #255	; 0xff
    22ca:	002e      	movs	r6, r5
    22cc:	b093      	sub	sp, #76	; 0x4c
    22ce:	9000      	str	r0, [sp, #0]
    22d0:	0017      	movs	r7, r2
    22d2:	a802      	add	r0, sp, #8
    22d4:	2240      	movs	r2, #64	; 0x40
    22d6:	4b22      	ldr	r3, [pc, #136]	; (2360 <_flash_erase+0x9c>)
    22d8:	438e      	bics	r6, r1
    22da:	4798      	blx	r3
    22dc:	42b5      	cmp	r5, r6
    22de:	d117      	bne.n	2310 <_flash_erase+0x4c>
    22e0:	2301      	movs	r3, #1
    22e2:	0031      	movs	r1, r6
    22e4:	003a      	movs	r2, r7
    22e6:	469c      	mov	ip, r3
    22e8:	4c1e      	ldr	r4, [pc, #120]	; (2364 <_flash_erase+0xa0>)
    22ea:	2a03      	cmp	r2, #3
    22ec:	d825      	bhi.n	233a <_flash_erase+0x76>
    22ee:	2500      	movs	r5, #0
    22f0:	08bc      	lsrs	r4, r7, #2
    22f2:	00a3      	lsls	r3, r4, #2
    22f4:	0224      	lsls	r4, r4, #8
    22f6:	1aff      	subs	r7, r7, r3
    22f8:	19a4      	adds	r4, r4, r6
    22fa:	42af      	cmp	r7, r5
    22fc:	d02d      	beq.n	235a <_flash_erase+0x96>
    22fe:	0021      	movs	r1, r4
    2300:	2340      	movs	r3, #64	; 0x40
    2302:	aa02      	add	r2, sp, #8
    2304:	9800      	ldr	r0, [sp, #0]
    2306:	4e18      	ldr	r6, [pc, #96]	; (2368 <_flash_erase+0xa4>)
    2308:	47b0      	blx	r6
    230a:	3440      	adds	r4, #64	; 0x40
    230c:	3501      	adds	r5, #1
    230e:	e7f4      	b.n	22fa <_flash_erase+0x36>
    2310:	002b      	movs	r3, r5
    2312:	3601      	adds	r6, #1
    2314:	33c0      	adds	r3, #192	; 0xc0
    2316:	36ff      	adds	r6, #255	; 0xff
    2318:	9301      	str	r3, [sp, #4]
    231a:	2340      	movs	r3, #64	; 0x40
    231c:	aa02      	add	r2, sp, #8
    231e:	0029      	movs	r1, r5
    2320:	9800      	ldr	r0, [sp, #0]
    2322:	4c11      	ldr	r4, [pc, #68]	; (2368 <_flash_erase+0xa4>)
    2324:	3f01      	subs	r7, #1
    2326:	47a0      	blx	r4
    2328:	2f00      	cmp	r7, #0
    232a:	d016      	beq.n	235a <_flash_erase+0x96>
    232c:	3540      	adds	r5, #64	; 0x40
    232e:	42ae      	cmp	r6, r5
    2330:	d0d6      	beq.n	22e0 <_flash_erase+0x1c>
    2332:	9b01      	ldr	r3, [sp, #4]
    2334:	429d      	cmp	r5, r3
    2336:	d1f0      	bne.n	231a <_flash_erase+0x56>
    2338:	e7d2      	b.n	22e0 <_flash_erase+0x1c>
    233a:	9b00      	ldr	r3, [sp, #0]
    233c:	691b      	ldr	r3, [r3, #16]
    233e:	4660      	mov	r0, ip
    2340:	7d1d      	ldrb	r5, [r3, #20]
    2342:	4205      	tst	r5, r0
    2344:	d0fb      	beq.n	233e <_flash_erase+0x7a>
    2346:	2020      	movs	r0, #32
    2348:	084d      	lsrs	r5, r1, #1
    234a:	30ff      	adds	r0, #255	; 0xff
    234c:	3101      	adds	r1, #1
    234e:	8318      	strh	r0, [r3, #24]
    2350:	31ff      	adds	r1, #255	; 0xff
    2352:	61dd      	str	r5, [r3, #28]
    2354:	3a04      	subs	r2, #4
    2356:	801c      	strh	r4, [r3, #0]
    2358:	e7c7      	b.n	22ea <_flash_erase+0x26>
    235a:	b013      	add	sp, #76	; 0x4c
    235c:	bdf0      	pop	{r4, r5, r6, r7, pc}
    235e:	46c0      	nop			; (mov r8, r8)
    2360:	0000708d 	.word	0x0000708d
    2364:	ffffa502 	.word	0xffffa502
    2368:	0000218d 	.word	0x0000218d

0000236c <_flash_is_locked>:
    236c:	6903      	ldr	r3, [r0, #16]
    236e:	2001      	movs	r0, #1
    2370:	0b89      	lsrs	r1, r1, #14
    2372:	b289      	uxth	r1, r1
    2374:	4088      	lsls	r0, r1
    2376:	8c1b      	ldrh	r3, [r3, #32]
    2378:	4018      	ands	r0, r3
    237a:	4243      	negs	r3, r0
    237c:	4158      	adcs	r0, r3
    237e:	b2c0      	uxtb	r0, r0
    2380:	4770      	bx	lr
	...

00002384 <NVMCTRL_Handler>:
    2384:	2101      	movs	r1, #1
    2386:	4b0a      	ldr	r3, [pc, #40]	; (23b0 <NVMCTRL_Handler+0x2c>)
    2388:	b510      	push	{r4, lr}
    238a:	6818      	ldr	r0, [r3, #0]
    238c:	6903      	ldr	r3, [r0, #16]
    238e:	7d1a      	ldrb	r2, [r3, #20]
    2390:	420a      	tst	r2, r1
    2392:	d004      	beq.n	239e <NVMCTRL_Handler+0x1a>
    2394:	6803      	ldr	r3, [r0, #0]
    2396:	2b00      	cmp	r3, #0
    2398:	d000      	beq.n	239c <NVMCTRL_Handler+0x18>
    239a:	4798      	blx	r3
    239c:	bd10      	pop	{r4, pc}
    239e:	7d1a      	ldrb	r2, [r3, #20]
    23a0:	0852      	lsrs	r2, r2, #1
    23a2:	420a      	tst	r2, r1
    23a4:	d0fa      	beq.n	239c <NVMCTRL_Handler+0x18>
    23a6:	2202      	movs	r2, #2
    23a8:	751a      	strb	r2, [r3, #20]
    23aa:	6843      	ldr	r3, [r0, #4]
    23ac:	e7f3      	b.n	2396 <NVMCTRL_Handler+0x12>
    23ae:	46c0      	nop			; (mov r8, r8)
    23b0:	200003b8 	.word	0x200003b8

000023b4 <_pm_init>:
    23b4:	4b06      	ldr	r3, [pc, #24]	; (23d0 <_pm_init+0x1c>)
    23b6:	7a1a      	ldrb	r2, [r3, #8]
    23b8:	b2d2      	uxtb	r2, r2
    23ba:	721a      	strb	r2, [r3, #8]
    23bc:	7a5a      	ldrb	r2, [r3, #9]
    23be:	b2d2      	uxtb	r2, r2
    23c0:	725a      	strb	r2, [r3, #9]
    23c2:	7a9a      	ldrb	r2, [r3, #10]
    23c4:	b2d2      	uxtb	r2, r2
    23c6:	729a      	strb	r2, [r3, #10]
    23c8:	7ada      	ldrb	r2, [r3, #11]
    23ca:	b2d2      	uxtb	r2, r2
    23cc:	72da      	strb	r2, [r3, #11]
    23ce:	4770      	bx	lr
    23d0:	40000400 	.word	0x40000400

000023d4 <hri_rtc_wait_for_sync>:
    23d4:	7a83      	ldrb	r3, [r0, #10]
    23d6:	09db      	lsrs	r3, r3, #7
    23d8:	d1fc      	bne.n	23d4 <hri_rtc_wait_for_sync>
    23da:	4770      	bx	lr

000023dc <_timer_init>:
    23dc:	b570      	push	{r4, r5, r6, lr}
    23de:	2601      	movs	r6, #1
    23e0:	0004      	movs	r4, r0
    23e2:	60c1      	str	r1, [r0, #12]
    23e4:	4d0a      	ldr	r5, [pc, #40]	; (2410 <_timer_init+0x34>)
    23e6:	800e      	strh	r6, [r1, #0]
    23e8:	0008      	movs	r0, r1
    23ea:	47a8      	blx	r5
    23ec:	68e0      	ldr	r0, [r4, #12]
    23ee:	47a8      	blx	r5
    23f0:	2380      	movs	r3, #128	; 0x80
    23f2:	68e0      	ldr	r0, [r4, #12]
    23f4:	8003      	strh	r3, [r0, #0]
    23f6:	47a8      	blx	r5
    23f8:	68e0      	ldr	r0, [r4, #12]
    23fa:	6983      	ldr	r3, [r0, #24]
    23fc:	23fa      	movs	r3, #250	; 0xfa
    23fe:	009b      	lsls	r3, r3, #2
    2400:	6183      	str	r3, [r0, #24]
    2402:	47a8      	blx	r5
    2404:	68e3      	ldr	r3, [r4, #12]
    2406:	2000      	movs	r0, #0
    2408:	71de      	strb	r6, [r3, #7]
    240a:	4b02      	ldr	r3, [pc, #8]	; (2414 <_timer_init+0x38>)
    240c:	601c      	str	r4, [r3, #0]
    240e:	bd70      	pop	{r4, r5, r6, pc}
    2410:	000023d5 	.word	0x000023d5
    2414:	200003bc 	.word	0x200003bc

00002418 <_timer_start>:
    2418:	2208      	movs	r2, #8
    241a:	b570      	push	{r4, r5, r6, lr}
    241c:	4b08      	ldr	r3, [pc, #32]	; (2440 <_timer_start+0x28>)
    241e:	0005      	movs	r5, r0
    2420:	68c0      	ldr	r0, [r0, #12]
    2422:	601a      	str	r2, [r3, #0]
    2424:	6903      	ldr	r3, [r0, #16]
    2426:	2300      	movs	r3, #0
    2428:	4c06      	ldr	r4, [pc, #24]	; (2444 <_timer_start+0x2c>)
    242a:	6103      	str	r3, [r0, #16]
    242c:	47a0      	blx	r4
    242e:	68e8      	ldr	r0, [r5, #12]
    2430:	47a0      	blx	r4
    2432:	2302      	movs	r3, #2
    2434:	68e8      	ldr	r0, [r5, #12]
    2436:	8802      	ldrh	r2, [r0, #0]
    2438:	4313      	orrs	r3, r2
    243a:	8003      	strh	r3, [r0, #0]
    243c:	47a0      	blx	r4
    243e:	bd70      	pop	{r4, r5, r6, pc}
    2440:	e000e100 	.word	0xe000e100
    2444:	000023d5 	.word	0x000023d5

00002448 <_timer_is_started>:
    2448:	b510      	push	{r4, lr}
    244a:	68c4      	ldr	r4, [r0, #12]
    244c:	4b03      	ldr	r3, [pc, #12]	; (245c <_timer_is_started+0x14>)
    244e:	0020      	movs	r0, r4
    2450:	4798      	blx	r3
    2452:	8820      	ldrh	r0, [r4, #0]
    2454:	0780      	lsls	r0, r0, #30
    2456:	0fc0      	lsrs	r0, r0, #31
    2458:	bd10      	pop	{r4, pc}
    245a:	46c0      	nop			; (mov r8, r8)
    245c:	000023d5 	.word	0x000023d5

00002460 <_timer_set_irq>:
    2460:	4770      	bx	lr

00002462 <_rtc_get_timer>:
    2462:	2000      	movs	r0, #0
    2464:	4770      	bx	lr
	...

00002468 <RTC_Handler>:
    2468:	b570      	push	{r4, r5, r6, lr}
    246a:	2501      	movs	r5, #1
    246c:	4b06      	ldr	r3, [pc, #24]	; (2488 <RTC_Handler+0x20>)
    246e:	681c      	ldr	r4, [r3, #0]
    2470:	68e3      	ldr	r3, [r4, #12]
    2472:	7a1b      	ldrb	r3, [r3, #8]
    2474:	422b      	tst	r3, r5
    2476:	d006      	beq.n	2486 <RTC_Handler+0x1e>
    2478:	6823      	ldr	r3, [r4, #0]
    247a:	2b00      	cmp	r3, #0
    247c:	d001      	beq.n	2482 <RTC_Handler+0x1a>
    247e:	0020      	movs	r0, r4
    2480:	4798      	blx	r3
    2482:	68e3      	ldr	r3, [r4, #12]
    2484:	721d      	strb	r5, [r3, #8]
    2486:	bd70      	pop	{r4, r5, r6, pc}
    2488:	200003bc 	.word	0x200003bc

0000248c <__NVIC_EnableIRQ>:
    248c:	2800      	cmp	r0, #0
    248e:	db05      	blt.n	249c <__NVIC_EnableIRQ+0x10>
    2490:	231f      	movs	r3, #31
    2492:	4018      	ands	r0, r3
    2494:	3b1e      	subs	r3, #30
    2496:	4083      	lsls	r3, r0
    2498:	4a01      	ldr	r2, [pc, #4]	; (24a0 <__NVIC_EnableIRQ+0x14>)
    249a:	6013      	str	r3, [r2, #0]
    249c:	4770      	bx	lr
    249e:	46c0      	nop			; (mov r8, r8)
    24a0:	e000e100 	.word	0xe000e100

000024a4 <__NVIC_DisableIRQ>:
    24a4:	2800      	cmp	r0, #0
    24a6:	db09      	blt.n	24bc <__NVIC_DisableIRQ+0x18>
    24a8:	231f      	movs	r3, #31
    24aa:	4018      	ands	r0, r3
    24ac:	3b1e      	subs	r3, #30
    24ae:	4083      	lsls	r3, r0
    24b0:	4a03      	ldr	r2, [pc, #12]	; (24c0 <__NVIC_DisableIRQ+0x1c>)
    24b2:	67d3      	str	r3, [r2, #124]	; 0x7c
    24b4:	f3bf 8f4f 	dsb	sy
    24b8:	f3bf 8f6f 	isb	sy
    24bc:	4770      	bx	lr
    24be:	46c0      	nop			; (mov r8, r8)
    24c0:	e000e104 	.word	0xe000e104

000024c4 <__NVIC_ClearPendingIRQ>:
    24c4:	2800      	cmp	r0, #0
    24c6:	db07      	blt.n	24d8 <__NVIC_ClearPendingIRQ+0x14>
    24c8:	231f      	movs	r3, #31
    24ca:	22c0      	movs	r2, #192	; 0xc0
    24cc:	4018      	ands	r0, r3
    24ce:	3b1e      	subs	r3, #30
    24d0:	4083      	lsls	r3, r0
    24d2:	4902      	ldr	r1, [pc, #8]	; (24dc <__NVIC_ClearPendingIRQ+0x18>)
    24d4:	0052      	lsls	r2, r2, #1
    24d6:	508b      	str	r3, [r1, r2]
    24d8:	4770      	bx	lr
    24da:	46c0      	nop			; (mov r8, r8)
    24dc:	e000e100 	.word	0xe000e100

000024e0 <hri_sercomi2cm_wait_for_sync>:
    24e0:	69c3      	ldr	r3, [r0, #28]
    24e2:	4219      	tst	r1, r3
    24e4:	d1fc      	bne.n	24e0 <hri_sercomi2cm_wait_for_sync>
    24e6:	4770      	bx	lr

000024e8 <hri_sercomspi_wait_for_sync>:
    24e8:	69c3      	ldr	r3, [r0, #28]
    24ea:	4219      	tst	r1, r3
    24ec:	d1fc      	bne.n	24e8 <hri_sercomspi_wait_for_sync>
    24ee:	4770      	bx	lr

000024f0 <hri_sercomusart_wait_for_sync>:
    24f0:	69c3      	ldr	r3, [r0, #28]
    24f2:	4219      	tst	r1, r3
    24f4:	d1fc      	bne.n	24f0 <hri_sercomusart_wait_for_sync>
    24f6:	4770      	bx	lr

000024f8 <hri_sercomi2cm_clear_CTRLA_ENABLE_bit>:
    24f8:	2202      	movs	r2, #2
    24fa:	b510      	push	{r4, lr}
    24fc:	6803      	ldr	r3, [r0, #0]
    24fe:	2103      	movs	r1, #3
    2500:	4393      	bics	r3, r2
    2502:	6003      	str	r3, [r0, #0]
    2504:	4b01      	ldr	r3, [pc, #4]	; (250c <hri_sercomi2cm_clear_CTRLA_ENABLE_bit+0x14>)
    2506:	4798      	blx	r3
    2508:	bd10      	pop	{r4, pc}
    250a:	46c0      	nop			; (mov r8, r8)
    250c:	000024e1 	.word	0x000024e1

00002510 <hri_sercomusart_clear_CTRLA_ENABLE_bit>:
    2510:	2202      	movs	r2, #2
    2512:	b510      	push	{r4, lr}
    2514:	6803      	ldr	r3, [r0, #0]
    2516:	2103      	movs	r1, #3
    2518:	4393      	bics	r3, r2
    251a:	6003      	str	r3, [r0, #0]
    251c:	4b01      	ldr	r3, [pc, #4]	; (2524 <hri_sercomusart_clear_CTRLA_ENABLE_bit+0x14>)
    251e:	4798      	blx	r3
    2520:	bd10      	pop	{r4, pc}
    2522:	46c0      	nop			; (mov r8, r8)
    2524:	000024f1 	.word	0x000024f1

00002528 <_get_i2cm_index>:
    2528:	4b04      	ldr	r3, [pc, #16]	; (253c <_get_i2cm_index+0x14>)
    252a:	18c0      	adds	r0, r0, r3
    252c:	0a80      	lsrs	r0, r0, #10
    252e:	b2c0      	uxtb	r0, r0
    2530:	3803      	subs	r0, #3
    2532:	1e43      	subs	r3, r0, #1
    2534:	4198      	sbcs	r0, r3
    2536:	4240      	negs	r0, r0
    2538:	4770      	bx	lr
    253a:	46c0      	nop			; (mov r8, r8)
    253c:	bdfff800 	.word	0xbdfff800

00002540 <_sercom_i2c_send_stop>:
    2540:	23c0      	movs	r3, #192	; 0xc0
    2542:	b510      	push	{r4, lr}
    2544:	6842      	ldr	r2, [r0, #4]
    2546:	029b      	lsls	r3, r3, #10
    2548:	4313      	orrs	r3, r2
    254a:	6043      	str	r3, [r0, #4]
    254c:	2104      	movs	r1, #4
    254e:	4b01      	ldr	r3, [pc, #4]	; (2554 <_sercom_i2c_send_stop+0x14>)
    2550:	4798      	blx	r3
    2552:	bd10      	pop	{r4, pc}
    2554:	000024e1 	.word	0x000024e1

00002558 <_sercom_i2c_sync_analyse_flags>:
    2558:	b5f7      	push	{r0, r1, r2, r4, r5, r6, r7, lr}
    255a:	0005      	movs	r5, r0
    255c:	6803      	ldr	r3, [r0, #0]
    255e:	9100      	str	r1, [sp, #0]
    2560:	4f5b      	ldr	r7, [pc, #364]	; (26d0 <_sercom_i2c_sync_analyse_flags+0x178>)
    2562:	2104      	movs	r1, #4
    2564:	0014      	movs	r4, r2
    2566:	9301      	str	r3, [sp, #4]
    2568:	47b8      	blx	r7
    256a:	2101      	movs	r1, #1
    256c:	8b6b      	ldrh	r3, [r5, #26]
    256e:	9e00      	ldr	r6, [sp, #0]
    2570:	b29b      	uxth	r3, r3
    2572:	400e      	ands	r6, r1
    2574:	2202      	movs	r2, #2
    2576:	2e00      	cmp	r6, #0
    2578:	d100      	bne.n	257c <_sercom_i2c_sync_analyse_flags+0x24>
    257a:	e066      	b.n	264a <_sercom_i2c_sync_analyse_flags+0xf2>
    257c:	4213      	tst	r3, r2
    257e:	d00f      	beq.n	25a0 <_sercom_i2c_sync_analyse_flags+0x48>
    2580:	2280      	movs	r2, #128	; 0x80
    2582:	400b      	ands	r3, r1
    2584:	425e      	negs	r6, r3
    2586:	415e      	adcs	r6, r3
    2588:	7629      	strb	r1, [r5, #24]
    258a:	8860      	ldrh	r0, [r4, #2]
    258c:	0152      	lsls	r2, r2, #5
    258e:	4302      	orrs	r2, r0
    2590:	8062      	strh	r2, [r4, #2]
    2592:	8862      	ldrh	r2, [r4, #2]
    2594:	484f      	ldr	r0, [pc, #316]	; (26d4 <_sercom_i2c_sync_analyse_flags+0x17c>)
    2596:	3e05      	subs	r6, #5
    2598:	4002      	ands	r2, r0
    259a:	8062      	strh	r2, [r4, #2]
    259c:	0030      	movs	r0, r6
    259e:	bdfe      	pop	{r1, r2, r3, r4, r5, r6, r7, pc}
    25a0:	2604      	movs	r6, #4
    25a2:	401e      	ands	r6, r3
    25a4:	d015      	beq.n	25d2 <_sercom_i2c_sync_analyse_flags+0x7a>
    25a6:	6863      	ldr	r3, [r4, #4]
    25a8:	2b00      	cmp	r3, #0
    25aa:	dd04      	ble.n	25b6 <_sercom_i2c_sync_analyse_flags+0x5e>
    25ac:	2380      	movs	r3, #128	; 0x80
    25ae:	8862      	ldrh	r2, [r4, #2]
    25b0:	015b      	lsls	r3, r3, #5
    25b2:	4313      	orrs	r3, r2
    25b4:	8063      	strh	r3, [r4, #2]
    25b6:	8863      	ldrh	r3, [r4, #2]
    25b8:	b21b      	sxth	r3, r3
    25ba:	2b00      	cmp	r3, #0
    25bc:	da02      	bge.n	25c4 <_sercom_i2c_sync_analyse_flags+0x6c>
    25be:	0028      	movs	r0, r5
    25c0:	4b45      	ldr	r3, [pc, #276]	; (26d8 <_sercom_i2c_sync_analyse_flags+0x180>)
    25c2:	4798      	blx	r3
    25c4:	8863      	ldrh	r3, [r4, #2]
    25c6:	4a43      	ldr	r2, [pc, #268]	; (26d4 <_sercom_i2c_sync_analyse_flags+0x17c>)
    25c8:	4013      	ands	r3, r2
    25ca:	8063      	strh	r3, [r4, #2]
    25cc:	2602      	movs	r6, #2
    25ce:	4276      	negs	r6, r6
    25d0:	e7e4      	b.n	259c <_sercom_i2c_sync_analyse_flags+0x44>
    25d2:	2380      	movs	r3, #128	; 0x80
    25d4:	8862      	ldrh	r2, [r4, #2]
    25d6:	00db      	lsls	r3, r3, #3
    25d8:	401a      	ands	r2, r3
    25da:	9200      	str	r2, [sp, #0]
    25dc:	d018      	beq.n	2610 <_sercom_i2c_sync_analyse_flags+0xb8>
    25de:	2206      	movs	r2, #6
    25e0:	8823      	ldrh	r3, [r4, #0]
    25e2:	2104      	movs	r1, #4
    25e4:	09db      	lsrs	r3, r3, #7
    25e6:	4013      	ands	r3, r2
    25e8:	0028      	movs	r0, r5
    25ea:	9300      	str	r3, [sp, #0]
    25ec:	47b8      	blx	r7
    25ee:	2280      	movs	r2, #128	; 0x80
    25f0:	6a6b      	ldr	r3, [r5, #36]	; 0x24
    25f2:	01d2      	lsls	r2, r2, #7
    25f4:	401a      	ands	r2, r3
    25f6:	23f1      	movs	r3, #241	; 0xf1
    25f8:	4313      	orrs	r3, r2
    25fa:	9a00      	ldr	r2, [sp, #0]
    25fc:	2104      	movs	r1, #4
    25fe:	4313      	orrs	r3, r2
    2600:	626b      	str	r3, [r5, #36]	; 0x24
    2602:	0028      	movs	r0, r5
    2604:	47b8      	blx	r7
    2606:	8863      	ldrh	r3, [r4, #2]
    2608:	4a34      	ldr	r2, [pc, #208]	; (26dc <_sercom_i2c_sync_analyse_flags+0x184>)
    260a:	4013      	ands	r3, r2
    260c:	8063      	strh	r3, [r4, #2]
    260e:	e7c5      	b.n	259c <_sercom_i2c_sync_analyse_flags+0x44>
    2610:	6866      	ldr	r6, [r4, #4]
    2612:	2e00      	cmp	r6, #0
    2614:	d109      	bne.n	262a <_sercom_i2c_sync_analyse_flags+0xd2>
    2616:	8863      	ldrh	r3, [r4, #2]
    2618:	b21b      	sxth	r3, r3
    261a:	2b00      	cmp	r3, #0
    261c:	da02      	bge.n	2624 <_sercom_i2c_sync_analyse_flags+0xcc>
    261e:	0028      	movs	r0, r5
    2620:	4b2d      	ldr	r3, [pc, #180]	; (26d8 <_sercom_i2c_sync_analyse_flags+0x180>)
    2622:	4798      	blx	r3
    2624:	8863      	ldrh	r3, [r4, #2]
    2626:	4a2b      	ldr	r2, [pc, #172]	; (26d4 <_sercom_i2c_sync_analyse_flags+0x17c>)
    2628:	e7ef      	b.n	260a <_sercom_i2c_sync_analyse_flags+0xb2>
    262a:	68a3      	ldr	r3, [r4, #8]
    262c:	2104      	movs	r1, #4
    262e:	781a      	ldrb	r2, [r3, #0]
    2630:	002b      	movs	r3, r5
    2632:	3328      	adds	r3, #40	; 0x28
    2634:	701a      	strb	r2, [r3, #0]
    2636:	0028      	movs	r0, r5
    2638:	47b8      	blx	r7
    263a:	68a3      	ldr	r3, [r4, #8]
    263c:	3301      	adds	r3, #1
    263e:	60a3      	str	r3, [r4, #8]
    2640:	6863      	ldr	r3, [r4, #4]
    2642:	3b01      	subs	r3, #1
    2644:	6063      	str	r3, [r4, #4]
    2646:	2600      	movs	r6, #0
    2648:	e7a8      	b.n	259c <_sercom_i2c_sync_analyse_flags+0x44>
    264a:	9800      	ldr	r0, [sp, #0]
    264c:	4210      	tst	r0, r2
    264e:	d0a5      	beq.n	259c <_sercom_i2c_sync_analyse_flags+0x44>
    2650:	6862      	ldr	r2, [r4, #4]
    2652:	2a00      	cmp	r2, #0
    2654:	d038      	beq.n	26c8 <_sercom_i2c_sync_analyse_flags+0x170>
    2656:	075b      	lsls	r3, r3, #29
    2658:	d436      	bmi.n	26c8 <_sercom_i2c_sync_analyse_flags+0x170>
    265a:	9b01      	ldr	r3, [sp, #4]
    265c:	3a01      	subs	r2, #1
    265e:	0ede      	lsrs	r6, r3, #27
    2660:	400e      	ands	r6, r1
    2662:	6062      	str	r2, [r4, #4]
    2664:	2a00      	cmp	r2, #0
    2666:	d10a      	bne.n	267e <_sercom_i2c_sync_analyse_flags+0x126>
    2668:	2e00      	cmp	r6, #0
    266a:	d10c      	bne.n	2686 <_sercom_i2c_sync_analyse_flags+0x12e>
    266c:	2380      	movs	r3, #128	; 0x80
    266e:	686a      	ldr	r2, [r5, #4]
    2670:	02db      	lsls	r3, r3, #11
    2672:	4313      	orrs	r3, r2
    2674:	606b      	str	r3, [r5, #4]
    2676:	2104      	movs	r1, #4
    2678:	0028      	movs	r0, r5
    267a:	47b8      	blx	r7
    267c:	e003      	b.n	2686 <_sercom_i2c_sync_analyse_flags+0x12e>
    267e:	2a01      	cmp	r2, #1
    2680:	d101      	bne.n	2686 <_sercom_i2c_sync_analyse_flags+0x12e>
    2682:	2e00      	cmp	r6, #0
    2684:	d1f2      	bne.n	266c <_sercom_i2c_sync_analyse_flags+0x114>
    2686:	6863      	ldr	r3, [r4, #4]
    2688:	2b00      	cmp	r3, #0
    268a:	d110      	bne.n	26ae <_sercom_i2c_sync_analyse_flags+0x156>
    268c:	8863      	ldrh	r3, [r4, #2]
    268e:	4e11      	ldr	r6, [pc, #68]	; (26d4 <_sercom_i2c_sync_analyse_flags+0x17c>)
    2690:	b21b      	sxth	r3, r3
    2692:	2b00      	cmp	r3, #0
    2694:	da08      	bge.n	26a8 <_sercom_i2c_sync_analyse_flags+0x150>
    2696:	686b      	ldr	r3, [r5, #4]
    2698:	0028      	movs	r0, r5
    269a:	4033      	ands	r3, r6
    269c:	606b      	str	r3, [r5, #4]
    269e:	2104      	movs	r1, #4
    26a0:	47b8      	blx	r7
    26a2:	0028      	movs	r0, r5
    26a4:	4b0c      	ldr	r3, [pc, #48]	; (26d8 <_sercom_i2c_sync_analyse_flags+0x180>)
    26a6:	4798      	blx	r3
    26a8:	8863      	ldrh	r3, [r4, #2]
    26aa:	4033      	ands	r3, r6
    26ac:	8063      	strh	r3, [r4, #2]
    26ae:	68a6      	ldr	r6, [r4, #8]
    26b0:	2104      	movs	r1, #4
    26b2:	1c73      	adds	r3, r6, #1
    26b4:	60a3      	str	r3, [r4, #8]
    26b6:	0028      	movs	r0, r5
    26b8:	47b8      	blx	r7
    26ba:	002b      	movs	r3, r5
    26bc:	3328      	adds	r3, #40	; 0x28
    26be:	781b      	ldrb	r3, [r3, #0]
    26c0:	7033      	strb	r3, [r6, #0]
    26c2:	2302      	movs	r3, #2
    26c4:	762b      	strb	r3, [r5, #24]
    26c6:	e7be      	b.n	2646 <_sercom_i2c_sync_analyse_flags+0xee>
    26c8:	2302      	movs	r3, #2
    26ca:	762b      	strb	r3, [r5, #24]
    26cc:	e77e      	b.n	25cc <_sercom_i2c_sync_analyse_flags+0x74>
    26ce:	46c0      	nop			; (mov r8, r8)
    26d0:	000024e1 	.word	0x000024e1
    26d4:	fffffeff 	.word	0xfffffeff
    26d8:	00002541 	.word	0x00002541
    26dc:	fffffbff 	.word	0xfffffbff

000026e0 <_i2c_m_sync_init_impl>:
    26e0:	b5f7      	push	{r0, r1, r2, r4, r5, r6, r7, lr}
    26e2:	000c      	movs	r4, r1
    26e4:	9000      	str	r0, [sp, #0]
    26e6:	4b26      	ldr	r3, [pc, #152]	; (2780 <_i2c_m_sync_init_impl+0xa0>)
    26e8:	0008      	movs	r0, r1
    26ea:	4798      	blx	r3
    26ec:	69e3      	ldr	r3, [r4, #28]
    26ee:	b2c7      	uxtb	r7, r0
    26f0:	4e24      	ldr	r6, [pc, #144]	; (2784 <_i2c_m_sync_init_impl+0xa4>)
    26f2:	07db      	lsls	r3, r3, #31
    26f4:	d41b      	bmi.n	272e <_i2c_m_sync_init_impl+0x4e>
    26f6:	2318      	movs	r3, #24
    26f8:	437b      	muls	r3, r7
    26fa:	4a23      	ldr	r2, [pc, #140]	; (2788 <_i2c_m_sync_init_impl+0xa8>)
    26fc:	2502      	movs	r5, #2
    26fe:	18d3      	adds	r3, r2, r3
    2700:	685a      	ldr	r2, [r3, #4]
    2702:	231c      	movs	r3, #28
    2704:	2103      	movs	r1, #3
    2706:	401a      	ands	r2, r3
    2708:	0020      	movs	r0, r4
    270a:	9201      	str	r2, [sp, #4]
    270c:	47b0      	blx	r6
    270e:	6823      	ldr	r3, [r4, #0]
    2710:	422b      	tst	r3, r5
    2712:	d005      	beq.n	2720 <_i2c_m_sync_init_impl+0x40>
    2714:	0020      	movs	r0, r4
    2716:	4b1d      	ldr	r3, [pc, #116]	; (278c <_i2c_m_sync_init_impl+0xac>)
    2718:	4798      	blx	r3
    271a:	0029      	movs	r1, r5
    271c:	0020      	movs	r0, r4
    271e:	47b0      	blx	r6
    2720:	2301      	movs	r3, #1
    2722:	9a01      	ldr	r2, [sp, #4]
    2724:	2103      	movs	r1, #3
    2726:	4313      	orrs	r3, r2
    2728:	6023      	str	r3, [r4, #0]
    272a:	0020      	movs	r0, r4
    272c:	47b0      	blx	r6
    272e:	2518      	movs	r5, #24
    2730:	437d      	muls	r5, r7
    2732:	0020      	movs	r0, r4
    2734:	2101      	movs	r1, #1
    2736:	47b0      	blx	r6
    2738:	4b13      	ldr	r3, [pc, #76]	; (2788 <_i2c_m_sync_init_impl+0xa8>)
    273a:	0020      	movs	r0, r4
    273c:	195d      	adds	r5, r3, r5
    273e:	686f      	ldr	r7, [r5, #4]
    2740:	2103      	movs	r1, #3
    2742:	6027      	str	r7, [r4, #0]
    2744:	47b0      	blx	r6
    2746:	68ab      	ldr	r3, [r5, #8]
    2748:	0020      	movs	r0, r4
    274a:	6063      	str	r3, [r4, #4]
    274c:	2104      	movs	r1, #4
    274e:	47b0      	blx	r6
    2750:	68eb      	ldr	r3, [r5, #12]
    2752:	01bf      	lsls	r7, r7, #6
    2754:	60e3      	str	r3, [r4, #12]
    2756:	9b00      	ldr	r3, [sp, #0]
    2758:	0fb9      	lsrs	r1, r7, #30
    275a:	8199      	strh	r1, [r3, #12]
    275c:	6a67      	ldr	r7, [r4, #36]	; 0x24
    275e:	4a0c      	ldr	r2, [pc, #48]	; (2790 <_i2c_m_sync_init_impl+0xb0>)
    2760:	0020      	movs	r0, r4
    2762:	403a      	ands	r2, r7
    2764:	2701      	movs	r7, #1
    2766:	428f      	cmp	r7, r1
    2768:	41bf      	sbcs	r7, r7
    276a:	427f      	negs	r7, r7
    276c:	03bf      	lsls	r7, r7, #14
    276e:	4317      	orrs	r7, r2
    2770:	6267      	str	r7, [r4, #36]	; 0x24
    2772:	2104      	movs	r1, #4
    2774:	47b0      	blx	r6
    2776:	8a6b      	ldrh	r3, [r5, #18]
    2778:	9a00      	ldr	r2, [sp, #0]
    277a:	2000      	movs	r0, #0
    277c:	81d3      	strh	r3, [r2, #14]
    277e:	bdfe      	pop	{r1, r2, r3, r4, r5, r6, r7, pc}
    2780:	00002529 	.word	0x00002529
    2784:	000024e1 	.word	0x000024e1
    2788:	000085d4 	.word	0x000085d4
    278c:	000024f9 	.word	0x000024f9
    2790:	ffffbfff 	.word	0xffffbfff

00002794 <_usart_init>:
    2794:	4b30      	ldr	r3, [pc, #192]	; (2858 <_usart_init+0xc4>)
    2796:	b5f7      	push	{r0, r1, r2, r4, r5, r6, r7, lr}
    2798:	18c5      	adds	r5, r0, r3
    279a:	0aad      	lsrs	r5, r5, #10
    279c:	b2ed      	uxtb	r5, r5
    279e:	3d05      	subs	r5, #5
    27a0:	426a      	negs	r2, r5
    27a2:	416a      	adcs	r2, r5
    27a4:	69c3      	ldr	r3, [r0, #28]
    27a6:	0004      	movs	r4, r0
    27a8:	b2d5      	uxtb	r5, r2
    27aa:	4f2c      	ldr	r7, [pc, #176]	; (285c <_usart_init+0xc8>)
    27ac:	07db      	lsls	r3, r3, #31
    27ae:	d41a      	bmi.n	27e6 <_usart_init+0x52>
    27b0:	2314      	movs	r3, #20
    27b2:	436b      	muls	r3, r5
    27b4:	4a2a      	ldr	r2, [pc, #168]	; (2860 <_usart_init+0xcc>)
    27b6:	2602      	movs	r6, #2
    27b8:	18d3      	adds	r3, r2, r3
    27ba:	69da      	ldr	r2, [r3, #28]
    27bc:	231c      	movs	r3, #28
    27be:	2103      	movs	r1, #3
    27c0:	401a      	ands	r2, r3
    27c2:	9201      	str	r2, [sp, #4]
    27c4:	47b8      	blx	r7
    27c6:	6823      	ldr	r3, [r4, #0]
    27c8:	4233      	tst	r3, r6
    27ca:	d005      	beq.n	27d8 <_usart_init+0x44>
    27cc:	0020      	movs	r0, r4
    27ce:	4b25      	ldr	r3, [pc, #148]	; (2864 <_usart_init+0xd0>)
    27d0:	4798      	blx	r3
    27d2:	0031      	movs	r1, r6
    27d4:	0020      	movs	r0, r4
    27d6:	47b8      	blx	r7
    27d8:	2301      	movs	r3, #1
    27da:	9a01      	ldr	r2, [sp, #4]
    27dc:	2103      	movs	r1, #3
    27de:	4313      	orrs	r3, r2
    27e0:	6023      	str	r3, [r4, #0]
    27e2:	0020      	movs	r0, r4
    27e4:	47b8      	blx	r7
    27e6:	2614      	movs	r6, #20
    27e8:	436e      	muls	r6, r5
    27ea:	2101      	movs	r1, #1
    27ec:	0020      	movs	r0, r4
    27ee:	47b8      	blx	r7
    27f0:	4b1b      	ldr	r3, [pc, #108]	; (2860 <_usart_init+0xcc>)
    27f2:	2103      	movs	r1, #3
    27f4:	199e      	adds	r6, r3, r6
    27f6:	69f3      	ldr	r3, [r6, #28]
    27f8:	0020      	movs	r0, r4
    27fa:	6023      	str	r3, [r4, #0]
    27fc:	9301      	str	r3, [sp, #4]
    27fe:	47b8      	blx	r7
    2800:	6a33      	ldr	r3, [r6, #32]
    2802:	2107      	movs	r1, #7
    2804:	6063      	str	r3, [r4, #4]
    2806:	0020      	movs	r0, r4
    2808:	47b8      	blx	r7
    280a:	23c0      	movs	r3, #192	; 0xc0
    280c:	9901      	ldr	r1, [sp, #4]
    280e:	01db      	lsls	r3, r3, #7
    2810:	8cb2      	ldrh	r2, [r6, #36]	; 0x24
    2812:	4219      	tst	r1, r3
    2814:	d01e      	beq.n	2854 <_usart_init+0xc0>
    2816:	89a3      	ldrh	r3, [r4, #12]
    2818:	04d2      	lsls	r2, r2, #19
    281a:	0b5b      	lsrs	r3, r3, #13
    281c:	0cd2      	lsrs	r2, r2, #19
    281e:	035b      	lsls	r3, r3, #13
    2820:	4313      	orrs	r3, r2
    2822:	81a3      	strh	r3, [r4, #12]
    2824:	2307      	movs	r3, #7
    2826:	3607      	adds	r6, #7
    2828:	7ff2      	ldrb	r2, [r6, #31]
    282a:	401a      	ands	r2, r3
    282c:	89a3      	ldrh	r3, [r4, #12]
    282e:	0352      	lsls	r2, r2, #13
    2830:	04db      	lsls	r3, r3, #19
    2832:	0cdb      	lsrs	r3, r3, #19
    2834:	4313      	orrs	r3, r2
    2836:	81a3      	strh	r3, [r4, #12]
    2838:	2314      	movs	r3, #20
    283a:	435d      	muls	r5, r3
    283c:	4b08      	ldr	r3, [pc, #32]	; (2860 <_usart_init+0xcc>)
    283e:	2000      	movs	r0, #0
    2840:	195d      	adds	r5, r3, r5
    2842:	002b      	movs	r3, r5
    2844:	3308      	adds	r3, #8
    2846:	7fdb      	ldrb	r3, [r3, #31]
    2848:	3528      	adds	r5, #40	; 0x28
    284a:	73a3      	strb	r3, [r4, #14]
    284c:	782b      	ldrb	r3, [r5, #0]
    284e:	3430      	adds	r4, #48	; 0x30
    2850:	7023      	strb	r3, [r4, #0]
    2852:	bdfe      	pop	{r1, r2, r3, r4, r5, r6, r7, pc}
    2854:	81a2      	strh	r2, [r4, #12]
    2856:	e7ef      	b.n	2838 <_usart_init+0xa4>
    2858:	bdfff800 	.word	0xbdfff800
    285c:	000024f1 	.word	0x000024f1
    2860:	000085d4 	.word	0x000085d4
    2864:	00002511 	.word	0x00002511

00002868 <_usart_sync_init>:
    2868:	b510      	push	{r4, lr}
    286a:	4b02      	ldr	r3, [pc, #8]	; (2874 <_usart_sync_init+0xc>)
    286c:	6001      	str	r1, [r0, #0]
    286e:	0008      	movs	r0, r1
    2870:	4798      	blx	r3
    2872:	bd10      	pop	{r4, pc}
    2874:	00002795 	.word	0x00002795

00002878 <_usart_async_init>:
    2878:	b570      	push	{r4, r5, r6, lr}
    287a:	4b0e      	ldr	r3, [pc, #56]	; (28b4 <_usart_async_init+0x3c>)
    287c:	0006      	movs	r6, r0
    287e:	0008      	movs	r0, r1
    2880:	000c      	movs	r4, r1
    2882:	4798      	blx	r3
    2884:	1e05      	subs	r5, r0, #0
    2886:	d113      	bne.n	28b0 <_usart_async_init+0x38>
    2888:	4b0b      	ldr	r3, [pc, #44]	; (28b8 <_usart_async_init+0x40>)
    288a:	61b4      	str	r4, [r6, #24]
    288c:	429c      	cmp	r4, r3
    288e:	d101      	bne.n	2894 <_usart_async_init+0x1c>
    2890:	4b0a      	ldr	r3, [pc, #40]	; (28bc <_usart_async_init+0x44>)
    2892:	601e      	str	r6, [r3, #0]
    2894:	4b0a      	ldr	r3, [pc, #40]	; (28c0 <_usart_async_init+0x48>)
    2896:	18e4      	adds	r4, r4, r3
    2898:	0aa4      	lsrs	r4, r4, #10
    289a:	3409      	adds	r4, #9
    289c:	b264      	sxtb	r4, r4
    289e:	0020      	movs	r0, r4
    28a0:	4b08      	ldr	r3, [pc, #32]	; (28c4 <_usart_async_init+0x4c>)
    28a2:	4798      	blx	r3
    28a4:	0020      	movs	r0, r4
    28a6:	4b08      	ldr	r3, [pc, #32]	; (28c8 <_usart_async_init+0x50>)
    28a8:	4798      	blx	r3
    28aa:	0020      	movs	r0, r4
    28ac:	4b07      	ldr	r3, [pc, #28]	; (28cc <_usart_async_init+0x54>)
    28ae:	4798      	blx	r3
    28b0:	0028      	movs	r0, r5
    28b2:	bd70      	pop	{r4, r5, r6, pc}
    28b4:	00002795 	.word	0x00002795
    28b8:	42000c00 	.word	0x42000c00
    28bc:	200003c0 	.word	0x200003c0
    28c0:	bdfff800 	.word	0xbdfff800
    28c4:	000024a5 	.word	0x000024a5
    28c8:	000024c5 	.word	0x000024c5
    28cc:	0000248d 	.word	0x0000248d

000028d0 <_usart_sync_enable>:
    28d0:	2302      	movs	r3, #2
    28d2:	b510      	push	{r4, lr}
    28d4:	6800      	ldr	r0, [r0, #0]
    28d6:	2103      	movs	r1, #3
    28d8:	6802      	ldr	r2, [r0, #0]
    28da:	4313      	orrs	r3, r2
    28dc:	6003      	str	r3, [r0, #0]
    28de:	4b01      	ldr	r3, [pc, #4]	; (28e4 <_usart_sync_enable+0x14>)
    28e0:	4798      	blx	r3
    28e2:	bd10      	pop	{r4, pc}
    28e4:	000024f1 	.word	0x000024f1

000028e8 <_usart_async_enable>:
    28e8:	2302      	movs	r3, #2
    28ea:	b510      	push	{r4, lr}
    28ec:	6980      	ldr	r0, [r0, #24]
    28ee:	2103      	movs	r1, #3
    28f0:	6802      	ldr	r2, [r0, #0]
    28f2:	4313      	orrs	r3, r2
    28f4:	6003      	str	r3, [r0, #0]
    28f6:	4b01      	ldr	r3, [pc, #4]	; (28fc <_usart_async_enable+0x14>)
    28f8:	4798      	blx	r3
    28fa:	bd10      	pop	{r4, pc}
    28fc:	000024f1 	.word	0x000024f1

00002900 <_usart_sync_write_byte>:
    2900:	6803      	ldr	r3, [r0, #0]
    2902:	b289      	uxth	r1, r1
    2904:	8519      	strh	r1, [r3, #40]	; 0x28
    2906:	4770      	bx	lr

00002908 <_usart_async_write_byte>:
    2908:	6983      	ldr	r3, [r0, #24]
    290a:	b289      	uxth	r1, r1
    290c:	8519      	strh	r1, [r3, #40]	; 0x28
    290e:	4770      	bx	lr

00002910 <_usart_sync_read_byte>:
    2910:	6803      	ldr	r3, [r0, #0]
    2912:	8d18      	ldrh	r0, [r3, #40]	; 0x28
    2914:	b2c0      	uxtb	r0, r0
    2916:	4770      	bx	lr

00002918 <_usart_sync_is_ready_to_send>:
    2918:	6803      	ldr	r3, [r0, #0]
    291a:	7e18      	ldrb	r0, [r3, #24]
    291c:	2301      	movs	r3, #1
    291e:	4018      	ands	r0, r3
    2920:	4770      	bx	lr

00002922 <_usart_sync_is_transmit_done>:
    2922:	6803      	ldr	r3, [r0, #0]
    2924:	7e18      	ldrb	r0, [r3, #24]
    2926:	0780      	lsls	r0, r0, #30
    2928:	0fc0      	lsrs	r0, r0, #31
    292a:	4770      	bx	lr

0000292c <_usart_async_is_byte_sent>:
    292c:	6983      	ldr	r3, [r0, #24]
    292e:	7e18      	ldrb	r0, [r3, #24]
    2930:	2301      	movs	r3, #1
    2932:	4018      	ands	r0, r3
    2934:	4770      	bx	lr

00002936 <_usart_sync_is_byte_received>:
    2936:	6803      	ldr	r3, [r0, #0]
    2938:	7e18      	ldrb	r0, [r3, #24]
    293a:	0740      	lsls	r0, r0, #29
    293c:	0fc0      	lsrs	r0, r0, #31
    293e:	4770      	bx	lr

00002940 <_usart_async_enable_byte_sent_irq>:
    2940:	2201      	movs	r2, #1
    2942:	6983      	ldr	r3, [r0, #24]
    2944:	759a      	strb	r2, [r3, #22]
    2946:	4770      	bx	lr

00002948 <_usart_async_enable_tx_done_irq>:
    2948:	2202      	movs	r2, #2
    294a:	6983      	ldr	r3, [r0, #24]
    294c:	759a      	strb	r2, [r3, #22]
    294e:	4770      	bx	lr

00002950 <_usart_async_set_irq_state>:
    2950:	b510      	push	{r4, lr}
    2952:	000b      	movs	r3, r1
    2954:	2402      	movs	r4, #2
    2956:	43a3      	bics	r3, r4
    2958:	d109      	bne.n	296e <_usart_async_set_irq_state+0x1e>
    295a:	6983      	ldr	r3, [r0, #24]
    295c:	2101      	movs	r1, #1
    295e:	2a00      	cmp	r2, #0
    2960:	d102      	bne.n	2968 <_usart_async_set_irq_state+0x18>
    2962:	7519      	strb	r1, [r3, #20]
    2964:	751c      	strb	r4, [r3, #20]
    2966:	bd10      	pop	{r4, pc}
    2968:	7599      	strb	r1, [r3, #22]
    296a:	759c      	strb	r4, [r3, #22]
    296c:	e7fb      	b.n	2966 <_usart_async_set_irq_state+0x16>
    296e:	2901      	cmp	r1, #1
    2970:	d105      	bne.n	297e <_usart_async_set_irq_state+0x2e>
    2972:	6983      	ldr	r3, [r0, #24]
    2974:	3103      	adds	r1, #3
    2976:	2a00      	cmp	r2, #0
    2978:	d106      	bne.n	2988 <_usart_async_set_irq_state+0x38>
    297a:	7519      	strb	r1, [r3, #20]
    297c:	e7f3      	b.n	2966 <_usart_async_set_irq_state+0x16>
    297e:	2903      	cmp	r1, #3
    2980:	d1f1      	bne.n	2966 <_usart_async_set_irq_state+0x16>
    2982:	6983      	ldr	r3, [r0, #24]
    2984:	317d      	adds	r1, #125	; 0x7d
    2986:	e7f6      	b.n	2976 <_usart_async_set_irq_state+0x26>
    2988:	7599      	strb	r1, [r3, #22]
    298a:	e7ec      	b.n	2966 <_usart_async_set_irq_state+0x16>

0000298c <_i2c_m_sync_init>:
    298c:	b510      	push	{r4, lr}
    298e:	4b02      	ldr	r3, [pc, #8]	; (2998 <_i2c_m_sync_init+0xc>)
    2990:	6101      	str	r1, [r0, #16]
    2992:	4798      	blx	r3
    2994:	bd10      	pop	{r4, pc}
    2996:	46c0      	nop			; (mov r8, r8)
    2998:	000026e1 	.word	0x000026e1

0000299c <_i2c_m_sync_transfer>:
    299c:	2380      	movs	r3, #128	; 0x80
    299e:	b5f0      	push	{r4, r5, r6, r7, lr}
    29a0:	b085      	sub	sp, #20
    29a2:	9101      	str	r1, [sp, #4]
    29a4:	8842      	ldrh	r2, [r0, #2]
    29a6:	005b      	lsls	r3, r3, #1
    29a8:	0004      	movs	r4, r0
    29aa:	6906      	ldr	r6, [r0, #16]
    29ac:	421a      	tst	r2, r3
    29ae:	d000      	beq.n	29b2 <_i2c_m_sync_transfer+0x16>
    29b0:	e080      	b.n	2ab4 <_i2c_m_sync_transfer+0x118>
    29b2:	884a      	ldrh	r2, [r1, #2]
    29b4:	431a      	orrs	r2, r3
    29b6:	804a      	strh	r2, [r1, #2]
    29b8:	0002      	movs	r2, r0
    29ba:	c9a1      	ldmia	r1!, {r0, r5, r7}
    29bc:	c2a1      	stmia	r2!, {r0, r5, r7}
    29be:	6872      	ldr	r2, [r6, #4]
    29c0:	2104      	movs	r1, #4
    29c2:	4313      	orrs	r3, r2
    29c4:	6073      	str	r3, [r6, #4]
    29c6:	0030      	movs	r0, r6
    29c8:	4f43      	ldr	r7, [pc, #268]	; (2ad8 <_i2c_m_sync_transfer+0x13c>)
    29ca:	47b8      	blx	r7
    29cc:	6925      	ldr	r5, [r4, #16]
    29ce:	6862      	ldr	r2, [r4, #4]
    29d0:	682b      	ldr	r3, [r5, #0]
    29d2:	2a01      	cmp	r2, #1
    29d4:	d140      	bne.n	2a58 <_i2c_m_sync_transfer+0xbc>
    29d6:	0edb      	lsrs	r3, r3, #27
    29d8:	4213      	tst	r3, r2
    29da:	d03d      	beq.n	2a58 <_i2c_m_sync_transfer+0xbc>
    29dc:	2380      	movs	r3, #128	; 0x80
    29de:	686a      	ldr	r2, [r5, #4]
    29e0:	02db      	lsls	r3, r3, #11
    29e2:	4313      	orrs	r3, r2
    29e4:	606b      	str	r3, [r5, #4]
    29e6:	2104      	movs	r1, #4
    29e8:	0028      	movs	r0, r5
    29ea:	47b8      	blx	r7
    29ec:	2380      	movs	r3, #128	; 0x80
    29ee:	8822      	ldrh	r2, [r4, #0]
    29f0:	00db      	lsls	r3, r3, #3
    29f2:	0051      	lsls	r1, r2, #1
    29f4:	9102      	str	r1, [sp, #8]
    29f6:	421a      	tst	r2, r3
    29f8:	d032      	beq.n	2a60 <_i2c_m_sync_transfer+0xc4>
    29fa:	8862      	ldrh	r2, [r4, #2]
    29fc:	07d2      	lsls	r2, r2, #31
    29fe:	d502      	bpl.n	2a06 <_i2c_m_sync_transfer+0x6a>
    2a00:	8862      	ldrh	r2, [r4, #2]
    2a02:	4313      	orrs	r3, r2
    2a04:	8063      	strh	r3, [r4, #2]
    2a06:	2104      	movs	r1, #4
    2a08:	0028      	movs	r0, r5
    2a0a:	47b8      	blx	r7
    2a0c:	4b33      	ldr	r3, [pc, #204]	; (2adc <_i2c_m_sync_transfer+0x140>)
    2a0e:	9902      	ldr	r1, [sp, #8]
    2a10:	6a6a      	ldr	r2, [r5, #36]	; 0x24
    2a12:	4019      	ands	r1, r3
    2a14:	000b      	movs	r3, r1
    2a16:	2180      	movs	r1, #128	; 0x80
    2a18:	01c9      	lsls	r1, r1, #7
    2a1a:	4011      	ands	r1, r2
    2a1c:	2280      	movs	r2, #128	; 0x80
    2a1e:	0212      	lsls	r2, r2, #8
    2a20:	430a      	orrs	r2, r1
    2a22:	4313      	orrs	r3, r2
    2a24:	626b      	str	r3, [r5, #36]	; 0x24
    2a26:	0028      	movs	r0, r5
    2a28:	2104      	movs	r1, #4
    2a2a:	47b8      	blx	r7
    2a2c:	2380      	movs	r3, #128	; 0x80
    2a2e:	2203      	movs	r2, #3
    2a30:	6920      	ldr	r0, [r4, #16]
    2a32:	025b      	lsls	r3, r3, #9
    2a34:	7e01      	ldrb	r1, [r0, #24]
    2a36:	3b01      	subs	r3, #1
    2a38:	b2c9      	uxtb	r1, r1
    2a3a:	2b00      	cmp	r3, #0
    2a3c:	d124      	bne.n	2a88 <_i2c_m_sync_transfer+0xec>
    2a3e:	0028      	movs	r0, r5
    2a40:	0022      	movs	r2, r4
    2a42:	4d27      	ldr	r5, [pc, #156]	; (2ae0 <_i2c_m_sync_transfer+0x144>)
    2a44:	47a8      	blx	r5
    2a46:	2703      	movs	r7, #3
    2a48:	2800      	cmp	r0, #0
    2a4a:	d020      	beq.n	2a8e <_i2c_m_sync_transfer+0xf2>
    2a4c:	8863      	ldrh	r3, [r4, #2]
    2a4e:	4a25      	ldr	r2, [pc, #148]	; (2ae4 <_i2c_m_sync_transfer+0x148>)
    2a50:	4013      	ands	r3, r2
    2a52:	8063      	strh	r3, [r4, #2]
    2a54:	b005      	add	sp, #20
    2a56:	bdf0      	pop	{r4, r5, r6, r7, pc}
    2a58:	686b      	ldr	r3, [r5, #4]
    2a5a:	4a23      	ldr	r2, [pc, #140]	; (2ae8 <_i2c_m_sync_transfer+0x14c>)
    2a5c:	4013      	ands	r3, r2
    2a5e:	e7c1      	b.n	29e4 <_i2c_m_sync_transfer+0x48>
    2a60:	8863      	ldrh	r3, [r4, #2]
    2a62:	2104      	movs	r1, #4
    2a64:	b29b      	uxth	r3, r3
    2a66:	0028      	movs	r0, r5
    2a68:	4f1b      	ldr	r7, [pc, #108]	; (2ad8 <_i2c_m_sync_transfer+0x13c>)
    2a6a:	9303      	str	r3, [sp, #12]
    2a6c:	47b8      	blx	r7
    2a6e:	23ff      	movs	r3, #255	; 0xff
    2a70:	9902      	ldr	r1, [sp, #8]
    2a72:	9803      	ldr	r0, [sp, #12]
    2a74:	4019      	ands	r1, r3
    2a76:	000b      	movs	r3, r1
    2a78:	2101      	movs	r1, #1
    2a7a:	4001      	ands	r1, r0
    2a7c:	430b      	orrs	r3, r1
    2a7e:	2180      	movs	r1, #128	; 0x80
    2a80:	6a6a      	ldr	r2, [r5, #36]	; 0x24
    2a82:	01c9      	lsls	r1, r1, #7
    2a84:	400a      	ands	r2, r1
    2a86:	e7cc      	b.n	2a22 <_i2c_m_sync_transfer+0x86>
    2a88:	4211      	tst	r1, r2
    2a8a:	d0d3      	beq.n	2a34 <_i2c_m_sync_transfer+0x98>
    2a8c:	e7d7      	b.n	2a3e <_i2c_m_sync_transfer+0xa2>
    2a8e:	2280      	movs	r2, #128	; 0x80
    2a90:	8863      	ldrh	r3, [r4, #2]
    2a92:	0052      	lsls	r2, r2, #1
    2a94:	4213      	tst	r3, r2
    2a96:	d0dd      	beq.n	2a54 <_i2c_m_sync_transfer+0xb8>
    2a98:	2380      	movs	r3, #128	; 0x80
    2a9a:	6922      	ldr	r2, [r4, #16]
    2a9c:	025b      	lsls	r3, r3, #9
    2a9e:	7e11      	ldrb	r1, [r2, #24]
    2aa0:	3b01      	subs	r3, #1
    2aa2:	b2c9      	uxtb	r1, r1
    2aa4:	2b00      	cmp	r3, #0
    2aa6:	d007      	beq.n	2ab8 <_i2c_m_sync_transfer+0x11c>
    2aa8:	4239      	tst	r1, r7
    2aaa:	d0f8      	beq.n	2a9e <_i2c_m_sync_transfer+0x102>
    2aac:	0022      	movs	r2, r4
    2aae:	0030      	movs	r0, r6
    2ab0:	47a8      	blx	r5
    2ab2:	e7ec      	b.n	2a8e <_i2c_m_sync_transfer+0xf2>
    2ab4:	2006      	movs	r0, #6
    2ab6:	e00c      	b.n	2ad2 <_i2c_m_sync_transfer+0x136>
    2ab8:	9b01      	ldr	r3, [sp, #4]
    2aba:	885b      	ldrh	r3, [r3, #2]
    2abc:	b21b      	sxth	r3, r3
    2abe:	2b00      	cmp	r3, #0
    2ac0:	da02      	bge.n	2ac8 <_i2c_m_sync_transfer+0x12c>
    2ac2:	0030      	movs	r0, r6
    2ac4:	4b09      	ldr	r3, [pc, #36]	; (2aec <_i2c_m_sync_transfer+0x150>)
    2ac6:	4798      	blx	r3
    2ac8:	2005      	movs	r0, #5
    2aca:	8863      	ldrh	r3, [r4, #2]
    2acc:	4a05      	ldr	r2, [pc, #20]	; (2ae4 <_i2c_m_sync_transfer+0x148>)
    2ace:	4013      	ands	r3, r2
    2ad0:	8063      	strh	r3, [r4, #2]
    2ad2:	4240      	negs	r0, r0
    2ad4:	e7be      	b.n	2a54 <_i2c_m_sync_transfer+0xb8>
    2ad6:	46c0      	nop			; (mov r8, r8)
    2ad8:	000024e1 	.word	0x000024e1
    2adc:	000007fe 	.word	0x000007fe
    2ae0:	00002559 	.word	0x00002559
    2ae4:	fffffeff 	.word	0xfffffeff
    2ae8:	fffbffff 	.word	0xfffbffff
    2aec:	00002541 	.word	0x00002541

00002af0 <SERCOM1_Handler>:
    2af0:	4b19      	ldr	r3, [pc, #100]	; (2b58 <SERCOM1_Handler+0x68>)
    2af2:	b510      	push	{r4, lr}
    2af4:	6818      	ldr	r0, [r3, #0]
    2af6:	2301      	movs	r3, #1
    2af8:	6984      	ldr	r4, [r0, #24]
    2afa:	7e22      	ldrb	r2, [r4, #24]
    2afc:	421a      	tst	r2, r3
    2afe:	d006      	beq.n	2b0e <SERCOM1_Handler+0x1e>
    2b00:	7da2      	ldrb	r2, [r4, #22]
    2b02:	421a      	tst	r2, r3
    2b04:	d003      	beq.n	2b0e <SERCOM1_Handler+0x1e>
    2b06:	7523      	strb	r3, [r4, #20]
    2b08:	6803      	ldr	r3, [r0, #0]
    2b0a:	4798      	blx	r3
    2b0c:	bd10      	pop	{r4, pc}
    2b0e:	7e23      	ldrb	r3, [r4, #24]
    2b10:	2201      	movs	r2, #1
    2b12:	079b      	lsls	r3, r3, #30
    2b14:	d507      	bpl.n	2b26 <SERCOM1_Handler+0x36>
    2b16:	7da3      	ldrb	r3, [r4, #22]
    2b18:	40d3      	lsrs	r3, r2
    2b1a:	4213      	tst	r3, r2
    2b1c:	d003      	beq.n	2b26 <SERCOM1_Handler+0x36>
    2b1e:	2302      	movs	r3, #2
    2b20:	7523      	strb	r3, [r4, #20]
    2b22:	6883      	ldr	r3, [r0, #8]
    2b24:	e7f1      	b.n	2b0a <SERCOM1_Handler+0x1a>
    2b26:	7e23      	ldrb	r3, [r4, #24]
    2b28:	075b      	lsls	r3, r3, #29
    2b2a:	d50b      	bpl.n	2b44 <SERCOM1_Handler+0x54>
    2b2c:	2337      	movs	r3, #55	; 0x37
    2b2e:	8b62      	ldrh	r2, [r4, #26]
    2b30:	421a      	tst	r2, r3
    2b32:	d002      	beq.n	2b3a <SERCOM1_Handler+0x4a>
    2b34:	3308      	adds	r3, #8
    2b36:	8363      	strh	r3, [r4, #26]
    2b38:	e7e8      	b.n	2b0c <SERCOM1_Handler+0x1c>
    2b3a:	8d21      	ldrh	r1, [r4, #40]	; 0x28
    2b3c:	6843      	ldr	r3, [r0, #4]
    2b3e:	b2c9      	uxtb	r1, r1
    2b40:	4798      	blx	r3
    2b42:	e7e3      	b.n	2b0c <SERCOM1_Handler+0x1c>
    2b44:	7e23      	ldrb	r3, [r4, #24]
    2b46:	09db      	lsrs	r3, r3, #7
    2b48:	d0e0      	beq.n	2b0c <SERCOM1_Handler+0x1c>
    2b4a:	2380      	movs	r3, #128	; 0x80
    2b4c:	7623      	strb	r3, [r4, #24]
    2b4e:	68c3      	ldr	r3, [r0, #12]
    2b50:	4798      	blx	r3
    2b52:	8b63      	ldrh	r3, [r4, #26]
    2b54:	b29b      	uxth	r3, r3
    2b56:	e7ee      	b.n	2b36 <SERCOM1_Handler+0x46>
    2b58:	200003c0 	.word	0x200003c0

00002b5c <_spi_m_sync_init>:
    2b5c:	b5f8      	push	{r3, r4, r5, r6, r7, lr}
    2b5e:	4b1e      	ldr	r3, [pc, #120]	; (2bd8 <_spi_m_sync_init+0x7c>)
    2b60:	0006      	movs	r6, r0
    2b62:	18cb      	adds	r3, r1, r3
    2b64:	0a9b      	lsrs	r3, r3, #10
    2b66:	b2db      	uxtb	r3, r3
    2b68:	000c      	movs	r4, r1
    2b6a:	2b00      	cmp	r3, #0
    2b6c:	d002      	beq.n	2b74 <_spi_m_sync_init+0x18>
    2b6e:	200d      	movs	r0, #13
    2b70:	4240      	negs	r0, r0
    2b72:	bdf8      	pop	{r3, r4, r5, r6, r7, pc}
    2b74:	69cb      	ldr	r3, [r1, #28]
    2b76:	4d19      	ldr	r5, [pc, #100]	; (2bdc <_spi_m_sync_init+0x80>)
    2b78:	07db      	lsls	r3, r3, #31
    2b7a:	d414      	bmi.n	2ba6 <_spi_m_sync_init+0x4a>
    2b7c:	2702      	movs	r7, #2
    2b7e:	2103      	movs	r1, #3
    2b80:	0020      	movs	r0, r4
    2b82:	47a8      	blx	r5
    2b84:	6823      	ldr	r3, [r4, #0]
    2b86:	423b      	tst	r3, r7
    2b88:	d008      	beq.n	2b9c <_spi_m_sync_init+0x40>
    2b8a:	6823      	ldr	r3, [r4, #0]
    2b8c:	2103      	movs	r1, #3
    2b8e:	43bb      	bics	r3, r7
    2b90:	0020      	movs	r0, r4
    2b92:	6023      	str	r3, [r4, #0]
    2b94:	47a8      	blx	r5
    2b96:	0039      	movs	r1, r7
    2b98:	0020      	movs	r0, r4
    2b9a:	47a8      	blx	r5
    2b9c:	230d      	movs	r3, #13
    2b9e:	2103      	movs	r1, #3
    2ba0:	6023      	str	r3, [r4, #0]
    2ba2:	0020      	movs	r0, r4
    2ba4:	47a8      	blx	r5
    2ba6:	0020      	movs	r0, r4
    2ba8:	2101      	movs	r1, #1
    2baa:	47a8      	blx	r5
    2bac:	4b0c      	ldr	r3, [pc, #48]	; (2be0 <_spi_m_sync_init+0x84>)
    2bae:	6034      	str	r4, [r6, #0]
    2bb0:	0020      	movs	r0, r4
    2bb2:	6023      	str	r3, [r4, #0]
    2bb4:	2103      	movs	r1, #3
    2bb6:	47a8      	blx	r5
    2bb8:	2380      	movs	r3, #128	; 0x80
    2bba:	029b      	lsls	r3, r3, #10
    2bbc:	6063      	str	r3, [r4, #4]
    2bbe:	0020      	movs	r0, r4
    2bc0:	2107      	movs	r1, #7
    2bc2:	47a8      	blx	r5
    2bc4:	234f      	movs	r3, #79	; 0x4f
    2bc6:	2000      	movs	r0, #0
    2bc8:	7323      	strb	r3, [r4, #12]
    2bca:	3b4e      	subs	r3, #78	; 0x4e
    2bcc:	3430      	adds	r4, #48	; 0x30
    2bce:	7020      	strb	r0, [r4, #0]
    2bd0:	7133      	strb	r3, [r6, #4]
    2bd2:	4b04      	ldr	r3, [pc, #16]	; (2be4 <_spi_m_sync_init+0x88>)
    2bd4:	80f3      	strh	r3, [r6, #6]
    2bd6:	e7cc      	b.n	2b72 <_spi_m_sync_init+0x16>
    2bd8:	bdfff800 	.word	0xbdfff800
    2bdc:	000024e9 	.word	0x000024e9
    2be0:	0030000c 	.word	0x0030000c
    2be4:	000001ff 	.word	0x000001ff

00002be8 <_spi_m_sync_trans>:
    2be8:	b5f0      	push	{r4, r5, r6, r7, lr}
    2bea:	b085      	sub	sp, #20
    2bec:	9001      	str	r0, [sp, #4]
    2bee:	9102      	str	r1, [sp, #8]
    2bf0:	6805      	ldr	r5, [r0, #0]
    2bf2:	7903      	ldrb	r3, [r0, #4]
    2bf4:	2007      	movs	r0, #7
    2bf6:	69ec      	ldr	r4, [r5, #28]
    2bf8:	680f      	ldr	r7, [r1, #0]
    2bfa:	684e      	ldr	r6, [r1, #4]
    2bfc:	9303      	str	r3, [sp, #12]
    2bfe:	4004      	ands	r4, r0
    2c00:	d131      	bne.n	2c66 <_spi_m_sync_trans+0x7e>
    2c02:	4b28      	ldr	r3, [pc, #160]	; (2ca4 <_spi_m_sync_trans+0xbc>)
    2c04:	2103      	movs	r1, #3
    2c06:	0028      	movs	r0, r5
    2c08:	4798      	blx	r3
    2c0a:	682b      	ldr	r3, [r5, #0]
    2c0c:	079b      	lsls	r3, r3, #30
    2c0e:	d52d      	bpl.n	2c6c <_spi_m_sync_trans+0x84>
    2c10:	2301      	movs	r3, #1
    2c12:	0021      	movs	r1, r4
    2c14:	469c      	mov	ip, r3
    2c16:	2304      	movs	r3, #4
    2c18:	7e2a      	ldrb	r2, [r5, #24]
    2c1a:	b2d2      	uxtb	r2, r2
    2c1c:	421a      	tst	r2, r3
    2c1e:	d027      	beq.n	2c70 <_spi_m_sync_trans+0x88>
    2c20:	6aab      	ldr	r3, [r5, #40]	; 0x28
    2c22:	2e00      	cmp	r6, #0
    2c24:	d004      	beq.n	2c30 <_spi_m_sync_trans+0x48>
    2c26:	9803      	ldr	r0, [sp, #12]
    2c28:	7033      	strb	r3, [r6, #0]
    2c2a:	2801      	cmp	r0, #1
    2c2c:	d812      	bhi.n	2c54 <_spi_m_sync_trans+0x6c>
    2c2e:	3601      	adds	r6, #1
    2c30:	3101      	adds	r1, #1
    2c32:	b252      	sxtb	r2, r2
    2c34:	2a00      	cmp	r2, #0
    2c36:	da2d      	bge.n	2c94 <_spi_m_sync_trans+0xac>
    2c38:	2301      	movs	r3, #1
    2c3a:	2013      	movs	r0, #19
    2c3c:	425b      	negs	r3, r3
    2c3e:	836b      	strh	r3, [r5, #26]
    2c40:	3381      	adds	r3, #129	; 0x81
    2c42:	762b      	strb	r3, [r5, #24]
    2c44:	4240      	negs	r0, r0
    2c46:	2303      	movs	r3, #3
    2c48:	7e2a      	ldrb	r2, [r5, #24]
    2c4a:	421a      	tst	r2, r3
    2c4c:	d0fc      	beq.n	2c48 <_spi_m_sync_trans+0x60>
    2c4e:	762b      	strb	r3, [r5, #24]
    2c50:	b005      	add	sp, #20
    2c52:	bdf0      	pop	{r4, r5, r6, r7, pc}
    2c54:	0a1b      	lsrs	r3, r3, #8
    2c56:	7073      	strb	r3, [r6, #1]
    2c58:	3602      	adds	r6, #2
    2c5a:	e7e9      	b.n	2c30 <_spi_m_sync_trans+0x48>
    2c5c:	787b      	ldrb	r3, [r7, #1]
    2c5e:	3702      	adds	r7, #2
    2c60:	021b      	lsls	r3, r3, #8
    2c62:	4303      	orrs	r3, r0
    2c64:	e013      	b.n	2c8e <_spi_m_sync_trans+0xa6>
    2c66:	2004      	movs	r0, #4
    2c68:	4240      	negs	r0, r0
    2c6a:	e7f1      	b.n	2c50 <_spi_m_sync_trans+0x68>
    2c6c:	2014      	movs	r0, #20
    2c6e:	e7fb      	b.n	2c68 <_spi_m_sync_trans+0x80>
    2c70:	42a1      	cmp	r1, r4
    2c72:	d3de      	bcc.n	2c32 <_spi_m_sync_trans+0x4a>
    2c74:	4663      	mov	r3, ip
    2c76:	421a      	tst	r2, r3
    2c78:	d0db      	beq.n	2c32 <_spi_m_sync_trans+0x4a>
    2c7a:	9b01      	ldr	r3, [sp, #4]
    2c7c:	88db      	ldrh	r3, [r3, #6]
    2c7e:	2f00      	cmp	r7, #0
    2c80:	d005      	beq.n	2c8e <_spi_m_sync_trans+0xa6>
    2c82:	9b03      	ldr	r3, [sp, #12]
    2c84:	7838      	ldrb	r0, [r7, #0]
    2c86:	2b01      	cmp	r3, #1
    2c88:	d8e8      	bhi.n	2c5c <_spi_m_sync_trans+0x74>
    2c8a:	0003      	movs	r3, r0
    2c8c:	3701      	adds	r7, #1
    2c8e:	3401      	adds	r4, #1
    2c90:	62ab      	str	r3, [r5, #40]	; 0x28
    2c92:	e7ce      	b.n	2c32 <_spi_m_sync_trans+0x4a>
    2c94:	9b02      	ldr	r3, [sp, #8]
    2c96:	689b      	ldr	r3, [r3, #8]
    2c98:	42a3      	cmp	r3, r4
    2c9a:	d8bc      	bhi.n	2c16 <_spi_m_sync_trans+0x2e>
    2c9c:	428b      	cmp	r3, r1
    2c9e:	d8ba      	bhi.n	2c16 <_spi_m_sync_trans+0x2e>
    2ca0:	0020      	movs	r0, r4
    2ca2:	e7d0      	b.n	2c46 <_spi_m_sync_trans+0x5e>
    2ca4:	000024e9 	.word	0x000024e9

00002ca8 <_sysctrl_init_sources>:
    2ca8:	4b0d      	ldr	r3, [pc, #52]	; (2ce0 <_sysctrl_init_sources+0x38>)
    2caa:	480e      	ldr	r0, [pc, #56]	; (2ce4 <_sysctrl_init_sources+0x3c>)
    2cac:	6a19      	ldr	r1, [r3, #32]
    2cae:	6a1a      	ldr	r2, [r3, #32]
    2cb0:	4001      	ands	r1, r0
    2cb2:	2002      	movs	r0, #2
    2cb4:	0f92      	lsrs	r2, r2, #30
    2cb6:	0792      	lsls	r2, r2, #30
    2cb8:	4302      	orrs	r2, r0
    2cba:	430a      	orrs	r2, r1
    2cbc:	211f      	movs	r1, #31
    2cbe:	621a      	str	r2, [r3, #32]
    2cc0:	699a      	ldr	r2, [r3, #24]
    2cc2:	4310      	orrs	r0, r2
    2cc4:	6198      	str	r0, [r3, #24]
    2cc6:	7f1a      	ldrb	r2, [r3, #28]
    2cc8:	400a      	ands	r2, r1
    2cca:	771a      	strb	r2, [r3, #28]
    2ccc:	2208      	movs	r2, #8
    2cce:	68d9      	ldr	r1, [r3, #12]
    2cd0:	4211      	tst	r1, r2
    2cd2:	d0fc      	beq.n	2cce <_sysctrl_init_sources+0x26>
    2cd4:	2280      	movs	r2, #128	; 0x80
    2cd6:	6a19      	ldr	r1, [r3, #32]
    2cd8:	430a      	orrs	r2, r1
    2cda:	621a      	str	r2, [r3, #32]
    2cdc:	4770      	bx	lr
    2cde:	46c0      	nop			; (mov r8, r8)
    2ce0:	40000800 	.word	0x40000800
    2ce4:	0fff0000 	.word	0x0fff0000

00002ce8 <_sysctrl_init_referenced_generators>:
    2ce8:	2202      	movs	r2, #2
    2cea:	4b16      	ldr	r3, [pc, #88]	; (2d44 <_sysctrl_init_referenced_generators+0x5c>)
    2cec:	849a      	strh	r2, [r3, #36]	; 0x24
    2cee:	320e      	adds	r2, #14
    2cf0:	68d9      	ldr	r1, [r3, #12]
    2cf2:	4211      	tst	r1, r2
    2cf4:	d0fc      	beq.n	2cf0 <_sysctrl_init_referenced_generators+0x8>
    2cf6:	4a14      	ldr	r2, [pc, #80]	; (2d48 <_sysctrl_init_referenced_generators+0x60>)
    2cf8:	62da      	str	r2, [r3, #44]	; 0x2c
    2cfa:	4a14      	ldr	r2, [pc, #80]	; (2d4c <_sysctrl_init_referenced_generators+0x64>)
    2cfc:	6812      	ldr	r2, [r2, #0]
    2cfe:	0e92      	lsrs	r2, r2, #26
    2d00:	2a3f      	cmp	r2, #63	; 0x3f
    2d02:	d00e      	beq.n	2d22 <_sysctrl_init_referenced_generators+0x3a>
    2d04:	2180      	movs	r1, #128	; 0x80
    2d06:	0292      	lsls	r2, r2, #10
    2d08:	0089      	lsls	r1, r1, #2
    2d0a:	430a      	orrs	r2, r1
    2d0c:	629a      	str	r2, [r3, #40]	; 0x28
    2d0e:	4a10      	ldr	r2, [pc, #64]	; (2d50 <_sysctrl_init_referenced_generators+0x68>)
    2d10:	849a      	strh	r2, [r3, #36]	; 0x24
    2d12:	8c9a      	ldrh	r2, [r3, #36]	; 0x24
    2d14:	0752      	lsls	r2, r2, #29
    2d16:	d407      	bmi.n	2d28 <_sysctrl_init_referenced_generators+0x40>
    2d18:	2210      	movs	r2, #16
    2d1a:	68d9      	ldr	r1, [r3, #12]
    2d1c:	4211      	tst	r1, r2
    2d1e:	d0fc      	beq.n	2d1a <_sysctrl_init_referenced_generators+0x32>
    2d20:	e006      	b.n	2d30 <_sysctrl_init_referenced_generators+0x48>
    2d22:	22fc      	movs	r2, #252	; 0xfc
    2d24:	01d2      	lsls	r2, r2, #7
    2d26:	e7f1      	b.n	2d0c <_sysctrl_init_referenced_generators+0x24>
    2d28:	2210      	movs	r2, #16
    2d2a:	68d9      	ldr	r1, [r3, #12]
    2d2c:	4211      	tst	r1, r2
    2d2e:	d0fc      	beq.n	2d2a <_sysctrl_init_referenced_generators+0x42>
    2d30:	4908      	ldr	r1, [pc, #32]	; (2d54 <_sysctrl_init_referenced_generators+0x6c>)
    2d32:	784a      	ldrb	r2, [r1, #1]
    2d34:	09d2      	lsrs	r2, r2, #7
    2d36:	d1fc      	bne.n	2d32 <_sysctrl_init_referenced_generators+0x4a>
    2d38:	2102      	movs	r1, #2
    2d3a:	699a      	ldr	r2, [r3, #24]
    2d3c:	438a      	bics	r2, r1
    2d3e:	619a      	str	r2, [r3, #24]
    2d40:	4770      	bx	lr
    2d42:	46c0      	nop			; (mov r8, r8)
    2d44:	40000800 	.word	0x40000800
    2d48:	0401bb80 	.word	0x0401bb80
    2d4c:	00806024 	.word	0x00806024
    2d50:	00000526 	.word	0x00000526
    2d54:	40000c00 	.word	0x40000c00

00002d58 <_dummy_func_no_return>:
    2d58:	2000      	movs	r0, #0
    2d5a:	4770      	bx	lr

00002d5c <_usb_d_dev_wait_dfll_rdy>:
    2d5c:	4b07      	ldr	r3, [pc, #28]	; (2d7c <_usb_d_dev_wait_dfll_rdy+0x20>)
    2d5e:	8c9a      	ldrh	r2, [r3, #36]	; 0x24
    2d60:	0692      	lsls	r2, r2, #26
    2d62:	d405      	bmi.n	2d70 <_usb_d_dev_wait_dfll_rdy+0x14>
    2d64:	21d0      	movs	r1, #208	; 0xd0
    2d66:	68da      	ldr	r2, [r3, #12]
    2d68:	400a      	ands	r2, r1
    2d6a:	2ad0      	cmp	r2, #208	; 0xd0
    2d6c:	d1fb      	bne.n	2d66 <_usb_d_dev_wait_dfll_rdy+0xa>
    2d6e:	4770      	bx	lr
    2d70:	2210      	movs	r2, #16
    2d72:	68d9      	ldr	r1, [r3, #12]
    2d74:	4211      	tst	r1, r2
    2d76:	d0fc      	beq.n	2d72 <_usb_d_dev_wait_dfll_rdy+0x16>
    2d78:	e7f9      	b.n	2d6e <_usb_d_dev_wait_dfll_rdy+0x12>
    2d7a:	46c0      	nop			; (mov r8, r8)
    2d7c:	40000800 	.word	0x40000800

00002d80 <_usb_d_dev_ept>:
    2d80:	2800      	cmp	r0, #0
    2d82:	d003      	beq.n	2d8c <_usb_d_dev_ept+0xc>
    2d84:	2900      	cmp	r1, #0
    2d86:	d001      	beq.n	2d8c <_usb_d_dev_ept+0xc>
    2d88:	3005      	adds	r0, #5
    2d8a:	b2c0      	uxtb	r0, r0
    2d8c:	2314      	movs	r3, #20
    2d8e:	3001      	adds	r0, #1
    2d90:	4343      	muls	r3, r0
    2d92:	4801      	ldr	r0, [pc, #4]	; (2d98 <_usb_d_dev_ept+0x18>)
    2d94:	18c0      	adds	r0, r0, r3
    2d96:	4770      	bx	lr
    2d98:	200003c4 	.word	0x200003c4

00002d9c <_usb_d_dev_handle_setup>:
    2d9c:	230f      	movs	r3, #15
    2d9e:	b570      	push	{r4, r5, r6, lr}
    2da0:	0001      	movs	r1, r0
    2da2:	7c80      	ldrb	r0, [r0, #18]
    2da4:	2507      	movs	r5, #7
    2da6:	4003      	ands	r3, r0
    2da8:	001a      	movs	r2, r3
    2daa:	7ccc      	ldrb	r4, [r1, #19]
    2dac:	3208      	adds	r2, #8
    2dae:	4025      	ands	r5, r4
    2db0:	015b      	lsls	r3, r3, #5
    2db2:	2d01      	cmp	r5, #1
    2db4:	d008      	beq.n	2dc8 <_usb_d_dev_handle_setup+0x2c>
    2db6:	4914      	ldr	r1, [pc, #80]	; (2e08 <_usb_d_dev_handle_setup+0x6c>)
    2db8:	0152      	lsls	r2, r2, #5
    2dba:	1852      	adds	r2, r2, r1
    2dbc:	2110      	movs	r1, #16
    2dbe:	71d1      	strb	r1, [r2, #7]
    2dc0:	4a12      	ldr	r2, [pc, #72]	; (2e0c <_usb_d_dev_handle_setup+0x70>)
    2dc2:	189b      	adds	r3, r3, r2
    2dc4:	7259      	strb	r1, [r3, #9]
    2dc6:	bd70      	pop	{r4, r5, r6, pc}
    2dc8:	2540      	movs	r5, #64	; 0x40
    2dca:	422c      	tst	r4, r5
    2dcc:	d006      	beq.n	2ddc <_usb_d_dev_handle_setup+0x40>
    2dce:	2680      	movs	r6, #128	; 0x80
    2dd0:	43ac      	bics	r4, r5
    2dd2:	74cc      	strb	r4, [r1, #19]
    2dd4:	4c0d      	ldr	r4, [pc, #52]	; (2e0c <_usb_d_dev_handle_setup+0x70>)
    2dd6:	191c      	adds	r4, r3, r4
    2dd8:	7166      	strb	r6, [r4, #5]
    2dda:	71a5      	strb	r5, [r4, #6]
    2ddc:	2508      	movs	r5, #8
    2dde:	7ccc      	ldrb	r4, [r1, #19]
    2de0:	0152      	lsls	r2, r2, #5
    2de2:	43ac      	bics	r4, r5
    2de4:	74cc      	strb	r4, [r1, #19]
    2de6:	2400      	movs	r4, #0
    2de8:	4909      	ldr	r1, [pc, #36]	; (2e10 <_usb_d_dev_handle_setup+0x74>)
    2dea:	3130      	adds	r1, #48	; 0x30
    2dec:	18c9      	adds	r1, r1, r3
    2dee:	728c      	strb	r4, [r1, #10]
    2df0:	768c      	strb	r4, [r1, #26]
    2df2:	4905      	ldr	r1, [pc, #20]	; (2e08 <_usb_d_dev_handle_setup+0x6c>)
    2df4:	1852      	adds	r2, r2, r1
    2df6:	216f      	movs	r1, #111	; 0x6f
    2df8:	71d1      	strb	r1, [r2, #7]
    2dfa:	4a04      	ldr	r2, [pc, #16]	; (2e0c <_usb_d_dev_handle_setup+0x70>)
    2dfc:	189b      	adds	r3, r3, r2
    2dfe:	7259      	strb	r1, [r3, #9]
    2e00:	4b04      	ldr	r3, [pc, #16]	; (2e14 <_usb_d_dev_handle_setup+0x78>)
    2e02:	689b      	ldr	r3, [r3, #8]
    2e04:	4798      	blx	r3
    2e06:	e7de      	b.n	2dc6 <_usb_d_dev_handle_setup+0x2a>
    2e08:	41005000 	.word	0x41005000
    2e0c:	410050ff 	.word	0x410050ff
    2e10:	200005c4 	.word	0x200005c4
    2e14:	200003c4 	.word	0x200003c4

00002e18 <_usb_d_dev_handle_stall>:
    2e18:	2220      	movs	r2, #32
    2e1a:	230f      	movs	r3, #15
    2e1c:	408a      	lsls	r2, r1
    2e1e:	b510      	push	{r4, lr}
    2e20:	0004      	movs	r4, r0
    2e22:	7c80      	ldrb	r0, [r0, #18]
    2e24:	4905      	ldr	r1, [pc, #20]	; (2e3c <_usb_d_dev_handle_stall+0x24>)
    2e26:	4003      	ands	r3, r0
    2e28:	015b      	lsls	r3, r3, #5
    2e2a:	185b      	adds	r3, r3, r1
    2e2c:	b2d2      	uxtb	r2, r2
    2e2e:	725a      	strb	r2, [r3, #9]
    2e30:	4b03      	ldr	r3, [pc, #12]	; (2e40 <_usb_d_dev_handle_stall+0x28>)
    2e32:	68a2      	ldr	r2, [r4, #8]
    2e34:	691b      	ldr	r3, [r3, #16]
    2e36:	2101      	movs	r1, #1
    2e38:	4798      	blx	r3
    2e3a:	bd10      	pop	{r4, pc}
    2e3c:	410050ff 	.word	0x410050ff
    2e40:	200003c4 	.word	0x200003c4

00002e44 <_usb_d_dev_trans_done>:
    2e44:	b510      	push	{r4, lr}
    2e46:	0003      	movs	r3, r0
    2e48:	7c80      	ldrb	r0, [r0, #18]
    2e4a:	28ff      	cmp	r0, #255	; 0xff
    2e4c:	d009      	beq.n	2e62 <_usb_d_dev_trans_done+0x1e>
    2e4e:	2440      	movs	r4, #64	; 0x40
    2e50:	7cda      	ldrb	r2, [r3, #19]
    2e52:	4222      	tst	r2, r4
    2e54:	d005      	beq.n	2e62 <_usb_d_dev_trans_done+0x1e>
    2e56:	43a2      	bics	r2, r4
    2e58:	74da      	strb	r2, [r3, #19]
    2e5a:	4a02      	ldr	r2, [pc, #8]	; (2e64 <_usb_d_dev_trans_done+0x20>)
    2e5c:	6914      	ldr	r4, [r2, #16]
    2e5e:	689a      	ldr	r2, [r3, #8]
    2e60:	47a0      	blx	r4
    2e62:	bd10      	pop	{r4, pc}
    2e64:	200003c4 	.word	0x200003c4

00002e68 <_usb_d_dev_trans_stop>:
    2e68:	b5f7      	push	{r0, r1, r2, r4, r5, r6, r7, lr}
    2e6a:	2425      	movs	r4, #37	; 0x25
    2e6c:	ad01      	add	r5, sp, #4
    2e6e:	7c83      	ldrb	r3, [r0, #18]
    2e70:	702c      	strb	r4, [r5, #0]
    2e72:	1924      	adds	r4, r4, r4
    2e74:	4694      	mov	ip, r2
    2e76:	706c      	strb	r4, [r5, #1]
    2e78:	2bff      	cmp	r3, #255	; 0xff
    2e7a:	d01a      	beq.n	2eb2 <_usb_d_dev_trans_stop+0x4a>
    2e7c:	2740      	movs	r7, #64	; 0x40
    2e7e:	7cc4      	ldrb	r4, [r0, #19]
    2e80:	423c      	tst	r4, r7
    2e82:	d016      	beq.n	2eb2 <_usb_d_dev_trans_stop+0x4a>
    2e84:	240f      	movs	r4, #15
    2e86:	4023      	ands	r3, r4
    2e88:	001c      	movs	r4, r3
    2e8a:	3408      	adds	r4, #8
    2e8c:	0166      	lsls	r6, r4, #5
    2e8e:	2900      	cmp	r1, #0
    2e90:	d010      	beq.n	2eb4 <_usb_d_dev_trans_stop+0x4c>
    2e92:	4f0a      	ldr	r7, [pc, #40]	; (2ebc <_usb_d_dev_trans_stop+0x54>)
    2e94:	19f6      	adds	r6, r6, r7
    2e96:	2780      	movs	r7, #128	; 0x80
    2e98:	7137      	strb	r7, [r6, #4]
    2e9a:	4a08      	ldr	r2, [pc, #32]	; (2ebc <_usb_d_dev_trans_stop+0x54>)
    2e9c:	0164      	lsls	r4, r4, #5
    2e9e:	18a4      	adds	r4, r4, r2
    2ea0:	4a07      	ldr	r2, [pc, #28]	; (2ec0 <_usb_d_dev_trans_stop+0x58>)
    2ea2:	5c69      	ldrb	r1, [r5, r1]
    2ea4:	015b      	lsls	r3, r3, #5
    2ea6:	189b      	adds	r3, r3, r2
    2ea8:	71e1      	strb	r1, [r4, #7]
    2eaa:	7259      	strb	r1, [r3, #9]
    2eac:	4661      	mov	r1, ip
    2eae:	4b05      	ldr	r3, [pc, #20]	; (2ec4 <_usb_d_dev_trans_stop+0x5c>)
    2eb0:	4798      	blx	r3
    2eb2:	bdf7      	pop	{r0, r1, r2, r4, r5, r6, r7, pc}
    2eb4:	4a01      	ldr	r2, [pc, #4]	; (2ebc <_usb_d_dev_trans_stop+0x54>)
    2eb6:	18b6      	adds	r6, r6, r2
    2eb8:	7177      	strb	r7, [r6, #5]
    2eba:	e7ee      	b.n	2e9a <_usb_d_dev_trans_stop+0x32>
    2ebc:	41005000 	.word	0x41005000
    2ec0:	410050ff 	.word	0x410050ff
    2ec4:	00002e45 	.word	0x00002e45

00002ec8 <_usb_d_dev_handle_trfail>:
    2ec8:	b5f7      	push	{r0, r1, r2, r4, r5, r6, r7, lr}
    2eca:	220f      	movs	r2, #15
    2ecc:	7c84      	ldrb	r4, [r0, #18]
    2ece:	af01      	add	r7, sp, #4
    2ed0:	4014      	ands	r4, r2
    2ed2:	3a0b      	subs	r2, #11
    2ed4:	703a      	strb	r2, [r7, #0]
    2ed6:	3204      	adds	r2, #4
    2ed8:	707a      	strb	r2, [r7, #1]
    2eda:	0022      	movs	r2, r4
    2edc:	3208      	adds	r2, #8
    2ede:	000b      	movs	r3, r1
    2ee0:	4d2d      	ldr	r5, [pc, #180]	; (2f98 <_usb_d_dev_handle_trfail+0xd0>)
    2ee2:	0161      	lsls	r1, r4, #5
    2ee4:	0156      	lsls	r6, r2, #5
    2ee6:	2b00      	cmp	r3, #0
    2ee8:	d024      	beq.n	2f34 <_usb_d_dev_handle_trfail+0x6c>
    2eea:	5dad      	ldrb	r5, [r5, r6]
    2eec:	066d      	lsls	r5, r5, #25
    2eee:	0f6d      	lsrs	r5, r5, #29
    2ef0:	4e2a      	ldr	r6, [pc, #168]	; (2f9c <_usb_d_dev_handle_trfail+0xd4>)
    2ef2:	3630      	adds	r6, #48	; 0x30
    2ef4:	46b4      	mov	ip, r6
    2ef6:	011e      	lsls	r6, r3, #4
    2ef8:	1876      	adds	r6, r6, r1
    2efa:	44b4      	add	ip, r6
    2efc:	4666      	mov	r6, ip
    2efe:	7ab6      	ldrb	r6, [r6, #10]
    2f00:	b2f6      	uxtb	r6, r6
    2f02:	2d02      	cmp	r5, #2
    2f04:	d11a      	bne.n	2f3c <_usb_d_dev_handle_trfail+0x74>
    2f06:	3d01      	subs	r5, #1
    2f08:	422e      	tst	r6, r5
    2f0a:	d017      	beq.n	2f3c <_usb_d_dev_handle_trfail+0x74>
    2f0c:	4664      	mov	r4, ip
    2f0e:	7aa4      	ldrb	r4, [r4, #10]
    2f10:	0152      	lsls	r2, r2, #5
    2f12:	43ac      	bics	r4, r5
    2f14:	4665      	mov	r5, ip
    2f16:	72ac      	strb	r4, [r5, #10]
    2f18:	4d1f      	ldr	r5, [pc, #124]	; (2f98 <_usb_d_dev_handle_trfail+0xd0>)
    2f1a:	5cfc      	ldrb	r4, [r7, r3]
    2f1c:	1952      	adds	r2, r2, r5
    2f1e:	71d4      	strb	r4, [r2, #7]
    2f20:	4a1f      	ldr	r2, [pc, #124]	; (2fa0 <_usb_d_dev_handle_trfail+0xd8>)
    2f22:	1889      	adds	r1, r1, r2
    2f24:	724c      	strb	r4, [r1, #9]
    2f26:	1e59      	subs	r1, r3, #1
    2f28:	418b      	sbcs	r3, r1
    2f2a:	2204      	movs	r2, #4
    2f2c:	b2d9      	uxtb	r1, r3
    2f2e:	4b1d      	ldr	r3, [pc, #116]	; (2fa4 <_usb_d_dev_handle_trfail+0xdc>)
    2f30:	4798      	blx	r3
    2f32:	bdf7      	pop	{r0, r1, r2, r4, r5, r6, r7, pc}
    2f34:	5dae      	ldrb	r6, [r5, r6]
    2f36:	2507      	movs	r5, #7
    2f38:	4035      	ands	r5, r6
    2f3a:	e7d9      	b.n	2ef0 <_usb_d_dev_handle_trfail+0x28>
    2f3c:	2502      	movs	r5, #2
    2f3e:	402e      	ands	r6, r5
    2f40:	d019      	beq.n	2f76 <_usb_d_dev_handle_trfail+0xae>
    2f42:	4666      	mov	r6, ip
    2f44:	7ab6      	ldrb	r6, [r6, #10]
    2f46:	7cc4      	ldrb	r4, [r0, #19]
    2f48:	43ae      	bics	r6, r5
    2f4a:	4665      	mov	r5, ip
    2f4c:	72ae      	strb	r6, [r5, #10]
    2f4e:	4e12      	ldr	r6, [pc, #72]	; (2f98 <_usb_d_dev_handle_trfail+0xd0>)
    2f50:	5cfd      	ldrb	r5, [r7, r3]
    2f52:	0152      	lsls	r2, r2, #5
    2f54:	1992      	adds	r2, r2, r6
    2f56:	71d5      	strb	r5, [r2, #7]
    2f58:	4a11      	ldr	r2, [pc, #68]	; (2fa0 <_usb_d_dev_handle_trfail+0xd8>)
    2f5a:	1889      	adds	r1, r1, r2
    2f5c:	2207      	movs	r2, #7
    2f5e:	724d      	strb	r5, [r1, #9]
    2f60:	4022      	ands	r2, r4
    2f62:	2a01      	cmp	r2, #1
    2f64:	d1e5      	bne.n	2f32 <_usb_d_dev_handle_trfail+0x6a>
    2f66:	0662      	lsls	r2, r4, #25
    2f68:	d5e3      	bpl.n	2f32 <_usb_d_dev_handle_trfail+0x6a>
    2f6a:	7cc1      	ldrb	r1, [r0, #19]
    2f6c:	09c9      	lsrs	r1, r1, #7
    2f6e:	428b      	cmp	r3, r1
    2f70:	d0df      	beq.n	2f32 <_usb_d_dev_handle_trfail+0x6a>
    2f72:	2200      	movs	r2, #0
    2f74:	e7db      	b.n	2f2e <_usb_d_dev_handle_trfail+0x66>
    2f76:	0060      	lsls	r0, r4, #1
    2f78:	4a08      	ldr	r2, [pc, #32]	; (2f9c <_usb_d_dev_handle_trfail+0xd4>)
    2f7a:	18c0      	adds	r0, r0, r3
    2f7c:	3230      	adds	r2, #48	; 0x30
    2f7e:	0100      	lsls	r0, r0, #4
    2f80:	1812      	adds	r2, r2, r0
    2f82:	7296      	strb	r6, [r2, #10]
    2f84:	4a08      	ldr	r2, [pc, #32]	; (2fa8 <_usb_d_dev_handle_trfail+0xe0>)
    2f86:	0164      	lsls	r4, r4, #5
    2f88:	18a4      	adds	r4, r4, r2
    2f8a:	4a05      	ldr	r2, [pc, #20]	; (2fa0 <_usb_d_dev_handle_trfail+0xd8>)
    2f8c:	5cfb      	ldrb	r3, [r7, r3]
    2f8e:	1889      	adds	r1, r1, r2
    2f90:	71e3      	strb	r3, [r4, #7]
    2f92:	724b      	strb	r3, [r1, #9]
    2f94:	e7cd      	b.n	2f32 <_usb_d_dev_handle_trfail+0x6a>
    2f96:	46c0      	nop			; (mov r8, r8)
    2f98:	41005000 	.word	0x41005000
    2f9c:	200005c4 	.word	0x200005c4
    2fa0:	410050ff 	.word	0x410050ff
    2fa4:	00002e69 	.word	0x00002e69
    2fa8:	41005100 	.word	0x41005100

00002fac <_usb_d_dev_reset_epts>:
    2fac:	b570      	push	{r4, r5, r6, lr}
    2fae:	4d0b      	ldr	r5, [pc, #44]	; (2fdc <_usb_d_dev_reset_epts+0x30>)
    2fb0:	238c      	movs	r3, #140	; 0x8c
    2fb2:	002c      	movs	r4, r5
    2fb4:	26ff      	movs	r6, #255	; 0xff
    2fb6:	009b      	lsls	r3, r3, #2
    2fb8:	3414      	adds	r4, #20
    2fba:	18ed      	adds	r5, r5, r3
    2fbc:	2103      	movs	r1, #3
    2fbe:	0020      	movs	r0, r4
    2fc0:	4b07      	ldr	r3, [pc, #28]	; (2fe0 <_usb_d_dev_reset_epts+0x34>)
    2fc2:	4798      	blx	r3
    2fc4:	2100      	movs	r1, #0
    2fc6:	74a6      	strb	r6, [r4, #18]
    2fc8:	74e1      	strb	r1, [r4, #19]
    2fca:	3414      	adds	r4, #20
    2fcc:	42ac      	cmp	r4, r5
    2fce:	d1f5      	bne.n	2fbc <_usb_d_dev_reset_epts+0x10>
    2fd0:	4804      	ldr	r0, [pc, #16]	; (2fe4 <_usb_d_dev_reset_epts+0x38>)
    2fd2:	22c0      	movs	r2, #192	; 0xc0
    2fd4:	4b04      	ldr	r3, [pc, #16]	; (2fe8 <_usb_d_dev_reset_epts+0x3c>)
    2fd6:	3030      	adds	r0, #48	; 0x30
    2fd8:	4798      	blx	r3
    2fda:	bd70      	pop	{r4, r5, r6, pc}
    2fdc:	200003c4 	.word	0x200003c4
    2fe0:	00002e45 	.word	0x00002e45
    2fe4:	200005c4 	.word	0x200005c4
    2fe8:	0000708d 	.word	0x0000708d

00002fec <_usb_d_dev_in_next>:
    2fec:	b5f0      	push	{r4, r5, r6, r7, lr}
    2fee:	250f      	movs	r5, #15
    2ff0:	b085      	sub	sp, #20
    2ff2:	9100      	str	r1, [sp, #0]
    2ff4:	7c83      	ldrb	r3, [r0, #18]
    2ff6:	0004      	movs	r4, r0
    2ff8:	401d      	ands	r5, r3
    2ffa:	9301      	str	r3, [sp, #4]
    2ffc:	016b      	lsls	r3, r5, #5
    2ffe:	9302      	str	r3, [sp, #8]
    3000:	2300      	movs	r3, #0
    3002:	4299      	cmp	r1, r3
    3004:	d006      	beq.n	3014 <_usb_d_dev_in_next+0x28>
    3006:	4b4d      	ldr	r3, [pc, #308]	; (313c <_usb_d_dev_in_next+0x150>)
    3008:	016a      	lsls	r2, r5, #5
    300a:	3330      	adds	r3, #48	; 0x30
    300c:	189b      	adds	r3, r3, r2
    300e:	695b      	ldr	r3, [r3, #20]
    3010:	049b      	lsls	r3, r3, #18
    3012:	0c9b      	lsrs	r3, r3, #18
    3014:	8a26      	ldrh	r6, [r4, #16]
    3016:	4a4a      	ldr	r2, [pc, #296]	; (3140 <_usb_d_dev_in_next+0x154>)
    3018:	9603      	str	r6, [sp, #12]
    301a:	4296      	cmp	r6, r2
    301c:	d002      	beq.n	3024 <_usb_d_dev_in_next+0x38>
    301e:	1e72      	subs	r2, r6, #1
    3020:	b292      	uxth	r2, r2
    3022:	9203      	str	r2, [sp, #12]
    3024:	7ce2      	ldrb	r2, [r4, #19]
    3026:	4694      	mov	ip, r2
    3028:	2207      	movs	r2, #7
    302a:	4661      	mov	r1, ip
    302c:	4011      	ands	r1, r2
    302e:	9a00      	ldr	r2, [sp, #0]
    3030:	9102      	str	r1, [sp, #8]
    3032:	2a00      	cmp	r2, #0
    3034:	d004      	beq.n	3040 <_usb_d_dev_in_next+0x54>
    3036:	4943      	ldr	r1, [pc, #268]	; (3144 <_usb_d_dev_in_next+0x158>)
    3038:	016a      	lsls	r2, r5, #5
    303a:	1852      	adds	r2, r2, r1
    303c:	2102      	movs	r1, #2
    303e:	71d1      	strb	r1, [r2, #7]
    3040:	68a2      	ldr	r2, [r4, #8]
    3042:	6867      	ldr	r7, [r4, #4]
    3044:	1899      	adds	r1, r3, r2
    3046:	60a1      	str	r1, [r4, #8]
    3048:	016a      	lsls	r2, r5, #5
    304a:	42b9      	cmp	r1, r7
    304c:	d240      	bcs.n	30d0 <_usb_d_dev_in_next+0xe4>
    304e:	4660      	mov	r0, ip
    3050:	1a7f      	subs	r7, r7, r1
    3052:	b2bb      	uxth	r3, r7
    3054:	4f39      	ldr	r7, [pc, #228]	; (313c <_usb_d_dev_in_next+0x150>)
    3056:	0680      	lsls	r0, r0, #26
    3058:	d52e      	bpl.n	30b8 <_usb_d_dev_in_next+0xcc>
    305a:	1c32      	adds	r2, r6, #0
    305c:	429e      	cmp	r6, r3
    305e:	d900      	bls.n	3062 <_usb_d_dev_in_next+0x76>
    3060:	1c1a      	adds	r2, r3, #0
    3062:	6823      	ldr	r3, [r4, #0]
    3064:	b296      	uxth	r6, r2
    3066:	1859      	adds	r1, r3, r1
    3068:	0032      	movs	r2, r6
    306a:	4b37      	ldr	r3, [pc, #220]	; (3148 <_usb_d_dev_in_next+0x15c>)
    306c:	68e0      	ldr	r0, [r4, #12]
    306e:	4798      	blx	r3
    3070:	4b32      	ldr	r3, [pc, #200]	; (313c <_usb_d_dev_in_next+0x150>)
    3072:	68e2      	ldr	r2, [r4, #12]
    3074:	0169      	lsls	r1, r5, #5
    3076:	185b      	adds	r3, r3, r1
    3078:	641a      	str	r2, [r3, #64]	; 0x40
    307a:	016b      	lsls	r3, r5, #5
    307c:	18ff      	adds	r7, r7, r3
    307e:	6c7b      	ldr	r3, [r7, #68]	; 0x44
    3080:	04b6      	lsls	r6, r6, #18
    3082:	0cb2      	lsrs	r2, r6, #18
    3084:	0b9e      	lsrs	r6, r3, #14
    3086:	03b6      	lsls	r6, r6, #14
    3088:	4316      	orrs	r6, r2
    308a:	647e      	str	r6, [r7, #68]	; 0x44
    308c:	6c7b      	ldr	r3, [r7, #68]	; 0x44
    308e:	4a2f      	ldr	r2, [pc, #188]	; (314c <_usb_d_dev_in_next+0x160>)
    3090:	4013      	ands	r3, r2
    3092:	647b      	str	r3, [r7, #68]	; 0x44
    3094:	9b00      	ldr	r3, [sp, #0]
    3096:	2b00      	cmp	r3, #0
    3098:	d108      	bne.n	30ac <_usb_d_dev_in_next+0xc0>
    309a:	9b02      	ldr	r3, [sp, #8]
    309c:	224e      	movs	r2, #78	; 0x4e
    309e:	2b01      	cmp	r3, #1
    30a0:	d000      	beq.n	30a4 <_usb_d_dev_in_next+0xb8>
    30a2:	3a04      	subs	r2, #4
    30a4:	492a      	ldr	r1, [pc, #168]	; (3150 <_usb_d_dev_in_next+0x164>)
    30a6:	016b      	lsls	r3, r5, #5
    30a8:	185b      	adds	r3, r3, r1
    30aa:	729a      	strb	r2, [r3, #10]
    30ac:	4b25      	ldr	r3, [pc, #148]	; (3144 <_usb_d_dev_in_next+0x158>)
    30ae:	016d      	lsls	r5, r5, #5
    30b0:	18ed      	adds	r5, r5, r3
    30b2:	2380      	movs	r3, #128	; 0x80
    30b4:	716b      	strb	r3, [r5, #5]
    30b6:	e03a      	b.n	312e <_usb_d_dev_in_next+0x142>
    30b8:	2080      	movs	r0, #128	; 0x80
    30ba:	1c1e      	adds	r6, r3, #0
    30bc:	0180      	lsls	r0, r0, #6
    30be:	4283      	cmp	r3, r0
    30c0:	d900      	bls.n	30c4 <_usb_d_dev_in_next+0xd8>
    30c2:	1c06      	adds	r6, r0, #0
    30c4:	6823      	ldr	r3, [r4, #0]
    30c6:	18ba      	adds	r2, r7, r2
    30c8:	1859      	adds	r1, r3, r1
    30ca:	b2b6      	uxth	r6, r6
    30cc:	6411      	str	r1, [r2, #64]	; 0x40
    30ce:	e7d4      	b.n	307a <_usb_d_dev_in_next+0x8e>
    30d0:	2710      	movs	r7, #16
    30d2:	4660      	mov	r0, ip
    30d4:	4238      	tst	r0, r7
    30d6:	d00e      	beq.n	30f6 <_usb_d_dev_in_next+0x10a>
    30d8:	7ce3      	ldrb	r3, [r4, #19]
    30da:	016a      	lsls	r2, r5, #5
    30dc:	43bb      	bics	r3, r7
    30de:	74e3      	strb	r3, [r4, #19]
    30e0:	4b16      	ldr	r3, [pc, #88]	; (313c <_usb_d_dev_in_next+0x150>)
    30e2:	491a      	ldr	r1, [pc, #104]	; (314c <_usb_d_dev_in_next+0x160>)
    30e4:	189b      	adds	r3, r3, r2
    30e6:	6c5a      	ldr	r2, [r3, #68]	; 0x44
    30e8:	0b92      	lsrs	r2, r2, #14
    30ea:	0392      	lsls	r2, r2, #14
    30ec:	645a      	str	r2, [r3, #68]	; 0x44
    30ee:	6c5a      	ldr	r2, [r3, #68]	; 0x44
    30f0:	400a      	ands	r2, r1
    30f2:	645a      	str	r2, [r3, #68]	; 0x44
    30f4:	e7ce      	b.n	3094 <_usb_d_dev_in_next+0xa8>
    30f6:	9802      	ldr	r0, [sp, #8]
    30f8:	2801      	cmp	r0, #1
    30fa:	d11a      	bne.n	3132 <_usb_d_dev_in_next+0x146>
    30fc:	254b      	movs	r5, #75	; 0x4b
    30fe:	4814      	ldr	r0, [pc, #80]	; (3150 <_usb_d_dev_in_next+0x164>)
    3100:	1812      	adds	r2, r2, r0
    3102:	7255      	strb	r5, [r2, #9]
    3104:	9a03      	ldr	r2, [sp, #12]
    3106:	4013      	ands	r3, r2
    3108:	429e      	cmp	r6, r3
    310a:	d10c      	bne.n	3126 <_usb_d_dev_in_next+0x13a>
    310c:	2540      	movs	r5, #64	; 0x40
    310e:	7ce3      	ldrb	r3, [r4, #19]
    3110:	9801      	ldr	r0, [sp, #4]
    3112:	43ab      	bics	r3, r5
    3114:	74e3      	strb	r3, [r4, #19]
    3116:	4b0f      	ldr	r3, [pc, #60]	; (3154 <_usb_d_dev_in_next+0x168>)
    3118:	68db      	ldr	r3, [r3, #12]
    311a:	4798      	blx	r3
    311c:	2800      	cmp	r0, #0
    311e:	d106      	bne.n	312e <_usb_d_dev_in_next+0x142>
    3120:	7ce3      	ldrb	r3, [r4, #19]
    3122:	432b      	orrs	r3, r5
    3124:	74e3      	strb	r3, [r4, #19]
    3126:	2100      	movs	r1, #0
    3128:	0020      	movs	r0, r4
    312a:	4b0b      	ldr	r3, [pc, #44]	; (3158 <_usb_d_dev_in_next+0x16c>)
    312c:	4798      	blx	r3
    312e:	b005      	add	sp, #20
    3130:	bdf0      	pop	{r4, r5, r6, r7, pc}
    3132:	4807      	ldr	r0, [pc, #28]	; (3150 <_usb_d_dev_in_next+0x164>)
    3134:	254a      	movs	r5, #74	; 0x4a
    3136:	1812      	adds	r2, r2, r0
    3138:	e7e3      	b.n	3102 <_usb_d_dev_in_next+0x116>
    313a:	46c0      	nop			; (mov r8, r8)
    313c:	200005c4 	.word	0x200005c4
    3140:	000003ff 	.word	0x000003ff
    3144:	41005100 	.word	0x41005100
    3148:	0000707b 	.word	0x0000707b
    314c:	f0003fff 	.word	0xf0003fff
    3150:	410050ff 	.word	0x410050ff
    3154:	200003c4 	.word	0x200003c4
    3158:	00002e45 	.word	0x00002e45

0000315c <_usb_d_dev_out_next>:
    315c:	230f      	movs	r3, #15
    315e:	b5f0      	push	{r4, r5, r6, r7, lr}
    3160:	7c82      	ldrb	r2, [r0, #18]
    3162:	b087      	sub	sp, #28
    3164:	401a      	ands	r2, r3
    3166:	0153      	lsls	r3, r2, #5
    3168:	0004      	movs	r4, r0
    316a:	1e0d      	subs	r5, r1, #0
    316c:	9201      	str	r2, [sp, #4]
    316e:	9305      	str	r3, [sp, #20]
    3170:	d068      	beq.n	3244 <_usb_d_dev_out_next+0xe8>
    3172:	9a05      	ldr	r2, [sp, #20]
    3174:	4b67      	ldr	r3, [pc, #412]	; (3314 <_usb_d_dev_out_next+0x1b8>)
    3176:	189b      	adds	r3, r3, r2
    3178:	6b58      	ldr	r0, [r3, #52]	; 0x34
    317a:	0100      	lsls	r0, r0, #4
    317c:	0c82      	lsrs	r2, r0, #18
    317e:	9203      	str	r2, [sp, #12]
    3180:	6b5f      	ldr	r7, [r3, #52]	; 0x34
    3182:	04bf      	lsls	r7, r7, #18
    3184:	0cbf      	lsrs	r7, r7, #18
    3186:	8a23      	ldrh	r3, [r4, #16]
    3188:	9302      	str	r3, [sp, #8]
    318a:	9a02      	ldr	r2, [sp, #8]
    318c:	4b62      	ldr	r3, [pc, #392]	; (3318 <_usb_d_dev_out_next+0x1bc>)
    318e:	429a      	cmp	r2, r3
    3190:	d003      	beq.n	319a <_usb_d_dev_out_next+0x3e>
    3192:	0013      	movs	r3, r2
    3194:	3b01      	subs	r3, #1
    3196:	b29b      	uxth	r3, r3
    3198:	9302      	str	r3, [sp, #8]
    319a:	2307      	movs	r3, #7
    319c:	7ce2      	ldrb	r2, [r4, #19]
    319e:	9e02      	ldr	r6, [sp, #8]
    31a0:	4013      	ands	r3, r2
    31a2:	403e      	ands	r6, r7
    31a4:	9304      	str	r3, [sp, #16]
    31a6:	2d00      	cmp	r5, #0
    31a8:	d005      	beq.n	31b6 <_usb_d_dev_out_next+0x5a>
    31aa:	9b01      	ldr	r3, [sp, #4]
    31ac:	495b      	ldr	r1, [pc, #364]	; (331c <_usb_d_dev_out_next+0x1c0>)
    31ae:	015b      	lsls	r3, r3, #5
    31b0:	185b      	adds	r3, r3, r1
    31b2:	2101      	movs	r1, #1
    31b4:	71d9      	strb	r1, [r3, #7]
    31b6:	0693      	lsls	r3, r2, #26
    31b8:	d50d      	bpl.n	31d6 <_usb_d_dev_out_next+0x7a>
    31ba:	6862      	ldr	r2, [r4, #4]
    31bc:	2a00      	cmp	r2, #0
    31be:	d00a      	beq.n	31d6 <_usb_d_dev_out_next+0x7a>
    31c0:	68a0      	ldr	r0, [r4, #8]
    31c2:	6823      	ldr	r3, [r4, #0]
    31c4:	1a12      	subs	r2, r2, r0
    31c6:	b292      	uxth	r2, r2
    31c8:	1818      	adds	r0, r3, r0
    31ca:	68e1      	ldr	r1, [r4, #12]
    31cc:	4296      	cmp	r6, r2
    31ce:	d200      	bcs.n	31d2 <_usb_d_dev_out_next+0x76>
    31d0:	0032      	movs	r2, r6
    31d2:	4b53      	ldr	r3, [pc, #332]	; (3320 <_usb_d_dev_out_next+0x1c4>)
    31d4:	4798      	blx	r3
    31d6:	9a01      	ldr	r2, [sp, #4]
    31d8:	6863      	ldr	r3, [r4, #4]
    31da:	0151      	lsls	r1, r2, #5
    31dc:	2b00      	cmp	r3, #0
    31de:	d134      	bne.n	324a <_usb_d_dev_out_next+0xee>
    31e0:	2010      	movs	r0, #16
    31e2:	7ce2      	ldrb	r2, [r4, #19]
    31e4:	4202      	tst	r2, r0
    31e6:	d100      	bne.n	31ea <_usb_d_dev_out_next+0x8e>
    31e8:	e08b      	b.n	3302 <_usb_d_dev_out_next+0x1a6>
    31ea:	4382      	bics	r2, r0
    31ec:	3320      	adds	r3, #32
    31ee:	431a      	orrs	r2, r3
    31f0:	74e2      	strb	r2, [r4, #19]
    31f2:	4b48      	ldr	r3, [pc, #288]	; (3314 <_usb_d_dev_out_next+0x1b8>)
    31f4:	9a05      	ldr	r2, [sp, #20]
    31f6:	68e1      	ldr	r1, [r4, #12]
    31f8:	189b      	adds	r3, r3, r2
    31fa:	6319      	str	r1, [r3, #48]	; 0x30
    31fc:	8a21      	ldrh	r1, [r4, #16]
    31fe:	001a      	movs	r2, r3
    3200:	4848      	ldr	r0, [pc, #288]	; (3324 <_usb_d_dev_out_next+0x1c8>)
    3202:	6b5b      	ldr	r3, [r3, #52]	; 0x34
    3204:	0489      	lsls	r1, r1, #18
    3206:	0909      	lsrs	r1, r1, #4
    3208:	4003      	ands	r3, r0
    320a:	430b      	orrs	r3, r1
    320c:	6353      	str	r3, [r2, #52]	; 0x34
    320e:	6b53      	ldr	r3, [r2, #52]	; 0x34
    3210:	0b9b      	lsrs	r3, r3, #14
    3212:	039b      	lsls	r3, r3, #14
    3214:	6353      	str	r3, [r2, #52]	; 0x34
    3216:	2d00      	cmp	r5, #0
    3218:	d10d      	bne.n	3236 <_usb_d_dev_out_next+0xda>
    321a:	9b01      	ldr	r3, [sp, #4]
    321c:	9904      	ldr	r1, [sp, #16]
    321e:	015a      	lsls	r2, r3, #5
    3220:	2325      	movs	r3, #37	; 0x25
    3222:	2901      	cmp	r1, #1
    3224:	d104      	bne.n	3230 <_usb_d_dev_out_next+0xd4>
    3226:	4b3b      	ldr	r3, [pc, #236]	; (3314 <_usb_d_dev_out_next+0x1b8>)
    3228:	3330      	adds	r3, #48	; 0x30
    322a:	189b      	adds	r3, r3, r2
    322c:	769d      	strb	r5, [r3, #26]
    322e:	232d      	movs	r3, #45	; 0x2d
    3230:	493d      	ldr	r1, [pc, #244]	; (3328 <_usb_d_dev_out_next+0x1cc>)
    3232:	1852      	adds	r2, r2, r1
    3234:	7293      	strb	r3, [r2, #10]
    3236:	9b01      	ldr	r3, [sp, #4]
    3238:	4a38      	ldr	r2, [pc, #224]	; (331c <_usb_d_dev_out_next+0x1c0>)
    323a:	015b      	lsls	r3, r3, #5
    323c:	189b      	adds	r3, r3, r2
    323e:	2240      	movs	r2, #64	; 0x40
    3240:	711a      	strb	r2, [r3, #4]
    3242:	e01f      	b.n	3284 <_usb_d_dev_out_next+0x128>
    3244:	9103      	str	r1, [sp, #12]
    3246:	000f      	movs	r7, r1
    3248:	e79d      	b.n	3186 <_usb_d_dev_out_next+0x2a>
    324a:	2d00      	cmp	r5, #0
    324c:	d01c      	beq.n	3288 <_usb_d_dev_out_next+0x12c>
    324e:	8a22      	ldrh	r2, [r4, #16]
    3250:	42b2      	cmp	r2, r6
    3252:	d919      	bls.n	3288 <_usb_d_dev_out_next+0x12c>
    3254:	2210      	movs	r2, #16
    3256:	7ce3      	ldrb	r3, [r4, #19]
    3258:	4393      	bics	r3, r2
    325a:	74e3      	strb	r3, [r4, #19]
    325c:	68a3      	ldr	r3, [r4, #8]
    325e:	19df      	adds	r7, r3, r7
    3260:	60a7      	str	r7, [r4, #8]
    3262:	9b04      	ldr	r3, [sp, #16]
    3264:	2b01      	cmp	r3, #1
    3266:	d148      	bne.n	32fa <_usb_d_dev_out_next+0x19e>
    3268:	4b2f      	ldr	r3, [pc, #188]	; (3328 <_usb_d_dev_out_next+0x1cc>)
    326a:	18c9      	adds	r1, r1, r3
    326c:	232d      	movs	r3, #45	; 0x2d
    326e:	724b      	strb	r3, [r1, #9]
    3270:	9b01      	ldr	r3, [sp, #4]
    3272:	2b00      	cmp	r3, #0
    3274:	d102      	bne.n	327c <_usb_d_dev_out_next+0x120>
    3276:	4b27      	ldr	r3, [pc, #156]	; (3314 <_usb_d_dev_out_next+0x1b8>)
    3278:	68e2      	ldr	r2, [r4, #12]
    327a:	631a      	str	r2, [r3, #48]	; 0x30
    327c:	2100      	movs	r1, #0
    327e:	0020      	movs	r0, r4
    3280:	4b2a      	ldr	r3, [pc, #168]	; (332c <_usb_d_dev_out_next+0x1d0>)
    3282:	4798      	blx	r3
    3284:	b007      	add	sp, #28
    3286:	bdf0      	pop	{r4, r5, r6, r7, pc}
    3288:	68a6      	ldr	r6, [r4, #8]
    328a:	9a03      	ldr	r2, [sp, #12]
    328c:	46b4      	mov	ip, r6
    328e:	4462      	add	r2, ip
    3290:	0010      	movs	r0, r2
    3292:	60a2      	str	r2, [r4, #8]
    3294:	4293      	cmp	r3, r2
    3296:	d9e4      	bls.n	3262 <_usb_d_dev_out_next+0x106>
    3298:	2620      	movs	r6, #32
    329a:	1a9b      	subs	r3, r3, r2
    329c:	7ce2      	ldrb	r2, [r4, #19]
    329e:	b29b      	uxth	r3, r3
    32a0:	8a27      	ldrh	r7, [r4, #16]
    32a2:	4232      	tst	r2, r6
    32a4:	d012      	beq.n	32cc <_usb_d_dev_out_next+0x170>
    32a6:	1c38      	adds	r0, r7, #0
    32a8:	429f      	cmp	r7, r3
    32aa:	d900      	bls.n	32ae <_usb_d_dev_out_next+0x152>
    32ac:	1c18      	adds	r0, r3, #0
    32ae:	9a01      	ldr	r2, [sp, #4]
    32b0:	b283      	uxth	r3, r0
    32b2:	0150      	lsls	r0, r2, #5
    32b4:	4a17      	ldr	r2, [pc, #92]	; (3314 <_usb_d_dev_out_next+0x1b8>)
    32b6:	68e4      	ldr	r4, [r4, #12]
    32b8:	1810      	adds	r0, r2, r0
    32ba:	6304      	str	r4, [r0, #48]	; 0x30
    32bc:	4a15      	ldr	r2, [pc, #84]	; (3314 <_usb_d_dev_out_next+0x1b8>)
    32be:	4819      	ldr	r0, [pc, #100]	; (3324 <_usb_d_dev_out_next+0x1c8>)
    32c0:	1852      	adds	r2, r2, r1
    32c2:	6b51      	ldr	r1, [r2, #52]	; 0x34
    32c4:	049b      	lsls	r3, r3, #18
    32c6:	091b      	lsrs	r3, r3, #4
    32c8:	4001      	ands	r1, r0
    32ca:	e79e      	b.n	320a <_usb_d_dev_out_next+0xae>
    32cc:	42bb      	cmp	r3, r7
    32ce:	d90d      	bls.n	32ec <_usb_d_dev_out_next+0x190>
    32d0:	2680      	movs	r6, #128	; 0x80
    32d2:	01b6      	lsls	r6, r6, #6
    32d4:	42b3      	cmp	r3, r6
    32d6:	d80e      	bhi.n	32f6 <_usb_d_dev_out_next+0x19a>
    32d8:	9a02      	ldr	r2, [sp, #8]
    32da:	4393      	bics	r3, r2
    32dc:	6824      	ldr	r4, [r4, #0]
    32de:	9a01      	ldr	r2, [sp, #4]
    32e0:	1820      	adds	r0, r4, r0
    32e2:	0154      	lsls	r4, r2, #5
    32e4:	4a0b      	ldr	r2, [pc, #44]	; (3314 <_usb_d_dev_out_next+0x1b8>)
    32e6:	1914      	adds	r4, r2, r4
    32e8:	6320      	str	r0, [r4, #48]	; 0x30
    32ea:	e7e7      	b.n	32bc <_usb_d_dev_out_next+0x160>
    32ec:	42bb      	cmp	r3, r7
    32ee:	d2f5      	bcs.n	32dc <_usb_d_dev_out_next+0x180>
    32f0:	4316      	orrs	r6, r2
    32f2:	74e6      	strb	r6, [r4, #19]
    32f4:	e7f2      	b.n	32dc <_usb_d_dev_out_next+0x180>
    32f6:	0033      	movs	r3, r6
    32f8:	e7f0      	b.n	32dc <_usb_d_dev_out_next+0x180>
    32fa:	4b0b      	ldr	r3, [pc, #44]	; (3328 <_usb_d_dev_out_next+0x1cc>)
    32fc:	18c9      	adds	r1, r1, r3
    32fe:	2325      	movs	r3, #37	; 0x25
    3300:	e7b5      	b.n	326e <_usb_d_dev_out_next+0x112>
    3302:	2d00      	cmp	r5, #0
    3304:	d1a3      	bne.n	324e <_usb_d_dev_out_next+0xf2>
    3306:	68a2      	ldr	r2, [r4, #8]
    3308:	9b03      	ldr	r3, [sp, #12]
    330a:	4694      	mov	ip, r2
    330c:	4463      	add	r3, ip
    330e:	60a3      	str	r3, [r4, #8]
    3310:	e7a7      	b.n	3262 <_usb_d_dev_out_next+0x106>
    3312:	46c0      	nop			; (mov r8, r8)
    3314:	200005c4 	.word	0x200005c4
    3318:	000003ff 	.word	0x000003ff
    331c:	41005100 	.word	0x41005100
    3320:	0000707b 	.word	0x0000707b
    3324:	f0003fff 	.word	0xf0003fff
    3328:	410050ff 	.word	0x410050ff
    332c:	00002e45 	.word	0x00002e45

00003330 <_usbd_ep_pcksize_size>:
    3330:	2380      	movs	r3, #128	; 0x80
    3332:	0002      	movs	r2, r0
    3334:	009b      	lsls	r3, r3, #2
    3336:	2007      	movs	r0, #7
    3338:	429a      	cmp	r2, r3
    333a:	d814      	bhi.n	3366 <_usbd_ep_pcksize_size+0x36>
    333c:	3b01      	subs	r3, #1
    333e:	3bff      	subs	r3, #255	; 0xff
    3340:	3801      	subs	r0, #1
    3342:	429a      	cmp	r2, r3
    3344:	d80f      	bhi.n	3366 <_usbd_ep_pcksize_size+0x36>
    3346:	3801      	subs	r0, #1
    3348:	2a80      	cmp	r2, #128	; 0x80
    334a:	d80c      	bhi.n	3366 <_usbd_ep_pcksize_size+0x36>
    334c:	3801      	subs	r0, #1
    334e:	2a40      	cmp	r2, #64	; 0x40
    3350:	d809      	bhi.n	3366 <_usbd_ep_pcksize_size+0x36>
    3352:	3801      	subs	r0, #1
    3354:	2a20      	cmp	r2, #32
    3356:	d806      	bhi.n	3366 <_usbd_ep_pcksize_size+0x36>
    3358:	3801      	subs	r0, #1
    335a:	2a10      	cmp	r2, #16
    335c:	d803      	bhi.n	3366 <_usbd_ep_pcksize_size+0x36>
    335e:	3006      	adds	r0, #6
    3360:	4290      	cmp	r0, r2
    3362:	4180      	sbcs	r0, r0
    3364:	4240      	negs	r0, r0
    3366:	4770      	bx	lr

00003368 <_usb_d_dev_init>:
    3368:	b510      	push	{r4, lr}
    336a:	4c2a      	ldr	r4, [pc, #168]	; (3414 <_usb_d_dev_init+0xac>)
    336c:	78a3      	ldrb	r3, [r4, #2]
    336e:	07db      	lsls	r3, r3, #31
    3370:	d40d      	bmi.n	338e <_usb_d_dev_init+0x26>
    3372:	2303      	movs	r3, #3
    3374:	78a2      	ldrb	r2, [r4, #2]
    3376:	421a      	tst	r2, r3
    3378:	d1fc      	bne.n	3374 <_usb_d_dev_init+0xc>
    337a:	2202      	movs	r2, #2
    337c:	7823      	ldrb	r3, [r4, #0]
    337e:	4213      	tst	r3, r2
    3380:	d13c      	bne.n	33fc <_usb_d_dev_init+0x94>
    3382:	2301      	movs	r3, #1
    3384:	7023      	strb	r3, [r4, #0]
    3386:	3302      	adds	r3, #2
    3388:	78a2      	ldrb	r2, [r4, #2]
    338a:	421a      	tst	r2, r3
    338c:	d1fc      	bne.n	3388 <_usb_d_dev_init+0x20>
    338e:	2301      	movs	r3, #1
    3390:	78a2      	ldrb	r2, [r4, #2]
    3392:	421a      	tst	r2, r3
    3394:	d1fc      	bne.n	3390 <_usb_d_dev_init+0x28>
    3396:	4b20      	ldr	r3, [pc, #128]	; (3418 <_usb_d_dev_init+0xb0>)
    3398:	4a20      	ldr	r2, [pc, #128]	; (341c <_usb_d_dev_init+0xb4>)
    339a:	601a      	str	r2, [r3, #0]
    339c:	605a      	str	r2, [r3, #4]
    339e:	609a      	str	r2, [r3, #8]
    33a0:	60da      	str	r2, [r3, #12]
    33a2:	611a      	str	r2, [r3, #16]
    33a4:	4b1e      	ldr	r3, [pc, #120]	; (3420 <_usb_d_dev_init+0xb8>)
    33a6:	4798      	blx	r3
    33a8:	201f      	movs	r0, #31
    33aa:	4b1e      	ldr	r3, [pc, #120]	; (3424 <_usb_d_dev_init+0xbc>)
    33ac:	681a      	ldr	r2, [r3, #0]
    33ae:	0b53      	lsrs	r3, r2, #13
    33b0:	0c91      	lsrs	r1, r2, #18
    33b2:	0192      	lsls	r2, r2, #6
    33b4:	4003      	ands	r3, r0
    33b6:	4001      	ands	r1, r0
    33b8:	0f52      	lsrs	r2, r2, #29
    33ba:	4283      	cmp	r3, r0
    33bc:	d100      	bne.n	33c0 <_usb_d_dev_init+0x58>
    33be:	2305      	movs	r3, #5
    33c0:	291f      	cmp	r1, #31
    33c2:	d100      	bne.n	33c6 <_usb_d_dev_init+0x5e>
    33c4:	3902      	subs	r1, #2
    33c6:	2a07      	cmp	r2, #7
    33c8:	d100      	bne.n	33cc <_usb_d_dev_init+0x64>
    33ca:	3a02      	subs	r2, #2
    33cc:	019b      	lsls	r3, r3, #6
    33ce:	430b      	orrs	r3, r1
    33d0:	0312      	lsls	r2, r2, #12
    33d2:	4313      	orrs	r3, r2
    33d4:	8523      	strh	r3, [r4, #40]	; 0x28
    33d6:	2303      	movs	r3, #3
    33d8:	78e2      	ldrb	r2, [r4, #3]
    33da:	431a      	orrs	r2, r3
    33dc:	70e2      	strb	r2, [r4, #3]
    33de:	220c      	movs	r2, #12
    33e0:	78e1      	ldrb	r1, [r4, #3]
    33e2:	430a      	orrs	r2, r1
    33e4:	70e2      	strb	r2, [r4, #3]
    33e6:	2204      	movs	r2, #4
    33e8:	7022      	strb	r2, [r4, #0]
    33ea:	78a0      	ldrb	r0, [r4, #2]
    33ec:	4018      	ands	r0, r3
    33ee:	d1fc      	bne.n	33ea <_usb_d_dev_init+0x82>
    33f0:	4b0d      	ldr	r3, [pc, #52]	; (3428 <_usb_d_dev_init+0xc0>)
    33f2:	3330      	adds	r3, #48	; 0x30
    33f4:	6263      	str	r3, [r4, #36]	; 0x24
    33f6:	2301      	movs	r3, #1
    33f8:	8123      	strh	r3, [r4, #8]
    33fa:	bd10      	pop	{r4, pc}
    33fc:	7823      	ldrb	r3, [r4, #0]
    33fe:	4393      	bics	r3, r2
    3400:	7023      	strb	r3, [r4, #0]
    3402:	2303      	movs	r3, #3
    3404:	78a2      	ldrb	r2, [r4, #2]
    3406:	421a      	tst	r2, r3
    3408:	d1fc      	bne.n	3404 <_usb_d_dev_init+0x9c>
    340a:	2302      	movs	r3, #2
    340c:	78a2      	ldrb	r2, [r4, #2]
    340e:	421a      	tst	r2, r3
    3410:	d1fc      	bne.n	340c <_usb_d_dev_init+0xa4>
    3412:	e7b6      	b.n	3382 <_usb_d_dev_init+0x1a>
    3414:	41005000 	.word	0x41005000
    3418:	200003c4 	.word	0x200003c4
    341c:	00002d59 	.word	0x00002d59
    3420:	00002fad 	.word	0x00002fad
    3424:	00806024 	.word	0x00806024
    3428:	200005c4 	.word	0x200005c4

0000342c <_usb_d_dev_enable>:
    342c:	2203      	movs	r2, #3
    342e:	4b0e      	ldr	r3, [pc, #56]	; (3468 <_usb_d_dev_enable+0x3c>)
    3430:	7899      	ldrb	r1, [r3, #2]
    3432:	4211      	tst	r1, r2
    3434:	d115      	bne.n	3462 <_usb_d_dev_enable+0x36>
    3436:	7899      	ldrb	r1, [r3, #2]
    3438:	4211      	tst	r1, r2
    343a:	d1fc      	bne.n	3436 <_usb_d_dev_enable+0xa>
    343c:	2202      	movs	r2, #2
    343e:	7819      	ldrb	r1, [r3, #0]
    3440:	b2c9      	uxtb	r1, r1
    3442:	4211      	tst	r1, r2
    3444:	d006      	beq.n	3454 <_usb_d_dev_enable+0x28>
    3446:	2180      	movs	r1, #128	; 0x80
    3448:	2000      	movs	r0, #0
    344a:	4a08      	ldr	r2, [pc, #32]	; (346c <_usb_d_dev_enable+0x40>)
    344c:	6011      	str	r1, [r2, #0]
    344e:	4a08      	ldr	r2, [pc, #32]	; (3470 <_usb_d_dev_enable+0x44>)
    3450:	831a      	strh	r2, [r3, #24]
    3452:	4770      	bx	lr
    3454:	430a      	orrs	r2, r1
    3456:	701a      	strb	r2, [r3, #0]
    3458:	2203      	movs	r2, #3
    345a:	7899      	ldrb	r1, [r3, #2]
    345c:	4211      	tst	r1, r2
    345e:	d1fc      	bne.n	345a <_usb_d_dev_enable+0x2e>
    3460:	e7f1      	b.n	3446 <_usb_d_dev_enable+0x1a>
    3462:	2011      	movs	r0, #17
    3464:	4240      	negs	r0, r0
    3466:	e7f4      	b.n	3452 <_usb_d_dev_enable+0x26>
    3468:	41005000 	.word	0x41005000
    346c:	e000e100 	.word	0xe000e100
    3470:	0000028d 	.word	0x0000028d

00003474 <_usb_d_dev_attach>:
    3474:	2101      	movs	r1, #1
    3476:	4a02      	ldr	r2, [pc, #8]	; (3480 <_usb_d_dev_attach+0xc>)
    3478:	8913      	ldrh	r3, [r2, #8]
    347a:	438b      	bics	r3, r1
    347c:	8113      	strh	r3, [r2, #8]
    347e:	4770      	bx	lr
    3480:	41005000 	.word	0x41005000

00003484 <_usb_d_dev_set_address>:
    3484:	2380      	movs	r3, #128	; 0x80
    3486:	4318      	orrs	r0, r3
    3488:	4b01      	ldr	r3, [pc, #4]	; (3490 <_usb_d_dev_set_address+0xc>)
    348a:	7298      	strb	r0, [r3, #10]
    348c:	4770      	bx	lr
    348e:	46c0      	nop			; (mov r8, r8)
    3490:	41005000 	.word	0x41005000

00003494 <_usb_d_dev_ep_init>:
    3494:	b5f7      	push	{r0, r1, r2, r4, r5, r6, r7, lr}
    3496:	2600      	movs	r6, #0
    3498:	466b      	mov	r3, sp
    349a:	240f      	movs	r4, #15
    349c:	9000      	str	r0, [sp, #0]
    349e:	9201      	str	r2, [sp, #4]
    34a0:	579e      	ldrsb	r6, [r3, r6]
    34a2:	4004      	ands	r4, r0
    34a4:	000f      	movs	r7, r1
    34a6:	4b2b      	ldr	r3, [pc, #172]	; (3554 <_usb_d_dev_ep_init+0xc0>)
    34a8:	0ff1      	lsrs	r1, r6, #31
    34aa:	0020      	movs	r0, r4
    34ac:	4798      	blx	r3
    34ae:	2303      	movs	r3, #3
    34b0:	0005      	movs	r5, r0
    34b2:	401f      	ands	r7, r3
    34b4:	2c05      	cmp	r4, #5
    34b6:	d844      	bhi.n	3542 <_usb_d_dev_ep_init+0xae>
    34b8:	7c83      	ldrb	r3, [r0, #18]
    34ba:	2bff      	cmp	r3, #255	; 0xff
    34bc:	d144      	bne.n	3548 <_usb_d_dev_ep_init+0xb4>
    34be:	2f00      	cmp	r7, #0
    34c0:	d10f      	bne.n	34e2 <_usb_d_dev_ep_init+0x4e>
    34c2:	43f1      	mvns	r1, r6
    34c4:	4b23      	ldr	r3, [pc, #140]	; (3554 <_usb_d_dev_ep_init+0xc0>)
    34c6:	0fc9      	lsrs	r1, r1, #31
    34c8:	0020      	movs	r0, r4
    34ca:	4798      	blx	r3
    34cc:	7c83      	ldrb	r3, [r0, #18]
    34ce:	2bff      	cmp	r3, #255	; 0xff
    34d0:	d13a      	bne.n	3548 <_usb_d_dev_ep_init+0xb4>
    34d2:	3bf3      	subs	r3, #243	; 0xf3
    34d4:	4363      	muls	r3, r4
    34d6:	4a20      	ldr	r2, [pc, #128]	; (3558 <_usb_d_dev_ep_init+0xc4>)
    34d8:	589b      	ldr	r3, [r3, r2]
    34da:	2b00      	cmp	r3, #0
    34dc:	d136      	bne.n	354c <_usb_d_dev_ep_init+0xb8>
    34de:	2013      	movs	r0, #19
    34e0:	e030      	b.n	3544 <_usb_d_dev_ep_init+0xb0>
    34e2:	2e00      	cmp	r6, #0
    34e4:	da16      	bge.n	3514 <_usb_d_dev_ep_init+0x80>
    34e6:	220c      	movs	r2, #12
    34e8:	4362      	muls	r2, r4
    34ea:	4b1b      	ldr	r3, [pc, #108]	; (3558 <_usb_d_dev_ep_init+0xc4>)
    34ec:	189b      	adds	r3, r3, r2
    34ee:	685a      	ldr	r2, [r3, #4]
    34f0:	2a00      	cmp	r2, #0
    34f2:	d11b      	bne.n	352c <_usb_d_dev_ep_init+0x98>
    34f4:	230c      	movs	r3, #12
    34f6:	4363      	muls	r3, r4
    34f8:	4c17      	ldr	r4, [pc, #92]	; (3558 <_usb_d_dev_ep_init+0xc4>)
    34fa:	18e4      	adds	r4, r4, r3
    34fc:	6863      	ldr	r3, [r4, #4]
    34fe:	60eb      	str	r3, [r5, #12]
    3500:	466b      	mov	r3, sp
    3502:	889b      	ldrh	r3, [r3, #4]
    3504:	2000      	movs	r0, #0
    3506:	822b      	strh	r3, [r5, #16]
    3508:	466b      	mov	r3, sp
    350a:	781b      	ldrb	r3, [r3, #0]
    350c:	3701      	adds	r7, #1
    350e:	74ef      	strb	r7, [r5, #19]
    3510:	74ab      	strb	r3, [r5, #18]
    3512:	bdfe      	pop	{r1, r2, r3, r4, r5, r6, r7, pc}
    3514:	230c      	movs	r3, #12
    3516:	4363      	muls	r3, r4
    3518:	4a0f      	ldr	r2, [pc, #60]	; (3558 <_usb_d_dev_ep_init+0xc4>)
    351a:	589b      	ldr	r3, [r3, r2]
    351c:	2b00      	cmp	r3, #0
    351e:	d00b      	beq.n	3538 <_usb_d_dev_ep_init+0xa4>
    3520:	220c      	movs	r2, #12
    3522:	4362      	muls	r2, r4
    3524:	4b0c      	ldr	r3, [pc, #48]	; (3558 <_usb_d_dev_ep_init+0xc4>)
    3526:	189b      	adds	r3, r3, r2
    3528:	891b      	ldrh	r3, [r3, #8]
    352a:	e000      	b.n	352e <_usb_d_dev_ep_init+0x9a>
    352c:	895b      	ldrh	r3, [r3, #10]
    352e:	9a01      	ldr	r2, [sp, #4]
    3530:	4293      	cmp	r3, r2
    3532:	dbd4      	blt.n	34de <_usb_d_dev_ep_init+0x4a>
    3534:	2e00      	cmp	r6, #0
    3536:	dbdd      	blt.n	34f4 <_usb_d_dev_ep_init+0x60>
    3538:	230c      	movs	r3, #12
    353a:	435c      	muls	r4, r3
    353c:	4b06      	ldr	r3, [pc, #24]	; (3558 <_usb_d_dev_ep_init+0xc4>)
    353e:	58e3      	ldr	r3, [r4, r3]
    3540:	e7dd      	b.n	34fe <_usb_d_dev_ep_init+0x6a>
    3542:	2012      	movs	r0, #18
    3544:	4240      	negs	r0, r0
    3546:	e7e4      	b.n	3512 <_usb_d_dev_ep_init+0x7e>
    3548:	2014      	movs	r0, #20
    354a:	e7fb      	b.n	3544 <_usb_d_dev_ep_init+0xb0>
    354c:	2e00      	cmp	r6, #0
    354e:	dae7      	bge.n	3520 <_usb_d_dev_ep_init+0x8c>
    3550:	e7c9      	b.n	34e6 <_usb_d_dev_ep_init+0x52>
    3552:	46c0      	nop			; (mov r8, r8)
    3554:	00002d81 	.word	0x00002d81
    3558:	00008614 	.word	0x00008614

0000355c <_usb_d_dev_ep_deinit>:
    355c:	b5f7      	push	{r0, r1, r2, r4, r5, r6, r7, lr}
    355e:	250f      	movs	r5, #15
    3560:	b243      	sxtb	r3, r0
    3562:	0fdf      	lsrs	r7, r3, #31
    3564:	4005      	ands	r5, r0
    3566:	9301      	str	r3, [sp, #4]
    3568:	0004      	movs	r4, r0
    356a:	0039      	movs	r1, r7
    356c:	0028      	movs	r0, r5
    356e:	4b16      	ldr	r3, [pc, #88]	; (35c8 <_usb_d_dev_ep_deinit+0x6c>)
    3570:	4798      	blx	r3
    3572:	0006      	movs	r6, r0
    3574:	2d05      	cmp	r5, #5
    3576:	d814      	bhi.n	35a2 <_usb_d_dev_ep_deinit+0x46>
    3578:	7c83      	ldrb	r3, [r0, #18]
    357a:	2bff      	cmp	r3, #255	; 0xff
    357c:	d011      	beq.n	35a2 <_usb_d_dev_ep_deinit+0x46>
    357e:	2203      	movs	r2, #3
    3580:	4b12      	ldr	r3, [pc, #72]	; (35cc <_usb_d_dev_ep_deinit+0x70>)
    3582:	0039      	movs	r1, r7
    3584:	4798      	blx	r3
    3586:	2207      	movs	r2, #7
    3588:	7cf3      	ldrb	r3, [r6, #19]
    358a:	4013      	ands	r3, r2
    358c:	2b01      	cmp	r3, #1
    358e:	d109      	bne.n	35a4 <_usb_d_dev_ep_deinit+0x48>
    3590:	2200      	movs	r2, #0
    3592:	3408      	adds	r4, #8
    3594:	4b0e      	ldr	r3, [pc, #56]	; (35d0 <_usb_d_dev_ep_deinit+0x74>)
    3596:	0164      	lsls	r4, r4, #5
    3598:	54e2      	strb	r2, [r4, r3]
    359a:	2300      	movs	r3, #0
    359c:	74f3      	strb	r3, [r6, #19]
    359e:	33ff      	adds	r3, #255	; 0xff
    35a0:	74b3      	strb	r3, [r6, #18]
    35a2:	bdf7      	pop	{r0, r1, r2, r4, r5, r6, r7, pc}
    35a4:	b263      	sxtb	r3, r4
    35a6:	2b00      	cmp	r3, #0
    35a8:	da07      	bge.n	35ba <_usb_d_dev_ep_deinit+0x5e>
    35aa:	2270      	movs	r2, #112	; 0x70
    35ac:	4b09      	ldr	r3, [pc, #36]	; (35d4 <_usb_d_dev_ep_deinit+0x78>)
    35ae:	016d      	lsls	r5, r5, #5
    35b0:	18ed      	adds	r5, r5, r3
    35b2:	786b      	ldrb	r3, [r5, #1]
    35b4:	4393      	bics	r3, r2
    35b6:	706b      	strb	r3, [r5, #1]
    35b8:	e7ef      	b.n	359a <_usb_d_dev_ep_deinit+0x3e>
    35ba:	4b06      	ldr	r3, [pc, #24]	; (35d4 <_usb_d_dev_ep_deinit+0x78>)
    35bc:	0164      	lsls	r4, r4, #5
    35be:	18e4      	adds	r4, r4, r3
    35c0:	7863      	ldrb	r3, [r4, #1]
    35c2:	4393      	bics	r3, r2
    35c4:	7063      	strb	r3, [r4, #1]
    35c6:	e7e8      	b.n	359a <_usb_d_dev_ep_deinit+0x3e>
    35c8:	00002d81 	.word	0x00002d81
    35cc:	00002e69 	.word	0x00002e69
    35d0:	41005000 	.word	0x41005000
    35d4:	410050ff 	.word	0x410050ff

000035d8 <_usb_d_dev_ep_enable>:
    35d8:	b5f7      	push	{r0, r1, r2, r4, r5, r6, r7, lr}
    35da:	250f      	movs	r5, #15
    35dc:	b244      	sxtb	r4, r0
    35de:	4005      	ands	r5, r0
    35e0:	0fe1      	lsrs	r1, r4, #31
    35e2:	4b46      	ldr	r3, [pc, #280]	; (36fc <_usb_d_dev_ep_enable+0x124>)
    35e4:	0028      	movs	r0, r5
    35e6:	4798      	blx	r3
    35e8:	4b45      	ldr	r3, [pc, #276]	; (3700 <_usb_d_dev_ep_enable+0x128>)
    35ea:	0169      	lsls	r1, r5, #5
    35ec:	18ce      	adds	r6, r1, r3
    35ee:	7872      	ldrb	r2, [r6, #1]
    35f0:	0007      	movs	r7, r0
    35f2:	b2d2      	uxtb	r2, r2
    35f4:	2d05      	cmp	r5, #5
    35f6:	d900      	bls.n	35fa <_usb_d_dev_ep_enable+0x22>
    35f8:	e07b      	b.n	36f2 <_usb_d_dev_ep_enable+0x11a>
    35fa:	7c83      	ldrb	r3, [r0, #18]
    35fc:	9301      	str	r3, [sp, #4]
    35fe:	2bff      	cmp	r3, #255	; 0xff
    3600:	d100      	bne.n	3604 <_usb_d_dev_ep_enable+0x2c>
    3602:	e076      	b.n	36f2 <_usb_d_dev_ep_enable+0x11a>
    3604:	4d3f      	ldr	r5, [pc, #252]	; (3704 <_usb_d_dev_ep_enable+0x12c>)
    3606:	7cc3      	ldrb	r3, [r0, #19]
    3608:	3530      	adds	r5, #48	; 0x30
    360a:	186d      	adds	r5, r5, r1
    360c:	2007      	movs	r0, #7
    360e:	0019      	movs	r1, r3
    3610:	4001      	ands	r1, r0
    3612:	2901      	cmp	r1, #1
    3614:	d13b      	bne.n	368e <_usb_d_dev_ep_enable+0xb6>
    3616:	2477      	movs	r4, #119	; 0x77
    3618:	4014      	ands	r4, r2
    361a:	d000      	beq.n	361e <_usb_d_dev_ep_enable+0x46>
    361c:	e06c      	b.n	36f8 <_usb_d_dev_ep_enable+0x120>
    361e:	2311      	movs	r3, #17
    3620:	7073      	strb	r3, [r6, #1]
    3622:	8a3b      	ldrh	r3, [r7, #16]
    3624:	9300      	str	r3, [sp, #0]
    3626:	0018      	movs	r0, r3
    3628:	4b37      	ldr	r3, [pc, #220]	; (3708 <_usb_d_dev_ep_enable+0x130>)
    362a:	4798      	blx	r3
    362c:	23e0      	movs	r3, #224	; 0xe0
    362e:	0700      	lsls	r0, r0, #28
    3630:	05db      	lsls	r3, r3, #23
    3632:	4018      	ands	r0, r3
    3634:	9b00      	ldr	r3, [sp, #0]
    3636:	4a35      	ldr	r2, [pc, #212]	; (370c <_usb_d_dev_ep_enable+0x134>)
    3638:	039b      	lsls	r3, r3, #14
    363a:	4013      	ands	r3, r2
    363c:	4303      	orrs	r3, r0
    363e:	606b      	str	r3, [r5, #4]
    3640:	9b00      	ldr	r3, [sp, #0]
    3642:	2140      	movs	r1, #64	; 0x40
    3644:	049b      	lsls	r3, r3, #18
    3646:	0c9b      	lsrs	r3, r3, #18
    3648:	2280      	movs	r2, #128	; 0x80
    364a:	4318      	orrs	r0, r3
    364c:	6168      	str	r0, [r5, #20]
    364e:	200f      	movs	r0, #15
    3650:	71b1      	strb	r1, [r6, #6]
    3652:	7172      	strb	r2, [r6, #5]
    3654:	9a01      	ldr	r2, [sp, #4]
    3656:	72ac      	strb	r4, [r5, #10]
    3658:	4002      	ands	r2, r0
    365a:	482a      	ldr	r0, [pc, #168]	; (3704 <_usb_d_dev_ep_enable+0x12c>)
    365c:	0152      	lsls	r2, r2, #5
    365e:	76ac      	strb	r4, [r5, #26]
    3660:	1885      	adds	r5, r0, r2
    3662:	0028      	movs	r0, r5
    3664:	68fe      	ldr	r6, [r7, #12]
    3666:	632e      	str	r6, [r5, #48]	; 0x30
    3668:	6b6d      	ldr	r5, [r5, #52]	; 0x34
    366a:	039e      	lsls	r6, r3, #14
    366c:	4b28      	ldr	r3, [pc, #160]	; (3710 <_usb_d_dev_ep_enable+0x138>)
    366e:	402b      	ands	r3, r5
    3670:	4333      	orrs	r3, r6
    3672:	6343      	str	r3, [r0, #52]	; 0x34
    3674:	6b43      	ldr	r3, [r0, #52]	; 0x34
    3676:	0b9b      	lsrs	r3, r3, #14
    3678:	039b      	lsls	r3, r3, #14
    367a:	6343      	str	r3, [r0, #52]	; 0x34
    367c:	4b20      	ldr	r3, [pc, #128]	; (3700 <_usb_d_dev_ep_enable+0x128>)
    367e:	18d3      	adds	r3, r2, r3
    3680:	22b0      	movs	r2, #176	; 0xb0
    3682:	715a      	strb	r2, [r3, #5]
    3684:	3aa0      	subs	r2, #160	; 0xa0
    3686:	7199      	strb	r1, [r3, #6]
    3688:	729a      	strb	r2, [r3, #10]
    368a:	0020      	movs	r0, r4
    368c:	bdfe      	pop	{r1, r2, r3, r4, r5, r6, r7, pc}
    368e:	2c00      	cmp	r4, #0
    3690:	da17      	bge.n	36c2 <_usb_d_dev_ep_enable+0xea>
    3692:	2070      	movs	r0, #112	; 0x70
    3694:	0014      	movs	r4, r2
    3696:	4004      	ands	r4, r0
    3698:	d12e      	bne.n	36f8 <_usb_d_dev_ep_enable+0x120>
    369a:	011b      	lsls	r3, r3, #4
    369c:	4003      	ands	r3, r0
    369e:	4313      	orrs	r3, r2
    36a0:	7073      	strb	r3, [r6, #1]
    36a2:	8a3f      	ldrh	r7, [r7, #16]
    36a4:	4b18      	ldr	r3, [pc, #96]	; (3708 <_usb_d_dev_ep_enable+0x130>)
    36a6:	0038      	movs	r0, r7
    36a8:	4798      	blx	r3
    36aa:	23e0      	movs	r3, #224	; 0xe0
    36ac:	0700      	lsls	r0, r0, #28
    36ae:	05db      	lsls	r3, r3, #23
    36b0:	4018      	ands	r0, r3
    36b2:	2380      	movs	r3, #128	; 0x80
    36b4:	04bf      	lsls	r7, r7, #18
    36b6:	0cbf      	lsrs	r7, r7, #18
    36b8:	4338      	orrs	r0, r7
    36ba:	6168      	str	r0, [r5, #20]
    36bc:	7173      	strb	r3, [r6, #5]
    36be:	76ac      	strb	r4, [r5, #26]
    36c0:	e7e3      	b.n	368a <_usb_d_dev_ep_enable+0xb2>
    36c2:	4010      	ands	r0, r2
    36c4:	1e04      	subs	r4, r0, #0
    36c6:	d117      	bne.n	36f8 <_usb_d_dev_ep_enable+0x120>
    36c8:	075b      	lsls	r3, r3, #29
    36ca:	0f5b      	lsrs	r3, r3, #29
    36cc:	4313      	orrs	r3, r2
    36ce:	7073      	strb	r3, [r6, #1]
    36d0:	8a3f      	ldrh	r7, [r7, #16]
    36d2:	4b0d      	ldr	r3, [pc, #52]	; (3708 <_usb_d_dev_ep_enable+0x130>)
    36d4:	0038      	movs	r0, r7
    36d6:	4798      	blx	r3
    36d8:	4a0c      	ldr	r2, [pc, #48]	; (370c <_usb_d_dev_ep_enable+0x134>)
    36da:	03bb      	lsls	r3, r7, #14
    36dc:	4013      	ands	r3, r2
    36de:	22e0      	movs	r2, #224	; 0xe0
    36e0:	0700      	lsls	r0, r0, #28
    36e2:	05d2      	lsls	r2, r2, #23
    36e4:	4010      	ands	r0, r2
    36e6:	4318      	orrs	r0, r3
    36e8:	2340      	movs	r3, #64	; 0x40
    36ea:	6068      	str	r0, [r5, #4]
    36ec:	71b3      	strb	r3, [r6, #6]
    36ee:	72ac      	strb	r4, [r5, #10]
    36f0:	e7cb      	b.n	368a <_usb_d_dev_ep_enable+0xb2>
    36f2:	2012      	movs	r0, #18
    36f4:	4240      	negs	r0, r0
    36f6:	e7c9      	b.n	368c <_usb_d_dev_ep_enable+0xb4>
    36f8:	2014      	movs	r0, #20
    36fa:	e7fb      	b.n	36f4 <_usb_d_dev_ep_enable+0x11c>
    36fc:	00002d81 	.word	0x00002d81
    3700:	410050ff 	.word	0x410050ff
    3704:	200005c4 	.word	0x200005c4
    3708:	00003331 	.word	0x00003331
    370c:	0fffc000 	.word	0x0fffc000
    3710:	f0003fff 	.word	0xf0003fff

00003714 <_usb_d_dev_ep_stall>:
    3714:	b5f8      	push	{r3, r4, r5, r6, r7, lr}
    3716:	0007      	movs	r7, r0
    3718:	250f      	movs	r5, #15
    371a:	09c4      	lsrs	r4, r0, #7
    371c:	402f      	ands	r7, r5
    371e:	000e      	movs	r6, r1
    3720:	0038      	movs	r0, r7
    3722:	0021      	movs	r1, r4
    3724:	4b2b      	ldr	r3, [pc, #172]	; (37d4 <_usb_d_dev_ep_stall+0xc0>)
    3726:	4798      	blx	r3
    3728:	2f05      	cmp	r7, #5
    372a:	d84f      	bhi.n	37cc <_usb_d_dev_ep_stall+0xb8>
    372c:	2e01      	cmp	r6, #1
    372e:	d115      	bne.n	375c <_usb_d_dev_ep_stall+0x48>
    3730:	2210      	movs	r2, #16
    3732:	40a2      	lsls	r2, r4
    3734:	7c83      	ldrb	r3, [r0, #18]
    3736:	4928      	ldr	r1, [pc, #160]	; (37d8 <_usb_d_dev_ep_stall+0xc4>)
    3738:	401d      	ands	r5, r3
    373a:	016b      	lsls	r3, r5, #5
    373c:	b2d2      	uxtb	r2, r2
    373e:	185b      	adds	r3, r3, r1
    3740:	715a      	strb	r2, [r3, #5]
    3742:	2320      	movs	r3, #32
    3744:	40a3      	lsls	r3, r4
    3746:	4a25      	ldr	r2, [pc, #148]	; (37dc <_usb_d_dev_ep_stall+0xc8>)
    3748:	016d      	lsls	r5, r5, #5
    374a:	b2db      	uxtb	r3, r3
    374c:	18ad      	adds	r5, r5, r2
    374e:	72ab      	strb	r3, [r5, #10]
    3750:	2308      	movs	r3, #8
    3752:	7cc2      	ldrb	r2, [r0, #19]
    3754:	4313      	orrs	r3, r2
    3756:	74c3      	strb	r3, [r0, #19]
    3758:	2000      	movs	r0, #0
    375a:	bdf8      	pop	{r3, r4, r5, r6, r7, pc}
    375c:	7c83      	ldrb	r3, [r0, #18]
    375e:	2e00      	cmp	r6, #0
    3760:	d129      	bne.n	37b6 <_usb_d_dev_ep_stall+0xa2>
    3762:	402b      	ands	r3, r5
    3764:	4a1e      	ldr	r2, [pc, #120]	; (37e0 <_usb_d_dev_ep_stall+0xcc>)
    3766:	015b      	lsls	r3, r3, #5
    3768:	1899      	adds	r1, r3, r2
    376a:	4a1c      	ldr	r2, [pc, #112]	; (37dc <_usb_d_dev_ep_stall+0xc8>)
    376c:	189b      	adds	r3, r3, r2
    376e:	2210      	movs	r2, #16
    3770:	40a2      	lsls	r2, r4
    3772:	79dd      	ldrb	r5, [r3, #7]
    3774:	422a      	tst	r2, r5
    3776:	d0ef      	beq.n	3758 <_usb_d_dev_ep_stall+0x44>
    3778:	b2d2      	uxtb	r2, r2
    377a:	715a      	strb	r2, [r3, #5]
    377c:	2220      	movs	r2, #32
    377e:	40a2      	lsls	r2, r4
    3780:	b2d5      	uxtb	r5, r2
    3782:	725d      	strb	r5, [r3, #9]
    3784:	7a1e      	ldrb	r6, [r3, #8]
    3786:	4232      	tst	r2, r6
    3788:	d004      	beq.n	3794 <_usb_d_dev_ep_stall+0x80>
    378a:	2201      	movs	r2, #1
    378c:	40a2      	lsls	r2, r4
    378e:	b2d2      	uxtb	r2, r2
    3790:	721d      	strb	r5, [r3, #8]
    3792:	715a      	strb	r2, [r3, #5]
    3794:	2307      	movs	r3, #7
    3796:	7cc2      	ldrb	r2, [r0, #19]
    3798:	4013      	ands	r3, r2
    379a:	2b01      	cmp	r3, #1
    379c:	d108      	bne.n	37b0 <_usb_d_dev_ep_stall+0x9c>
    379e:	31ff      	adds	r1, #255	; 0xff
    37a0:	79cb      	ldrb	r3, [r1, #7]
    37a2:	2130      	movs	r1, #48	; 0x30
    37a4:	400b      	ands	r3, r1
    37a6:	d1d7      	bne.n	3758 <_usb_d_dev_ep_stall+0x44>
    37a8:	3928      	subs	r1, #40	; 0x28
    37aa:	438a      	bics	r2, r1
    37ac:	74c2      	strb	r2, [r0, #19]
    37ae:	e7d3      	b.n	3758 <_usb_d_dev_ep_stall+0x44>
    37b0:	2308      	movs	r3, #8
    37b2:	439a      	bics	r2, r3
    37b4:	e7fa      	b.n	37ac <_usb_d_dev_ep_stall+0x98>
    37b6:	401d      	ands	r5, r3
    37b8:	4b07      	ldr	r3, [pc, #28]	; (37d8 <_usb_d_dev_ep_stall+0xc4>)
    37ba:	016d      	lsls	r5, r5, #5
    37bc:	18ed      	adds	r5, r5, r3
    37be:	2310      	movs	r3, #16
    37c0:	40a3      	lsls	r3, r4
    37c2:	79a8      	ldrb	r0, [r5, #6]
    37c4:	4018      	ands	r0, r3
    37c6:	1e43      	subs	r3, r0, #1
    37c8:	4198      	sbcs	r0, r3
    37ca:	e7c6      	b.n	375a <_usb_d_dev_ep_stall+0x46>
    37cc:	2012      	movs	r0, #18
    37ce:	4240      	negs	r0, r0
    37d0:	e7c3      	b.n	375a <_usb_d_dev_ep_stall+0x46>
    37d2:	46c0      	nop			; (mov r8, r8)
    37d4:	00002d81 	.word	0x00002d81
    37d8:	41005100 	.word	0x41005100
    37dc:	410050ff 	.word	0x410050ff
    37e0:	41005000 	.word	0x41005000

000037e4 <_usb_d_dev_ep_read_req>:
    37e4:	b5f8      	push	{r3, r4, r5, r6, r7, lr}
    37e6:	230f      	movs	r3, #15
    37e8:	4018      	ands	r0, r3
    37ea:	4b11      	ldr	r3, [pc, #68]	; (3830 <_usb_d_dev_ep_read_req+0x4c>)
    37ec:	0144      	lsls	r4, r0, #5
    37ee:	3330      	adds	r3, #48	; 0x30
    37f0:	191b      	adds	r3, r3, r4
    37f2:	000f      	movs	r7, r1
    37f4:	6819      	ldr	r1, [r3, #0]
    37f6:	685d      	ldr	r5, [r3, #4]
    37f8:	04ad      	lsls	r5, r5, #18
    37fa:	0cad      	lsrs	r5, r5, #18
    37fc:	2805      	cmp	r0, #5
    37fe:	d812      	bhi.n	3826 <_usb_d_dev_ep_read_req+0x42>
    3800:	2f00      	cmp	r7, #0
    3802:	d010      	beq.n	3826 <_usb_d_dev_ep_read_req+0x42>
    3804:	4b0b      	ldr	r3, [pc, #44]	; (3834 <_usb_d_dev_ep_read_req+0x50>)
    3806:	18e4      	adds	r4, r4, r3
    3808:	7863      	ldrb	r3, [r4, #1]
    380a:	2b11      	cmp	r3, #17
    380c:	d10e      	bne.n	382c <_usb_d_dev_ep_read_req+0x48>
    380e:	2610      	movs	r6, #16
    3810:	7a23      	ldrb	r3, [r4, #8]
    3812:	2000      	movs	r0, #0
    3814:	4233      	tst	r3, r6
    3816:	d005      	beq.n	3824 <_usb_d_dev_ep_read_req+0x40>
    3818:	2208      	movs	r2, #8
    381a:	0038      	movs	r0, r7
    381c:	4b06      	ldr	r3, [pc, #24]	; (3838 <_usb_d_dev_ep_read_req+0x54>)
    381e:	4798      	blx	r3
    3820:	0028      	movs	r0, r5
    3822:	7226      	strb	r6, [r4, #8]
    3824:	bdf8      	pop	{r3, r4, r5, r6, r7, pc}
    3826:	2012      	movs	r0, #18
    3828:	4240      	negs	r0, r0
    382a:	e7fb      	b.n	3824 <_usb_d_dev_ep_read_req+0x40>
    382c:	2013      	movs	r0, #19
    382e:	e7fb      	b.n	3828 <_usb_d_dev_ep_read_req+0x44>
    3830:	200005c4 	.word	0x200005c4
    3834:	410050ff 	.word	0x410050ff
    3838:	0000707b 	.word	0x0000707b

0000383c <_usb_d_dev_ep_trans>:
    383c:	b5f0      	push	{r4, r5, r6, r7, lr}
    383e:	250f      	movs	r5, #15
    3840:	7a03      	ldrb	r3, [r0, #8]
    3842:	b087      	sub	sp, #28
    3844:	401d      	ands	r5, r3
    3846:	b25b      	sxtb	r3, r3
    3848:	9301      	str	r3, [sp, #4]
    384a:	0fdb      	lsrs	r3, r3, #31
    384c:	9303      	str	r3, [sp, #12]
    384e:	0019      	movs	r1, r3
    3850:	0007      	movs	r7, r0
    3852:	4b38      	ldr	r3, [pc, #224]	; (3934 <_usb_d_dev_ep_trans+0xf8>)
    3854:	0028      	movs	r0, r5
    3856:	4798      	blx	r3
    3858:	4a37      	ldr	r2, [pc, #220]	; (3938 <_usb_d_dev_ep_trans+0xfc>)
    385a:	8a03      	ldrh	r3, [r0, #16]
    385c:	0004      	movs	r4, r0
    385e:	001e      	movs	r6, r3
    3860:	4293      	cmp	r3, r2
    3862:	d001      	beq.n	3868 <_usb_d_dev_ep_trans+0x2c>
    3864:	1e5e      	subs	r6, r3, #1
    3866:	b2b6      	uxth	r6, r6
    3868:	687a      	ldr	r2, [r7, #4]
    386a:	4016      	ands	r6, r2
    386c:	9602      	str	r6, [sp, #8]
    386e:	2d05      	cmp	r5, #5
    3870:	d85d      	bhi.n	392e <_usb_d_dev_ep_trans+0xf2>
    3872:	683d      	ldr	r5, [r7, #0]
    3874:	4931      	ldr	r1, [pc, #196]	; (393c <_usb_d_dev_ep_trans+0x100>)
    3876:	428d      	cmp	r5, r1
    3878:	d90b      	bls.n	3892 <_usb_d_dev_ep_trans+0x56>
    387a:	4831      	ldr	r0, [pc, #196]	; (3940 <_usb_d_dev_ep_trans+0x104>)
    387c:	1951      	adds	r1, r2, r5
    387e:	4281      	cmp	r1, r0
    3880:	d807      	bhi.n	3892 <_usb_d_dev_ep_trans+0x56>
    3882:	2103      	movs	r1, #3
    3884:	400d      	ands	r5, r1
    3886:	d104      	bne.n	3892 <_usb_d_dev_ep_trans+0x56>
    3888:	9901      	ldr	r1, [sp, #4]
    388a:	2900      	cmp	r1, #0
    388c:	db0e      	blt.n	38ac <_usb_d_dev_ep_trans+0x70>
    388e:	429a      	cmp	r2, r3
    3890:	d206      	bcs.n	38a0 <_usb_d_dev_ep_trans+0x64>
    3892:	68e3      	ldr	r3, [r4, #12]
    3894:	2501      	movs	r5, #1
    3896:	2b00      	cmp	r3, #0
    3898:	d108      	bne.n	38ac <_usb_d_dev_ep_trans+0x70>
    389a:	2013      	movs	r0, #19
    389c:	4240      	negs	r0, r0
    389e:	e015      	b.n	38cc <_usb_d_dev_ep_trans+0x90>
    38a0:	9b02      	ldr	r3, [sp, #8]
    38a2:	2b00      	cmp	r3, #0
    38a4:	d014      	beq.n	38d0 <_usb_d_dev_ep_trans+0x94>
    38a6:	68e3      	ldr	r3, [r4, #12]
    38a8:	2b00      	cmp	r3, #0
    38aa:	d040      	beq.n	392e <_usb_d_dev_ep_trans+0xf2>
    38ac:	7ce3      	ldrb	r3, [r4, #19]
    38ae:	2002      	movs	r0, #2
    38b0:	071b      	lsls	r3, r3, #28
    38b2:	d40b      	bmi.n	38cc <_usb_d_dev_ep_trans+0x90>
    38b4:	4b23      	ldr	r3, [pc, #140]	; (3944 <_usb_d_dev_ep_trans+0x108>)
    38b6:	a805      	add	r0, sp, #20
    38b8:	4798      	blx	r3
    38ba:	7ce1      	ldrb	r1, [r4, #19]
    38bc:	2340      	movs	r3, #64	; 0x40
    38be:	000e      	movs	r6, r1
    38c0:	4a21      	ldr	r2, [pc, #132]	; (3948 <_usb_d_dev_ep_trans+0x10c>)
    38c2:	401e      	ands	r6, r3
    38c4:	d006      	beq.n	38d4 <_usb_d_dev_ep_trans+0x98>
    38c6:	a805      	add	r0, sp, #20
    38c8:	4790      	blx	r2
    38ca:	2001      	movs	r0, #1
    38cc:	b007      	add	sp, #28
    38ce:	bdf0      	pop	{r4, r5, r6, r7, pc}
    38d0:	9d02      	ldr	r5, [sp, #8]
    38d2:	e7eb      	b.n	38ac <_usb_d_dev_ep_trans+0x70>
    38d4:	430b      	orrs	r3, r1
    38d6:	74e3      	strb	r3, [r4, #19]
    38d8:	a805      	add	r0, sp, #20
    38da:	4790      	blx	r2
    38dc:	217f      	movs	r1, #127	; 0x7f
    38de:	683b      	ldr	r3, [r7, #0]
    38e0:	6023      	str	r3, [r4, #0]
    38e2:	687b      	ldr	r3, [r7, #4]
    38e4:	60a6      	str	r6, [r4, #8]
    38e6:	6063      	str	r3, [r4, #4]
    38e8:	9b03      	ldr	r3, [sp, #12]
    38ea:	01da      	lsls	r2, r3, #7
    38ec:	7ce3      	ldrb	r3, [r4, #19]
    38ee:	400b      	ands	r3, r1
    38f0:	4313      	orrs	r3, r2
    38f2:	0169      	lsls	r1, r5, #5
    38f4:	001d      	movs	r5, r3
    38f6:	2320      	movs	r3, #32
    38f8:	439d      	bics	r5, r3
    38fa:	430d      	orrs	r5, r1
    38fc:	74e5      	strb	r5, [r4, #19]
    38fe:	7a7b      	ldrb	r3, [r7, #9]
    3900:	2b00      	cmp	r3, #0
    3902:	d003      	beq.n	390c <_usb_d_dev_ep_trans+0xd0>
    3904:	9e02      	ldr	r6, [sp, #8]
    3906:	4273      	negs	r3, r6
    3908:	415e      	adcs	r6, r3
    390a:	b2f6      	uxtb	r6, r6
    390c:	2210      	movs	r2, #16
    390e:	7ce3      	ldrb	r3, [r4, #19]
    3910:	0136      	lsls	r6, r6, #4
    3912:	4393      	bics	r3, r2
    3914:	431e      	orrs	r6, r3
    3916:	9b01      	ldr	r3, [sp, #4]
    3918:	74e6      	strb	r6, [r4, #19]
    391a:	2100      	movs	r1, #0
    391c:	0020      	movs	r0, r4
    391e:	2b00      	cmp	r3, #0
    3920:	da03      	bge.n	392a <_usb_d_dev_ep_trans+0xee>
    3922:	4b0a      	ldr	r3, [pc, #40]	; (394c <_usb_d_dev_ep_trans+0x110>)
    3924:	4798      	blx	r3
    3926:	2000      	movs	r0, #0
    3928:	e7d0      	b.n	38cc <_usb_d_dev_ep_trans+0x90>
    392a:	4b09      	ldr	r3, [pc, #36]	; (3950 <_usb_d_dev_ep_trans+0x114>)
    392c:	e7fa      	b.n	3924 <_usb_d_dev_ep_trans+0xe8>
    392e:	2012      	movs	r0, #18
    3930:	e7b4      	b.n	389c <_usb_d_dev_ep_trans+0x60>
    3932:	46c0      	nop			; (mov r8, r8)
    3934:	00002d81 	.word	0x00002d81
    3938:	000003ff 	.word	0x000003ff
    393c:	1fffffff 	.word	0x1fffffff
    3940:	20007fff 	.word	0x20007fff
    3944:	00000d45 	.word	0x00000d45
    3948:	00000d53 	.word	0x00000d53
    394c:	00002fed 	.word	0x00002fed
    3950:	0000315d 	.word	0x0000315d

00003954 <_usb_d_dev_register_callback>:
    3954:	2900      	cmp	r1, #0
    3956:	d100      	bne.n	395a <_usb_d_dev_register_callback+0x6>
    3958:	4905      	ldr	r1, [pc, #20]	; (3970 <_usb_d_dev_register_callback+0x1c>)
    395a:	2801      	cmp	r0, #1
    395c:	d102      	bne.n	3964 <_usb_d_dev_register_callback+0x10>
    395e:	4b05      	ldr	r3, [pc, #20]	; (3974 <_usb_d_dev_register_callback+0x20>)
    3960:	6059      	str	r1, [r3, #4]
    3962:	4770      	bx	lr
    3964:	2800      	cmp	r0, #0
    3966:	d1fc      	bne.n	3962 <_usb_d_dev_register_callback+0xe>
    3968:	4b02      	ldr	r3, [pc, #8]	; (3974 <_usb_d_dev_register_callback+0x20>)
    396a:	6019      	str	r1, [r3, #0]
    396c:	e7f9      	b.n	3962 <_usb_d_dev_register_callback+0xe>
    396e:	46c0      	nop			; (mov r8, r8)
    3970:	00002d59 	.word	0x00002d59
    3974:	200003c4 	.word	0x200003c4

00003978 <_usb_d_dev_register_ep_callback>:
    3978:	2900      	cmp	r1, #0
    397a:	d100      	bne.n	397e <_usb_d_dev_register_ep_callback+0x6>
    397c:	4907      	ldr	r1, [pc, #28]	; (399c <_usb_d_dev_register_ep_callback+0x24>)
    397e:	2800      	cmp	r0, #0
    3980:	d102      	bne.n	3988 <_usb_d_dev_register_ep_callback+0x10>
    3982:	4b07      	ldr	r3, [pc, #28]	; (39a0 <_usb_d_dev_register_ep_callback+0x28>)
    3984:	6099      	str	r1, [r3, #8]
    3986:	4770      	bx	lr
    3988:	2801      	cmp	r0, #1
    398a:	d102      	bne.n	3992 <_usb_d_dev_register_ep_callback+0x1a>
    398c:	4b04      	ldr	r3, [pc, #16]	; (39a0 <_usb_d_dev_register_ep_callback+0x28>)
    398e:	60d9      	str	r1, [r3, #12]
    3990:	e7f9      	b.n	3986 <_usb_d_dev_register_ep_callback+0xe>
    3992:	2802      	cmp	r0, #2
    3994:	d1f7      	bne.n	3986 <_usb_d_dev_register_ep_callback+0xe>
    3996:	4b02      	ldr	r3, [pc, #8]	; (39a0 <_usb_d_dev_register_ep_callback+0x28>)
    3998:	6119      	str	r1, [r3, #16]
    399a:	e7f4      	b.n	3986 <_usb_d_dev_register_ep_callback+0xe>
    399c:	00002d59 	.word	0x00002d59
    39a0:	200003c4 	.word	0x200003c4

000039a4 <USB_Handler>:
    39a4:	b5f7      	push	{r0, r1, r2, r4, r5, r6, r7, lr}
    39a6:	4b65      	ldr	r3, [pc, #404]	; (3b3c <USB_Handler+0x198>)
    39a8:	8c1a      	ldrh	r2, [r3, #32]
    39aa:	b292      	uxth	r2, r2
    39ac:	9201      	str	r2, [sp, #4]
    39ae:	2a00      	cmp	r2, #0
    39b0:	d157      	bne.n	3a62 <USB_Handler+0xbe>
    39b2:	8b9a      	ldrh	r2, [r3, #28]
    39b4:	8b19      	ldrh	r1, [r3, #24]
    39b6:	2004      	movs	r0, #4
    39b8:	400a      	ands	r2, r1
    39ba:	0014      	movs	r4, r2
    39bc:	4004      	ands	r4, r0
    39be:	d004      	beq.n	39ca <USB_Handler+0x26>
    39c0:	8398      	strh	r0, [r3, #28]
    39c2:	4b5f      	ldr	r3, [pc, #380]	; (3b40 <USB_Handler+0x19c>)
    39c4:	681b      	ldr	r3, [r3, #0]
    39c6:	4798      	blx	r3
    39c8:	bdf7      	pop	{r0, r1, r2, r4, r5, r6, r7, pc}
    39ca:	2180      	movs	r1, #128	; 0x80
    39cc:	0089      	lsls	r1, r1, #2
    39ce:	4011      	ands	r1, r2
    39d0:	d01e      	beq.n	3a10 <USB_Handler+0x6c>
    39d2:	4a5c      	ldr	r2, [pc, #368]	; (3b44 <USB_Handler+0x1a0>)
    39d4:	495c      	ldr	r1, [pc, #368]	; (3b48 <USB_Handler+0x1a4>)
    39d6:	839a      	strh	r2, [r3, #28]
    39d8:	829a      	strh	r2, [r3, #20]
    39da:	3a92      	subs	r2, #146	; 0x92
    39dc:	3aff      	subs	r2, #255	; 0xff
    39de:	831a      	strh	r2, [r3, #24]
    39e0:	0162      	lsls	r2, r4, #5
    39e2:	188a      	adds	r2, r1, r2
    39e4:	0010      	movs	r0, r2
    39e6:	8f12      	ldrh	r2, [r2, #56]	; 0x38
    39e8:	3038      	adds	r0, #56	; 0x38
    39ea:	0712      	lsls	r2, r2, #28
    39ec:	0f12      	lsrs	r2, r2, #28
    39ee:	2a03      	cmp	r2, #3
    39f0:	d109      	bne.n	3a06 <USB_Handler+0x62>
    39f2:	2300      	movs	r3, #0
    39f4:	8801      	ldrh	r1, [r0, #0]
    39f6:	8003      	strh	r3, [r0, #0]
    39f8:	0449      	lsls	r1, r1, #17
    39fa:	0d49      	lsrs	r1, r1, #21
    39fc:	2003      	movs	r0, #3
    39fe:	4b50      	ldr	r3, [pc, #320]	; (3b40 <USB_Handler+0x19c>)
    3a00:	685b      	ldr	r3, [r3, #4]
    3a02:	4798      	blx	r3
    3a04:	e7e0      	b.n	39c8 <USB_Handler+0x24>
    3a06:	3401      	adds	r4, #1
    3a08:	2c05      	cmp	r4, #5
    3a0a:	d1e9      	bne.n	39e0 <USB_Handler+0x3c>
    3a0c:	2100      	movs	r1, #0
    3a0e:	e7f5      	b.n	39fc <USB_Handler+0x58>
    3a10:	2580      	movs	r5, #128	; 0x80
    3a12:	0016      	movs	r6, r2
    3a14:	4c4a      	ldr	r4, [pc, #296]	; (3b40 <USB_Handler+0x19c>)
    3a16:	402e      	ands	r6, r5
    3a18:	d003      	beq.n	3a22 <USB_Handler+0x7e>
    3a1a:	839d      	strh	r5, [r3, #28]
    3a1c:	6863      	ldr	r3, [r4, #4]
    3a1e:	2005      	movs	r0, #5
    3a20:	e7ef      	b.n	3a02 <USB_Handler+0x5e>
    3a22:	2770      	movs	r7, #112	; 0x70
    3a24:	0015      	movs	r5, r2
    3a26:	403d      	ands	r5, r7
    3a28:	d009      	beq.n	3a3e <USB_Handler+0x9a>
    3a2a:	4a46      	ldr	r2, [pc, #280]	; (3b44 <USB_Handler+0x1a0>)
    3a2c:	839f      	strh	r7, [r3, #28]
    3a2e:	829f      	strh	r7, [r3, #20]
    3a30:	831a      	strh	r2, [r3, #24]
    3a32:	4b46      	ldr	r3, [pc, #280]	; (3b4c <USB_Handler+0x1a8>)
    3a34:	4798      	blx	r3
    3a36:	6863      	ldr	r3, [r4, #4]
    3a38:	0031      	movs	r1, r6
    3a3a:	2002      	movs	r0, #2
    3a3c:	e7e1      	b.n	3a02 <USB_Handler+0x5e>
    3a3e:	2608      	movs	r6, #8
    3a40:	0011      	movs	r1, r2
    3a42:	4031      	ands	r1, r6
    3a44:	d00b      	beq.n	3a5e <USB_Handler+0xba>
    3a46:	4a42      	ldr	r2, [pc, #264]	; (3b50 <USB_Handler+0x1ac>)
    3a48:	7055      	strb	r5, [r2, #1]
    3a4a:	4a3e      	ldr	r2, [pc, #248]	; (3b44 <USB_Handler+0x1a0>)
    3a4c:	839e      	strh	r6, [r3, #28]
    3a4e:	829f      	strh	r7, [r3, #20]
    3a50:	831a      	strh	r2, [r3, #24]
    3a52:	4b40      	ldr	r3, [pc, #256]	; (3b54 <USB_Handler+0x1b0>)
    3a54:	4798      	blx	r3
    3a56:	6863      	ldr	r3, [r4, #4]
    3a58:	0029      	movs	r1, r5
    3a5a:	2001      	movs	r0, #1
    3a5c:	e7d1      	b.n	3a02 <USB_Handler+0x5e>
    3a5e:	07d2      	lsls	r2, r2, #31
    3a60:	d427      	bmi.n	3ab2 <USB_Handler+0x10e>
    3a62:	4f37      	ldr	r7, [pc, #220]	; (3b40 <USB_Handler+0x19c>)
    3a64:	2600      	movs	r6, #0
    3a66:	003c      	movs	r4, r7
    3a68:	2501      	movs	r5, #1
    3a6a:	3414      	adds	r4, #20
    3a6c:	7ca2      	ldrb	r2, [r4, #18]
    3a6e:	2aff      	cmp	r2, #255	; 0xff
    3a70:	d03e      	beq.n	3af0 <USB_Handler+0x14c>
    3a72:	230f      	movs	r3, #15
    3a74:	401a      	ands	r2, r3
    3a76:	002b      	movs	r3, r5
    3a78:	4093      	lsls	r3, r2
    3a7a:	9901      	ldr	r1, [sp, #4]
    3a7c:	4219      	tst	r1, r3
    3a7e:	d037      	beq.n	3af0 <USB_Handler+0x14c>
    3a80:	4935      	ldr	r1, [pc, #212]	; (3b58 <USB_Handler+0x1b4>)
    3a82:	0153      	lsls	r3, r2, #5
    3a84:	185b      	adds	r3, r3, r1
    3a86:	4932      	ldr	r1, [pc, #200]	; (3b50 <USB_Handler+0x1ac>)
    3a88:	0152      	lsls	r2, r2, #5
    3a8a:	1852      	adds	r2, r2, r1
    3a8c:	781b      	ldrb	r3, [r3, #0]
    3a8e:	7a92      	ldrb	r2, [r2, #10]
    3a90:	4013      	ands	r3, r2
    3a92:	d02d      	beq.n	3af0 <USB_Handler+0x14c>
    3a94:	2214      	movs	r2, #20
    3a96:	2147      	movs	r1, #71	; 0x47
    3a98:	4372      	muls	r2, r6
    3a9a:	18ba      	adds	r2, r7, r2
    3a9c:	3210      	adds	r2, #16
    3a9e:	7dd2      	ldrb	r2, [r2, #23]
    3aa0:	4011      	ands	r1, r2
    3aa2:	2901      	cmp	r1, #1
    3aa4:	d115      	bne.n	3ad2 <USB_Handler+0x12e>
    3aa6:	06da      	lsls	r2, r3, #27
    3aa8:	d509      	bpl.n	3abe <USB_Handler+0x11a>
    3aaa:	0020      	movs	r0, r4
    3aac:	4b2b      	ldr	r3, [pc, #172]	; (3b5c <USB_Handler+0x1b8>)
    3aae:	4798      	blx	r3
    3ab0:	e01e      	b.n	3af0 <USB_Handler+0x14c>
    3ab2:	4a24      	ldr	r2, [pc, #144]	; (3b44 <USB_Handler+0x1a0>)
    3ab4:	839a      	strh	r2, [r3, #28]
    3ab6:	829a      	strh	r2, [r3, #20]
    3ab8:	831f      	strh	r7, [r3, #24]
    3aba:	6863      	ldr	r3, [r4, #4]
    3abc:	e7a1      	b.n	3a02 <USB_Handler+0x5e>
    3abe:	2140      	movs	r1, #64	; 0x40
    3ac0:	4019      	ands	r1, r3
    3ac2:	d001      	beq.n	3ac8 <USB_Handler+0x124>
    3ac4:	0029      	movs	r1, r5
    3ac6:	e001      	b.n	3acc <USB_Handler+0x128>
    3ac8:	069b      	lsls	r3, r3, #26
    3aca:	d511      	bpl.n	3af0 <USB_Handler+0x14c>
    3acc:	0020      	movs	r0, r4
    3ace:	4b24      	ldr	r3, [pc, #144]	; (3b60 <USB_Handler+0x1bc>)
    3ad0:	e00d      	b.n	3aee <USB_Handler+0x14a>
    3ad2:	b251      	sxtb	r1, r2
    3ad4:	2900      	cmp	r1, #0
    3ad6:	da1a      	bge.n	3b0e <USB_Handler+0x16a>
    3ad8:	0659      	lsls	r1, r3, #25
    3ada:	d4f3      	bmi.n	3ac4 <USB_Handler+0x120>
    3adc:	0719      	lsls	r1, r3, #28
    3ade:	d501      	bpl.n	3ae4 <USB_Handler+0x140>
    3ae0:	0029      	movs	r1, r5
    3ae2:	e01b      	b.n	3b1c <USB_Handler+0x178>
    3ae4:	0799      	lsls	r1, r3, #30
    3ae6:	d508      	bpl.n	3afa <USB_Handler+0x156>
    3ae8:	0029      	movs	r1, r5
    3aea:	0020      	movs	r0, r4
    3aec:	4b1d      	ldr	r3, [pc, #116]	; (3b64 <USB_Handler+0x1c0>)
    3aee:	4798      	blx	r3
    3af0:	3601      	adds	r6, #1
    3af2:	3414      	adds	r4, #20
    3af4:	2e1b      	cmp	r6, #27
    3af6:	d1b9      	bne.n	3a6c <USB_Handler+0xc8>
    3af8:	e766      	b.n	39c8 <USB_Handler+0x24>
    3afa:	2107      	movs	r1, #7
    3afc:	400a      	ands	r2, r1
    3afe:	2a01      	cmp	r2, #1
    3b00:	d1f6      	bne.n	3af0 <USB_Handler+0x14c>
    3b02:	2100      	movs	r1, #0
    3b04:	075a      	lsls	r2, r3, #29
    3b06:	d409      	bmi.n	3b1c <USB_Handler+0x178>
    3b08:	06db      	lsls	r3, r3, #27
    3b0a:	d5f1      	bpl.n	3af0 <USB_Handler+0x14c>
    3b0c:	e7cd      	b.n	3aaa <USB_Handler+0x106>
    3b0e:	2120      	movs	r1, #32
    3b10:	4019      	ands	r1, r3
    3b12:	d001      	beq.n	3b18 <USB_Handler+0x174>
    3b14:	2100      	movs	r1, #0
    3b16:	e7d9      	b.n	3acc <USB_Handler+0x128>
    3b18:	0758      	lsls	r0, r3, #29
    3b1a:	d502      	bpl.n	3b22 <USB_Handler+0x17e>
    3b1c:	0020      	movs	r0, r4
    3b1e:	4b12      	ldr	r3, [pc, #72]	; (3b68 <USB_Handler+0x1c4>)
    3b20:	e7e5      	b.n	3aee <USB_Handler+0x14a>
    3b22:	422b      	tst	r3, r5
    3b24:	d003      	beq.n	3b2e <USB_Handler+0x18a>
    3b26:	0029      	movs	r1, r5
    3b28:	0020      	movs	r0, r4
    3b2a:	4b10      	ldr	r3, [pc, #64]	; (3b6c <USB_Handler+0x1c8>)
    3b2c:	e7df      	b.n	3aee <USB_Handler+0x14a>
    3b2e:	2107      	movs	r1, #7
    3b30:	400a      	ands	r2, r1
    3b32:	2a01      	cmp	r2, #1
    3b34:	d1dc      	bne.n	3af0 <USB_Handler+0x14c>
    3b36:	071a      	lsls	r2, r3, #28
    3b38:	d5e6      	bpl.n	3b08 <USB_Handler+0x164>
    3b3a:	e7d1      	b.n	3ae0 <USB_Handler+0x13c>
    3b3c:	41005000 	.word	0x41005000
    3b40:	200003c4 	.word	0x200003c4
    3b44:	00000201 	.word	0x00000201
    3b48:	200005c4 	.word	0x200005c4
    3b4c:	00002d5d 	.word	0x00002d5d
    3b50:	410050ff 	.word	0x410050ff
    3b54:	00002fad 	.word	0x00002fad
    3b58:	41005107 	.word	0x41005107
    3b5c:	00002d9d 	.word	0x00002d9d
    3b60:	00002e19 	.word	0x00002e19
    3b64:	00002fed 	.word	0x00002fed
    3b68:	00002ec9 	.word	0x00002ec9
    3b6c:	0000315d 	.word	0x0000315d

00003b70 <set_prev_curr_form>:
    3b70:	4b02      	ldr	r3, [pc, #8]	; (3b7c <set_prev_curr_form+0xc>)
    3b72:	7b1a      	ldrb	r2, [r3, #12]
    3b74:	7318      	strb	r0, [r3, #12]
    3b76:	735a      	strb	r2, [r3, #13]
    3b78:	4770      	bx	lr
    3b7a:	46c0      	nop			; (mov r8, r8)
    3b7c:	20000a3c 	.word	0x20000a3c

00003b80 <convert_cb_ADC_0>:
    3b80:	b570      	push	{r4, r5, r6, lr}
    3b82:	4c04      	ldr	r4, [pc, #16]	; (3b94 <convert_cb_ADC_0+0x14>)
    3b84:	4d04      	ldr	r5, [pc, #16]	; (3b98 <convert_cb_ADC_0+0x18>)
    3b86:	2302      	movs	r3, #2
    3b88:	0022      	movs	r2, r4
    3b8a:	4804      	ldr	r0, [pc, #16]	; (3b9c <convert_cb_ADC_0+0x1c>)
    3b8c:	47a8      	blx	r5
    3b8e:	2301      	movs	r3, #1
    3b90:	70a3      	strb	r3, [r4, #2]
    3b92:	bd70      	pop	{r4, r5, r6, pc}
    3b94:	2000073c 	.word	0x2000073c
    3b98:	00000cc1 	.word	0x00000cc1
    3b9c:	2000091c 	.word	0x2000091c

00003ba0 <TIMER_task1_cb>:
    3ba0:	b5f7      	push	{r0, r1, r2, r4, r5, r6, r7, lr}
    3ba2:	4d6a      	ldr	r5, [pc, #424]	; (3d4c <TIMER_task1_cb+0x1ac>)
    3ba4:	4c6a      	ldr	r4, [pc, #424]	; (3d50 <TIMER_task1_cb+0x1b0>)
    3ba6:	88aa      	ldrh	r2, [r5, #4]
    3ba8:	2a00      	cmp	r2, #0
    3baa:	d00e      	beq.n	3bca <TIMER_task1_cb+0x2a>
    3bac:	4b69      	ldr	r3, [pc, #420]	; (3d54 <TIMER_task1_cb+0x1b4>)
    3bae:	2100      	movs	r1, #0
    3bb0:	1a9b      	subs	r3, r3, r2
    3bb2:	4a69      	ldr	r2, [pc, #420]	; (3d58 <TIMER_task1_cb+0x1b8>)
    3bb4:	005b      	lsls	r3, r3, #1
    3bb6:	5a9b      	ldrh	r3, [r3, r2]
    3bb8:	4868      	ldr	r0, [pc, #416]	; (3d5c <TIMER_task1_cb+0x1bc>)
    3bba:	8023      	strh	r3, [r4, #0]
    3bbc:	0022      	movs	r2, r4
    3bbe:	2301      	movs	r3, #1
    3bc0:	4e67      	ldr	r6, [pc, #412]	; (3d60 <TIMER_task1_cb+0x1c0>)
    3bc2:	47b0      	blx	r6
    3bc4:	88ab      	ldrh	r3, [r5, #4]
    3bc6:	3b01      	subs	r3, #1
    3bc8:	80ab      	strh	r3, [r5, #4]
    3bca:	88ea      	ldrh	r2, [r5, #6]
    3bcc:	2a00      	cmp	r2, #0
    3bce:	d010      	beq.n	3bf2 <TIMER_task1_cb+0x52>
    3bd0:	23bc      	movs	r3, #188	; 0xbc
    3bd2:	005b      	lsls	r3, r3, #1
    3bd4:	1a9b      	subs	r3, r3, r2
    3bd6:	4a63      	ldr	r2, [pc, #396]	; (3d64 <TIMER_task1_cb+0x1c4>)
    3bd8:	005b      	lsls	r3, r3, #1
    3bda:	18d3      	adds	r3, r2, r3
    3bdc:	889b      	ldrh	r3, [r3, #4]
    3bde:	0022      	movs	r2, r4
    3be0:	8023      	strh	r3, [r4, #0]
    3be2:	2100      	movs	r1, #0
    3be4:	2301      	movs	r3, #1
    3be6:	485d      	ldr	r0, [pc, #372]	; (3d5c <TIMER_task1_cb+0x1bc>)
    3be8:	4e5d      	ldr	r6, [pc, #372]	; (3d60 <TIMER_task1_cb+0x1c0>)
    3bea:	47b0      	blx	r6
    3bec:	88eb      	ldrh	r3, [r5, #6]
    3bee:	3b01      	subs	r3, #1
    3bf0:	80eb      	strh	r3, [r5, #6]
    3bf2:	4e5d      	ldr	r6, [pc, #372]	; (3d68 <TIMER_task1_cb+0x1c8>)
    3bf4:	8831      	ldrh	r1, [r6, #0]
    3bf6:	2900      	cmp	r1, #0
    3bf8:	d013      	beq.n	3c22 <TIMER_task1_cb+0x82>
    3bfa:	4b5c      	ldr	r3, [pc, #368]	; (3d6c <TIMER_task1_cb+0x1cc>)
    3bfc:	7ada      	ldrb	r2, [r3, #11]
    3bfe:	2a00      	cmp	r2, #0
    3c00:	d02d      	beq.n	3c5e <TIMER_task1_cb+0xbe>
    3c02:	4b5b      	ldr	r3, [pc, #364]	; (3d70 <TIMER_task1_cb+0x1d0>)
    3c04:	4a5b      	ldr	r2, [pc, #364]	; (3d74 <TIMER_task1_cb+0x1d4>)
    3c06:	1a5b      	subs	r3, r3, r1
    3c08:	3274      	adds	r2, #116	; 0x74
    3c0a:	005b      	lsls	r3, r3, #1
    3c0c:	5a9b      	ldrh	r3, [r3, r2]
    3c0e:	2100      	movs	r1, #0
    3c10:	8023      	strh	r3, [r4, #0]
    3c12:	0022      	movs	r2, r4
    3c14:	2301      	movs	r3, #1
    3c16:	4851      	ldr	r0, [pc, #324]	; (3d5c <TIMER_task1_cb+0x1bc>)
    3c18:	4f51      	ldr	r7, [pc, #324]	; (3d60 <TIMER_task1_cb+0x1c0>)
    3c1a:	47b8      	blx	r7
    3c1c:	8833      	ldrh	r3, [r6, #0]
    3c1e:	3b01      	subs	r3, #1
    3c20:	8033      	strh	r3, [r6, #0]
    3c22:	4f55      	ldr	r7, [pc, #340]	; (3d78 <TIMER_task1_cb+0x1d8>)
    3c24:	8839      	ldrh	r1, [r7, #0]
    3c26:	2900      	cmp	r1, #0
    3c28:	d013      	beq.n	3c52 <TIMER_task1_cb+0xb2>
    3c2a:	4b50      	ldr	r3, [pc, #320]	; (3d6c <TIMER_task1_cb+0x1cc>)
    3c2c:	7a9a      	ldrb	r2, [r3, #10]
    3c2e:	2a00      	cmp	r2, #0
    3c30:	d017      	beq.n	3c62 <TIMER_task1_cb+0xc2>
    3c32:	4b52      	ldr	r3, [pc, #328]	; (3d7c <TIMER_task1_cb+0x1dc>)
    3c34:	4a52      	ldr	r2, [pc, #328]	; (3d80 <TIMER_task1_cb+0x1e0>)
    3c36:	1a5b      	subs	r3, r3, r1
    3c38:	326c      	adds	r2, #108	; 0x6c
    3c3a:	005b      	lsls	r3, r3, #1
    3c3c:	5a9b      	ldrh	r3, [r3, r2]
    3c3e:	2100      	movs	r1, #0
    3c40:	8023      	strh	r3, [r4, #0]
    3c42:	0022      	movs	r2, r4
    3c44:	2301      	movs	r3, #1
    3c46:	4845      	ldr	r0, [pc, #276]	; (3d5c <TIMER_task1_cb+0x1bc>)
    3c48:	4e45      	ldr	r6, [pc, #276]	; (3d60 <TIMER_task1_cb+0x1c0>)
    3c4a:	47b0      	blx	r6
    3c4c:	883b      	ldrh	r3, [r7, #0]
    3c4e:	3b01      	subs	r3, #1
    3c50:	803b      	strh	r3, [r7, #0]
    3c52:	78a3      	ldrb	r3, [r4, #2]
    3c54:	2b00      	cmp	r3, #0
    3c56:	d006      	beq.n	3c66 <TIMER_task1_cb+0xc6>
    3c58:	3b01      	subs	r3, #1
    3c5a:	70a3      	strb	r3, [r4, #2]
    3c5c:	bdf7      	pop	{r0, r1, r2, r4, r5, r6, r7, pc}
    3c5e:	8032      	strh	r2, [r6, #0]
    3c60:	e7df      	b.n	3c22 <TIMER_task1_cb+0x82>
    3c62:	803a      	strh	r2, [r7, #0]
    3c64:	e7f5      	b.n	3c52 <TIMER_task1_cb+0xb2>
    3c66:	2307      	movs	r3, #7
    3c68:	70a3      	strb	r3, [r4, #2]
    3c6a:	7a2b      	ldrb	r3, [r5, #8]
    3c6c:	2b00      	cmp	r3, #0
    3c6e:	d05a      	beq.n	3d26 <TIMER_task1_cb+0x186>
    3c70:	3b01      	subs	r3, #1
    3c72:	722b      	strb	r3, [r5, #8]
    3c74:	68eb      	ldr	r3, [r5, #12]
    3c76:	2b00      	cmp	r3, #0
    3c78:	d001      	beq.n	3c7e <TIMER_task1_cb+0xde>
    3c7a:	3b01      	subs	r3, #1
    3c7c:	60eb      	str	r3, [r5, #12]
    3c7e:	88a3      	ldrh	r3, [r4, #4]
    3c80:	2b00      	cmp	r3, #0
    3c82:	d001      	beq.n	3c88 <TIMER_task1_cb+0xe8>
    3c84:	3b01      	subs	r3, #1
    3c86:	80a3      	strh	r3, [r4, #4]
    3c88:	88e3      	ldrh	r3, [r4, #6]
    3c8a:	2b00      	cmp	r3, #0
    3c8c:	d001      	beq.n	3c92 <TIMER_task1_cb+0xf2>
    3c8e:	3b01      	subs	r3, #1
    3c90:	80e3      	strh	r3, [r4, #6]
    3c92:	8923      	ldrh	r3, [r4, #8]
    3c94:	2b00      	cmp	r3, #0
    3c96:	d001      	beq.n	3c9c <TIMER_task1_cb+0xfc>
    3c98:	3b01      	subs	r3, #1
    3c9a:	8123      	strh	r3, [r4, #8]
    3c9c:	4c33      	ldr	r4, [pc, #204]	; (3d6c <TIMER_task1_cb+0x1cc>)
    3c9e:	78e3      	ldrb	r3, [r4, #3]
    3ca0:	2b00      	cmp	r3, #0
    3ca2:	d0db      	beq.n	3c5c <TIMER_task1_cb+0xbc>
    3ca4:	8a6a      	ldrh	r2, [r5, #18]
    3ca6:	8a2b      	ldrh	r3, [r5, #16]
    3ca8:	3201      	adds	r2, #1
    3caa:	b292      	uxth	r2, r2
    3cac:	9201      	str	r2, [sp, #4]
    3cae:	466a      	mov	r2, sp
    3cb0:	3301      	adds	r3, #1
    3cb2:	8892      	ldrh	r2, [r2, #4]
    3cb4:	b29b      	uxth	r3, r3
    3cb6:	822b      	strh	r3, [r5, #16]
    3cb8:	826a      	strh	r2, [r5, #18]
    3cba:	8c22      	ldrh	r2, [r4, #32]
    3cbc:	429a      	cmp	r2, r3
    3cbe:	d820      	bhi.n	3d02 <TIMER_task1_cb+0x162>
    3cc0:	2300      	movs	r3, #0
    3cc2:	822b      	strh	r3, [r5, #16]
    3cc4:	8b66      	ldrh	r6, [r4, #26]
    3cc6:	8a63      	ldrh	r3, [r4, #18]
    3cc8:	429e      	cmp	r6, r3
    3cca:	d21a      	bcs.n	3d02 <TIMER_task1_cb+0x162>
    3ccc:	3601      	adds	r6, #1
    3cce:	b2b6      	uxth	r6, r6
    3cd0:	8366      	strh	r6, [r4, #26]
    3cd2:	42b3      	cmp	r3, r6
    3cd4:	d803      	bhi.n	3cde <TIMER_task1_cb+0x13e>
    3cd6:	8b22      	ldrh	r2, [r4, #24]
    3cd8:	8a23      	ldrh	r3, [r4, #16]
    3cda:	429a      	cmp	r2, r3
    3cdc:	d003      	beq.n	3ce6 <TIMER_task1_cb+0x146>
    3cde:	8b22      	ldrh	r2, [r4, #24]
    3ce0:	8a23      	ldrh	r3, [r4, #16]
    3ce2:	429a      	cmp	r2, r3
    3ce4:	d901      	bls.n	3cea <TIMER_task1_cb+0x14a>
    3ce6:	2301      	movs	r3, #1
    3ce8:	7063      	strb	r3, [r4, #1]
    3cea:	8aa1      	ldrh	r1, [r4, #20]
    3cec:	2900      	cmp	r1, #0
    3cee:	d125      	bne.n	3d3c <TIMER_task1_cb+0x19c>
    3cf0:	8ae3      	ldrh	r3, [r4, #22]
    3cf2:	2b00      	cmp	r3, #0
    3cf4:	d001      	beq.n	3cfa <TIMER_task1_cb+0x15a>
    3cf6:	429e      	cmp	r6, r3
    3cf8:	d103      	bne.n	3d02 <TIMER_task1_cb+0x162>
    3cfa:	2301      	movs	r3, #1
    3cfc:	7163      	strb	r3, [r4, #5]
    3cfe:	4b1f      	ldr	r3, [pc, #124]	; (3d7c <TIMER_task1_cb+0x1dc>)
    3d00:	803b      	strh	r3, [r7, #0]
    3d02:	9b01      	ldr	r3, [sp, #4]
    3d04:	6a62      	ldr	r2, [r4, #36]	; 0x24
    3d06:	4293      	cmp	r3, r2
    3d08:	d3a8      	bcc.n	3c5c <TIMER_task1_cb+0xbc>
    3d0a:	2200      	movs	r2, #0
    3d0c:	826a      	strh	r2, [r5, #18]
    3d0e:	822a      	strh	r2, [r5, #16]
    3d10:	8b23      	ldrh	r3, [r4, #24]
    3d12:	8a21      	ldrh	r1, [r4, #16]
    3d14:	3301      	adds	r3, #1
    3d16:	b29b      	uxth	r3, r3
    3d18:	8323      	strh	r3, [r4, #24]
    3d1a:	4299      	cmp	r1, r3
    3d1c:	d201      	bcs.n	3d22 <TIMER_task1_cb+0x182>
    3d1e:	2301      	movs	r3, #1
    3d20:	7063      	strb	r3, [r4, #1]
    3d22:	8362      	strh	r2, [r4, #26]
    3d24:	e79a      	b.n	3c5c <TIMER_task1_cb+0xbc>
    3d26:	2305      	movs	r3, #5
    3d28:	21f4      	movs	r1, #244	; 0xf4
    3d2a:	4a16      	ldr	r2, [pc, #88]	; (3d84 <TIMER_task1_cb+0x1e4>)
    3d2c:	722b      	strb	r3, [r5, #8]
    3d2e:	8813      	ldrh	r3, [r2, #0]
    3d30:	31ff      	adds	r1, #255	; 0xff
    3d32:	428b      	cmp	r3, r1
    3d34:	d89e      	bhi.n	3c74 <TIMER_task1_cb+0xd4>
    3d36:	3301      	adds	r3, #1
    3d38:	8013      	strh	r3, [r2, #0]
    3d3a:	e79b      	b.n	3c74 <TIMER_task1_cb+0xd4>
    3d3c:	8b20      	ldrh	r0, [r4, #24]
    3d3e:	4b12      	ldr	r3, [pc, #72]	; (3d88 <TIMER_task1_cb+0x1e8>)
    3d40:	3801      	subs	r0, #1
    3d42:	4798      	blx	r3
    3d44:	2900      	cmp	r1, #0
    3d46:	d0d3      	beq.n	3cf0 <TIMER_task1_cb+0x150>
    3d48:	e7db      	b.n	3d02 <TIMER_task1_cb+0x162>
    3d4a:	46c0      	nop			; (mov r8, r8)
    3d4c:	2000073c 	.word	0x2000073c
    3d50:	20000000 	.word	0x20000000
    3d54:	00000c82 	.word	0x00000c82
    3d58:	0000865c 	.word	0x0000865c
    3d5c:	20000948 	.word	0x20000948
    3d60:	00000dd9 	.word	0x00000dd9
    3d64:	00009f5c 	.word	0x00009f5c
    3d68:	20000182 	.word	0x20000182
    3d6c:	20000a3c 	.word	0x20000a3c
    3d70:	0000047c 	.word	0x0000047c
    3d74:	0000a1dc 	.word	0x0000a1dc
    3d78:	20000180 	.word	0x20000180
    3d7c:	000003d6 	.word	0x000003d6
    3d80:	0000aadc 	.word	0x0000aadc
    3d84:	2000017e 	.word	0x2000017e
    3d88:	00006fb5 	.word	0x00006fb5

00003d8c <sync_trigger>:
    3d8c:	b510      	push	{r4, lr}
    3d8e:	4c1c      	ldr	r4, [pc, #112]	; (3e00 <sync_trigger+0x74>)
    3d90:	78a3      	ldrb	r3, [r4, #2]
    3d92:	2b00      	cmp	r3, #0
    3d94:	d021      	beq.n	3dda <sync_trigger+0x4e>
    3d96:	4b1b      	ldr	r3, [pc, #108]	; (3e04 <sync_trigger+0x78>)
    3d98:	889a      	ldrh	r2, [r3, #4]
    3d9a:	2a00      	cmp	r2, #0
    3d9c:	d11d      	bne.n	3dda <sync_trigger+0x4e>
    3d9e:	3232      	adds	r2, #50	; 0x32
    3da0:	809a      	strh	r2, [r3, #4]
    3da2:	8b63      	ldrh	r3, [r4, #26]
    3da4:	8a61      	ldrh	r1, [r4, #18]
    3da6:	3301      	adds	r3, #1
    3da8:	b29b      	uxth	r3, r3
    3daa:	8363      	strh	r3, [r4, #26]
    3dac:	428b      	cmp	r3, r1
    3dae:	d303      	bcc.n	3db8 <sync_trigger+0x2c>
    3db0:	8b20      	ldrh	r0, [r4, #24]
    3db2:	8a22      	ldrh	r2, [r4, #16]
    3db4:	4290      	cmp	r0, r2
    3db6:	d003      	beq.n	3dc0 <sync_trigger+0x34>
    3db8:	8b22      	ldrh	r2, [r4, #24]
    3dba:	8a20      	ldrh	r0, [r4, #16]
    3dbc:	4290      	cmp	r0, r2
    3dbe:	d20d      	bcs.n	3ddc <sync_trigger+0x50>
    3dc0:	2301      	movs	r3, #1
    3dc2:	7063      	strb	r3, [r4, #1]
    3dc4:	8aa1      	ldrh	r1, [r4, #20]
    3dc6:	2900      	cmp	r1, #0
    3dc8:	d112      	bne.n	3df0 <sync_trigger+0x64>
    3dca:	8ae3      	ldrh	r3, [r4, #22]
    3dcc:	2b00      	cmp	r3, #0
    3dce:	d002      	beq.n	3dd6 <sync_trigger+0x4a>
    3dd0:	8b62      	ldrh	r2, [r4, #26]
    3dd2:	429a      	cmp	r2, r3
    3dd4:	d101      	bne.n	3dda <sync_trigger+0x4e>
    3dd6:	2301      	movs	r3, #1
    3dd8:	7163      	strb	r3, [r4, #5]
    3dda:	bd10      	pop	{r4, pc}
    3ddc:	428b      	cmp	r3, r1
    3dde:	d9f1      	bls.n	3dc4 <sync_trigger+0x38>
    3de0:	7863      	ldrb	r3, [r4, #1]
    3de2:	2b00      	cmp	r3, #0
    3de4:	d1ee      	bne.n	3dc4 <sync_trigger+0x38>
    3de6:	3201      	adds	r2, #1
    3de8:	3301      	adds	r3, #1
    3dea:	8322      	strh	r2, [r4, #24]
    3dec:	8363      	strh	r3, [r4, #26]
    3dee:	e7e9      	b.n	3dc4 <sync_trigger+0x38>
    3df0:	8b20      	ldrh	r0, [r4, #24]
    3df2:	4b05      	ldr	r3, [pc, #20]	; (3e08 <sync_trigger+0x7c>)
    3df4:	3801      	subs	r0, #1
    3df6:	4798      	blx	r3
    3df8:	2900      	cmp	r1, #0
    3dfa:	d0e6      	beq.n	3dca <sync_trigger+0x3e>
    3dfc:	e7ed      	b.n	3dda <sync_trigger+0x4e>
    3dfe:	46c0      	nop			; (mov r8, r8)
    3e00:	20000a3c 	.word	0x20000a3c
    3e04:	20000000 	.word	0x20000000
    3e08:	00006fb5 	.word	0x00006fb5

00003e0c <button>:
    3e0c:	b510      	push	{r4, lr}
    3e0e:	4c06      	ldr	r4, [pc, #24]	; (3e28 <button+0x1c>)
    3e10:	8923      	ldrh	r3, [r4, #8]
    3e12:	2b00      	cmp	r3, #0
    3e14:	d107      	bne.n	3e26 <button+0x1a>
    3e16:	4b05      	ldr	r3, [pc, #20]	; (3e2c <button+0x20>)
    3e18:	4805      	ldr	r0, [pc, #20]	; (3e30 <button+0x24>)
    3e1a:	4798      	blx	r3
    3e1c:	23c8      	movs	r3, #200	; 0xc8
    3e1e:	2201      	movs	r2, #1
    3e20:	8123      	strh	r3, [r4, #8]
    3e22:	4b04      	ldr	r3, [pc, #16]	; (3e34 <button+0x28>)
    3e24:	751a      	strb	r2, [r3, #20]
    3e26:	bd10      	pop	{r4, pc}
    3e28:	20000000 	.word	0x20000000
    3e2c:	00007191 	.word	0x00007191
    3e30:	0000b3b8 	.word	0x0000b3b8
    3e34:	2000073c 	.word	0x2000073c

00003e38 <TIMER_task2_cb>:
    3e38:	4b05      	ldr	r3, [pc, #20]	; (3e50 <TIMER_task2_cb+0x18>)
    3e3a:	b510      	push	{r4, lr}
    3e3c:	789a      	ldrb	r2, [r3, #2]
    3e3e:	2a00      	cmp	r2, #0
    3e40:	d004      	beq.n	3e4c <TIMER_task2_cb+0x14>
    3e42:	2200      	movs	r2, #0
    3e44:	4803      	ldr	r0, [pc, #12]	; (3e54 <TIMER_task2_cb+0x1c>)
    3e46:	709a      	strb	r2, [r3, #2]
    3e48:	4b03      	ldr	r3, [pc, #12]	; (3e58 <TIMER_task2_cb+0x20>)
    3e4a:	4798      	blx	r3
    3e4c:	bd10      	pop	{r4, pc}
    3e4e:	46c0      	nop			; (mov r8, r8)
    3e50:	2000073c 	.word	0x2000073c
    3e54:	2000091c 	.word	0x2000091c
    3e58:	00000d35 	.word	0x00000d35

00003e5c <write_flash>:
    3e5c:	b5f0      	push	{r4, r5, r6, r7, lr}
    3e5e:	4e4d      	ldr	r6, [pc, #308]	; (3f94 <write_flash+0x138>)
    3e60:	b085      	sub	sp, #20
    3e62:	8a71      	ldrh	r1, [r6, #18]
    3e64:	4d4c      	ldr	r5, [pc, #304]	; (3f98 <write_flash+0x13c>)
    3e66:	484d      	ldr	r0, [pc, #308]	; (3f9c <write_flash+0x140>)
    3e68:	9102      	str	r1, [sp, #8]
    3e6a:	47a8      	blx	r5
    3e6c:	21f8      	movs	r1, #248	; 0xf8
    3e6e:	ac02      	add	r4, sp, #8
    3e70:	2302      	movs	r3, #2
    3e72:	0022      	movs	r2, r4
    3e74:	0289      	lsls	r1, r1, #10
    3e76:	4f4a      	ldr	r7, [pc, #296]	; (3fa0 <write_flash+0x144>)
    3e78:	484a      	ldr	r0, [pc, #296]	; (3fa4 <write_flash+0x148>)
    3e7a:	47b8      	blx	r7
    3e7c:	7862      	ldrb	r2, [r4, #1]
    3e7e:	7821      	ldrb	r1, [r4, #0]
    3e80:	4849      	ldr	r0, [pc, #292]	; (3fa8 <write_flash+0x14c>)
    3e82:	47a8      	blx	r5
    3e84:	4b49      	ldr	r3, [pc, #292]	; (3fac <write_flash+0x150>)
    3e86:	200a      	movs	r0, #10
    3e88:	4798      	blx	r3
    3e8a:	8a31      	ldrh	r1, [r6, #16]
    3e8c:	4848      	ldr	r0, [pc, #288]	; (3fb0 <write_flash+0x154>)
    3e8e:	9102      	str	r1, [sp, #8]
    3e90:	47a8      	blx	r5
    3e92:	2302      	movs	r3, #2
    3e94:	0022      	movs	r2, r4
    3e96:	4947      	ldr	r1, [pc, #284]	; (3fb4 <write_flash+0x158>)
    3e98:	4f41      	ldr	r7, [pc, #260]	; (3fa0 <write_flash+0x144>)
    3e9a:	4842      	ldr	r0, [pc, #264]	; (3fa4 <write_flash+0x148>)
    3e9c:	47b8      	blx	r7
    3e9e:	7862      	ldrb	r2, [r4, #1]
    3ea0:	7821      	ldrb	r1, [r4, #0]
    3ea2:	4845      	ldr	r0, [pc, #276]	; (3fb8 <write_flash+0x15c>)
    3ea4:	47a8      	blx	r5
    3ea6:	4b41      	ldr	r3, [pc, #260]	; (3fac <write_flash+0x150>)
    3ea8:	200a      	movs	r0, #10
    3eaa:	4798      	blx	r3
    3eac:	8af1      	ldrh	r1, [r6, #22]
    3eae:	4843      	ldr	r0, [pc, #268]	; (3fbc <write_flash+0x160>)
    3eb0:	9102      	str	r1, [sp, #8]
    3eb2:	47a8      	blx	r5
    3eb4:	2302      	movs	r3, #2
    3eb6:	0022      	movs	r2, r4
    3eb8:	4941      	ldr	r1, [pc, #260]	; (3fc0 <write_flash+0x164>)
    3eba:	4f39      	ldr	r7, [pc, #228]	; (3fa0 <write_flash+0x144>)
    3ebc:	4839      	ldr	r0, [pc, #228]	; (3fa4 <write_flash+0x148>)
    3ebe:	47b8      	blx	r7
    3ec0:	7862      	ldrb	r2, [r4, #1]
    3ec2:	7821      	ldrb	r1, [r4, #0]
    3ec4:	483f      	ldr	r0, [pc, #252]	; (3fc4 <write_flash+0x168>)
    3ec6:	47a8      	blx	r5
    3ec8:	4b38      	ldr	r3, [pc, #224]	; (3fac <write_flash+0x150>)
    3eca:	200a      	movs	r0, #10
    3ecc:	4798      	blx	r3
    3ece:	8ab1      	ldrh	r1, [r6, #20]
    3ed0:	483d      	ldr	r0, [pc, #244]	; (3fc8 <write_flash+0x16c>)
    3ed2:	9102      	str	r1, [sp, #8]
    3ed4:	47a8      	blx	r5
    3ed6:	2302      	movs	r3, #2
    3ed8:	0022      	movs	r2, r4
    3eda:	493c      	ldr	r1, [pc, #240]	; (3fcc <write_flash+0x170>)
    3edc:	4f30      	ldr	r7, [pc, #192]	; (3fa0 <write_flash+0x144>)
    3ede:	4831      	ldr	r0, [pc, #196]	; (3fa4 <write_flash+0x148>)
    3ee0:	47b8      	blx	r7
    3ee2:	7862      	ldrb	r2, [r4, #1]
    3ee4:	7821      	ldrb	r1, [r4, #0]
    3ee6:	483a      	ldr	r0, [pc, #232]	; (3fd0 <write_flash+0x174>)
    3ee8:	47a8      	blx	r5
    3eea:	4b30      	ldr	r3, [pc, #192]	; (3fac <write_flash+0x150>)
    3eec:	200a      	movs	r0, #10
    3eee:	4798      	blx	r3
    3ef0:	8c31      	ldrh	r1, [r6, #32]
    3ef2:	4838      	ldr	r0, [pc, #224]	; (3fd4 <write_flash+0x178>)
    3ef4:	9102      	str	r1, [sp, #8]
    3ef6:	47a8      	blx	r5
    3ef8:	2302      	movs	r3, #2
    3efa:	0022      	movs	r2, r4
    3efc:	4936      	ldr	r1, [pc, #216]	; (3fd8 <write_flash+0x17c>)
    3efe:	4f28      	ldr	r7, [pc, #160]	; (3fa0 <write_flash+0x144>)
    3f00:	4828      	ldr	r0, [pc, #160]	; (3fa4 <write_flash+0x148>)
    3f02:	47b8      	blx	r7
    3f04:	7862      	ldrb	r2, [r4, #1]
    3f06:	7821      	ldrb	r1, [r4, #0]
    3f08:	4834      	ldr	r0, [pc, #208]	; (3fdc <write_flash+0x180>)
    3f0a:	47a8      	blx	r5
    3f0c:	200a      	movs	r0, #10
    3f0e:	4b27      	ldr	r3, [pc, #156]	; (3fac <write_flash+0x150>)
    3f10:	4798      	blx	r3
    3f12:	6a73      	ldr	r3, [r6, #36]	; 0x24
    3f14:	4832      	ldr	r0, [pc, #200]	; (3fe0 <write_flash+0x184>)
    3f16:	0019      	movs	r1, r3
    3f18:	9303      	str	r3, [sp, #12]
    3f1a:	47a8      	blx	r5
    3f1c:	aa03      	add	r2, sp, #12
    3f1e:	2304      	movs	r3, #4
    3f20:	4930      	ldr	r1, [pc, #192]	; (3fe4 <write_flash+0x188>)
    3f22:	4f1f      	ldr	r7, [pc, #124]	; (3fa0 <write_flash+0x144>)
    3f24:	481f      	ldr	r0, [pc, #124]	; (3fa4 <write_flash+0x148>)
    3f26:	47b8      	blx	r7
    3f28:	4668      	mov	r0, sp
    3f2a:	466b      	mov	r3, sp
    3f2c:	466a      	mov	r2, sp
    3f2e:	4669      	mov	r1, sp
    3f30:	7bc0      	ldrb	r0, [r0, #15]
    3f32:	7b52      	ldrb	r2, [r2, #13]
    3f34:	7b09      	ldrb	r1, [r1, #12]
    3f36:	7b9b      	ldrb	r3, [r3, #14]
    3f38:	9000      	str	r0, [sp, #0]
    3f3a:	482b      	ldr	r0, [pc, #172]	; (3fe8 <write_flash+0x18c>)
    3f3c:	47a8      	blx	r5
    3f3e:	200a      	movs	r0, #10
    3f40:	4b1a      	ldr	r3, [pc, #104]	; (3fac <write_flash+0x150>)
    3f42:	4798      	blx	r3
    3f44:	7ab1      	ldrb	r1, [r6, #10]
    3f46:	7af3      	ldrb	r3, [r6, #11]
    3f48:	0209      	lsls	r1, r1, #8
    3f4a:	18c9      	adds	r1, r1, r3
    3f4c:	4827      	ldr	r0, [pc, #156]	; (3fec <write_flash+0x190>)
    3f4e:	9102      	str	r1, [sp, #8]
    3f50:	47a8      	blx	r5
    3f52:	2302      	movs	r3, #2
    3f54:	0022      	movs	r2, r4
    3f56:	4926      	ldr	r1, [pc, #152]	; (3ff0 <write_flash+0x194>)
    3f58:	4f11      	ldr	r7, [pc, #68]	; (3fa0 <write_flash+0x144>)
    3f5a:	4812      	ldr	r0, [pc, #72]	; (3fa4 <write_flash+0x148>)
    3f5c:	47b8      	blx	r7
    3f5e:	7822      	ldrb	r2, [r4, #0]
    3f60:	7861      	ldrb	r1, [r4, #1]
    3f62:	4824      	ldr	r0, [pc, #144]	; (3ff4 <write_flash+0x198>)
    3f64:	47a8      	blx	r5
    3f66:	4b11      	ldr	r3, [pc, #68]	; (3fac <write_flash+0x150>)
    3f68:	200a      	movs	r0, #10
    3f6a:	4798      	blx	r3
    3f6c:	89f1      	ldrh	r1, [r6, #14]
    3f6e:	4822      	ldr	r0, [pc, #136]	; (3ff8 <write_flash+0x19c>)
    3f70:	9102      	str	r1, [sp, #8]
    3f72:	47a8      	blx	r5
    3f74:	2302      	movs	r3, #2
    3f76:	0022      	movs	r2, r4
    3f78:	4920      	ldr	r1, [pc, #128]	; (3ffc <write_flash+0x1a0>)
    3f7a:	4e09      	ldr	r6, [pc, #36]	; (3fa0 <write_flash+0x144>)
    3f7c:	4809      	ldr	r0, [pc, #36]	; (3fa4 <write_flash+0x148>)
    3f7e:	47b0      	blx	r6
    3f80:	7862      	ldrb	r2, [r4, #1]
    3f82:	7821      	ldrb	r1, [r4, #0]
    3f84:	481e      	ldr	r0, [pc, #120]	; (4000 <write_flash+0x1a4>)
    3f86:	47a8      	blx	r5
    3f88:	200a      	movs	r0, #10
    3f8a:	4b08      	ldr	r3, [pc, #32]	; (3fac <write_flash+0x150>)
    3f8c:	4798      	blx	r3
    3f8e:	b005      	add	sp, #20
    3f90:	bdf0      	pop	{r4, r5, r6, r7, pc}
    3f92:	46c0      	nop			; (mov r8, r8)
    3f94:	20000a3c 	.word	0x20000a3c
    3f98:	0000709d 	.word	0x0000709d
    3f9c:	0000b3c8 	.word	0x0000b3c8
    3fa0:	00000fc5 	.word	0x00000fc5
    3fa4:	20000900 	.word	0x20000900
    3fa8:	0000b3e7 	.word	0x0000b3e7
    3fac:	00000e39 	.word	0x00000e39
    3fb0:	0000b40c 	.word	0x0000b40c
    3fb4:	0003e002 	.word	0x0003e002
    3fb8:	0000b42c 	.word	0x0000b42c
    3fbc:	0000b452 	.word	0x0000b452
    3fc0:	0003e004 	.word	0x0003e004
    3fc4:	0000b473 	.word	0x0000b473
    3fc8:	0000b49a 	.word	0x0000b49a
    3fcc:	0003e006 	.word	0x0003e006
    3fd0:	0000b4bc 	.word	0x0000b4bc
    3fd4:	0000b4e4 	.word	0x0000b4e4
    3fd8:	0003e008 	.word	0x0003e008
    3fdc:	0000b503 	.word	0x0000b503
    3fe0:	0000b528 	.word	0x0000b528
    3fe4:	0003e00a 	.word	0x0003e00a
    3fe8:	0000b543 	.word	0x0000b543
    3fec:	0000b56b 	.word	0x0000b56b
    3ff0:	0003e00e 	.word	0x0003e00e
    3ff4:	0000b596 	.word	0x0000b596
    3ff8:	0000b5c7 	.word	0x0000b5c7
    3ffc:	0003e010 	.word	0x0003e010
    4000:	0000b5e6 	.word	0x0000b5e6

00004004 <read_flash>:
    4004:	b5f8      	push	{r3, r4, r5, r6, r7, lr}
    4006:	4869      	ldr	r0, [pc, #420]	; (41ac <read_flash+0x1a8>)
    4008:	4b69      	ldr	r3, [pc, #420]	; (41b0 <read_flash+0x1ac>)
    400a:	4798      	blx	r3
    400c:	4c69      	ldr	r4, [pc, #420]	; (41b4 <read_flash+0x1b0>)
    400e:	21f8      	movs	r1, #248	; 0xf8
    4010:	0026      	movs	r6, r4
    4012:	4d69      	ldr	r5, [pc, #420]	; (41b8 <read_flash+0x1b4>)
    4014:	3615      	adds	r6, #21
    4016:	0032      	movs	r2, r6
    4018:	2302      	movs	r3, #2
    401a:	0289      	lsls	r1, r1, #10
    401c:	0028      	movs	r0, r5
    401e:	4f67      	ldr	r7, [pc, #412]	; (41bc <read_flash+0x1b8>)
    4020:	47b8      	blx	r7
    4022:	7873      	ldrb	r3, [r6, #1]
    4024:	7d61      	ldrb	r1, [r4, #21]
    4026:	021b      	lsls	r3, r3, #8
    4028:	4e65      	ldr	r6, [pc, #404]	; (41c0 <read_flash+0x1bc>)
    402a:	18c9      	adds	r1, r1, r3
    402c:	b289      	uxth	r1, r1
    402e:	4b65      	ldr	r3, [pc, #404]	; (41c4 <read_flash+0x1c0>)
    4030:	4865      	ldr	r0, [pc, #404]	; (41c8 <read_flash+0x1c4>)
    4032:	8271      	strh	r1, [r6, #18]
    4034:	4798      	blx	r3
    4036:	8a73      	ldrh	r3, [r6, #18]
    4038:	4a64      	ldr	r2, [pc, #400]	; (41cc <read_flash+0x1c8>)
    403a:	3b01      	subs	r3, #1
    403c:	b29b      	uxth	r3, r3
    403e:	4293      	cmp	r3, r2
    4040:	d901      	bls.n	4046 <read_flash+0x42>
    4042:	2319      	movs	r3, #25
    4044:	8273      	strh	r3, [r6, #18]
    4046:	0026      	movs	r6, r4
    4048:	3615      	adds	r6, #21
    404a:	0032      	movs	r2, r6
    404c:	2302      	movs	r3, #2
    404e:	4960      	ldr	r1, [pc, #384]	; (41d0 <read_flash+0x1cc>)
    4050:	0028      	movs	r0, r5
    4052:	4f5a      	ldr	r7, [pc, #360]	; (41bc <read_flash+0x1b8>)
    4054:	47b8      	blx	r7
    4056:	7873      	ldrb	r3, [r6, #1]
    4058:	7d61      	ldrb	r1, [r4, #21]
    405a:	021b      	lsls	r3, r3, #8
    405c:	4e58      	ldr	r6, [pc, #352]	; (41c0 <read_flash+0x1bc>)
    405e:	18c9      	adds	r1, r1, r3
    4060:	b289      	uxth	r1, r1
    4062:	4b58      	ldr	r3, [pc, #352]	; (41c4 <read_flash+0x1c0>)
    4064:	485b      	ldr	r0, [pc, #364]	; (41d4 <read_flash+0x1d0>)
    4066:	8231      	strh	r1, [r6, #16]
    4068:	4798      	blx	r3
    406a:	8a33      	ldrh	r3, [r6, #16]
    406c:	4a5a      	ldr	r2, [pc, #360]	; (41d8 <read_flash+0x1d4>)
    406e:	3b01      	subs	r3, #1
    4070:	b29b      	uxth	r3, r3
    4072:	4293      	cmp	r3, r2
    4074:	d901      	bls.n	407a <read_flash+0x76>
    4076:	2364      	movs	r3, #100	; 0x64
    4078:	8233      	strh	r3, [r6, #16]
    407a:	0026      	movs	r6, r4
    407c:	3615      	adds	r6, #21
    407e:	0032      	movs	r2, r6
    4080:	2302      	movs	r3, #2
    4082:	4956      	ldr	r1, [pc, #344]	; (41dc <read_flash+0x1d8>)
    4084:	0028      	movs	r0, r5
    4086:	4f4d      	ldr	r7, [pc, #308]	; (41bc <read_flash+0x1b8>)
    4088:	47b8      	blx	r7
    408a:	7873      	ldrb	r3, [r6, #1]
    408c:	7d61      	ldrb	r1, [r4, #21]
    408e:	021b      	lsls	r3, r3, #8
    4090:	4e4b      	ldr	r6, [pc, #300]	; (41c0 <read_flash+0x1bc>)
    4092:	18c9      	adds	r1, r1, r3
    4094:	b289      	uxth	r1, r1
    4096:	4b4b      	ldr	r3, [pc, #300]	; (41c4 <read_flash+0x1c0>)
    4098:	4851      	ldr	r0, [pc, #324]	; (41e0 <read_flash+0x1dc>)
    409a:	82f1      	strh	r1, [r6, #22]
    409c:	4798      	blx	r3
    409e:	4b51      	ldr	r3, [pc, #324]	; (41e4 <read_flash+0x1e0>)
    40a0:	8af2      	ldrh	r2, [r6, #22]
    40a2:	429a      	cmp	r2, r3
    40a4:	d901      	bls.n	40aa <read_flash+0xa6>
    40a6:	2300      	movs	r3, #0
    40a8:	82f3      	strh	r3, [r6, #22]
    40aa:	0026      	movs	r6, r4
    40ac:	3615      	adds	r6, #21
    40ae:	0032      	movs	r2, r6
    40b0:	2302      	movs	r3, #2
    40b2:	494d      	ldr	r1, [pc, #308]	; (41e8 <read_flash+0x1e4>)
    40b4:	0028      	movs	r0, r5
    40b6:	4f41      	ldr	r7, [pc, #260]	; (41bc <read_flash+0x1b8>)
    40b8:	47b8      	blx	r7
    40ba:	7873      	ldrb	r3, [r6, #1]
    40bc:	7d61      	ldrb	r1, [r4, #21]
    40be:	021b      	lsls	r3, r3, #8
    40c0:	4e3f      	ldr	r6, [pc, #252]	; (41c0 <read_flash+0x1bc>)
    40c2:	18c9      	adds	r1, r1, r3
    40c4:	b289      	uxth	r1, r1
    40c6:	4b3f      	ldr	r3, [pc, #252]	; (41c4 <read_flash+0x1c0>)
    40c8:	4848      	ldr	r0, [pc, #288]	; (41ec <read_flash+0x1e8>)
    40ca:	82b1      	strh	r1, [r6, #20]
    40cc:	4798      	blx	r3
    40ce:	4b48      	ldr	r3, [pc, #288]	; (41f0 <read_flash+0x1ec>)
    40d0:	8ab2      	ldrh	r2, [r6, #20]
    40d2:	429a      	cmp	r2, r3
    40d4:	d901      	bls.n	40da <read_flash+0xd6>
    40d6:	2300      	movs	r3, #0
    40d8:	82b3      	strh	r3, [r6, #20]
    40da:	0026      	movs	r6, r4
    40dc:	3615      	adds	r6, #21
    40de:	0032      	movs	r2, r6
    40e0:	2302      	movs	r3, #2
    40e2:	4944      	ldr	r1, [pc, #272]	; (41f4 <read_flash+0x1f0>)
    40e4:	0028      	movs	r0, r5
    40e6:	4f35      	ldr	r7, [pc, #212]	; (41bc <read_flash+0x1b8>)
    40e8:	47b8      	blx	r7
    40ea:	7873      	ldrb	r3, [r6, #1]
    40ec:	7d61      	ldrb	r1, [r4, #21]
    40ee:	021b      	lsls	r3, r3, #8
    40f0:	4e33      	ldr	r6, [pc, #204]	; (41c0 <read_flash+0x1bc>)
    40f2:	18c9      	adds	r1, r1, r3
    40f4:	b289      	uxth	r1, r1
    40f6:	4b33      	ldr	r3, [pc, #204]	; (41c4 <read_flash+0x1c0>)
    40f8:	483f      	ldr	r0, [pc, #252]	; (41f8 <read_flash+0x1f4>)
    40fa:	8431      	strh	r1, [r6, #32]
    40fc:	4798      	blx	r3
    40fe:	8c33      	ldrh	r3, [r6, #32]
    4100:	4a3e      	ldr	r2, [pc, #248]	; (41fc <read_flash+0x1f8>)
    4102:	3b64      	subs	r3, #100	; 0x64
    4104:	b29b      	uxth	r3, r3
    4106:	4293      	cmp	r3, r2
    4108:	d901      	bls.n	410e <read_flash+0x10a>
    410a:	2364      	movs	r3, #100	; 0x64
    410c:	8433      	strh	r3, [r6, #32]
    410e:	0026      	movs	r6, r4
    4110:	3615      	adds	r6, #21
    4112:	0032      	movs	r2, r6
    4114:	2304      	movs	r3, #4
    4116:	493a      	ldr	r1, [pc, #232]	; (4200 <read_flash+0x1fc>)
    4118:	0028      	movs	r0, r5
    411a:	4f28      	ldr	r7, [pc, #160]	; (41bc <read_flash+0x1b8>)
    411c:	47b8      	blx	r7
    411e:	7871      	ldrb	r1, [r6, #1]
    4120:	7d63      	ldrb	r3, [r4, #21]
    4122:	0209      	lsls	r1, r1, #8
    4124:	18c9      	adds	r1, r1, r3
    4126:	78b3      	ldrb	r3, [r6, #2]
    4128:	4836      	ldr	r0, [pc, #216]	; (4204 <read_flash+0x200>)
    412a:	041b      	lsls	r3, r3, #16
    412c:	18c9      	adds	r1, r1, r3
    412e:	78f3      	ldrb	r3, [r6, #3]
    4130:	4e23      	ldr	r6, [pc, #140]	; (41c0 <read_flash+0x1bc>)
    4132:	061b      	lsls	r3, r3, #24
    4134:	18c9      	adds	r1, r1, r3
    4136:	4b23      	ldr	r3, [pc, #140]	; (41c4 <read_flash+0x1c0>)
    4138:	6271      	str	r1, [r6, #36]	; 0x24
    413a:	4798      	blx	r3
    413c:	8c32      	ldrh	r2, [r6, #32]
    413e:	8a73      	ldrh	r3, [r6, #18]
    4140:	4353      	muls	r3, r2
    4142:	4a31      	ldr	r2, [pc, #196]	; (4208 <read_flash+0x204>)
    4144:	4293      	cmp	r3, r2
    4146:	dd00      	ble.n	414a <read_flash+0x146>
    4148:	0013      	movs	r3, r2
    414a:	6a71      	ldr	r1, [r6, #36]	; 0x24
    414c:	428b      	cmp	r3, r1
    414e:	d900      	bls.n	4152 <read_flash+0x14e>
    4150:	6273      	str	r3, [r6, #36]	; 0x24
    4152:	6a73      	ldr	r3, [r6, #36]	; 0x24
    4154:	4293      	cmp	r3, r2
    4156:	d900      	bls.n	415a <read_flash+0x156>
    4158:	6272      	str	r2, [r6, #36]	; 0x24
    415a:	0026      	movs	r6, r4
    415c:	3615      	adds	r6, #21
    415e:	2302      	movs	r3, #2
    4160:	0028      	movs	r0, r5
    4162:	0032      	movs	r2, r6
    4164:	4929      	ldr	r1, [pc, #164]	; (420c <read_flash+0x208>)
    4166:	47b8      	blx	r7
    4168:	7873      	ldrb	r3, [r6, #1]
    416a:	4d15      	ldr	r5, [pc, #84]	; (41c0 <read_flash+0x1bc>)
    416c:	2b00      	cmp	r3, #0
    416e:	d000      	beq.n	4172 <read_flash+0x16e>
    4170:	2301      	movs	r3, #1
    4172:	72ab      	strb	r3, [r5, #10]
    4174:	7d63      	ldrb	r3, [r4, #21]
    4176:	2b00      	cmp	r3, #0
    4178:	d000      	beq.n	417c <read_flash+0x178>
    417a:	2301      	movs	r3, #1
    417c:	72eb      	strb	r3, [r5, #11]
    417e:	7aea      	ldrb	r2, [r5, #11]
    4180:	7aa9      	ldrb	r1, [r5, #10]
    4182:	4e10      	ldr	r6, [pc, #64]	; (41c4 <read_flash+0x1c0>)
    4184:	4822      	ldr	r0, [pc, #136]	; (4210 <read_flash+0x20c>)
    4186:	47b0      	blx	r6
    4188:	0022      	movs	r2, r4
    418a:	2302      	movs	r3, #2
    418c:	3215      	adds	r2, #21
    418e:	4921      	ldr	r1, [pc, #132]	; (4214 <read_flash+0x210>)
    4190:	4809      	ldr	r0, [pc, #36]	; (41b8 <read_flash+0x1b4>)
    4192:	4f0a      	ldr	r7, [pc, #40]	; (41bc <read_flash+0x1b8>)
    4194:	47b8      	blx	r7
    4196:	7d61      	ldrb	r1, [r4, #21]
    4198:	481f      	ldr	r0, [pc, #124]	; (4218 <read_flash+0x214>)
    419a:	81e9      	strh	r1, [r5, #14]
    419c:	47b0      	blx	r6
    419e:	89eb      	ldrh	r3, [r5, #14]
    41a0:	2b7f      	cmp	r3, #127	; 0x7f
    41a2:	d901      	bls.n	41a8 <read_flash+0x1a4>
    41a4:	2340      	movs	r3, #64	; 0x40
    41a6:	81eb      	strh	r3, [r5, #14]
    41a8:	bdf8      	pop	{r3, r4, r5, r6, r7, pc}
    41aa:	46c0      	nop			; (mov r8, r8)
    41ac:	0000b60b 	.word	0x0000b60b
    41b0:	00007191 	.word	0x00007191
    41b4:	2000073c 	.word	0x2000073c
    41b8:	20000900 	.word	0x20000900
    41bc:	00000f81 	.word	0x00000f81
    41c0:	20000a3c 	.word	0x20000a3c
    41c4:	0000709d 	.word	0x0000709d
    41c8:	0000b629 	.word	0x0000b629
    41cc:	000003e6 	.word	0x000003e6
    41d0:	0003e002 	.word	0x0003e002
    41d4:	0000b64c 	.word	0x0000b64c
    41d8:	0000270e 	.word	0x0000270e
    41dc:	0003e004 	.word	0x0003e004
    41e0:	0000b670 	.word	0x0000b670
    41e4:	000003e7 	.word	0x000003e7
    41e8:	0003e006 	.word	0x0003e006
    41ec:	0000b694 	.word	0x0000b694
    41f0:	0000270f 	.word	0x0000270f
    41f4:	0003e008 	.word	0x0003e008
    41f8:	0000b6b9 	.word	0x0000b6b9
    41fc:	00000383 	.word	0x00000383
    4200:	0003e00a 	.word	0x0003e00a
    4204:	0000b6dc 	.word	0x0000b6dc
    4208:	000f423f 	.word	0x000f423f
    420c:	0003e00e 	.word	0x0003e00e
    4210:	0000b6fb 	.word	0x0000b6fb
    4214:	0003e010 	.word	0x0003e010
    4218:	0000b71e 	.word	0x0000b71e

0000421c <resync>:
    421c:	b510      	push	{r4, lr}
    421e:	4802      	ldr	r0, [pc, #8]	; (4228 <resync+0xc>)
    4220:	4b02      	ldr	r3, [pc, #8]	; (422c <resync+0x10>)
    4222:	4798      	blx	r3
    4224:	bd10      	pop	{r4, pc}
    4226:	46c0      	nop			; (mov r8, r8)
    4228:	0000b741 	.word	0x0000b741
    422c:	0000709d 	.word	0x0000709d

00004230 <io_write_clear_ack>:
    4230:	b5f7      	push	{r0, r1, r2, r4, r5, r6, r7, lr}
    4232:	27c8      	movs	r7, #200	; 0xc8
    4234:	9000      	str	r0, [sp, #0]
    4236:	9101      	str	r1, [sp, #4]
    4238:	007f      	lsls	r7, r7, #1
    423a:	4c1b      	ldr	r4, [pc, #108]	; (42a8 <io_write_clear_ack+0x78>)
    423c:	7823      	ldrb	r3, [r4, #0]
    423e:	2b00      	cmp	r3, #0
    4240:	d014      	beq.n	426c <io_write_clear_ack+0x3c>
    4242:	2300      	movs	r3, #0
    4244:	7023      	strb	r3, [r4, #0]
    4246:	9c00      	ldr	r4, [sp, #0]
    4248:	9b01      	ldr	r3, [sp, #4]
    424a:	18e7      	adds	r7, r4, r3
    424c:	42bc      	cmp	r4, r7
    424e:	d100      	bne.n	4252 <io_write_clear_ack+0x22>
    4250:	bdf7      	pop	{r0, r1, r2, r4, r5, r6, r7, pc}
    4252:	4d16      	ldr	r5, [pc, #88]	; (42ac <io_write_clear_ack+0x7c>)
    4254:	2201      	movs	r2, #1
    4256:	0021      	movs	r1, r4
    4258:	0028      	movs	r0, r5
    425a:	4b15      	ldr	r3, [pc, #84]	; (42b0 <io_write_clear_ack+0x80>)
    425c:	4798      	blx	r3
    425e:	0028      	movs	r0, r5
    4260:	4b14      	ldr	r3, [pc, #80]	; (42b4 <io_write_clear_ack+0x84>)
    4262:	4798      	blx	r3
    4264:	2801      	cmp	r0, #1
    4266:	d1fa      	bne.n	425e <io_write_clear_ack+0x2e>
    4268:	3401      	adds	r4, #1
    426a:	e7ef      	b.n	424c <io_write_clear_ack+0x1c>
    426c:	4812      	ldr	r0, [pc, #72]	; (42b8 <io_write_clear_ack+0x88>)
    426e:	4d13      	ldr	r5, [pc, #76]	; (42bc <io_write_clear_ack+0x8c>)
    4270:	47a8      	blx	r5
    4272:	4e13      	ldr	r6, [pc, #76]	; (42c0 <io_write_clear_ack+0x90>)
    4274:	60f7      	str	r7, [r6, #12]
    4276:	68f3      	ldr	r3, [r6, #12]
    4278:	2b00      	cmp	r3, #0
    427a:	d005      	beq.n	4288 <io_write_clear_ack+0x58>
    427c:	4b11      	ldr	r3, [pc, #68]	; (42c4 <io_write_clear_ack+0x94>)
    427e:	2064      	movs	r0, #100	; 0x64
    4280:	4798      	blx	r3
    4282:	7823      	ldrb	r3, [r4, #0]
    4284:	2b00      	cmp	r3, #0
    4286:	d0f6      	beq.n	4276 <io_write_clear_ack+0x46>
    4288:	7823      	ldrb	r3, [r4, #0]
    428a:	2b00      	cmp	r3, #0
    428c:	d102      	bne.n	4294 <io_write_clear_ack+0x64>
    428e:	4b0e      	ldr	r3, [pc, #56]	; (42c8 <io_write_clear_ack+0x98>)
    4290:	4798      	blx	r3
    4292:	e7dd      	b.n	4250 <io_write_clear_ack+0x20>
    4294:	480d      	ldr	r0, [pc, #52]	; (42cc <io_write_clear_ack+0x9c>)
    4296:	47a8      	blx	r5
    4298:	68f1      	ldr	r1, [r6, #12]
    429a:	4b0d      	ldr	r3, [pc, #52]	; (42d0 <io_write_clear_ack+0xa0>)
    429c:	1a79      	subs	r1, r7, r1
    429e:	480d      	ldr	r0, [pc, #52]	; (42d4 <io_write_clear_ack+0xa4>)
    42a0:	4798      	blx	r3
    42a2:	480d      	ldr	r0, [pc, #52]	; (42d8 <io_write_clear_ack+0xa8>)
    42a4:	47a8      	blx	r5
    42a6:	e7c8      	b.n	423a <io_write_clear_ack+0xa>
    42a8:	20000a64 	.word	0x20000a64
    42ac:	200009a8 	.word	0x200009a8
    42b0:	0000115d 	.word	0x0000115d
    42b4:	00001531 	.word	0x00001531
    42b8:	0000b759 	.word	0x0000b759
    42bc:	00007191 	.word	0x00007191
    42c0:	2000073c 	.word	0x2000073c
    42c4:	00000e19 	.word	0x00000e19
    42c8:	0000421d 	.word	0x0000421d
    42cc:	0000b768 	.word	0x0000b768
    42d0:	0000709d 	.word	0x0000709d
    42d4:	0000b784 	.word	0x0000b784
    42d8:	0000b79b 	.word	0x0000b79b

000042dc <getCRC>:
    42dc:	0003      	movs	r3, r0
    42de:	1841      	adds	r1, r0, r1
    42e0:	2000      	movs	r0, #0
    42e2:	428b      	cmp	r3, r1
    42e4:	d100      	bne.n	42e8 <getCRC+0xc>
    42e6:	4770      	bx	lr
    42e8:	781a      	ldrb	r2, [r3, #0]
    42ea:	3301      	adds	r3, #1
    42ec:	4050      	eors	r0, r2
    42ee:	e7f8      	b.n	42e2 <getCRC+0x6>

000042f0 <print_no>:
    42f0:	b5f8      	push	{r3, r4, r5, r6, r7, lr}
    42f2:	4c11      	ldr	r4, [pc, #68]	; (4338 <print_no+0x48>)
    42f4:	4a11      	ldr	r2, [pc, #68]	; (433c <print_no+0x4c>)
    42f6:	0006      	movs	r6, r0
    42f8:	000f      	movs	r7, r1
    42fa:	0003      	movs	r3, r0
    42fc:	2119      	movs	r1, #25
    42fe:	0020      	movs	r0, r4
    4300:	4d0f      	ldr	r5, [pc, #60]	; (4340 <print_no+0x50>)
    4302:	47a8      	blx	r5
    4304:	2302      	movs	r3, #2
    4306:	b2c5      	uxtb	r5, r0
    4308:	7023      	strb	r3, [r4, #0]
    430a:	1eeb      	subs	r3, r5, #3
    430c:	7067      	strb	r7, [r4, #1]
    430e:	70a3      	strb	r3, [r4, #2]
    4310:	b2c7      	uxtb	r7, r0
    4312:	0029      	movs	r1, r5
    4314:	4b0b      	ldr	r3, [pc, #44]	; (4344 <print_no+0x54>)
    4316:	0020      	movs	r0, r4
    4318:	4798      	blx	r3
    431a:	2300      	movs	r3, #0
    431c:	55e0      	strb	r0, [r4, r7]
    431e:	3501      	adds	r5, #1
    4320:	19e7      	adds	r7, r4, r7
    4322:	707b      	strb	r3, [r7, #1]
    4324:	b2e9      	uxtb	r1, r5
    4326:	0020      	movs	r0, r4
    4328:	4b07      	ldr	r3, [pc, #28]	; (4348 <print_no+0x58>)
    432a:	4798      	blx	r3
    432c:	0031      	movs	r1, r6
    432e:	4b07      	ldr	r3, [pc, #28]	; (434c <print_no+0x5c>)
    4330:	4807      	ldr	r0, [pc, #28]	; (4350 <print_no+0x60>)
    4332:	4798      	blx	r3
    4334:	bdf8      	pop	{r3, r4, r5, r6, r7, pc}
    4336:	46c0      	nop			; (mov r8, r8)
    4338:	20000a81 	.word	0x20000a81
    433c:	0000b7a9 	.word	0x0000b7a9
    4340:	00007311 	.word	0x00007311
    4344:	000042dd 	.word	0x000042dd
    4348:	00004231 	.word	0x00004231
    434c:	0000709d 	.word	0x0000709d
    4350:	0000b7b0 	.word	0x0000b7b0

00004354 <switch_to_form>:
    4354:	b5f8      	push	{r3, r4, r5, r6, r7, lr}
    4356:	280b      	cmp	r0, #11
    4358:	d864      	bhi.n	4424 <switch_to_form+0xd0>
    435a:	f002 fc9d 	bl	6c98 <__gnu_thumb1_case_uqi>
    435e:	1206      	.short	0x1206
    4360:	7630261c 	.word	0x7630261c
    4364:	6398aca2 	.word	0x6398aca2
    4368:	e1b6      	.short	0xe1b6
    436a:	4b85      	ldr	r3, [pc, #532]	; (4580 <switch_to_form+0x22c>)
    436c:	4885      	ldr	r0, [pc, #532]	; (4584 <switch_to_form+0x230>)
    436e:	4798      	blx	r3
    4370:	4885      	ldr	r0, [pc, #532]	; (4588 <switch_to_form+0x234>)
    4372:	2106      	movs	r1, #6
    4374:	3018      	adds	r0, #24
    4376:	4b85      	ldr	r3, [pc, #532]	; (458c <switch_to_form+0x238>)
    4378:	4798      	blx	r3
    437a:	2000      	movs	r0, #0
    437c:	4b84      	ldr	r3, [pc, #528]	; (4590 <switch_to_form+0x23c>)
    437e:	4798      	blx	r3
    4380:	e050      	b.n	4424 <switch_to_form+0xd0>
    4382:	4b7f      	ldr	r3, [pc, #508]	; (4580 <switch_to_form+0x22c>)
    4384:	4883      	ldr	r0, [pc, #524]	; (4594 <switch_to_form+0x240>)
    4386:	4798      	blx	r3
    4388:	487f      	ldr	r0, [pc, #508]	; (4588 <switch_to_form+0x234>)
    438a:	2106      	movs	r1, #6
    438c:	301e      	adds	r0, #30
    438e:	4b7f      	ldr	r3, [pc, #508]	; (458c <switch_to_form+0x238>)
    4390:	4798      	blx	r3
    4392:	2001      	movs	r0, #1
    4394:	e7f2      	b.n	437c <switch_to_form+0x28>
    4396:	4b7a      	ldr	r3, [pc, #488]	; (4580 <switch_to_form+0x22c>)
    4398:	487f      	ldr	r0, [pc, #508]	; (4598 <switch_to_form+0x244>)
    439a:	4798      	blx	r3
    439c:	487a      	ldr	r0, [pc, #488]	; (4588 <switch_to_form+0x234>)
    439e:	2106      	movs	r1, #6
    43a0:	3024      	adds	r0, #36	; 0x24
    43a2:	4b7a      	ldr	r3, [pc, #488]	; (458c <switch_to_form+0x238>)
    43a4:	4798      	blx	r3
    43a6:	2002      	movs	r0, #2
    43a8:	e7e8      	b.n	437c <switch_to_form+0x28>
    43aa:	4b75      	ldr	r3, [pc, #468]	; (4580 <switch_to_form+0x22c>)
    43ac:	487b      	ldr	r0, [pc, #492]	; (459c <switch_to_form+0x248>)
    43ae:	4798      	blx	r3
    43b0:	4875      	ldr	r0, [pc, #468]	; (4588 <switch_to_form+0x234>)
    43b2:	2106      	movs	r1, #6
    43b4:	302a      	adds	r0, #42	; 0x2a
    43b6:	4b75      	ldr	r3, [pc, #468]	; (458c <switch_to_form+0x238>)
    43b8:	4798      	blx	r3
    43ba:	2003      	movs	r0, #3
    43bc:	e7de      	b.n	437c <switch_to_form+0x28>
    43be:	4878      	ldr	r0, [pc, #480]	; (45a0 <switch_to_form+0x24c>)
    43c0:	4e6f      	ldr	r6, [pc, #444]	; (4580 <switch_to_form+0x22c>)
    43c2:	47b0      	blx	r6
    43c4:	4c70      	ldr	r4, [pc, #448]	; (4588 <switch_to_form+0x234>)
    43c6:	2106      	movs	r1, #6
    43c8:	0020      	movs	r0, r4
    43ca:	4d70      	ldr	r5, [pc, #448]	; (458c <switch_to_form+0x238>)
    43cc:	3030      	adds	r0, #48	; 0x30
    43ce:	47a8      	blx	r5
    43d0:	4b6f      	ldr	r3, [pc, #444]	; (4590 <switch_to_form+0x23c>)
    43d2:	2004      	movs	r0, #4
    43d4:	4798      	blx	r3
    43d6:	4f73      	ldr	r7, [pc, #460]	; (45a4 <switch_to_form+0x250>)
    43d8:	7afb      	ldrb	r3, [r7, #11]
    43da:	2b00      	cmp	r3, #0
    43dc:	d023      	beq.n	4426 <switch_to_form+0xd2>
    43de:	4872      	ldr	r0, [pc, #456]	; (45a8 <switch_to_form+0x254>)
    43e0:	47b0      	blx	r6
    43e2:	0020      	movs	r0, r4
    43e4:	2106      	movs	r1, #6
    43e6:	3036      	adds	r0, #54	; 0x36
    43e8:	47a8      	blx	r5
    43ea:	0020      	movs	r0, r4
    43ec:	303c      	adds	r0, #60	; 0x3c
    43ee:	2106      	movs	r1, #6
    43f0:	47a8      	blx	r5
    43f2:	7abb      	ldrb	r3, [r7, #10]
    43f4:	2b00      	cmp	r3, #0
    43f6:	d01f      	beq.n	4438 <switch_to_form+0xe4>
    43f8:	486c      	ldr	r0, [pc, #432]	; (45ac <switch_to_form+0x258>)
    43fa:	47b0      	blx	r6
    43fc:	0020      	movs	r0, r4
    43fe:	2106      	movs	r1, #6
    4400:	304e      	adds	r0, #78	; 0x4e
    4402:	47a8      	blx	r5
    4404:	0020      	movs	r0, r4
    4406:	3054      	adds	r0, #84	; 0x54
    4408:	2106      	movs	r1, #6
    440a:	47a8      	blx	r5
    440c:	4868      	ldr	r0, [pc, #416]	; (45b0 <switch_to_form+0x25c>)
    440e:	47b0      	blx	r6
    4410:	4d68      	ldr	r5, [pc, #416]	; (45b4 <switch_to_form+0x260>)
    4412:	2104      	movs	r1, #4
    4414:	88e8      	ldrh	r0, [r5, #6]
    4416:	4c68      	ldr	r4, [pc, #416]	; (45b8 <switch_to_form+0x264>)
    4418:	47a0      	blx	r4
    441a:	4868      	ldr	r0, [pc, #416]	; (45bc <switch_to_form+0x268>)
    441c:	47b0      	blx	r6
    441e:	88a8      	ldrh	r0, [r5, #4]
    4420:	2105      	movs	r1, #5
    4422:	47a0      	blx	r4
    4424:	bdf8      	pop	{r3, r4, r5, r6, r7, pc}
    4426:	4866      	ldr	r0, [pc, #408]	; (45c0 <switch_to_form+0x26c>)
    4428:	47b0      	blx	r6
    442a:	0020      	movs	r0, r4
    442c:	2106      	movs	r1, #6
    442e:	3042      	adds	r0, #66	; 0x42
    4430:	47a8      	blx	r5
    4432:	0020      	movs	r0, r4
    4434:	3048      	adds	r0, #72	; 0x48
    4436:	e7da      	b.n	43ee <switch_to_form+0x9a>
    4438:	4862      	ldr	r0, [pc, #392]	; (45c4 <switch_to_form+0x270>)
    443a:	47b0      	blx	r6
    443c:	0020      	movs	r0, r4
    443e:	2106      	movs	r1, #6
    4440:	305a      	adds	r0, #90	; 0x5a
    4442:	47a8      	blx	r5
    4444:	0020      	movs	r0, r4
    4446:	3060      	adds	r0, #96	; 0x60
    4448:	e7de      	b.n	4408 <switch_to_form+0xb4>
    444a:	4c4d      	ldr	r4, [pc, #308]	; (4580 <switch_to_form+0x22c>)
    444c:	485e      	ldr	r0, [pc, #376]	; (45c8 <switch_to_form+0x274>)
    444e:	47a0      	blx	r4
    4450:	484d      	ldr	r0, [pc, #308]	; (4588 <switch_to_form+0x234>)
    4452:	2106      	movs	r1, #6
    4454:	3066      	adds	r0, #102	; 0x66
    4456:	4b4d      	ldr	r3, [pc, #308]	; (458c <switch_to_form+0x238>)
    4458:	4798      	blx	r3
    445a:	4b4d      	ldr	r3, [pc, #308]	; (4590 <switch_to_form+0x23c>)
    445c:	2005      	movs	r0, #5
    445e:	4798      	blx	r3
    4460:	485a      	ldr	r0, [pc, #360]	; (45cc <switch_to_form+0x278>)
    4462:	47a0      	blx	r4
    4464:	4e53      	ldr	r6, [pc, #332]	; (45b4 <switch_to_form+0x260>)
    4466:	4d54      	ldr	r5, [pc, #336]	; (45b8 <switch_to_form+0x264>)
    4468:	8830      	ldrh	r0, [r6, #0]
    446a:	2107      	movs	r1, #7
    446c:	47a8      	blx	r5
    446e:	4858      	ldr	r0, [pc, #352]	; (45d0 <switch_to_form+0x27c>)
    4470:	47a0      	blx	r4
    4472:	8870      	ldrh	r0, [r6, #2]
    4474:	2106      	movs	r1, #6
    4476:	47a8      	blx	r5
    4478:	4856      	ldr	r0, [pc, #344]	; (45d4 <switch_to_form+0x280>)
    447a:	47a0      	blx	r4
    447c:	8930      	ldrh	r0, [r6, #8]
    447e:	2108      	movs	r1, #8
    4480:	47a8      	blx	r5
    4482:	4855      	ldr	r0, [pc, #340]	; (45d8 <switch_to_form+0x284>)
    4484:	47a0      	blx	r4
    4486:	2109      	movs	r1, #9
    4488:	68f0      	ldr	r0, [r6, #12]
    448a:	47a8      	blx	r5
    448c:	e7ca      	b.n	4424 <switch_to_form+0xd0>
    448e:	4b3c      	ldr	r3, [pc, #240]	; (4580 <switch_to_form+0x22c>)
    4490:	4852      	ldr	r0, [pc, #328]	; (45dc <switch_to_form+0x288>)
    4492:	4798      	blx	r3
    4494:	483c      	ldr	r0, [pc, #240]	; (4588 <switch_to_form+0x234>)
    4496:	2106      	movs	r1, #6
    4498:	306c      	adds	r0, #108	; 0x6c
    449a:	4b3c      	ldr	r3, [pc, #240]	; (458c <switch_to_form+0x238>)
    449c:	4798      	blx	r3
    449e:	2008      	movs	r0, #8
    44a0:	e76c      	b.n	437c <switch_to_form+0x28>
    44a2:	4b37      	ldr	r3, [pc, #220]	; (4580 <switch_to_form+0x22c>)
    44a4:	484e      	ldr	r0, [pc, #312]	; (45e0 <switch_to_form+0x28c>)
    44a6:	4798      	blx	r3
    44a8:	4837      	ldr	r0, [pc, #220]	; (4588 <switch_to_form+0x234>)
    44aa:	2106      	movs	r1, #6
    44ac:	3072      	adds	r0, #114	; 0x72
    44ae:	4b37      	ldr	r3, [pc, #220]	; (458c <switch_to_form+0x238>)
    44b0:	4798      	blx	r3
    44b2:	2006      	movs	r0, #6
    44b4:	e762      	b.n	437c <switch_to_form+0x28>
    44b6:	4b32      	ldr	r3, [pc, #200]	; (4580 <switch_to_form+0x22c>)
    44b8:	484a      	ldr	r0, [pc, #296]	; (45e4 <switch_to_form+0x290>)
    44ba:	4798      	blx	r3
    44bc:	4832      	ldr	r0, [pc, #200]	; (4588 <switch_to_form+0x234>)
    44be:	2106      	movs	r1, #6
    44c0:	3078      	adds	r0, #120	; 0x78
    44c2:	4b32      	ldr	r3, [pc, #200]	; (458c <switch_to_form+0x238>)
    44c4:	4798      	blx	r3
    44c6:	2007      	movs	r0, #7
    44c8:	e758      	b.n	437c <switch_to_form+0x28>
    44ca:	4b2d      	ldr	r3, [pc, #180]	; (4580 <switch_to_form+0x22c>)
    44cc:	4846      	ldr	r0, [pc, #280]	; (45e8 <switch_to_form+0x294>)
    44ce:	4798      	blx	r3
    44d0:	482d      	ldr	r0, [pc, #180]	; (4588 <switch_to_form+0x234>)
    44d2:	2106      	movs	r1, #6
    44d4:	307e      	adds	r0, #126	; 0x7e
    44d6:	4b2d      	ldr	r3, [pc, #180]	; (458c <switch_to_form+0x238>)
    44d8:	4798      	blx	r3
    44da:	4c44      	ldr	r4, [pc, #272]	; (45ec <switch_to_form+0x298>)
    44dc:	4f44      	ldr	r7, [pc, #272]	; (45f0 <switch_to_form+0x29c>)
    44de:	4a45      	ldr	r2, [pc, #276]	; (45f4 <switch_to_form+0x2a0>)
    44e0:	003b      	movs	r3, r7
    44e2:	2119      	movs	r1, #25
    44e4:	4d44      	ldr	r5, [pc, #272]	; (45f8 <switch_to_form+0x2a4>)
    44e6:	0020      	movs	r0, r4
    44e8:	47a8      	blx	r5
    44ea:	2302      	movs	r3, #2
    44ec:	b2c5      	uxtb	r5, r0
    44ee:	7023      	strb	r3, [r4, #0]
    44f0:	330b      	adds	r3, #11
    44f2:	7063      	strb	r3, [r4, #1]
    44f4:	1eeb      	subs	r3, r5, #3
    44f6:	b2c6      	uxtb	r6, r0
    44f8:	0029      	movs	r1, r5
    44fa:	70a3      	strb	r3, [r4, #2]
    44fc:	0020      	movs	r0, r4
    44fe:	4b3f      	ldr	r3, [pc, #252]	; (45fc <switch_to_form+0x2a8>)
    4500:	4798      	blx	r3
    4502:	2300      	movs	r3, #0
    4504:	55a0      	strb	r0, [r4, r6]
    4506:	3501      	adds	r5, #1
    4508:	19a6      	adds	r6, r4, r6
    450a:	7073      	strb	r3, [r6, #1]
    450c:	b2e9      	uxtb	r1, r5
    450e:	0020      	movs	r0, r4
    4510:	4b1e      	ldr	r3, [pc, #120]	; (458c <switch_to_form+0x238>)
    4512:	4798      	blx	r3
    4514:	0039      	movs	r1, r7
    4516:	483a      	ldr	r0, [pc, #232]	; (4600 <switch_to_form+0x2ac>)
    4518:	4b3a      	ldr	r3, [pc, #232]	; (4604 <switch_to_form+0x2b0>)
    451a:	4798      	blx	r3
    451c:	200a      	movs	r0, #10
    451e:	e72d      	b.n	437c <switch_to_form+0x28>
    4520:	4b17      	ldr	r3, [pc, #92]	; (4580 <switch_to_form+0x22c>)
    4522:	4839      	ldr	r0, [pc, #228]	; (4608 <switch_to_form+0x2b4>)
    4524:	4798      	blx	r3
    4526:	23c0      	movs	r3, #192	; 0xc0
    4528:	2280      	movs	r2, #128	; 0x80
    452a:	05db      	lsls	r3, r3, #23
    452c:	0212      	lsls	r2, r2, #8
    452e:	615a      	str	r2, [r3, #20]
    4530:	2280      	movs	r2, #128	; 0x80
    4532:	2180      	movs	r1, #128	; 0x80
    4534:	01d2      	lsls	r2, r2, #7
    4536:	615a      	str	r2, [r3, #20]
    4538:	4a34      	ldr	r2, [pc, #208]	; (460c <switch_to_form+0x2b8>)
    453a:	0249      	lsls	r1, r1, #9
    453c:	6011      	str	r1, [r2, #0]
    453e:	2180      	movs	r1, #128	; 0x80
    4540:	0289      	lsls	r1, r1, #10
    4542:	6011      	str	r1, [r2, #0]
    4544:	2280      	movs	r2, #128	; 0x80
    4546:	0352      	lsls	r2, r2, #13
    4548:	615a      	str	r2, [r3, #20]
    454a:	2280      	movs	r2, #128	; 0x80
    454c:	0392      	lsls	r2, r2, #14
    454e:	615a      	str	r2, [r3, #20]
    4550:	2280      	movs	r2, #128	; 0x80
    4552:	0192      	lsls	r2, r2, #6
    4554:	615a      	str	r2, [r3, #20]
    4556:	2101      	movs	r1, #1
    4558:	2200      	movs	r2, #0
    455a:	4b12      	ldr	r3, [pc, #72]	; (45a4 <switch_to_form+0x250>)
    455c:	482c      	ldr	r0, [pc, #176]	; (4610 <switch_to_form+0x2bc>)
    455e:	709a      	strb	r2, [r3, #2]
    4560:	70da      	strb	r2, [r3, #3]
    4562:	711a      	strb	r2, [r3, #4]
    4564:	715a      	strb	r2, [r3, #5]
    4566:	835a      	strh	r2, [r3, #26]
    4568:	8319      	strh	r1, [r3, #24]
    456a:	3004      	adds	r0, #4
    456c:	3105      	adds	r1, #5
    456e:	4b07      	ldr	r3, [pc, #28]	; (458c <switch_to_form+0x238>)
    4570:	4798      	blx	r3
    4572:	4b07      	ldr	r3, [pc, #28]	; (4590 <switch_to_form+0x23c>)
    4574:	200b      	movs	r0, #11
    4576:	4798      	blx	r3
    4578:	4a26      	ldr	r2, [pc, #152]	; (4614 <switch_to_form+0x2c0>)
    457a:	4b27      	ldr	r3, [pc, #156]	; (4618 <switch_to_form+0x2c4>)
    457c:	809a      	strh	r2, [r3, #4]
    457e:	e751      	b.n	4424 <switch_to_form+0xd0>
    4580:	00007191 	.word	0x00007191
    4584:	0000b7be 	.word	0x0000b7be
    4588:	0000b2dc 	.word	0x0000b2dc
    458c:	00004231 	.word	0x00004231
    4590:	00003b71 	.word	0x00003b71
    4594:	0000b7d2 	.word	0x0000b7d2
    4598:	0000b7ea 	.word	0x0000b7ea
    459c:	0000b7ff 	.word	0x0000b7ff
    45a0:	0000b817 	.word	0x0000b817
    45a4:	20000a3c 	.word	0x20000a3c
    45a8:	0000b832 	.word	0x0000b832
    45ac:	0000b889 	.word	0x0000b889
    45b0:	0000b8de 	.word	0x0000b8de
    45b4:	20000a68 	.word	0x20000a68
    45b8:	000042f1 	.word	0x000042f1
    45bc:	0000b8fc 	.word	0x0000b8fc
    45c0:	0000b85d 	.word	0x0000b85d
    45c4:	0000b8b3 	.word	0x0000b8b3
    45c8:	0000b91b 	.word	0x0000b91b
    45cc:	0000b932 	.word	0x0000b932
    45d0:	0000b950 	.word	0x0000b950
    45d4:	0000b96d 	.word	0x0000b96d
    45d8:	0000b98a 	.word	0x0000b98a
    45dc:	0000b9a2 	.word	0x0000b9a2
    45e0:	0000b9b9 	.word	0x0000b9b9
    45e4:	0000b9ce 	.word	0x0000b9ce
    45e8:	0000b9df 	.word	0x0000b9df
    45ec:	20000a81 	.word	0x20000a81
    45f0:	0000b9f1 	.word	0x0000b9f1
    45f4:	0000b9f7 	.word	0x0000b9f7
    45f8:	00007311 	.word	0x00007311
    45fc:	000042dd 	.word	0x000042dd
    4600:	0000ba06 	.word	0x0000ba06
    4604:	0000709d 	.word	0x0000709d
    4608:	0000ba14 	.word	0x0000ba14
    460c:	60000094 	.word	0x60000094
    4610:	0000b35c 	.word	0x0000b35c
    4614:	00000c82 	.word	0x00000c82
    4618:	2000073c 	.word	0x2000073c

0000461c <print_slices>:
    461c:	b5f7      	push	{r0, r1, r2, r4, r5, r6, r7, lr}
    461e:	4e12      	ldr	r6, [pc, #72]	; (4668 <print_slices+0x4c>)
    4620:	4c12      	ldr	r4, [pc, #72]	; (466c <print_slices+0x50>)
    4622:	8a72      	ldrh	r2, [r6, #18]
    4624:	8b73      	ldrh	r3, [r6, #26]
    4626:	0007      	movs	r7, r0
    4628:	9200      	str	r2, [sp, #0]
    462a:	2140      	movs	r1, #64	; 0x40
    462c:	4a10      	ldr	r2, [pc, #64]	; (4670 <print_slices+0x54>)
    462e:	0020      	movs	r0, r4
    4630:	4d10      	ldr	r5, [pc, #64]	; (4674 <print_slices+0x58>)
    4632:	47a8      	blx	r5
    4634:	2302      	movs	r3, #2
    4636:	b2c5      	uxtb	r5, r0
    4638:	7023      	strb	r3, [r4, #0]
    463a:	1eeb      	subs	r3, r5, #3
    463c:	7067      	strb	r7, [r4, #1]
    463e:	70a3      	strb	r3, [r4, #2]
    4640:	b2c7      	uxtb	r7, r0
    4642:	0029      	movs	r1, r5
    4644:	4b0c      	ldr	r3, [pc, #48]	; (4678 <print_slices+0x5c>)
    4646:	0020      	movs	r0, r4
    4648:	4798      	blx	r3
    464a:	2300      	movs	r3, #0
    464c:	55e0      	strb	r0, [r4, r7]
    464e:	3501      	adds	r5, #1
    4650:	19e7      	adds	r7, r4, r7
    4652:	707b      	strb	r3, [r7, #1]
    4654:	b2e9      	uxtb	r1, r5
    4656:	0020      	movs	r0, r4
    4658:	4b08      	ldr	r3, [pc, #32]	; (467c <print_slices+0x60>)
    465a:	4798      	blx	r3
    465c:	8b71      	ldrh	r1, [r6, #26]
    465e:	4b08      	ldr	r3, [pc, #32]	; (4680 <print_slices+0x64>)
    4660:	4808      	ldr	r0, [pc, #32]	; (4684 <print_slices+0x68>)
    4662:	4798      	blx	r3
    4664:	bdf7      	pop	{r0, r1, r2, r4, r5, r6, r7, pc}
    4666:	46c0      	nop			; (mov r8, r8)
    4668:	20000a3c 	.word	0x20000a3c
    466c:	20000a81 	.word	0x20000a81
    4670:	0000ba26 	.word	0x0000ba26
    4674:	00007311 	.word	0x00007311
    4678:	000042dd 	.word	0x000042dd
    467c:	00004231 	.word	0x00004231
    4680:	0000709d 	.word	0x0000709d
    4684:	0000ba35 	.word	0x0000ba35

00004688 <print_volumes>:
    4688:	b5f7      	push	{r0, r1, r2, r4, r5, r6, r7, lr}
    468a:	4e12      	ldr	r6, [pc, #72]	; (46d4 <print_volumes+0x4c>)
    468c:	4c12      	ldr	r4, [pc, #72]	; (46d8 <print_volumes+0x50>)
    468e:	8a32      	ldrh	r2, [r6, #16]
    4690:	8b33      	ldrh	r3, [r6, #24]
    4692:	0007      	movs	r7, r0
    4694:	9200      	str	r2, [sp, #0]
    4696:	2140      	movs	r1, #64	; 0x40
    4698:	4a10      	ldr	r2, [pc, #64]	; (46dc <print_volumes+0x54>)
    469a:	0020      	movs	r0, r4
    469c:	4d10      	ldr	r5, [pc, #64]	; (46e0 <print_volumes+0x58>)
    469e:	47a8      	blx	r5
    46a0:	2302      	movs	r3, #2
    46a2:	b2c5      	uxtb	r5, r0
    46a4:	7023      	strb	r3, [r4, #0]
    46a6:	1eeb      	subs	r3, r5, #3
    46a8:	7067      	strb	r7, [r4, #1]
    46aa:	70a3      	strb	r3, [r4, #2]
    46ac:	b2c7      	uxtb	r7, r0
    46ae:	0029      	movs	r1, r5
    46b0:	4b0c      	ldr	r3, [pc, #48]	; (46e4 <print_volumes+0x5c>)
    46b2:	0020      	movs	r0, r4
    46b4:	4798      	blx	r3
    46b6:	2300      	movs	r3, #0
    46b8:	55e0      	strb	r0, [r4, r7]
    46ba:	3501      	adds	r5, #1
    46bc:	19e7      	adds	r7, r4, r7
    46be:	707b      	strb	r3, [r7, #1]
    46c0:	b2e9      	uxtb	r1, r5
    46c2:	0020      	movs	r0, r4
    46c4:	4b08      	ldr	r3, [pc, #32]	; (46e8 <print_volumes+0x60>)
    46c6:	4798      	blx	r3
    46c8:	8b31      	ldrh	r1, [r6, #24]
    46ca:	4b08      	ldr	r3, [pc, #32]	; (46ec <print_volumes+0x64>)
    46cc:	4808      	ldr	r0, [pc, #32]	; (46f0 <print_volumes+0x68>)
    46ce:	4798      	blx	r3
    46d0:	bdf7      	pop	{r0, r1, r2, r4, r5, r6, r7, pc}
    46d2:	46c0      	nop			; (mov r8, r8)
    46d4:	20000a3c 	.word	0x20000a3c
    46d8:	20000a81 	.word	0x20000a81
    46dc:	0000ba26 	.word	0x0000ba26
    46e0:	00007311 	.word	0x00007311
    46e4:	000042dd 	.word	0x000042dd
    46e8:	00004231 	.word	0x00004231
    46ec:	0000709d 	.word	0x0000709d
    46f0:	0000ba49 	.word	0x0000ba49

000046f4 <ADC_init>:
    46f4:	2200      	movs	r2, #0
    46f6:	b570      	push	{r4, r5, r6, lr}
    46f8:	4c05      	ldr	r4, [pc, #20]	; (4710 <ADC_init+0x1c>)
    46fa:	0011      	movs	r1, r2
    46fc:	4d05      	ldr	r5, [pc, #20]	; (4714 <ADC_init+0x20>)
    46fe:	4b06      	ldr	r3, [pc, #24]	; (4718 <ADC_init+0x24>)
    4700:	0020      	movs	r0, r4
    4702:	47a8      	blx	r5
    4704:	2100      	movs	r1, #0
    4706:	0020      	movs	r0, r4
    4708:	4b04      	ldr	r3, [pc, #16]	; (471c <ADC_init+0x28>)
    470a:	4798      	blx	r3
    470c:	bd70      	pop	{r4, r5, r6, pc}
    470e:	46c0      	nop			; (mov r8, r8)
    4710:	2000091c 	.word	0x2000091c
    4714:	00000c85 	.word	0x00000c85
    4718:	00003b81 	.word	0x00003b81
    471c:	00000c75 	.word	0x00000c75

00004720 <ps_error>:
    4720:	b570      	push	{r4, r5, r6, lr}
    4722:	4b12      	ldr	r3, [pc, #72]	; (476c <ps_error+0x4c>)
    4724:	200b      	movs	r0, #11
    4726:	4798      	blx	r3
    4728:	4d11      	ldr	r5, [pc, #68]	; (4770 <ps_error+0x50>)
    472a:	4b12      	ldr	r3, [pc, #72]	; (4774 <ps_error+0x54>)
    472c:	882a      	ldrh	r2, [r5, #0]
    472e:	4c12      	ldr	r4, [pc, #72]	; (4778 <ps_error+0x58>)
    4730:	429a      	cmp	r2, r3
    4732:	d808      	bhi.n	4746 <ps_error+0x26>
    4734:	4811      	ldr	r0, [pc, #68]	; (477c <ps_error+0x5c>)
    4736:	2106      	movs	r1, #6
    4738:	300a      	adds	r0, #10
    473a:	4b11      	ldr	r3, [pc, #68]	; (4780 <ps_error+0x60>)
    473c:	4798      	blx	r3
    473e:	4811      	ldr	r0, [pc, #68]	; (4784 <ps_error+0x64>)
    4740:	47a0      	blx	r4
    4742:	4811      	ldr	r0, [pc, #68]	; (4788 <ps_error+0x68>)
    4744:	47a0      	blx	r4
    4746:	23fa      	movs	r3, #250	; 0xfa
    4748:	882a      	ldrh	r2, [r5, #0]
    474a:	00db      	lsls	r3, r3, #3
    474c:	429a      	cmp	r2, r3
    474e:	d908      	bls.n	4762 <ps_error+0x42>
    4750:	480a      	ldr	r0, [pc, #40]	; (477c <ps_error+0x5c>)
    4752:	2106      	movs	r1, #6
    4754:	3010      	adds	r0, #16
    4756:	4b0a      	ldr	r3, [pc, #40]	; (4780 <ps_error+0x60>)
    4758:	4798      	blx	r3
    475a:	480a      	ldr	r0, [pc, #40]	; (4784 <ps_error+0x64>)
    475c:	47a0      	blx	r4
    475e:	480b      	ldr	r0, [pc, #44]	; (478c <ps_error+0x6c>)
    4760:	47a0      	blx	r4
    4762:	8829      	ldrh	r1, [r5, #0]
    4764:	480a      	ldr	r0, [pc, #40]	; (4790 <ps_error+0x70>)
    4766:	47a0      	blx	r4
    4768:	bd70      	pop	{r4, r5, r6, pc}
    476a:	46c0      	nop			; (mov r8, r8)
    476c:	00004355 	.word	0x00004355
    4770:	2000073c 	.word	0x2000073c
    4774:	0000060d 	.word	0x0000060d
    4778:	0000709d 	.word	0x0000709d
    477c:	0000b35c 	.word	0x0000b35c
    4780:	00004231 	.word	0x00004231
    4784:	0000ba68 	.word	0x0000ba68
    4788:	0000ba7c 	.word	0x0000ba7c
    478c:	0000ba8f 	.word	0x0000ba8f
    4790:	0000baa3 	.word	0x0000baa3

00004794 <usb_error>:
    4794:	b570      	push	{r4, r5, r6, lr}
    4796:	200b      	movs	r0, #11
    4798:	4d0c      	ldr	r5, [pc, #48]	; (47cc <usb_error+0x38>)
    479a:	47a8      	blx	r5
    479c:	480c      	ldr	r0, [pc, #48]	; (47d0 <usb_error+0x3c>)
    479e:	2106      	movs	r1, #6
    47a0:	3016      	adds	r0, #22
    47a2:	4b0c      	ldr	r3, [pc, #48]	; (47d4 <usb_error+0x40>)
    47a4:	4798      	blx	r3
    47a6:	480c      	ldr	r0, [pc, #48]	; (47d8 <usb_error+0x44>)
    47a8:	4c0c      	ldr	r4, [pc, #48]	; (47dc <usb_error+0x48>)
    47aa:	47a0      	blx	r4
    47ac:	480c      	ldr	r0, [pc, #48]	; (47e0 <usb_error+0x4c>)
    47ae:	47a0      	blx	r4
    47b0:	4b0c      	ldr	r3, [pc, #48]	; (47e4 <usb_error+0x50>)
    47b2:	881e      	ldrh	r6, [r3, #0]
    47b4:	2e00      	cmp	r6, #0
    47b6:	d104      	bne.n	47c2 <usb_error+0x2e>
    47b8:	480b      	ldr	r0, [pc, #44]	; (47e8 <usb_error+0x54>)
    47ba:	47a0      	blx	r4
    47bc:	0030      	movs	r0, r6
    47be:	47a8      	blx	r5
    47c0:	bd70      	pop	{r4, r5, r6, pc}
    47c2:	2001      	movs	r0, #1
    47c4:	4b09      	ldr	r3, [pc, #36]	; (47ec <usb_error+0x58>)
    47c6:	4798      	blx	r3
    47c8:	e7f2      	b.n	47b0 <usb_error+0x1c>
    47ca:	46c0      	nop			; (mov r8, r8)
    47cc:	00004355 	.word	0x00004355
    47d0:	0000b35c 	.word	0x0000b35c
    47d4:	00004231 	.word	0x00004231
    47d8:	0000bab8 	.word	0x0000bab8
    47dc:	00007191 	.word	0x00007191
    47e0:	0000bacd 	.word	0x0000bacd
    47e4:	2000017e 	.word	0x2000017e
    47e8:	0000bad8 	.word	0x0000bad8
    47ec:	00000e39 	.word	0x00000e39

000047f0 <start_simulation>:
    47f0:	b570      	push	{r4, r5, r6, lr}
    47f2:	4816      	ldr	r0, [pc, #88]	; (484c <start_simulation+0x5c>)
    47f4:	4d16      	ldr	r5, [pc, #88]	; (4850 <start_simulation+0x60>)
    47f6:	47a8      	blx	r5
    47f8:	2300      	movs	r3, #0
    47fa:	2601      	movs	r6, #1
    47fc:	4a15      	ldr	r2, [pc, #84]	; (4854 <start_simulation+0x64>)
    47fe:	4c16      	ldr	r4, [pc, #88]	; (4858 <start_simulation+0x68>)
    4800:	8213      	strh	r3, [r2, #16]
    4802:	8253      	strh	r3, [r2, #18]
    4804:	8a22      	ldrh	r2, [r4, #16]
    4806:	7023      	strb	r3, [r4, #0]
    4808:	7163      	strb	r3, [r4, #5]
    480a:	8363      	strh	r3, [r4, #26]
    480c:	83e3      	strh	r3, [r4, #30]
    480e:	71a3      	strb	r3, [r4, #6]
    4810:	71e3      	strb	r3, [r4, #7]
    4812:	7223      	strb	r3, [r4, #8]
    4814:	7263      	strb	r3, [r4, #9]
    4816:	7123      	strb	r3, [r4, #4]
    4818:	70a3      	strb	r3, [r4, #2]
    481a:	7063      	strb	r3, [r4, #1]
    481c:	2003      	movs	r0, #3
    481e:	4b0f      	ldr	r3, [pc, #60]	; (485c <start_simulation+0x6c>)
    4820:	83a2      	strh	r2, [r4, #28]
    4822:	8326      	strh	r6, [r4, #24]
    4824:	4798      	blx	r3
    4826:	480e      	ldr	r0, [pc, #56]	; (4860 <start_simulation+0x70>)
    4828:	47a8      	blx	r5
    482a:	4b0e      	ldr	r3, [pc, #56]	; (4864 <start_simulation+0x74>)
    482c:	200e      	movs	r0, #14
    482e:	4798      	blx	r3
    4830:	480d      	ldr	r0, [pc, #52]	; (4868 <start_simulation+0x78>)
    4832:	47a8      	blx	r5
    4834:	4b0d      	ldr	r3, [pc, #52]	; (486c <start_simulation+0x7c>)
    4836:	200f      	movs	r0, #15
    4838:	4798      	blx	r3
    483a:	480d      	ldr	r0, [pc, #52]	; (4870 <start_simulation+0x80>)
    483c:	47a8      	blx	r5
    483e:	20fa      	movs	r0, #250	; 0xfa
    4840:	4b0c      	ldr	r3, [pc, #48]	; (4874 <start_simulation+0x84>)
    4842:	0080      	lsls	r0, r0, #2
    4844:	4798      	blx	r3
    4846:	70e6      	strb	r6, [r4, #3]
    4848:	bd70      	pop	{r4, r5, r6, pc}
    484a:	46c0      	nop			; (mov r8, r8)
    484c:	0000baeb 	.word	0x0000baeb
    4850:	00007191 	.word	0x00007191
    4854:	2000073c 	.word	0x2000073c
    4858:	20000a3c 	.word	0x20000a3c
    485c:	00004355 	.word	0x00004355
    4860:	0000bb00 	.word	0x0000bb00
    4864:	0000461d 	.word	0x0000461d
    4868:	0000bb1e 	.word	0x0000bb1e
    486c:	00004689 	.word	0x00004689
    4870:	0000bb3d 	.word	0x0000bb3d
    4874:	00000e39 	.word	0x00000e39

00004878 <stop_simulation>:
    4878:	b510      	push	{r4, lr}
    487a:	2400      	movs	r4, #0
    487c:	4b0a      	ldr	r3, [pc, #40]	; (48a8 <stop_simulation+0x30>)
    487e:	480b      	ldr	r0, [pc, #44]	; (48ac <stop_simulation+0x34>)
    4880:	4798      	blx	r3
    4882:	4b0b      	ldr	r3, [pc, #44]	; (48b0 <stop_simulation+0x38>)
    4884:	480b      	ldr	r0, [pc, #44]	; (48b4 <stop_simulation+0x3c>)
    4886:	751c      	strb	r4, [r3, #20]
    4888:	2106      	movs	r1, #6
    488a:	301c      	adds	r0, #28
    488c:	4b0a      	ldr	r3, [pc, #40]	; (48b8 <stop_simulation+0x40>)
    488e:	4798      	blx	r3
    4890:	2007      	movs	r0, #7
    4892:	4b0a      	ldr	r3, [pc, #40]	; (48bc <stop_simulation+0x44>)
    4894:	4798      	blx	r3
    4896:	2201      	movs	r2, #1
    4898:	4b09      	ldr	r3, [pc, #36]	; (48c0 <stop_simulation+0x48>)
    489a:	709c      	strb	r4, [r3, #2]
    489c:	70dc      	strb	r4, [r3, #3]
    489e:	711c      	strb	r4, [r3, #4]
    48a0:	715c      	strb	r4, [r3, #5]
    48a2:	831a      	strh	r2, [r3, #24]
    48a4:	835c      	strh	r4, [r3, #26]
    48a6:	bd10      	pop	{r4, pc}
    48a8:	00007191 	.word	0x00007191
    48ac:	0000bb52 	.word	0x0000bb52
    48b0:	2000073c 	.word	0x2000073c
    48b4:	0000b35c 	.word	0x0000b35c
    48b8:	00004231 	.word	0x00004231
    48bc:	00004355 	.word	0x00004355
    48c0:	20000a3c 	.word	0x20000a3c

000048c4 <start_man_trig>:
    48c4:	b570      	push	{r4, r5, r6, lr}
    48c6:	4812      	ldr	r0, [pc, #72]	; (4910 <start_man_trig+0x4c>)
    48c8:	4d12      	ldr	r5, [pc, #72]	; (4914 <start_man_trig+0x50>)
    48ca:	47a8      	blx	r5
    48cc:	2300      	movs	r3, #0
    48ce:	2601      	movs	r6, #1
    48d0:	4c11      	ldr	r4, [pc, #68]	; (4918 <start_man_trig+0x54>)
    48d2:	2002      	movs	r0, #2
    48d4:	8a22      	ldrh	r2, [r4, #16]
    48d6:	7023      	strb	r3, [r4, #0]
    48d8:	7163      	strb	r3, [r4, #5]
    48da:	8363      	strh	r3, [r4, #26]
    48dc:	83e3      	strh	r3, [r4, #30]
    48de:	71a3      	strb	r3, [r4, #6]
    48e0:	71e3      	strb	r3, [r4, #7]
    48e2:	7223      	strb	r3, [r4, #8]
    48e4:	7263      	strb	r3, [r4, #9]
    48e6:	70e3      	strb	r3, [r4, #3]
    48e8:	70a3      	strb	r3, [r4, #2]
    48ea:	7063      	strb	r3, [r4, #1]
    48ec:	4b0b      	ldr	r3, [pc, #44]	; (491c <start_man_trig+0x58>)
    48ee:	83a2      	strh	r2, [r4, #28]
    48f0:	8326      	strh	r6, [r4, #24]
    48f2:	4798      	blx	r3
    48f4:	480a      	ldr	r0, [pc, #40]	; (4920 <start_man_trig+0x5c>)
    48f6:	47a8      	blx	r5
    48f8:	4b0a      	ldr	r3, [pc, #40]	; (4924 <start_man_trig+0x60>)
    48fa:	2010      	movs	r0, #16
    48fc:	4798      	blx	r3
    48fe:	480a      	ldr	r0, [pc, #40]	; (4928 <start_man_trig+0x64>)
    4900:	47a8      	blx	r5
    4902:	4b0a      	ldr	r3, [pc, #40]	; (492c <start_man_trig+0x68>)
    4904:	2011      	movs	r0, #17
    4906:	4798      	blx	r3
    4908:	4809      	ldr	r0, [pc, #36]	; (4930 <start_man_trig+0x6c>)
    490a:	47a8      	blx	r5
    490c:	7126      	strb	r6, [r4, #4]
    490e:	bd70      	pop	{r4, r5, r6, pc}
    4910:	0000bb67 	.word	0x0000bb67
    4914:	00007191 	.word	0x00007191
    4918:	20000a3c 	.word	0x20000a3c
    491c:	00004355 	.word	0x00004355
    4920:	0000bb00 	.word	0x0000bb00
    4924:	0000461d 	.word	0x0000461d
    4928:	0000bb1e 	.word	0x0000bb1e
    492c:	00004689 	.word	0x00004689
    4930:	0000bb3d 	.word	0x0000bb3d

00004934 <stop_man_trig>:
    4934:	b510      	push	{r4, lr}
    4936:	2400      	movs	r4, #0
    4938:	4b0a      	ldr	r3, [pc, #40]	; (4964 <stop_man_trig+0x30>)
    493a:	480b      	ldr	r0, [pc, #44]	; (4968 <stop_man_trig+0x34>)
    493c:	4798      	blx	r3
    493e:	4b0b      	ldr	r3, [pc, #44]	; (496c <stop_man_trig+0x38>)
    4940:	480b      	ldr	r0, [pc, #44]	; (4970 <stop_man_trig+0x3c>)
    4942:	751c      	strb	r4, [r3, #20]
    4944:	2106      	movs	r1, #6
    4946:	3022      	adds	r0, #34	; 0x22
    4948:	4b0a      	ldr	r3, [pc, #40]	; (4974 <stop_man_trig+0x40>)
    494a:	4798      	blx	r3
    494c:	2007      	movs	r0, #7
    494e:	4b0a      	ldr	r3, [pc, #40]	; (4978 <stop_man_trig+0x44>)
    4950:	4798      	blx	r3
    4952:	2201      	movs	r2, #1
    4954:	4b09      	ldr	r3, [pc, #36]	; (497c <stop_man_trig+0x48>)
    4956:	709c      	strb	r4, [r3, #2]
    4958:	70dc      	strb	r4, [r3, #3]
    495a:	711c      	strb	r4, [r3, #4]
    495c:	715c      	strb	r4, [r3, #5]
    495e:	831a      	strh	r2, [r3, #24]
    4960:	835c      	strh	r4, [r3, #26]
    4962:	bd10      	pop	{r4, pc}
    4964:	00007191 	.word	0x00007191
    4968:	0000bb80 	.word	0x0000bb80
    496c:	2000073c 	.word	0x2000073c
    4970:	0000b35c 	.word	0x0000b35c
    4974:	00004231 	.word	0x00004231
    4978:	00004355 	.word	0x00004355
    497c:	20000a3c 	.word	0x20000a3c

00004980 <start_session>:
    4980:	b5f8      	push	{r3, r4, r5, r6, r7, lr}
    4982:	4b21      	ldr	r3, [pc, #132]	; (4a08 <start_session+0x88>)
    4984:	4a21      	ldr	r2, [pc, #132]	; (4a0c <start_session+0x8c>)
    4986:	881b      	ldrh	r3, [r3, #0]
    4988:	189b      	adds	r3, r3, r2
    498a:	22e0      	movs	r2, #224	; 0xe0
    498c:	b29b      	uxth	r3, r3
    498e:	0052      	lsls	r2, r2, #1
    4990:	4293      	cmp	r3, r2
    4992:	d835      	bhi.n	4a00 <start_session+0x80>
    4994:	4e1e      	ldr	r6, [pc, #120]	; (4a10 <start_session+0x90>)
    4996:	481f      	ldr	r0, [pc, #124]	; (4a14 <start_session+0x94>)
    4998:	47b0      	blx	r6
    499a:	2301      	movs	r3, #1
    499c:	2500      	movs	r5, #0
    499e:	4c1e      	ldr	r4, [pc, #120]	; (4a18 <start_session+0x98>)
    49a0:	2001      	movs	r0, #1
    49a2:	8323      	strh	r3, [r4, #24]
    49a4:	8a23      	ldrh	r3, [r4, #16]
    49a6:	7025      	strb	r5, [r4, #0]
    49a8:	83a3      	strh	r3, [r4, #28]
    49aa:	4b1c      	ldr	r3, [pc, #112]	; (4a1c <start_session+0x9c>)
    49ac:	7165      	strb	r5, [r4, #5]
    49ae:	8365      	strh	r5, [r4, #26]
    49b0:	83e5      	strh	r5, [r4, #30]
    49b2:	71a5      	strb	r5, [r4, #6]
    49b4:	71e5      	strb	r5, [r4, #7]
    49b6:	7225      	strb	r5, [r4, #8]
    49b8:	7265      	strb	r5, [r4, #9]
    49ba:	70e5      	strb	r5, [r4, #3]
    49bc:	7065      	strb	r5, [r4, #1]
    49be:	4798      	blx	r3
    49c0:	4817      	ldr	r0, [pc, #92]	; (4a20 <start_session+0xa0>)
    49c2:	47b0      	blx	r6
    49c4:	27c0      	movs	r7, #192	; 0xc0
    49c6:	2380      	movs	r3, #128	; 0x80
    49c8:	05ff      	lsls	r7, r7, #23
    49ca:	019b      	lsls	r3, r3, #6
    49cc:	61bb      	str	r3, [r7, #24]
    49ce:	4815      	ldr	r0, [pc, #84]	; (4a24 <start_session+0xa4>)
    49d0:	47b0      	blx	r6
    49d2:	2380      	movs	r3, #128	; 0x80
    49d4:	021b      	lsls	r3, r3, #8
    49d6:	61bb      	str	r3, [r7, #24]
    49d8:	4813      	ldr	r0, [pc, #76]	; (4a28 <start_session+0xa8>)
    49da:	47b0      	blx	r6
    49dc:	2380      	movs	r3, #128	; 0x80
    49de:	01db      	lsls	r3, r3, #7
    49e0:	61bb      	str	r3, [r7, #24]
    49e2:	4812      	ldr	r0, [pc, #72]	; (4a2c <start_session+0xac>)
    49e4:	47b0      	blx	r6
    49e6:	4b12      	ldr	r3, [pc, #72]	; (4a30 <start_session+0xb0>)
    49e8:	0028      	movs	r0, r5
    49ea:	4798      	blx	r3
    49ec:	4811      	ldr	r0, [pc, #68]	; (4a34 <start_session+0xb4>)
    49ee:	47b0      	blx	r6
    49f0:	4b11      	ldr	r3, [pc, #68]	; (4a38 <start_session+0xb8>)
    49f2:	2001      	movs	r0, #1
    49f4:	4798      	blx	r3
    49f6:	4811      	ldr	r0, [pc, #68]	; (4a3c <start_session+0xbc>)
    49f8:	47b0      	blx	r6
    49fa:	2301      	movs	r3, #1
    49fc:	70a3      	strb	r3, [r4, #2]
    49fe:	bdf8      	pop	{r3, r4, r5, r6, r7, pc}
    4a00:	4b0f      	ldr	r3, [pc, #60]	; (4a40 <start_session+0xc0>)
    4a02:	4798      	blx	r3
    4a04:	e7fb      	b.n	49fe <start_session+0x7e>
    4a06:	46c0      	nop			; (mov r8, r8)
    4a08:	2000073c 	.word	0x2000073c
    4a0c:	fffff9f1 	.word	0xfffff9f1
    4a10:	00007191 	.word	0x00007191
    4a14:	0000bb99 	.word	0x0000bb99
    4a18:	20000a3c 	.word	0x20000a3c
    4a1c:	00004355 	.word	0x00004355
    4a20:	0000bbab 	.word	0x0000bbab
    4a24:	0000bbba 	.word	0x0000bbba
    4a28:	0000bbd0 	.word	0x0000bbd0
    4a2c:	0000bb00 	.word	0x0000bb00
    4a30:	0000461d 	.word	0x0000461d
    4a34:	0000bb1e 	.word	0x0000bb1e
    4a38:	00004689 	.word	0x00004689
    4a3c:	0000bb3d 	.word	0x0000bb3d
    4a40:	00004721 	.word	0x00004721

00004a44 <stop_session>:
    4a44:	b570      	push	{r4, r5, r6, lr}
    4a46:	4810      	ldr	r0, [pc, #64]	; (4a88 <stop_session+0x44>)
    4a48:	4c10      	ldr	r4, [pc, #64]	; (4a8c <stop_session+0x48>)
    4a4a:	47a0      	blx	r4
    4a4c:	2000      	movs	r0, #0
    4a4e:	4b10      	ldr	r3, [pc, #64]	; (4a90 <stop_session+0x4c>)
    4a50:	4798      	blx	r3
    4a52:	2200      	movs	r2, #0
    4a54:	2101      	movs	r1, #1
    4a56:	4b0f      	ldr	r3, [pc, #60]	; (4a94 <stop_session+0x50>)
    4a58:	480f      	ldr	r0, [pc, #60]	; (4a98 <stop_session+0x54>)
    4a5a:	709a      	strb	r2, [r3, #2]
    4a5c:	70da      	strb	r2, [r3, #3]
    4a5e:	715a      	strb	r2, [r3, #5]
    4a60:	8319      	strh	r1, [r3, #24]
    4a62:	835a      	strh	r2, [r3, #26]
    4a64:	25c0      	movs	r5, #192	; 0xc0
    4a66:	47a0      	blx	r4
    4a68:	2380      	movs	r3, #128	; 0x80
    4a6a:	05ed      	lsls	r5, r5, #23
    4a6c:	021b      	lsls	r3, r3, #8
    4a6e:	616b      	str	r3, [r5, #20]
    4a70:	480a      	ldr	r0, [pc, #40]	; (4a9c <stop_session+0x58>)
    4a72:	47a0      	blx	r4
    4a74:	2380      	movs	r3, #128	; 0x80
    4a76:	01db      	lsls	r3, r3, #7
    4a78:	616b      	str	r3, [r5, #20]
    4a7a:	4809      	ldr	r0, [pc, #36]	; (4aa0 <stop_session+0x5c>)
    4a7c:	47a0      	blx	r4
    4a7e:	2380      	movs	r3, #128	; 0x80
    4a80:	019b      	lsls	r3, r3, #6
    4a82:	616b      	str	r3, [r5, #20]
    4a84:	bd70      	pop	{r4, r5, r6, pc}
    4a86:	46c0      	nop			; (mov r8, r8)
    4a88:	0000bbe6 	.word	0x0000bbe6
    4a8c:	00007191 	.word	0x00007191
    4a90:	00004355 	.word	0x00004355
    4a94:	20000a3c 	.word	0x20000a3c
    4a98:	0000bbf8 	.word	0x0000bbf8
    4a9c:	0000bc10 	.word	0x0000bc10
    4aa0:	0000bc28 	.word	0x0000bc28

00004aa4 <TIMER_init>:
    4aa4:	490d      	ldr	r1, [pc, #52]	; (4adc <TIMER_init+0x38>)
    4aa6:	4a0e      	ldr	r2, [pc, #56]	; (4ae0 <TIMER_init+0x3c>)
    4aa8:	b570      	push	{r4, r5, r6, lr}
    4aaa:	628a      	str	r2, [r1, #40]	; 0x28
    4aac:	000a      	movs	r2, r1
    4aae:	2301      	movs	r3, #1
    4ab0:	000d      	movs	r5, r1
    4ab2:	322c      	adds	r2, #44	; 0x2c
    4ab4:	7013      	strb	r3, [r2, #0]
    4ab6:	4a0b      	ldr	r2, [pc, #44]	; (4ae4 <TIMER_init+0x40>)
    4ab8:	4c0b      	ldr	r4, [pc, #44]	; (4ae8 <TIMER_init+0x44>)
    4aba:	638a      	str	r2, [r1, #56]	; 0x38
    4abc:	4a0b      	ldr	r2, [pc, #44]	; (4aec <TIMER_init+0x48>)
    4abe:	624b      	str	r3, [r1, #36]	; 0x24
    4ac0:	63ca      	str	r2, [r1, #60]	; 0x3c
    4ac2:	3530      	adds	r5, #48	; 0x30
    4ac4:	4e0a      	ldr	r6, [pc, #40]	; (4af0 <TIMER_init+0x4c>)
    4ac6:	311c      	adds	r1, #28
    4ac8:	0020      	movs	r0, r4
    4aca:	742b      	strb	r3, [r5, #16]
    4acc:	47b0      	blx	r6
    4ace:	0029      	movs	r1, r5
    4ad0:	0020      	movs	r0, r4
    4ad2:	47b0      	blx	r6
    4ad4:	0020      	movs	r0, r4
    4ad6:	4b07      	ldr	r3, [pc, #28]	; (4af4 <TIMER_init+0x50>)
    4ad8:	4798      	blx	r3
    4ada:	bd70      	pop	{r4, r5, r6, pc}
    4adc:	2000073c 	.word	0x2000073c
    4ae0:	00003ba1 	.word	0x00003ba1
    4ae4:	00001388 	.word	0x00001388
    4ae8:	20000a18 	.word	0x20000a18
    4aec:	00003e39 	.word	0x00003e39
    4af0:	000012ed 	.word	0x000012ed
    4af4:	000012c9 	.word	0x000012c9

00004af8 <main>:
    4af8:	b5f7      	push	{r0, r1, r2, r4, r5, r6, r7, lr}
    4afa:	2500      	movs	r5, #0
    4afc:	4fbc      	ldr	r7, [pc, #752]	; (4df0 <main+0x2f8>)
    4afe:	4bbd      	ldr	r3, [pc, #756]	; (4df4 <main+0x2fc>)
    4b00:	753d      	strb	r5, [r7, #20]
    4b02:	4798      	blx	r3
    4b04:	2380      	movs	r3, #128	; 0x80
    4b06:	22c0      	movs	r2, #192	; 0xc0
    4b08:	021b      	lsls	r3, r3, #8
    4b0a:	05d2      	lsls	r2, r2, #23
    4b0c:	6153      	str	r3, [r2, #20]
    4b0e:	2380      	movs	r3, #128	; 0x80
    4b10:	01db      	lsls	r3, r3, #7
    4b12:	6153      	str	r3, [r2, #20]
    4b14:	2280      	movs	r2, #128	; 0x80
    4b16:	4bb8      	ldr	r3, [pc, #736]	; (4df8 <main+0x300>)
    4b18:	0252      	lsls	r2, r2, #9
    4b1a:	601a      	str	r2, [r3, #0]
    4b1c:	2280      	movs	r2, #128	; 0x80
    4b1e:	0292      	lsls	r2, r2, #10
    4b20:	601a      	str	r2, [r3, #0]
    4b22:	2380      	movs	r3, #128	; 0x80
    4b24:	22c0      	movs	r2, #192	; 0xc0
    4b26:	035b      	lsls	r3, r3, #13
    4b28:	05d2      	lsls	r2, r2, #23
    4b2a:	6153      	str	r3, [r2, #20]
    4b2c:	2380      	movs	r3, #128	; 0x80
    4b2e:	039b      	lsls	r3, r3, #14
    4b30:	6153      	str	r3, [r2, #20]
    4b32:	2380      	movs	r3, #128	; 0x80
    4b34:	019b      	lsls	r3, r3, #6
    4b36:	6153      	str	r3, [r2, #20]
    4b38:	4bb0      	ldr	r3, [pc, #704]	; (4dfc <main+0x304>)
    4b3a:	4798      	blx	r3
    4b3c:	2301      	movs	r3, #1
    4b3e:	70bb      	strb	r3, [r7, #2]
    4b40:	4baf      	ldr	r3, [pc, #700]	; (4e00 <main+0x308>)
    4b42:	4798      	blx	r3
    4b44:	4baf      	ldr	r3, [pc, #700]	; (4e04 <main+0x30c>)
    4b46:	4798      	blx	r3
    4b48:	4baf      	ldr	r3, [pc, #700]	; (4e08 <main+0x310>)
    4b4a:	48b0      	ldr	r0, [pc, #704]	; (4e0c <main+0x314>)
    4b4c:	4798      	blx	r3
    4b4e:	4bb0      	ldr	r3, [pc, #704]	; (4e10 <main+0x318>)
    4b50:	b281      	uxth	r1, r0
    4b52:	48b0      	ldr	r0, [pc, #704]	; (4e14 <main+0x31c>)
    4b54:	4798      	blx	r3
    4b56:	2128      	movs	r1, #40	; 0x28
    4b58:	4bad      	ldr	r3, [pc, #692]	; (4e10 <main+0x318>)
    4b5a:	48af      	ldr	r0, [pc, #700]	; (4e18 <main+0x320>)
    4b5c:	4798      	blx	r3
    4b5e:	2102      	movs	r1, #2
    4b60:	4bab      	ldr	r3, [pc, #684]	; (4e10 <main+0x318>)
    4b62:	48ae      	ldr	r0, [pc, #696]	; (4e1c <main+0x324>)
    4b64:	4798      	blx	r3
    4b66:	2101      	movs	r1, #1
    4b68:	4ba9      	ldr	r3, [pc, #676]	; (4e10 <main+0x318>)
    4b6a:	48ad      	ldr	r0, [pc, #692]	; (4e20 <main+0x328>)
    4b6c:	4798      	blx	r3
    4b6e:	2101      	movs	r1, #1
    4b70:	4ba7      	ldr	r3, [pc, #668]	; (4e10 <main+0x318>)
    4b72:	48ac      	ldr	r0, [pc, #688]	; (4e24 <main+0x32c>)
    4b74:	4798      	blx	r3
    4b76:	4ba6      	ldr	r3, [pc, #664]	; (4e10 <main+0x318>)
    4b78:	48ab      	ldr	r0, [pc, #684]	; (4e28 <main+0x330>)
    4b7a:	4798      	blx	r3
    4b7c:	4bab      	ldr	r3, [pc, #684]	; (4e2c <main+0x334>)
    4b7e:	4798      	blx	r3
    4b80:	4cab      	ldr	r4, [pc, #684]	; (4e30 <main+0x338>)
    4b82:	4eac      	ldr	r6, [pc, #688]	; (4e34 <main+0x33c>)
    4b84:	48ac      	ldr	r0, [pc, #688]	; (4e38 <main+0x340>)
    4b86:	7165      	strb	r5, [r4, #5]
    4b88:	70a5      	strb	r5, [r4, #2]
    4b8a:	7065      	strb	r5, [r4, #1]
    4b8c:	70e5      	strb	r5, [r4, #3]
    4b8e:	7125      	strb	r5, [r4, #4]
    4b90:	7325      	strb	r5, [r4, #12]
    4b92:	7365      	strb	r5, [r4, #13]
    4b94:	71a5      	strb	r5, [r4, #6]
    4b96:	71e5      	strb	r5, [r4, #7]
    4b98:	7225      	strb	r5, [r4, #8]
    4b9a:	7265      	strb	r5, [r4, #9]
    4b9c:	47b0      	blx	r6
    4b9e:	0029      	movs	r1, r5
    4ba0:	4ba6      	ldr	r3, [pc, #664]	; (4e3c <main+0x344>)
    4ba2:	48a7      	ldr	r0, [pc, #668]	; (4e40 <main+0x348>)
    4ba4:	4798      	blx	r3
    4ba6:	48a7      	ldr	r0, [pc, #668]	; (4e44 <main+0x34c>)
    4ba8:	47b0      	blx	r6
    4baa:	49a7      	ldr	r1, [pc, #668]	; (4e48 <main+0x350>)
    4bac:	4ba7      	ldr	r3, [pc, #668]	; (4e4c <main+0x354>)
    4bae:	2022      	movs	r0, #34	; 0x22
    4bb0:	4798      	blx	r3
    4bb2:	48a7      	ldr	r0, [pc, #668]	; (4e50 <main+0x358>)
    4bb4:	47b0      	blx	r6
    4bb6:	49a7      	ldr	r1, [pc, #668]	; (4e54 <main+0x35c>)
    4bb8:	4ba4      	ldr	r3, [pc, #656]	; (4e4c <main+0x354>)
    4bba:	2023      	movs	r0, #35	; 0x23
    4bbc:	4798      	blx	r3
    4bbe:	48a6      	ldr	r0, [pc, #664]	; (4e58 <main+0x360>)
    4bc0:	47b0      	blx	r6
    4bc2:	2380      	movs	r3, #128	; 0x80
    4bc4:	22c0      	movs	r2, #192	; 0xc0
    4bc6:	20fa      	movs	r0, #250	; 0xfa
    4bc8:	05d2      	lsls	r2, r2, #23
    4bca:	055b      	lsls	r3, r3, #21
    4bcc:	6193      	str	r3, [r2, #24]
    4bce:	00c0      	lsls	r0, r0, #3
    4bd0:	4ba2      	ldr	r3, [pc, #648]	; (4e5c <main+0x364>)
    4bd2:	4798      	blx	r3
    4bd4:	48a2      	ldr	r0, [pc, #648]	; (4e60 <main+0x368>)
    4bd6:	47b0      	blx	r6
    4bd8:	2201      	movs	r2, #1
    4bda:	4ba2      	ldr	r3, [pc, #648]	; (4e64 <main+0x36c>)
    4bdc:	48a2      	ldr	r0, [pc, #648]	; (4e68 <main+0x370>)
    4bde:	701a      	strb	r2, [r3, #0]
    4be0:	47b0      	blx	r6
    4be2:	2220      	movs	r2, #32
    4be4:	4ba1      	ldr	r3, [pc, #644]	; (4e6c <main+0x374>)
    4be6:	48a2      	ldr	r0, [pc, #648]	; (4e70 <main+0x378>)
    4be8:	601a      	str	r2, [r3, #0]
    4bea:	47b0      	blx	r6
    4bec:	48a1      	ldr	r0, [pc, #644]	; (4e74 <main+0x37c>)
    4bee:	47b0      	blx	r6
    4bf0:	4ba1      	ldr	r3, [pc, #644]	; (4e78 <main+0x380>)
    4bf2:	9500      	str	r5, [sp, #0]
    4bf4:	801d      	strh	r5, [r3, #0]
    4bf6:	22fa      	movs	r2, #250	; 0xfa
    4bf8:	8839      	ldrh	r1, [r7, #0]
    4bfa:	4ba0      	ldr	r3, [pc, #640]	; (4e7c <main+0x384>)
    4bfc:	0052      	lsls	r2, r2, #1
    4bfe:	18cb      	adds	r3, r1, r3
    4c00:	b29b      	uxth	r3, r3
    4c02:	4293      	cmp	r3, r2
    4c04:	d978      	bls.n	4cf8 <main+0x200>
    4c06:	4b9e      	ldr	r3, [pc, #632]	; (4e80 <main+0x388>)
    4c08:	489e      	ldr	r0, [pc, #632]	; (4e84 <main+0x38c>)
    4c0a:	8fda      	ldrh	r2, [r3, #62]	; 0x3e
    4c0c:	3201      	adds	r2, #1
    4c0e:	b292      	uxth	r2, r2
    4c10:	87da      	strh	r2, [r3, #62]	; 0x3e
    4c12:	4b7f      	ldr	r3, [pc, #508]	; (4e10 <main+0x318>)
    4c14:	4798      	blx	r3
    4c16:	4b9a      	ldr	r3, [pc, #616]	; (4e80 <main+0x388>)
    4c18:	8fdb      	ldrh	r3, [r3, #62]	; 0x3e
    4c1a:	2b03      	cmp	r3, #3
    4c1c:	d901      	bls.n	4c22 <main+0x12a>
    4c1e:	4b9a      	ldr	r3, [pc, #616]	; (4e88 <main+0x390>)
    4c20:	4798      	blx	r3
    4c22:	4b95      	ldr	r3, [pc, #596]	; (4e78 <main+0x380>)
    4c24:	881b      	ldrh	r3, [r3, #0]
    4c26:	2b64      	cmp	r3, #100	; 0x64
    4c28:	d903      	bls.n	4c32 <main+0x13a>
    4c2a:	4898      	ldr	r0, [pc, #608]	; (4e8c <main+0x394>)
    4c2c:	47b0      	blx	r6
    4c2e:	4b98      	ldr	r3, [pc, #608]	; (4e90 <main+0x398>)
    4c30:	4798      	blx	r3
    4c32:	78a3      	ldrb	r3, [r4, #2]
    4c34:	2b00      	cmp	r3, #0
    4c36:	d064      	beq.n	4d02 <main+0x20a>
    4c38:	8b63      	ldrh	r3, [r4, #26]
    4c3a:	8be2      	ldrh	r2, [r4, #30]
    4c3c:	429a      	cmp	r2, r3
    4c3e:	d003      	beq.n	4c48 <main+0x150>
    4c40:	83e3      	strh	r3, [r4, #30]
    4c42:	2000      	movs	r0, #0
    4c44:	4b93      	ldr	r3, [pc, #588]	; (4e94 <main+0x39c>)
    4c46:	4798      	blx	r3
    4c48:	8b23      	ldrh	r3, [r4, #24]
    4c4a:	8ba2      	ldrh	r2, [r4, #28]
    4c4c:	429a      	cmp	r2, r3
    4c4e:	d003      	beq.n	4c58 <main+0x160>
    4c50:	83a3      	strh	r3, [r4, #28]
    4c52:	2001      	movs	r0, #1
    4c54:	4b90      	ldr	r3, [pc, #576]	; (4e98 <main+0x3a0>)
    4c56:	4798      	blx	r3
    4c58:	7863      	ldrb	r3, [r4, #1]
    4c5a:	2b00      	cmp	r3, #0
    4c5c:	d008      	beq.n	4c70 <main+0x178>
    4c5e:	466b      	mov	r3, sp
    4c60:	20fa      	movs	r0, #250	; 0xfa
    4c62:	781b      	ldrb	r3, [r3, #0]
    4c64:	00c0      	lsls	r0, r0, #3
    4c66:	70a3      	strb	r3, [r4, #2]
    4c68:	4b7c      	ldr	r3, [pc, #496]	; (4e5c <main+0x364>)
    4c6a:	4798      	blx	r3
    4c6c:	4b8b      	ldr	r3, [pc, #556]	; (4e9c <main+0x3a4>)
    4c6e:	4798      	blx	r3
    4c70:	7d3b      	ldrb	r3, [r7, #20]
    4c72:	2b00      	cmp	r3, #0
    4c74:	d00e      	beq.n	4c94 <main+0x19c>
    4c76:	78e3      	ldrb	r3, [r4, #3]
    4c78:	2b00      	cmp	r3, #0
    4c7a:	d10b      	bne.n	4c94 <main+0x19c>
    4c7c:	7923      	ldrb	r3, [r4, #4]
    4c7e:	2b00      	cmp	r3, #0
    4c80:	d108      	bne.n	4c94 <main+0x19c>
    4c82:	753b      	strb	r3, [r7, #20]
    4c84:	78a3      	ldrb	r3, [r4, #2]
    4c86:	2b00      	cmp	r3, #0
    4c88:	d100      	bne.n	4c8c <main+0x194>
    4c8a:	e162      	b.n	4f52 <main+0x45a>
    4c8c:	4884      	ldr	r0, [pc, #528]	; (4ea0 <main+0x3a8>)
    4c8e:	47b0      	blx	r6
    4c90:	4b82      	ldr	r3, [pc, #520]	; (4e9c <main+0x3a4>)
    4c92:	4798      	blx	r3
    4c94:	4d83      	ldr	r5, [pc, #524]	; (4ea4 <main+0x3ac>)
    4c96:	796b      	ldrb	r3, [r5, #5]
    4c98:	2b00      	cmp	r3, #0
    4c9a:	d0ac      	beq.n	4bf6 <main+0xfe>
    4c9c:	466b      	mov	r3, sp
    4c9e:	781b      	ldrb	r3, [r3, #0]
    4ca0:	716b      	strb	r3, [r5, #5]
    4ca2:	782b      	ldrb	r3, [r5, #0]
    4ca4:	2b0d      	cmp	r3, #13
    4ca6:	d100      	bne.n	4caa <main+0x1b2>
    4ca8:	e38d      	b.n	53c6 <main+0x8ce>
    4caa:	2b1e      	cmp	r3, #30
    4cac:	d100      	bne.n	4cb0 <main+0x1b8>
    4cae:	e350      	b.n	5352 <main+0x85a>
    4cb0:	2b06      	cmp	r3, #6
    4cb2:	d000      	beq.n	4cb6 <main+0x1be>
    4cb4:	e1f0      	b.n	5098 <main+0x5a0>
    4cb6:	4b56      	ldr	r3, [pc, #344]	; (4e10 <main+0x318>)
    4cb8:	7869      	ldrb	r1, [r5, #1]
    4cba:	487b      	ldr	r0, [pc, #492]	; (4ea8 <main+0x3b0>)
    4cbc:	4798      	blx	r3
    4cbe:	7868      	ldrb	r0, [r5, #1]
    4cc0:	1f03      	subs	r3, r0, #4
    4cc2:	2b08      	cmp	r3, #8
    4cc4:	d900      	bls.n	4cc8 <main+0x1d0>
    4cc6:	e148      	b.n	4f5a <main+0x462>
    4cc8:	78eb      	ldrb	r3, [r5, #3]
    4cca:	3805      	subs	r0, #5
    4ccc:	2b01      	cmp	r3, #1
    4cce:	d001      	beq.n	4cd4 <main+0x1dc>
    4cd0:	f000 fc41 	bl	5556 <main+0xa5e>
    4cd4:	22bc      	movs	r2, #188	; 0xbc
    4cd6:	0052      	lsls	r2, r2, #1
    4cd8:	80fa      	strh	r2, [r7, #6]
    4cda:	2807      	cmp	r0, #7
    4cdc:	d900      	bls.n	4ce0 <main+0x1e8>
    4cde:	e1f1      	b.n	50c4 <main+0x5cc>
    4ce0:	4b70      	ldr	r3, [pc, #448]	; (4ea4 <main+0x3ac>)
    4ce2:	78db      	ldrb	r3, [r3, #3]
    4ce4:	f001 ffec 	bl	6cc0 <__gnu_thumb1_case_uhi>
    4ce8:	017b016e 	.word	0x017b016e
    4cec:	01950188 	.word	0x01950188
    4cf0:	01eb016e 	.word	0x01eb016e
    4cf4:	0188017b 	.word	0x0188017b
    4cf8:	466a      	mov	r2, sp
    4cfa:	4b61      	ldr	r3, [pc, #388]	; (4e80 <main+0x388>)
    4cfc:	8812      	ldrh	r2, [r2, #0]
    4cfe:	87da      	strh	r2, [r3, #62]	; 0x3e
    4d00:	e789      	b.n	4c16 <main+0x11e>
    4d02:	7922      	ldrb	r2, [r4, #4]
    4d04:	2a00      	cmp	r2, #0
    4d06:	d100      	bne.n	4d0a <main+0x212>
    4d08:	e0e2      	b.n	4ed0 <main+0x3d8>
    4d0a:	7d3a      	ldrb	r2, [r7, #20]
    4d0c:	4d67      	ldr	r5, [pc, #412]	; (4eac <main+0x3b4>)
    4d0e:	2a00      	cmp	r2, #0
    4d10:	d038      	beq.n	4d84 <main+0x28c>
    4d12:	753b      	strb	r3, [r7, #20]
    4d14:	78e3      	ldrb	r3, [r4, #3]
    4d16:	2b00      	cmp	r3, #0
    4d18:	d134      	bne.n	4d84 <main+0x28c>
    4d1a:	88ab      	ldrh	r3, [r5, #4]
    4d1c:	2b00      	cmp	r3, #0
    4d1e:	d131      	bne.n	4d84 <main+0x28c>
    4d20:	3332      	adds	r3, #50	; 0x32
    4d22:	4863      	ldr	r0, [pc, #396]	; (4eb0 <main+0x3b8>)
    4d24:	80ab      	strh	r3, [r5, #4]
    4d26:	47b0      	blx	r6
    4d28:	8b63      	ldrh	r3, [r4, #26]
    4d2a:	8a61      	ldrh	r1, [r4, #18]
    4d2c:	3301      	adds	r3, #1
    4d2e:	b29b      	uxth	r3, r3
    4d30:	8363      	strh	r3, [r4, #26]
    4d32:	428b      	cmp	r3, r1
    4d34:	d303      	bcc.n	4d3e <main+0x246>
    4d36:	8b20      	ldrh	r0, [r4, #24]
    4d38:	8a22      	ldrh	r2, [r4, #16]
    4d3a:	4290      	cmp	r0, r2
    4d3c:	d003      	beq.n	4d46 <main+0x24e>
    4d3e:	8b22      	ldrh	r2, [r4, #24]
    4d40:	8a20      	ldrh	r0, [r4, #16]
    4d42:	4290      	cmp	r0, r2
    4d44:	d249      	bcs.n	4dda <main+0x2e2>
    4d46:	2301      	movs	r3, #1
    4d48:	7063      	strb	r3, [r4, #1]
    4d4a:	8aa1      	ldrh	r1, [r4, #20]
    4d4c:	2900      	cmp	r1, #0
    4d4e:	d001      	beq.n	4d54 <main+0x25c>
    4d50:	f000 fbef 	bl	5532 <main+0xa3a>
    4d54:	8ae3      	ldrh	r3, [r4, #22]
    4d56:	2b00      	cmp	r3, #0
    4d58:	d002      	beq.n	4d60 <main+0x268>
    4d5a:	8b62      	ldrh	r2, [r4, #26]
    4d5c:	429a      	cmp	r2, r3
    4d5e:	d111      	bne.n	4d84 <main+0x28c>
    4d60:	2301      	movs	r3, #1
    4d62:	4a54      	ldr	r2, [pc, #336]	; (4eb4 <main+0x3bc>)
    4d64:	4954      	ldr	r1, [pc, #336]	; (4eb8 <main+0x3c0>)
    4d66:	7163      	strb	r3, [r4, #5]
    4d68:	8011      	strh	r1, [r2, #0]
    4d6a:	7822      	ldrb	r2, [r4, #0]
    4d6c:	2a00      	cmp	r2, #0
    4d6e:	d109      	bne.n	4d84 <main+0x28c>
    4d70:	4852      	ldr	r0, [pc, #328]	; (4ebc <main+0x3c4>)
    4d72:	7023      	strb	r3, [r4, #0]
    4d74:	47b0      	blx	r6
    4d76:	4852      	ldr	r0, [pc, #328]	; (4ec0 <main+0x3c8>)
    4d78:	4b52      	ldr	r3, [pc, #328]	; (4ec4 <main+0x3cc>)
    4d7a:	2106      	movs	r1, #6
    4d7c:	3028      	adds	r0, #40	; 0x28
    4d7e:	4798      	blx	r3
    4d80:	2350      	movs	r3, #80	; 0x50
    4d82:	80eb      	strh	r3, [r5, #6]
    4d84:	88eb      	ldrh	r3, [r5, #6]
    4d86:	2b00      	cmp	r3, #0
    4d88:	d10a      	bne.n	4da0 <main+0x2a8>
    4d8a:	7822      	ldrb	r2, [r4, #0]
    4d8c:	2a00      	cmp	r2, #0
    4d8e:	d007      	beq.n	4da0 <main+0x2a8>
    4d90:	484d      	ldr	r0, [pc, #308]	; (4ec8 <main+0x3d0>)
    4d92:	7023      	strb	r3, [r4, #0]
    4d94:	47b0      	blx	r6
    4d96:	484a      	ldr	r0, [pc, #296]	; (4ec0 <main+0x3c8>)
    4d98:	2106      	movs	r1, #6
    4d9a:	3022      	adds	r0, #34	; 0x22
    4d9c:	4b49      	ldr	r3, [pc, #292]	; (4ec4 <main+0x3cc>)
    4d9e:	4798      	blx	r3
    4da0:	8b63      	ldrh	r3, [r4, #26]
    4da2:	8be2      	ldrh	r2, [r4, #30]
    4da4:	429a      	cmp	r2, r3
    4da6:	d003      	beq.n	4db0 <main+0x2b8>
    4da8:	83e3      	strh	r3, [r4, #30]
    4daa:	2010      	movs	r0, #16
    4dac:	4b39      	ldr	r3, [pc, #228]	; (4e94 <main+0x39c>)
    4dae:	4798      	blx	r3
    4db0:	8b23      	ldrh	r3, [r4, #24]
    4db2:	8ba2      	ldrh	r2, [r4, #28]
    4db4:	429a      	cmp	r2, r3
    4db6:	d003      	beq.n	4dc0 <main+0x2c8>
    4db8:	83a3      	strh	r3, [r4, #28]
    4dba:	2011      	movs	r0, #17
    4dbc:	4b36      	ldr	r3, [pc, #216]	; (4e98 <main+0x3a0>)
    4dbe:	4798      	blx	r3
    4dc0:	7863      	ldrb	r3, [r4, #1]
    4dc2:	2b00      	cmp	r3, #0
    4dc4:	d100      	bne.n	4dc8 <main+0x2d0>
    4dc6:	e753      	b.n	4c70 <main+0x178>
    4dc8:	466b      	mov	r3, sp
    4dca:	20fa      	movs	r0, #250	; 0xfa
    4dcc:	781b      	ldrb	r3, [r3, #0]
    4dce:	00c0      	lsls	r0, r0, #3
    4dd0:	7123      	strb	r3, [r4, #4]
    4dd2:	4b22      	ldr	r3, [pc, #136]	; (4e5c <main+0x364>)
    4dd4:	4798      	blx	r3
    4dd6:	4b3d      	ldr	r3, [pc, #244]	; (4ecc <main+0x3d4>)
    4dd8:	e749      	b.n	4c6e <main+0x176>
    4dda:	428b      	cmp	r3, r1
    4ddc:	d9b5      	bls.n	4d4a <main+0x252>
    4dde:	7863      	ldrb	r3, [r4, #1]
    4de0:	2b00      	cmp	r3, #0
    4de2:	d1b2      	bne.n	4d4a <main+0x252>
    4de4:	3201      	adds	r2, #1
    4de6:	3301      	adds	r3, #1
    4de8:	8322      	strh	r2, [r4, #24]
    4dea:	8363      	strh	r3, [r4, #26]
    4dec:	e7ad      	b.n	4d4a <main+0x252>
    4dee:	46c0      	nop			; (mov r8, r8)
    4df0:	2000073c 	.word	0x2000073c
    4df4:	00000115 	.word	0x00000115
    4df8:	60000094 	.word	0x60000094
    4dfc:	000046f5 	.word	0x000046f5
    4e00:	00004aa5 	.word	0x00004aa5
    4e04:	00005c39 	.word	0x00005c39
    4e08:	000010d5 	.word	0x000010d5
    4e0c:	20000900 	.word	0x20000900
    4e10:	0000709d 	.word	0x0000709d
    4e14:	0000bc38 	.word	0x0000bc38
    4e18:	0000bc50 	.word	0x0000bc50
    4e1c:	0000bc6a 	.word	0x0000bc6a
    4e20:	0000bc84 	.word	0x0000bc84
    4e24:	0000bca0 	.word	0x0000bca0
    4e28:	0000bcba 	.word	0x0000bcba
    4e2c:	00004005 	.word	0x00004005
    4e30:	20000a3c 	.word	0x20000a3c
    4e34:	00007191 	.word	0x00007191
    4e38:	0000bcdd 	.word	0x0000bcdd
    4e3c:	00000dc9 	.word	0x00000dc9
    4e40:	20000948 	.word	0x20000948
    4e44:	0000bceb 	.word	0x0000bceb
    4e48:	00003d8d 	.word	0x00003d8d
    4e4c:	00000ec5 	.word	0x00000ec5
    4e50:	0000bd0a 	.word	0x0000bd0a
    4e54:	00003e0d 	.word	0x00003e0d
    4e58:	0000bd23 	.word	0x0000bd23
    4e5c:	00000e39 	.word	0x00000e39
    4e60:	0000bd2e 	.word	0x0000bd2e
    4e64:	20000a64 	.word	0x20000a64
    4e68:	0000bd4b 	.word	0x0000bd4b
    4e6c:	60000098 	.word	0x60000098
    4e70:	0000bd5f 	.word	0x0000bd5f
    4e74:	0000bd88 	.word	0x0000bd88
    4e78:	2000017e 	.word	0x2000017e
    4e7c:	fffffa24 	.word	0xfffffa24
    4e80:	20000742 	.word	0x20000742
    4e84:	0000bdb1 	.word	0x0000bdb1
    4e88:	00004721 	.word	0x00004721
    4e8c:	0000bdd4 	.word	0x0000bdd4
    4e90:	00004795 	.word	0x00004795
    4e94:	0000461d 	.word	0x0000461d
    4e98:	00004689 	.word	0x00004689
    4e9c:	00004a45 	.word	0x00004a45
    4ea0:	0000be5a 	.word	0x0000be5a
    4ea4:	20000a34 	.word	0x20000a34
    4ea8:	0000be93 	.word	0x0000be93
    4eac:	20000000 	.word	0x20000000
    4eb0:	0000bde7 	.word	0x0000bde7
    4eb4:	20000180 	.word	0x20000180
    4eb8:	000003d6 	.word	0x000003d6
    4ebc:	0000be20 	.word	0x0000be20
    4ec0:	0000b35c 	.word	0x0000b35c
    4ec4:	00004231 	.word	0x00004231
    4ec8:	0000bdf4 	.word	0x0000bdf4
    4ecc:	00004935 	.word	0x00004935
    4ed0:	78e3      	ldrb	r3, [r4, #3]
    4ed2:	2b00      	cmp	r3, #0
    4ed4:	d100      	bne.n	4ed8 <main+0x3e0>
    4ed6:	e6cb      	b.n	4c70 <main+0x178>
    4ed8:	7963      	ldrb	r3, [r4, #5]
    4eda:	4dbc      	ldr	r5, [pc, #752]	; (51cc <main+0x6d4>)
    4edc:	2b00      	cmp	r3, #0
    4ede:	d00d      	beq.n	4efc <main+0x404>
    4ee0:	7823      	ldrb	r3, [r4, #0]
    4ee2:	2b00      	cmp	r3, #0
    4ee4:	d10a      	bne.n	4efc <main+0x404>
    4ee6:	3301      	adds	r3, #1
    4ee8:	48b9      	ldr	r0, [pc, #740]	; (51d0 <main+0x6d8>)
    4eea:	7023      	strb	r3, [r4, #0]
    4eec:	47b0      	blx	r6
    4eee:	48b9      	ldr	r0, [pc, #740]	; (51d4 <main+0x6dc>)
    4ef0:	4bb9      	ldr	r3, [pc, #740]	; (51d8 <main+0x6e0>)
    4ef2:	2106      	movs	r1, #6
    4ef4:	302e      	adds	r0, #46	; 0x2e
    4ef6:	4798      	blx	r3
    4ef8:	2350      	movs	r3, #80	; 0x50
    4efa:	80eb      	strh	r3, [r5, #6]
    4efc:	88eb      	ldrh	r3, [r5, #6]
    4efe:	2b00      	cmp	r3, #0
    4f00:	d10a      	bne.n	4f18 <main+0x420>
    4f02:	7822      	ldrb	r2, [r4, #0]
    4f04:	2a00      	cmp	r2, #0
    4f06:	d007      	beq.n	4f18 <main+0x420>
    4f08:	48b4      	ldr	r0, [pc, #720]	; (51dc <main+0x6e4>)
    4f0a:	7023      	strb	r3, [r4, #0]
    4f0c:	47b0      	blx	r6
    4f0e:	48b1      	ldr	r0, [pc, #708]	; (51d4 <main+0x6dc>)
    4f10:	2106      	movs	r1, #6
    4f12:	301c      	adds	r0, #28
    4f14:	4bb0      	ldr	r3, [pc, #704]	; (51d8 <main+0x6e0>)
    4f16:	4798      	blx	r3
    4f18:	8b63      	ldrh	r3, [r4, #26]
    4f1a:	8be2      	ldrh	r2, [r4, #30]
    4f1c:	429a      	cmp	r2, r3
    4f1e:	d003      	beq.n	4f28 <main+0x430>
    4f20:	83e3      	strh	r3, [r4, #30]
    4f22:	200e      	movs	r0, #14
    4f24:	4bae      	ldr	r3, [pc, #696]	; (51e0 <main+0x6e8>)
    4f26:	4798      	blx	r3
    4f28:	8b23      	ldrh	r3, [r4, #24]
    4f2a:	8ba2      	ldrh	r2, [r4, #28]
    4f2c:	429a      	cmp	r2, r3
    4f2e:	d003      	beq.n	4f38 <main+0x440>
    4f30:	83a3      	strh	r3, [r4, #28]
    4f32:	200f      	movs	r0, #15
    4f34:	4bab      	ldr	r3, [pc, #684]	; (51e4 <main+0x6ec>)
    4f36:	4798      	blx	r3
    4f38:	7863      	ldrb	r3, [r4, #1]
    4f3a:	2b00      	cmp	r3, #0
    4f3c:	d100      	bne.n	4f40 <main+0x448>
    4f3e:	e697      	b.n	4c70 <main+0x178>
    4f40:	466b      	mov	r3, sp
    4f42:	20fa      	movs	r0, #250	; 0xfa
    4f44:	781b      	ldrb	r3, [r3, #0]
    4f46:	00c0      	lsls	r0, r0, #3
    4f48:	70e3      	strb	r3, [r4, #3]
    4f4a:	4ba7      	ldr	r3, [pc, #668]	; (51e8 <main+0x6f0>)
    4f4c:	4798      	blx	r3
    4f4e:	4ba7      	ldr	r3, [pc, #668]	; (51ec <main+0x6f4>)
    4f50:	e68d      	b.n	4c6e <main+0x176>
    4f52:	48a7      	ldr	r0, [pc, #668]	; (51f0 <main+0x6f8>)
    4f54:	47b0      	blx	r6
    4f56:	4ba7      	ldr	r3, [pc, #668]	; (51f4 <main+0x6fc>)
    4f58:	e69b      	b.n	4c92 <main+0x19a>
    4f5a:	23bc      	movs	r3, #188	; 0xbc
    4f5c:	005b      	lsls	r3, r3, #1
    4f5e:	80fb      	strh	r3, [r7, #6]
    4f60:	2821      	cmp	r0, #33	; 0x21
    4f62:	d900      	bls.n	4f66 <main+0x46e>
    4f64:	e098      	b.n	5098 <main+0x5a0>
    4f66:	f001 feab 	bl	6cc0 <__gnu_thumb1_case_uhi>
    4f6a:	0022      	.short	0x0022
    4f6c:	002b0025 	.word	0x002b0025
    4f70:	009700a8 	.word	0x009700a8
    4f74:	00970097 	.word	0x00970097
    4f78:	00970097 	.word	0x00970097
    4f7c:	00970097 	.word	0x00970097
    4f80:	00970097 	.word	0x00970097
    4f84:	00b400b2 	.word	0x00b400b2
    4f88:	01dd00e7 	.word	0x01dd00e7
    4f8c:	00cb00e2 	.word	0x00cb00e2
    4f90:	019d0198 	.word	0x019d0198
    4f94:	017b01b3 	.word	0x017b01b3
    4f98:	0103011a 	.word	0x0103011a
    4f9c:	01b800ec 	.word	0x01b800ec
    4fa0:	01ca01cc 	.word	0x01ca01cc
    4fa4:	01dd01d8 	.word	0x01dd01d8
    4fa8:	01ce01d3 	.word	0x01ce01d3
    4fac:	01ef      	.short	0x01ef
    4fae:	4b91      	ldr	r3, [pc, #580]	; (51f4 <main+0x6fc>)
    4fb0:	4798      	blx	r3
    4fb2:	e071      	b.n	5098 <main+0x5a0>
    4fb4:	2007      	movs	r0, #7
    4fb6:	4b90      	ldr	r3, [pc, #576]	; (51f8 <main+0x700>)
    4fb8:	4798      	blx	r3
    4fba:	4890      	ldr	r0, [pc, #576]	; (51fc <main+0x704>)
    4fbc:	47b0      	blx	r6
    4fbe:	e06b      	b.n	5098 <main+0x5a0>
    4fc0:	4b8f      	ldr	r3, [pc, #572]	; (5200 <main+0x708>)
    4fc2:	e7f5      	b.n	4fb0 <main+0x4b8>
    4fc4:	2b01      	cmp	r3, #1
    4fc6:	d106      	bne.n	4fd6 <main+0x4de>
    4fc8:	2301      	movs	r3, #1
    4fca:	200a      	movs	r0, #10
    4fcc:	71e3      	strb	r3, [r4, #7]
    4fce:	4b86      	ldr	r3, [pc, #536]	; (51e8 <main+0x6f0>)
    4fd0:	4798      	blx	r3
    4fd2:	488c      	ldr	r0, [pc, #560]	; (5204 <main+0x70c>)
    4fd4:	e7f2      	b.n	4fbc <main+0x4c4>
    4fd6:	466b      	mov	r3, sp
    4fd8:	781b      	ldrb	r3, [r3, #0]
    4fda:	71e3      	strb	r3, [r4, #7]
    4fdc:	e7f9      	b.n	4fd2 <main+0x4da>
    4fde:	2b01      	cmp	r3, #1
    4fe0:	d106      	bne.n	4ff0 <main+0x4f8>
    4fe2:	2301      	movs	r3, #1
    4fe4:	200a      	movs	r0, #10
    4fe6:	7223      	strb	r3, [r4, #8]
    4fe8:	4b7f      	ldr	r3, [pc, #508]	; (51e8 <main+0x6f0>)
    4fea:	4798      	blx	r3
    4fec:	4886      	ldr	r0, [pc, #536]	; (5208 <main+0x710>)
    4fee:	e7e5      	b.n	4fbc <main+0x4c4>
    4ff0:	466b      	mov	r3, sp
    4ff2:	781b      	ldrb	r3, [r3, #0]
    4ff4:	7223      	strb	r3, [r4, #8]
    4ff6:	e7f9      	b.n	4fec <main+0x4f4>
    4ff8:	2b01      	cmp	r3, #1
    4ffa:	d106      	bne.n	500a <main+0x512>
    4ffc:	2301      	movs	r3, #1
    4ffe:	200a      	movs	r0, #10
    5000:	7263      	strb	r3, [r4, #9]
    5002:	4b79      	ldr	r3, [pc, #484]	; (51e8 <main+0x6f0>)
    5004:	4798      	blx	r3
    5006:	4881      	ldr	r0, [pc, #516]	; (520c <main+0x714>)
    5008:	e7d8      	b.n	4fbc <main+0x4c4>
    500a:	466b      	mov	r3, sp
    500c:	781b      	ldrb	r3, [r3, #0]
    500e:	7263      	strb	r3, [r4, #9]
    5010:	e7f9      	b.n	5006 <main+0x50e>
    5012:	2b01      	cmp	r3, #1
    5014:	d140      	bne.n	5098 <main+0x5a0>
    5016:	78e3      	ldrb	r3, [r4, #3]
    5018:	2b00      	cmp	r3, #0
    501a:	d13d      	bne.n	5098 <main+0x5a0>
    501c:	78a3      	ldrb	r3, [r4, #2]
    501e:	2b00      	cmp	r3, #0
    5020:	d13a      	bne.n	5098 <main+0x5a0>
    5022:	7923      	ldrb	r3, [r4, #4]
    5024:	2b00      	cmp	r3, #0
    5026:	d037      	beq.n	5098 <main+0x5a0>
    5028:	4b68      	ldr	r3, [pc, #416]	; (51cc <main+0x6d4>)
    502a:	889a      	ldrh	r2, [r3, #4]
    502c:	2a00      	cmp	r2, #0
    502e:	d133      	bne.n	5098 <main+0x5a0>
    5030:	3232      	adds	r2, #50	; 0x32
    5032:	4877      	ldr	r0, [pc, #476]	; (5210 <main+0x718>)
    5034:	809a      	strh	r2, [r3, #4]
    5036:	47b0      	blx	r6
    5038:	8b63      	ldrh	r3, [r4, #26]
    503a:	8a61      	ldrh	r1, [r4, #18]
    503c:	3301      	adds	r3, #1
    503e:	b29b      	uxth	r3, r3
    5040:	8363      	strh	r3, [r4, #26]
    5042:	428b      	cmp	r3, r1
    5044:	d303      	bcc.n	504e <main+0x556>
    5046:	8b20      	ldrh	r0, [r4, #24]
    5048:	8a22      	ldrh	r2, [r4, #16]
    504a:	4290      	cmp	r0, r2
    504c:	d003      	beq.n	5056 <main+0x55e>
    504e:	8b22      	ldrh	r2, [r4, #24]
    5050:	8a20      	ldrh	r0, [r4, #16]
    5052:	4290      	cmp	r0, r2
    5054:	d227      	bcs.n	50a6 <main+0x5ae>
    5056:	2301      	movs	r3, #1
    5058:	7063      	strb	r3, [r4, #1]
    505a:	8aa1      	ldrh	r1, [r4, #20]
    505c:	2900      	cmp	r1, #0
    505e:	d000      	beq.n	5062 <main+0x56a>
    5060:	e271      	b.n	5546 <main+0xa4e>
    5062:	8ae3      	ldrh	r3, [r4, #22]
    5064:	2b00      	cmp	r3, #0
    5066:	d002      	beq.n	506e <main+0x576>
    5068:	8b62      	ldrh	r2, [r4, #26]
    506a:	429a      	cmp	r2, r3
    506c:	d114      	bne.n	5098 <main+0x5a0>
    506e:	2501      	movs	r5, #1
    5070:	4868      	ldr	r0, [pc, #416]	; (5214 <main+0x71c>)
    5072:	7165      	strb	r5, [r4, #5]
    5074:	47b0      	blx	r6
    5076:	4b68      	ldr	r3, [pc, #416]	; (5218 <main+0x720>)
    5078:	4a68      	ldr	r2, [pc, #416]	; (521c <main+0x724>)
    507a:	801a      	strh	r2, [r3, #0]
    507c:	7823      	ldrb	r3, [r4, #0]
    507e:	2b00      	cmp	r3, #0
    5080:	d10a      	bne.n	5098 <main+0x5a0>
    5082:	4867      	ldr	r0, [pc, #412]	; (5220 <main+0x728>)
    5084:	7025      	strb	r5, [r4, #0]
    5086:	47b0      	blx	r6
    5088:	4852      	ldr	r0, [pc, #328]	; (51d4 <main+0x6dc>)
    508a:	4b53      	ldr	r3, [pc, #332]	; (51d8 <main+0x6e0>)
    508c:	2106      	movs	r1, #6
    508e:	3028      	adds	r0, #40	; 0x28
    5090:	4798      	blx	r3
    5092:	2250      	movs	r2, #80	; 0x50
    5094:	4b4d      	ldr	r3, [pc, #308]	; (51cc <main+0x6d4>)
    5096:	80da      	strh	r2, [r3, #6]
    5098:	4b62      	ldr	r3, [pc, #392]	; (5224 <main+0x72c>)
    509a:	4863      	ldr	r0, [pc, #396]	; (5228 <main+0x730>)
    509c:	785a      	ldrb	r2, [r3, #1]
    509e:	7819      	ldrb	r1, [r3, #0]
    50a0:	4b62      	ldr	r3, [pc, #392]	; (522c <main+0x734>)
    50a2:	4798      	blx	r3
    50a4:	e5a7      	b.n	4bf6 <main+0xfe>
    50a6:	428b      	cmp	r3, r1
    50a8:	d9d7      	bls.n	505a <main+0x562>
    50aa:	7863      	ldrb	r3, [r4, #1]
    50ac:	2b00      	cmp	r3, #0
    50ae:	d1d4      	bne.n	505a <main+0x562>
    50b0:	3201      	adds	r2, #1
    50b2:	3301      	adds	r3, #1
    50b4:	8322      	strh	r2, [r4, #24]
    50b6:	8363      	strh	r3, [r4, #26]
    50b8:	e7cf      	b.n	505a <main+0x562>
    50ba:	4b5d      	ldr	r3, [pc, #372]	; (5230 <main+0x738>)
    50bc:	e778      	b.n	4fb0 <main+0x4b8>
    50be:	2b01      	cmp	r3, #1
    50c0:	d000      	beq.n	50c4 <main+0x5cc>
    50c2:	e24c      	b.n	555e <main+0xa66>
    50c4:	71a3      	strb	r3, [r4, #6]
    50c6:	200a      	movs	r0, #10
    50c8:	4b47      	ldr	r3, [pc, #284]	; (51e8 <main+0x6f0>)
    50ca:	4798      	blx	r3
    50cc:	e24a      	b.n	5564 <main+0xa6c>
    50ce:	4b47      	ldr	r3, [pc, #284]	; (51ec <main+0x6f4>)
    50d0:	e76e      	b.n	4fb0 <main+0x4b8>
    50d2:	230e      	movs	r3, #14
    50d4:	4d57      	ldr	r5, [pc, #348]	; (5234 <main+0x73c>)
    50d6:	2006      	movs	r0, #6
    50d8:	742b      	strb	r3, [r5, #16]
    50da:	4b47      	ldr	r3, [pc, #284]	; (51f8 <main+0x700>)
    50dc:	4798      	blx	r3
    50de:	88eb      	ldrh	r3, [r5, #6]
    50e0:	483c      	ldr	r0, [pc, #240]	; (51d4 <main+0x6dc>)
    50e2:	64bb      	str	r3, [r7, #72]	; 0x48
    50e4:	9b00      	ldr	r3, [sp, #0]
    50e6:	2106      	movs	r1, #6
    50e8:	64fb      	str	r3, [r7, #76]	; 0x4c
    50ea:	4b53      	ldr	r3, [pc, #332]	; (5238 <main+0x740>)
    50ec:	3034      	adds	r0, #52	; 0x34
    50ee:	653b      	str	r3, [r7, #80]	; 0x50
    50f0:	4b39      	ldr	r3, [pc, #228]	; (51d8 <main+0x6e0>)
    50f2:	4798      	blx	r3
    50f4:	6cb8      	ldr	r0, [r7, #72]	; 0x48
    50f6:	210b      	movs	r1, #11
    50f8:	4b50      	ldr	r3, [pc, #320]	; (523c <main+0x744>)
    50fa:	4798      	blx	r3
    50fc:	4850      	ldr	r0, [pc, #320]	; (5240 <main+0x748>)
    50fe:	e75d      	b.n	4fbc <main+0x4c4>
    5100:	2312      	movs	r3, #18
    5102:	4d4c      	ldr	r5, [pc, #304]	; (5234 <main+0x73c>)
    5104:	2006      	movs	r0, #6
    5106:	742b      	strb	r3, [r5, #16]
    5108:	4b3b      	ldr	r3, [pc, #236]	; (51f8 <main+0x700>)
    510a:	4798      	blx	r3
    510c:	88ab      	ldrh	r3, [r5, #4]
    510e:	4831      	ldr	r0, [pc, #196]	; (51d4 <main+0x6dc>)
    5110:	64bb      	str	r3, [r7, #72]	; 0x48
    5112:	9b00      	ldr	r3, [sp, #0]
    5114:	2106      	movs	r1, #6
    5116:	64fb      	str	r3, [r7, #76]	; 0x4c
    5118:	4b4a      	ldr	r3, [pc, #296]	; (5244 <main+0x74c>)
    511a:	303a      	adds	r0, #58	; 0x3a
    511c:	653b      	str	r3, [r7, #80]	; 0x50
    511e:	4b2e      	ldr	r3, [pc, #184]	; (51d8 <main+0x6e0>)
    5120:	4798      	blx	r3
    5122:	6cb8      	ldr	r0, [r7, #72]	; 0x48
    5124:	210b      	movs	r1, #11
    5126:	4b45      	ldr	r3, [pc, #276]	; (523c <main+0x744>)
    5128:	4798      	blx	r3
    512a:	4847      	ldr	r0, [pc, #284]	; (5248 <main+0x750>)
    512c:	e746      	b.n	4fbc <main+0x4c4>
    512e:	2005      	movs	r0, #5
    5130:	4b31      	ldr	r3, [pc, #196]	; (51f8 <main+0x700>)
    5132:	4798      	blx	r3
    5134:	4845      	ldr	r0, [pc, #276]	; (524c <main+0x754>)
    5136:	e741      	b.n	4fbc <main+0x4c4>
    5138:	2007      	movs	r0, #7
    513a:	4b2f      	ldr	r3, [pc, #188]	; (51f8 <main+0x700>)
    513c:	4798      	blx	r3
    513e:	4844      	ldr	r0, [pc, #272]	; (5250 <main+0x758>)
    5140:	e73c      	b.n	4fbc <main+0x4c4>
    5142:	2319      	movs	r3, #25
    5144:	4d3b      	ldr	r5, [pc, #236]	; (5234 <main+0x73c>)
    5146:	2006      	movs	r0, #6
    5148:	742b      	strb	r3, [r5, #16]
    514a:	4b2b      	ldr	r3, [pc, #172]	; (51f8 <main+0x700>)
    514c:	4798      	blx	r3
    514e:	886b      	ldrh	r3, [r5, #2]
    5150:	4820      	ldr	r0, [pc, #128]	; (51d4 <main+0x6dc>)
    5152:	64bb      	str	r3, [r7, #72]	; 0x48
    5154:	2301      	movs	r3, #1
    5156:	64fb      	str	r3, [r7, #76]	; 0x4c
    5158:	4b37      	ldr	r3, [pc, #220]	; (5238 <main+0x740>)
    515a:	2106      	movs	r1, #6
    515c:	653b      	str	r3, [r7, #80]	; 0x50
    515e:	3040      	adds	r0, #64	; 0x40
    5160:	4b1d      	ldr	r3, [pc, #116]	; (51d8 <main+0x6e0>)
    5162:	4798      	blx	r3
    5164:	6cb8      	ldr	r0, [r7, #72]	; 0x48
    5166:	210b      	movs	r1, #11
    5168:	4b34      	ldr	r3, [pc, #208]	; (523c <main+0x744>)
    516a:	4798      	blx	r3
    516c:	4839      	ldr	r0, [pc, #228]	; (5254 <main+0x75c>)
    516e:	e725      	b.n	4fbc <main+0x4c4>
    5170:	2318      	movs	r3, #24
    5172:	4d30      	ldr	r5, [pc, #192]	; (5234 <main+0x73c>)
    5174:	2006      	movs	r0, #6
    5176:	742b      	strb	r3, [r5, #16]
    5178:	4b1f      	ldr	r3, [pc, #124]	; (51f8 <main+0x700>)
    517a:	4798      	blx	r3
    517c:	882b      	ldrh	r3, [r5, #0]
    517e:	4815      	ldr	r0, [pc, #84]	; (51d4 <main+0x6dc>)
    5180:	64bb      	str	r3, [r7, #72]	; 0x48
    5182:	2301      	movs	r3, #1
    5184:	64fb      	str	r3, [r7, #76]	; 0x4c
    5186:	4b2f      	ldr	r3, [pc, #188]	; (5244 <main+0x74c>)
    5188:	2106      	movs	r1, #6
    518a:	653b      	str	r3, [r7, #80]	; 0x50
    518c:	3046      	adds	r0, #70	; 0x46
    518e:	4b12      	ldr	r3, [pc, #72]	; (51d8 <main+0x6e0>)
    5190:	4798      	blx	r3
    5192:	6cb8      	ldr	r0, [r7, #72]	; 0x48
    5194:	210b      	movs	r1, #11
    5196:	4b29      	ldr	r3, [pc, #164]	; (523c <main+0x744>)
    5198:	4798      	blx	r3
    519a:	482f      	ldr	r0, [pc, #188]	; (5258 <main+0x760>)
    519c:	e70e      	b.n	4fbc <main+0x4c4>
    519e:	2317      	movs	r3, #23
    51a0:	4d24      	ldr	r5, [pc, #144]	; (5234 <main+0x73c>)
    51a2:	2006      	movs	r0, #6
    51a4:	742b      	strb	r3, [r5, #16]
    51a6:	4b14      	ldr	r3, [pc, #80]	; (51f8 <main+0x700>)
    51a8:	4798      	blx	r3
    51aa:	892b      	ldrh	r3, [r5, #8]
    51ac:	4809      	ldr	r0, [pc, #36]	; (51d4 <main+0x6dc>)
    51ae:	64bb      	str	r3, [r7, #72]	; 0x48
    51b0:	2364      	movs	r3, #100	; 0x64
    51b2:	64fb      	str	r3, [r7, #76]	; 0x4c
    51b4:	4b20      	ldr	r3, [pc, #128]	; (5238 <main+0x740>)
    51b6:	2106      	movs	r1, #6
    51b8:	653b      	str	r3, [r7, #80]	; 0x50
    51ba:	304c      	adds	r0, #76	; 0x4c
    51bc:	4b06      	ldr	r3, [pc, #24]	; (51d8 <main+0x6e0>)
    51be:	4798      	blx	r3
    51c0:	6cb8      	ldr	r0, [r7, #72]	; 0x48
    51c2:	210b      	movs	r1, #11
    51c4:	4b1d      	ldr	r3, [pc, #116]	; (523c <main+0x744>)
    51c6:	4798      	blx	r3
    51c8:	4824      	ldr	r0, [pc, #144]	; (525c <main+0x764>)
    51ca:	e6f7      	b.n	4fbc <main+0x4c4>
    51cc:	20000000 	.word	0x20000000
    51d0:	0000be15 	.word	0x0000be15
    51d4:	0000b35c 	.word	0x0000b35c
    51d8:	00004231 	.word	0x00004231
    51dc:	0000be37 	.word	0x0000be37
    51e0:	0000461d 	.word	0x0000461d
    51e4:	00004689 	.word	0x00004689
    51e8:	00000e39 	.word	0x00000e39
    51ec:	00004879 	.word	0x00004879
    51f0:	0000be76 	.word	0x0000be76
    51f4:	00004981 	.word	0x00004981
    51f8:	00004355 	.word	0x00004355
    51fc:	0000beb4 	.word	0x0000beb4
    5200:	00004a45 	.word	0x00004a45
    5204:	0000bed6 	.word	0x0000bed6
    5208:	0000bee3 	.word	0x0000bee3
    520c:	0000bef0 	.word	0x0000bef0
    5210:	0000bde7 	.word	0x0000bde7
    5214:	0000befd 	.word	0x0000befd
    5218:	20000180 	.word	0x20000180
    521c:	000003d6 	.word	0x000003d6
    5220:	0000be20 	.word	0x0000be20
    5224:	20000a34 	.word	0x20000a34
    5228:	0000c27c 	.word	0x0000c27c
    522c:	0000709d 	.word	0x0000709d
    5230:	00004935 	.word	0x00004935
    5234:	20000a68 	.word	0x20000a68
    5238:	000003e7 	.word	0x000003e7
    523c:	000042f1 	.word	0x000042f1
    5240:	0000bf0f 	.word	0x0000bf0f
    5244:	0000270f 	.word	0x0000270f
    5248:	0000bf35 	.word	0x0000bf35
    524c:	0000bf5c 	.word	0x0000bf5c
    5250:	0000bfa9 	.word	0x0000bfa9
    5254:	0000bfc9 	.word	0x0000bfc9
    5258:	0000bfea 	.word	0x0000bfea
    525c:	0000c00c 	.word	0x0000c00c
    5260:	2316      	movs	r3, #22
    5262:	4dc1      	ldr	r5, [pc, #772]	; (5568 <main+0xa70>)
    5264:	2006      	movs	r0, #6
    5266:	742b      	strb	r3, [r5, #16]
    5268:	4bc0      	ldr	r3, [pc, #768]	; (556c <main+0xa74>)
    526a:	4798      	blx	r3
    526c:	68eb      	ldr	r3, [r5, #12]
    526e:	64bb      	str	r3, [r7, #72]	; 0x48
    5270:	892a      	ldrh	r2, [r5, #8]
    5272:	886b      	ldrh	r3, [r5, #2]
    5274:	4353      	muls	r3, r2
    5276:	4abe      	ldr	r2, [pc, #760]	; (5570 <main+0xa78>)
    5278:	4293      	cmp	r3, r2
    527a:	dd0c      	ble.n	5296 <main+0x79e>
    527c:	64fa      	str	r2, [r7, #76]	; 0x4c
    527e:	48bd      	ldr	r0, [pc, #756]	; (5574 <main+0xa7c>)
    5280:	2106      	movs	r1, #6
    5282:	3052      	adds	r0, #82	; 0x52
    5284:	4bbc      	ldr	r3, [pc, #752]	; (5578 <main+0xa80>)
    5286:	653a      	str	r2, [r7, #80]	; 0x50
    5288:	4798      	blx	r3
    528a:	6cb8      	ldr	r0, [r7, #72]	; 0x48
    528c:	210b      	movs	r1, #11
    528e:	4bbb      	ldr	r3, [pc, #748]	; (557c <main+0xa84>)
    5290:	4798      	blx	r3
    5292:	48bb      	ldr	r0, [pc, #748]	; (5580 <main+0xa88>)
    5294:	e692      	b.n	4fbc <main+0x4c4>
    5296:	64fb      	str	r3, [r7, #76]	; 0x4c
    5298:	e7f1      	b.n	527e <main+0x786>
    529a:	2004      	movs	r0, #4
    529c:	4bb3      	ldr	r3, [pc, #716]	; (556c <main+0xa74>)
    529e:	4798      	blx	r3
    52a0:	48b8      	ldr	r0, [pc, #736]	; (5584 <main+0xa8c>)
    52a2:	e68b      	b.n	4fbc <main+0x4c4>
    52a4:	2007      	movs	r0, #7
    52a6:	4bb1      	ldr	r3, [pc, #708]	; (556c <main+0xa74>)
    52a8:	4798      	blx	r3
    52aa:	4baf      	ldr	r3, [pc, #700]	; (5568 <main+0xa70>)
    52ac:	48b6      	ldr	r0, [pc, #728]	; (5588 <main+0xa90>)
    52ae:	885a      	ldrh	r2, [r3, #2]
    52b0:	8262      	strh	r2, [r4, #18]
    52b2:	881a      	ldrh	r2, [r3, #0]
    52b4:	8222      	strh	r2, [r4, #16]
    52b6:	88da      	ldrh	r2, [r3, #6]
    52b8:	82e2      	strh	r2, [r4, #22]
    52ba:	889a      	ldrh	r2, [r3, #4]
    52bc:	82a2      	strh	r2, [r4, #20]
    52be:	891a      	ldrh	r2, [r3, #8]
    52c0:	68db      	ldr	r3, [r3, #12]
    52c2:	8422      	strh	r2, [r4, #32]
    52c4:	6263      	str	r3, [r4, #36]	; 0x24
    52c6:	47b0      	blx	r6
    52c8:	4bb0      	ldr	r3, [pc, #704]	; (558c <main+0xa94>)
    52ca:	4798      	blx	r3
    52cc:	48b0      	ldr	r0, [pc, #704]	; (5590 <main+0xa98>)
    52ce:	e675      	b.n	4fbc <main+0x4c4>
    52d0:	2007      	movs	r0, #7
    52d2:	4ba6      	ldr	r3, [pc, #664]	; (556c <main+0xa74>)
    52d4:	4798      	blx	r3
    52d6:	48af      	ldr	r0, [pc, #700]	; (5594 <main+0xa9c>)
    52d8:	e670      	b.n	4fbc <main+0x4c4>
    52da:	4ba3      	ldr	r3, [pc, #652]	; (5568 <main+0xa70>)
    52dc:	8a62      	ldrh	r2, [r4, #18]
    52de:	2004      	movs	r0, #4
    52e0:	805a      	strh	r2, [r3, #2]
    52e2:	8a22      	ldrh	r2, [r4, #16]
    52e4:	801a      	strh	r2, [r3, #0]
    52e6:	8ae2      	ldrh	r2, [r4, #22]
    52e8:	80da      	strh	r2, [r3, #6]
    52ea:	8aa2      	ldrh	r2, [r4, #20]
    52ec:	809a      	strh	r2, [r3, #4]
    52ee:	8c22      	ldrh	r2, [r4, #32]
    52f0:	811a      	strh	r2, [r3, #8]
    52f2:	6a62      	ldr	r2, [r4, #36]	; 0x24
    52f4:	60da      	str	r2, [r3, #12]
    52f6:	4b9d      	ldr	r3, [pc, #628]	; (556c <main+0xa74>)
    52f8:	4798      	blx	r3
    52fa:	48a7      	ldr	r0, [pc, #668]	; (5598 <main+0xaa0>)
    52fc:	e65e      	b.n	4fbc <main+0x4c4>
    52fe:	4ba7      	ldr	r3, [pc, #668]	; (559c <main+0xaa4>)
    5300:	e656      	b.n	4fb0 <main+0x4b8>
    5302:	4ba7      	ldr	r3, [pc, #668]	; (55a0 <main+0xaa8>)
    5304:	e654      	b.n	4fb0 <main+0x4b8>
    5306:	2000      	movs	r0, #0
    5308:	4b98      	ldr	r3, [pc, #608]	; (556c <main+0xa74>)
    530a:	4798      	blx	r3
    530c:	48a5      	ldr	r0, [pc, #660]	; (55a4 <main+0xaac>)
    530e:	e655      	b.n	4fbc <main+0x4c4>
    5310:	200a      	movs	r0, #10
    5312:	4b96      	ldr	r3, [pc, #600]	; (556c <main+0xa74>)
    5314:	4798      	blx	r3
    5316:	48a4      	ldr	r0, [pc, #656]	; (55a8 <main+0xab0>)
    5318:	e650      	b.n	4fbc <main+0x4c4>
    531a:	2004      	movs	r0, #4
    531c:	4b93      	ldr	r3, [pc, #588]	; (556c <main+0xa74>)
    531e:	4798      	blx	r3
    5320:	48a2      	ldr	r0, [pc, #648]	; (55ac <main+0xab4>)
    5322:	e64b      	b.n	4fbc <main+0x4c4>
    5324:	2007      	movs	r0, #7
    5326:	4b91      	ldr	r3, [pc, #580]	; (556c <main+0xa74>)
    5328:	4798      	blx	r3
    532a:	4b8f      	ldr	r3, [pc, #572]	; (5568 <main+0xa70>)
    532c:	48a0      	ldr	r0, [pc, #640]	; (55b0 <main+0xab8>)
    532e:	885a      	ldrh	r2, [r3, #2]
    5330:	8262      	strh	r2, [r4, #18]
    5332:	881a      	ldrh	r2, [r3, #0]
    5334:	8222      	strh	r2, [r4, #16]
    5336:	88da      	ldrh	r2, [r3, #6]
    5338:	82e2      	strh	r2, [r4, #22]
    533a:	889a      	ldrh	r2, [r3, #4]
    533c:	82a2      	strh	r2, [r4, #20]
    533e:	891a      	ldrh	r2, [r3, #8]
    5340:	68db      	ldr	r3, [r3, #12]
    5342:	8422      	strh	r2, [r4, #32]
    5344:	6263      	str	r3, [r4, #36]	; 0x24
    5346:	e7be      	b.n	52c6 <main+0x7ce>
    5348:	2007      	movs	r0, #7
    534a:	4b88      	ldr	r3, [pc, #544]	; (556c <main+0xa74>)
    534c:	4798      	blx	r3
    534e:	4899      	ldr	r0, [pc, #612]	; (55b4 <main+0xabc>)
    5350:	e634      	b.n	4fbc <main+0x4c4>
    5352:	4b99      	ldr	r3, [pc, #612]	; (55b8 <main+0xac0>)
    5354:	78ea      	ldrb	r2, [r5, #3]
    5356:	7869      	ldrb	r1, [r5, #1]
    5358:	4898      	ldr	r0, [pc, #608]	; (55bc <main+0xac4>)
    535a:	4798      	blx	r3
    535c:	23bc      	movs	r3, #188	; 0xbc
    535e:	005b      	lsls	r3, r3, #1
    5360:	80fb      	strh	r3, [r7, #6]
    5362:	786b      	ldrb	r3, [r5, #1]
    5364:	2b00      	cmp	r3, #0
    5366:	d010      	beq.n	538a <main+0x892>
    5368:	2b01      	cmp	r3, #1
    536a:	d000      	beq.n	536e <main+0x876>
    536c:	e694      	b.n	5098 <main+0x5a0>
    536e:	78ed      	ldrb	r5, [r5, #3]
    5370:	2d00      	cmp	r5, #0
    5372:	d020      	beq.n	53b6 <main+0x8be>
    5374:	2d01      	cmp	r5, #1
    5376:	d000      	beq.n	537a <main+0x882>
    5378:	e68e      	b.n	5098 <main+0x5a0>
    537a:	4891      	ldr	r0, [pc, #580]	; (55c0 <main+0xac8>)
    537c:	2106      	movs	r1, #6
    537e:	3036      	adds	r0, #54	; 0x36
    5380:	4b7d      	ldr	r3, [pc, #500]	; (5578 <main+0xa80>)
    5382:	4798      	blx	r3
    5384:	72e5      	strb	r5, [r4, #11]
    5386:	488f      	ldr	r0, [pc, #572]	; (55c4 <main+0xacc>)
    5388:	e618      	b.n	4fbc <main+0x4c4>
    538a:	78ed      	ldrb	r5, [r5, #3]
    538c:	2d00      	cmp	r5, #0
    538e:	d00a      	beq.n	53a6 <main+0x8ae>
    5390:	2d01      	cmp	r5, #1
    5392:	d000      	beq.n	5396 <main+0x89e>
    5394:	e680      	b.n	5098 <main+0x5a0>
    5396:	488a      	ldr	r0, [pc, #552]	; (55c0 <main+0xac8>)
    5398:	2106      	movs	r1, #6
    539a:	304e      	adds	r0, #78	; 0x4e
    539c:	4b76      	ldr	r3, [pc, #472]	; (5578 <main+0xa80>)
    539e:	4798      	blx	r3
    53a0:	72a5      	strb	r5, [r4, #10]
    53a2:	4889      	ldr	r0, [pc, #548]	; (55c8 <main+0xad0>)
    53a4:	e60a      	b.n	4fbc <main+0x4c4>
    53a6:	4886      	ldr	r0, [pc, #536]	; (55c0 <main+0xac8>)
    53a8:	2106      	movs	r1, #6
    53aa:	305a      	adds	r0, #90	; 0x5a
    53ac:	4b72      	ldr	r3, [pc, #456]	; (5578 <main+0xa80>)
    53ae:	4798      	blx	r3
    53b0:	72a5      	strb	r5, [r4, #10]
    53b2:	4886      	ldr	r0, [pc, #536]	; (55cc <main+0xad4>)
    53b4:	e602      	b.n	4fbc <main+0x4c4>
    53b6:	4882      	ldr	r0, [pc, #520]	; (55c0 <main+0xac8>)
    53b8:	2106      	movs	r1, #6
    53ba:	3042      	adds	r0, #66	; 0x42
    53bc:	4b6e      	ldr	r3, [pc, #440]	; (5578 <main+0xa80>)
    53be:	4798      	blx	r3
    53c0:	72e5      	strb	r5, [r4, #11]
    53c2:	4883      	ldr	r0, [pc, #524]	; (55d0 <main+0xad8>)
    53c4:	e5fa      	b.n	4fbc <main+0x4c4>
    53c6:	7869      	ldrb	r1, [r5, #1]
    53c8:	4b7b      	ldr	r3, [pc, #492]	; (55b8 <main+0xac0>)
    53ca:	78ea      	ldrb	r2, [r5, #3]
    53cc:	487b      	ldr	r0, [pc, #492]	; (55bc <main+0xac4>)
    53ce:	4798      	blx	r3
    53d0:	23bc      	movs	r3, #188	; 0xbc
    53d2:	005b      	lsls	r3, r3, #1
    53d4:	80fb      	strh	r3, [r7, #6]
    53d6:	6cbb      	ldr	r3, [r7, #72]	; 0x48
    53d8:	9301      	str	r3, [sp, #4]
    53da:	78e9      	ldrb	r1, [r5, #3]
    53dc:	296f      	cmp	r1, #111	; 0x6f
    53de:	d020      	beq.n	5422 <main+0x92a>
    53e0:	29b0      	cmp	r1, #176	; 0xb0
    53e2:	d00a      	beq.n	53fa <main+0x902>
    53e4:	2963      	cmp	r1, #99	; 0x63
    53e6:	d000      	beq.n	53ea <main+0x8f2>
    53e8:	e090      	b.n	550c <main+0xa14>
    53ea:	487a      	ldr	r0, [pc, #488]	; (55d4 <main+0xadc>)
    53ec:	47b0      	blx	r6
    53ee:	7b60      	ldrb	r0, [r4, #13]
    53f0:	4b5e      	ldr	r3, [pc, #376]	; (556c <main+0xa74>)
    53f2:	4798      	blx	r3
    53f4:	7b61      	ldrb	r1, [r4, #13]
    53f6:	4878      	ldr	r0, [pc, #480]	; (55d8 <main+0xae0>)
    53f8:	e070      	b.n	54dc <main+0x9e4>
    53fa:	9b01      	ldr	r3, [sp, #4]
    53fc:	2b00      	cmp	r3, #0
    53fe:	d004      	beq.n	540a <main+0x912>
    5400:	0018      	movs	r0, r3
    5402:	210a      	movs	r1, #10
    5404:	4b75      	ldr	r3, [pc, #468]	; (55dc <main+0xae4>)
    5406:	4798      	blx	r3
    5408:	64b8      	str	r0, [r7, #72]	; 0x48
    540a:	4875      	ldr	r0, [pc, #468]	; (55e0 <main+0xae8>)
    540c:	47b0      	blx	r6
    540e:	6cb9      	ldr	r1, [r7, #72]	; 0x48
    5410:	9a01      	ldr	r2, [sp, #4]
    5412:	4b69      	ldr	r3, [pc, #420]	; (55b8 <main+0xac0>)
    5414:	4873      	ldr	r0, [pc, #460]	; (55e4 <main+0xaec>)
    5416:	4798      	blx	r3
    5418:	210b      	movs	r1, #11
    541a:	6cb8      	ldr	r0, [r7, #72]	; 0x48
    541c:	4b57      	ldr	r3, [pc, #348]	; (557c <main+0xa84>)
    541e:	4798      	blx	r3
    5420:	e63a      	b.n	5098 <main+0x5a0>
    5422:	4871      	ldr	r0, [pc, #452]	; (55e8 <main+0xaf0>)
    5424:	47b0      	blx	r6
    5426:	4b64      	ldr	r3, [pc, #400]	; (55b8 <main+0xac0>)
    5428:	6cb9      	ldr	r1, [r7, #72]	; 0x48
    542a:	4870      	ldr	r0, [pc, #448]	; (55ec <main+0xaf4>)
    542c:	4798      	blx	r3
    542e:	6cf8      	ldr	r0, [r7, #76]	; 0x4c
    5430:	6cbb      	ldr	r3, [r7, #72]	; 0x48
    5432:	4d52      	ldr	r5, [pc, #328]	; (557c <main+0xa84>)
    5434:	4283      	cmp	r3, r0
    5436:	d206      	bcs.n	5446 <main+0x94e>
    5438:	210b      	movs	r1, #11
    543a:	64b8      	str	r0, [r7, #72]	; 0x48
    543c:	47a8      	blx	r5
    543e:	20fa      	movs	r0, #250	; 0xfa
    5440:	4b6b      	ldr	r3, [pc, #428]	; (55f0 <main+0xaf8>)
    5442:	0040      	lsls	r0, r0, #1
    5444:	4798      	blx	r3
    5446:	6d38      	ldr	r0, [r7, #80]	; 0x50
    5448:	6cbb      	ldr	r3, [r7, #72]	; 0x48
    544a:	4283      	cmp	r3, r0
    544c:	d906      	bls.n	545c <main+0x964>
    544e:	210b      	movs	r1, #11
    5450:	64b8      	str	r0, [r7, #72]	; 0x48
    5452:	47a8      	blx	r5
    5454:	20fa      	movs	r0, #250	; 0xfa
    5456:	4b66      	ldr	r3, [pc, #408]	; (55f0 <main+0xaf8>)
    5458:	0040      	lsls	r0, r0, #1
    545a:	4798      	blx	r3
    545c:	6cb9      	ldr	r1, [r7, #72]	; 0x48
    545e:	4b56      	ldr	r3, [pc, #344]	; (55b8 <main+0xac0>)
    5460:	4864      	ldr	r0, [pc, #400]	; (55f4 <main+0xafc>)
    5462:	4798      	blx	r3
    5464:	7b60      	ldrb	r0, [r4, #13]
    5466:	4b41      	ldr	r3, [pc, #260]	; (556c <main+0xa74>)
    5468:	4798      	blx	r3
    546a:	4d3f      	ldr	r5, [pc, #252]	; (5568 <main+0xa70>)
    546c:	7c28      	ldrb	r0, [r5, #16]
    546e:	380e      	subs	r0, #14
    5470:	280b      	cmp	r0, #11
    5472:	d819      	bhi.n	54a8 <main+0x9b0>
    5474:	f001 fc10 	bl	6c98 <__gnu_thumb1_case_uqi>
    5478:	18181835 	.word	0x18181835
    547c:	1818183a 	.word	0x1818183a
    5480:	06143f48 	.word	0x06143f48
    5484:	2348      	movs	r3, #72	; 0x48
    5486:	18fb      	adds	r3, r7, r3
    5488:	881b      	ldrh	r3, [r3, #0]
    548a:	806b      	strh	r3, [r5, #2]
    548c:	2348      	movs	r3, #72	; 0x48
    548e:	18fb      	adds	r3, r7, r3
    5490:	881a      	ldrh	r2, [r3, #0]
    5492:	892b      	ldrh	r3, [r5, #8]
    5494:	4353      	muls	r3, r2
    5496:	68ea      	ldr	r2, [r5, #12]
    5498:	429a      	cmp	r2, r3
    549a:	d205      	bcs.n	54a8 <main+0x9b0>
    549c:	60eb      	str	r3, [r5, #12]
    549e:	e003      	b.n	54a8 <main+0x9b0>
    54a0:	2348      	movs	r3, #72	; 0x48
    54a2:	18fb      	adds	r3, r7, r3
    54a4:	881b      	ldrh	r3, [r3, #0]
    54a6:	802b      	strh	r3, [r5, #0]
    54a8:	8868      	ldrh	r0, [r5, #2]
    54aa:	2106      	movs	r1, #6
    54ac:	4b33      	ldr	r3, [pc, #204]	; (557c <main+0xa84>)
    54ae:	4798      	blx	r3
    54b0:	8828      	ldrh	r0, [r5, #0]
    54b2:	2107      	movs	r1, #7
    54b4:	4b31      	ldr	r3, [pc, #196]	; (557c <main+0xa84>)
    54b6:	4798      	blx	r3
    54b8:	88e8      	ldrh	r0, [r5, #6]
    54ba:	2104      	movs	r1, #4
    54bc:	4b2f      	ldr	r3, [pc, #188]	; (557c <main+0xa84>)
    54be:	4798      	blx	r3
    54c0:	88a8      	ldrh	r0, [r5, #4]
    54c2:	2105      	movs	r1, #5
    54c4:	4b2d      	ldr	r3, [pc, #180]	; (557c <main+0xa84>)
    54c6:	4798      	blx	r3
    54c8:	8928      	ldrh	r0, [r5, #8]
    54ca:	2108      	movs	r1, #8
    54cc:	4b2b      	ldr	r3, [pc, #172]	; (557c <main+0xa84>)
    54ce:	4798      	blx	r3
    54d0:	2109      	movs	r1, #9
    54d2:	68e8      	ldr	r0, [r5, #12]
    54d4:	4b29      	ldr	r3, [pc, #164]	; (557c <main+0xa84>)
    54d6:	4798      	blx	r3
    54d8:	7b61      	ldrb	r1, [r4, #13]
    54da:	4847      	ldr	r0, [pc, #284]	; (55f8 <main+0xb00>)
    54dc:	4b36      	ldr	r3, [pc, #216]	; (55b8 <main+0xac0>)
    54de:	4798      	blx	r3
    54e0:	e795      	b.n	540e <main+0x916>
    54e2:	2348      	movs	r3, #72	; 0x48
    54e4:	18fb      	adds	r3, r7, r3
    54e6:	881b      	ldrh	r3, [r3, #0]
    54e8:	80eb      	strh	r3, [r5, #6]
    54ea:	e7dd      	b.n	54a8 <main+0x9b0>
    54ec:	2348      	movs	r3, #72	; 0x48
    54ee:	18fb      	adds	r3, r7, r3
    54f0:	881b      	ldrh	r3, [r3, #0]
    54f2:	80ab      	strh	r3, [r5, #4]
    54f4:	e7d8      	b.n	54a8 <main+0x9b0>
    54f6:	2348      	movs	r3, #72	; 0x48
    54f8:	18fb      	adds	r3, r7, r3
    54fa:	881b      	ldrh	r3, [r3, #0]
    54fc:	886a      	ldrh	r2, [r5, #2]
    54fe:	812b      	strh	r3, [r5, #8]
    5500:	2348      	movs	r3, #72	; 0x48
    5502:	18fb      	adds	r3, r7, r3
    5504:	881b      	ldrh	r3, [r3, #0]
    5506:	e7c5      	b.n	5494 <main+0x99c>
    5508:	6cbb      	ldr	r3, [r7, #72]	; 0x48
    550a:	e7c7      	b.n	549c <main+0x9a4>
    550c:	000b      	movs	r3, r1
    550e:	3b2a      	subs	r3, #42	; 0x2a
    5510:	2b0f      	cmp	r3, #15
    5512:	d900      	bls.n	5516 <main+0xa1e>
    5514:	e77b      	b.n	540e <main+0x916>
    5516:	230a      	movs	r3, #10
    5518:	9a01      	ldr	r2, [sp, #4]
    551a:	3930      	subs	r1, #48	; 0x30
    551c:	4353      	muls	r3, r2
    551e:	b2c9      	uxtb	r1, r1
    5520:	6d3a      	ldr	r2, [r7, #80]	; 0x50
    5522:	185b      	adds	r3, r3, r1
    5524:	64bb      	str	r3, [r7, #72]	; 0x48
    5526:	4293      	cmp	r3, r2
    5528:	d901      	bls.n	552e <main+0xa36>
    552a:	9b01      	ldr	r3, [sp, #4]
    552c:	64bb      	str	r3, [r7, #72]	; 0x48
    552e:	4833      	ldr	r0, [pc, #204]	; (55fc <main+0xb04>)
    5530:	e7d4      	b.n	54dc <main+0x9e4>
    5532:	8b20      	ldrh	r0, [r4, #24]
    5534:	4b32      	ldr	r3, [pc, #200]	; (5600 <main+0xb08>)
    5536:	3801      	subs	r0, #1
    5538:	4798      	blx	r3
    553a:	2900      	cmp	r1, #0
    553c:	d101      	bne.n	5542 <main+0xa4a>
    553e:	f7ff fc09 	bl	4d54 <main+0x25c>
    5542:	f7ff fc1f 	bl	4d84 <main+0x28c>
    5546:	8b20      	ldrh	r0, [r4, #24]
    5548:	4b2d      	ldr	r3, [pc, #180]	; (5600 <main+0xb08>)
    554a:	3801      	subs	r0, #1
    554c:	4798      	blx	r3
    554e:	2900      	cmp	r1, #0
    5550:	d100      	bne.n	5554 <main+0xa5c>
    5552:	e586      	b.n	5062 <main+0x56a>
    5554:	e5a0      	b.n	5098 <main+0x5a0>
    5556:	2807      	cmp	r0, #7
    5558:	d801      	bhi.n	555e <main+0xa66>
    555a:	f7ff fbc1 	bl	4ce0 <main+0x1e8>
    555e:	466b      	mov	r3, sp
    5560:	781b      	ldrb	r3, [r3, #0]
    5562:	71a3      	strb	r3, [r4, #6]
    5564:	4827      	ldr	r0, [pc, #156]	; (5604 <main+0xb0c>)
    5566:	e529      	b.n	4fbc <main+0x4c4>
    5568:	20000a68 	.word	0x20000a68
    556c:	00004355 	.word	0x00004355
    5570:	000f423f 	.word	0x000f423f
    5574:	0000b35c 	.word	0x0000b35c
    5578:	00004231 	.word	0x00004231
    557c:	000042f1 	.word	0x000042f1
    5580:	0000c030 	.word	0x0000c030
    5584:	0000c04e 	.word	0x0000c04e
    5588:	0000c06c 	.word	0x0000c06c
    558c:	00003e5d 	.word	0x00003e5d
    5590:	0000bf9a 	.word	0x0000bf9a
    5594:	0000c08c 	.word	0x0000c08c
    5598:	0000c0ac 	.word	0x0000c0ac
    559c:	000047f1 	.word	0x000047f1
    55a0:	000048c5 	.word	0x000048c5
    55a4:	0000c0c8 	.word	0x0000c0c8
    55a8:	0000c0e5 	.word	0x0000c0e5
    55ac:	0000c0fe 	.word	0x0000c0fe
    55b0:	0000bf7a 	.word	0x0000bf7a
    55b4:	0000c11e 	.word	0x0000c11e
    55b8:	0000709d 	.word	0x0000709d
    55bc:	0000c142 	.word	0x0000c142
    55c0:	0000b2dc 	.word	0x0000b2dc
    55c4:	0000c1a0 	.word	0x0000c1a0
    55c8:	0000c16b 	.word	0x0000c16b
    55cc:	0000c185 	.word	0x0000c185
    55d0:	0000c1bb 	.word	0x0000c1bb
    55d4:	0000c221 	.word	0x0000c221
    55d8:	0000c229 	.word	0x0000c229
    55dc:	00006cd5 	.word	0x00006cd5
    55e0:	0000c2b8 	.word	0x0000c2b8
    55e4:	0000c258 	.word	0x0000c258
    55e8:	0000c1d7 	.word	0x0000c1d7
    55ec:	0000c26c 	.word	0x0000c26c
    55f0:	00000e39 	.word	0x00000e39
    55f4:	0000c1e4 	.word	0x0000c1e4
    55f8:	0000c1fb 	.word	0x0000c1fb
    55fc:	0000c253 	.word	0x0000c253
    5600:	00006fb5 	.word	0x00006fb5
    5604:	0000bec9 	.word	0x0000bec9

00005608 <nv_init>:
    5608:	4b01      	ldr	r3, [pc, #4]	; (5610 <nv_init+0x8>)
    560a:	6018      	str	r0, [r3, #0]
    560c:	4770      	bx	lr
    560e:	46c0      	nop			; (mov r8, r8)
    5610:	20000790 	.word	0x20000790

00005614 <nv_write>:
    5614:	b510      	push	{r4, lr}
    5616:	3010      	adds	r0, #16
    5618:	0300      	lsls	r0, r0, #12
    561a:	1841      	adds	r1, r0, r1
    561c:	4802      	ldr	r0, [pc, #8]	; (5628 <nv_write+0x14>)
    561e:	4c03      	ldr	r4, [pc, #12]	; (562c <nv_write+0x18>)
    5620:	6800      	ldr	r0, [r0, #0]
    5622:	47a0      	blx	r4
    5624:	bd10      	pop	{r4, pc}
    5626:	46c0      	nop			; (mov r8, r8)
    5628:	20000790 	.word	0x20000790
    562c:	0000101d 	.word	0x0000101d

00005630 <nv_read>:
    5630:	b510      	push	{r4, lr}
    5632:	3010      	adds	r0, #16
    5634:	0300      	lsls	r0, r0, #12
    5636:	1841      	adds	r1, r0, r1
    5638:	4802      	ldr	r0, [pc, #8]	; (5644 <nv_read+0x14>)
    563a:	4c03      	ldr	r4, [pc, #12]	; (5648 <nv_read+0x18>)
    563c:	6800      	ldr	r0, [r0, #0]
    563e:	47a0      	blx	r4
    5640:	bd10      	pop	{r4, pc}
    5642:	46c0      	nop			; (mov r8, r8)
    5644:	20000790 	.word	0x20000790
    5648:	00000f81 	.word	0x00000f81

0000564c <nv_erase_sector>:
    564c:	4b09      	ldr	r3, [pc, #36]	; (5674 <nv_erase_sector+0x28>)
    564e:	b570      	push	{r4, r5, r6, lr}
    5650:	681d      	ldr	r5, [r3, #0]
    5652:	0004      	movs	r4, r0
    5654:	4b08      	ldr	r3, [pc, #32]	; (5678 <nv_erase_sector+0x2c>)
    5656:	0028      	movs	r0, r5
    5658:	4798      	blx	r3
    565a:	0001      	movs	r1, r0
    565c:	2080      	movs	r0, #128	; 0x80
    565e:	4b07      	ldr	r3, [pc, #28]	; (567c <nv_erase_sector+0x30>)
    5660:	0140      	lsls	r0, r0, #5
    5662:	4798      	blx	r3
    5664:	0021      	movs	r1, r4
    5666:	3110      	adds	r1, #16
    5668:	0002      	movs	r2, r0
    566a:	0309      	lsls	r1, r1, #12
    566c:	0028      	movs	r0, r5
    566e:	4b04      	ldr	r3, [pc, #16]	; (5680 <nv_erase_sector+0x34>)
    5670:	4798      	blx	r3
    5672:	bd70      	pop	{r4, r5, r6, pc}
    5674:	20000790 	.word	0x20000790
    5678:	000010d5 	.word	0x000010d5
    567c:	00006cd5 	.word	0x00006cd5
    5680:	00001075 	.word	0x00001075

00005684 <nv_is_equal>:
    5684:	b5f0      	push	{r4, r5, r6, r7, lr}
    5686:	2500      	movs	r5, #0
    5688:	3010      	adds	r0, #16
    568a:	0300      	lsls	r0, r0, #12
    568c:	b095      	sub	sp, #84	; 0x54
    568e:	001e      	movs	r6, r3
    5690:	1843      	adds	r3, r0, r1
    5692:	9203      	str	r2, [sp, #12]
    5694:	9301      	str	r3, [sp, #4]
    5696:	42b5      	cmp	r5, r6
    5698:	d102      	bne.n	56a0 <nv_is_equal+0x1c>
    569a:	2001      	movs	r0, #1
    569c:	b015      	add	sp, #84	; 0x54
    569e:	bdf0      	pop	{r4, r5, r6, r7, pc}
    56a0:	1b74      	subs	r4, r6, r5
    56a2:	2c40      	cmp	r4, #64	; 0x40
    56a4:	dd00      	ble.n	56a8 <nv_is_equal+0x24>
    56a6:	2440      	movs	r4, #64	; 0x40
    56a8:	b2e3      	uxtb	r3, r4
    56aa:	9302      	str	r3, [sp, #8]
    56ac:	23ff      	movs	r3, #255	; 0xff
    56ae:	480b      	ldr	r0, [pc, #44]	; (56dc <nv_is_equal+0x58>)
    56b0:	401c      	ands	r4, r3
    56b2:	9b01      	ldr	r3, [sp, #4]
    56b4:	aa04      	add	r2, sp, #16
    56b6:	1959      	adds	r1, r3, r5
    56b8:	6800      	ldr	r0, [r0, #0]
    56ba:	0023      	movs	r3, r4
    56bc:	4f08      	ldr	r7, [pc, #32]	; (56e0 <nv_is_equal+0x5c>)
    56be:	47b8      	blx	r7
    56c0:	9b03      	ldr	r3, [sp, #12]
    56c2:	0022      	movs	r2, r4
    56c4:	1958      	adds	r0, r3, r5
    56c6:	a904      	add	r1, sp, #16
    56c8:	4b06      	ldr	r3, [pc, #24]	; (56e4 <nv_is_equal+0x60>)
    56ca:	4798      	blx	r3
    56cc:	2800      	cmp	r0, #0
    56ce:	d103      	bne.n	56d8 <nv_is_equal+0x54>
    56d0:	9b02      	ldr	r3, [sp, #8]
    56d2:	18ed      	adds	r5, r5, r3
    56d4:	b2ad      	uxth	r5, r5
    56d6:	e7de      	b.n	5696 <nv_is_equal+0x12>
    56d8:	2000      	movs	r0, #0
    56da:	e7df      	b.n	569c <nv_is_equal+0x18>
    56dc:	20000790 	.word	0x20000790
    56e0:	00000f81 	.word	0x00000f81
    56e4:	0000705d 	.word	0x0000705d

000056e8 <nv_is_empty>:
    56e8:	b5f0      	push	{r4, r5, r6, r7, lr}
    56ea:	3010      	adds	r0, #16
    56ec:	0300      	lsls	r0, r0, #12
    56ee:	1843      	adds	r3, r0, r1
    56f0:	b093      	sub	sp, #76	; 0x4c
    56f2:	9301      	str	r3, [sp, #4]
    56f4:	0016      	movs	r6, r2
    56f6:	21ff      	movs	r1, #255	; 0xff
    56f8:	2240      	movs	r2, #64	; 0x40
    56fa:	a802      	add	r0, sp, #8
    56fc:	4b11      	ldr	r3, [pc, #68]	; (5744 <nv_is_empty+0x5c>)
    56fe:	4798      	blx	r3
    5700:	2500      	movs	r5, #0
    5702:	42b5      	cmp	r5, r6
    5704:	d102      	bne.n	570c <nv_is_empty+0x24>
    5706:	2001      	movs	r0, #1
    5708:	b013      	add	sp, #76	; 0x4c
    570a:	bdf0      	pop	{r4, r5, r6, r7, pc}
    570c:	1b74      	subs	r4, r6, r5
    570e:	2c40      	cmp	r4, #64	; 0x40
    5710:	dd00      	ble.n	5714 <nv_is_empty+0x2c>
    5712:	2440      	movs	r4, #64	; 0x40
    5714:	9b01      	ldr	r3, [sp, #4]
    5716:	480c      	ldr	r0, [pc, #48]	; (5748 <nv_is_empty+0x60>)
    5718:	18e9      	adds	r1, r5, r3
    571a:	23ff      	movs	r3, #255	; 0xff
    571c:	aa02      	add	r2, sp, #8
    571e:	4023      	ands	r3, r4
    5720:	6800      	ldr	r0, [r0, #0]
    5722:	4f0a      	ldr	r7, [pc, #40]	; (574c <nv_is_empty+0x64>)
    5724:	47b8      	blx	r7
    5726:	2300      	movs	r3, #0
    5728:	aa02      	add	r2, sp, #8
    572a:	5cd2      	ldrb	r2, [r2, r3]
    572c:	2aff      	cmp	r2, #255	; 0xff
    572e:	d106      	bne.n	573e <nv_is_empty+0x56>
    5730:	3301      	adds	r3, #1
    5732:	2b40      	cmp	r3, #64	; 0x40
    5734:	d1f8      	bne.n	5728 <nv_is_empty+0x40>
    5736:	b2e4      	uxtb	r4, r4
    5738:	192d      	adds	r5, r5, r4
    573a:	b2ad      	uxth	r5, r5
    573c:	e7e1      	b.n	5702 <nv_is_empty+0x1a>
    573e:	2000      	movs	r0, #0
    5740:	e7e2      	b.n	5708 <nv_is_empty+0x20>
    5742:	46c0      	nop			; (mov r8, r8)
    5744:	0000708d 	.word	0x0000708d
    5748:	20000790 	.word	0x20000790
    574c:	00000f81 	.word	0x00000f81

00005750 <nv_align_next_access_address>:
    5750:	2901      	cmp	r1, #1
    5752:	d103      	bne.n	575c <nv_align_next_access_address+0xc>
    5754:	237f      	movs	r3, #127	; 0x7f
    5756:	307f      	adds	r0, #127	; 0x7f
    5758:	4398      	bics	r0, r3
    575a:	b280      	uxth	r0, r0
    575c:	4770      	bx	lr
	...

00005760 <find_item>:
    5760:	2300      	movs	r3, #0
    5762:	b530      	push	{r4, r5, lr}
    5764:	4a09      	ldr	r2, [pc, #36]	; (578c <find_item+0x2c>)
    5766:	8d55      	ldrh	r5, [r2, #42]	; 0x2a
    5768:	b299      	uxth	r1, r3
    576a:	428d      	cmp	r5, r1
    576c:	d801      	bhi.n	5772 <find_item+0x12>
    576e:	2000      	movs	r0, #0
    5770:	e008      	b.n	5784 <find_item+0x24>
    5772:	1c5c      	adds	r4, r3, #1
    5774:	00a1      	lsls	r1, r4, #2
    5776:	3902      	subs	r1, #2
    5778:	5a51      	ldrh	r1, [r2, r1]
    577a:	4281      	cmp	r1, r0
    577c:	d103      	bne.n	5786 <find_item+0x26>
    577e:	009b      	lsls	r3, r3, #2
    5780:	3302      	adds	r3, #2
    5782:	18d0      	adds	r0, r2, r3
    5784:	bd30      	pop	{r4, r5, pc}
    5786:	0023      	movs	r3, r4
    5788:	e7ee      	b.n	5768 <find_item+0x8>
    578a:	46c0      	nop			; (mov r8, r8)
    578c:	20000794 	.word	0x20000794

00005790 <calculate_block_header_checksum>:
    5790:	0001      	movs	r1, r0
    5792:	b510      	push	{r4, lr}
    5794:	1c82      	adds	r2, r0, #2
    5796:	4809      	ldr	r0, [pc, #36]	; (57bc <calculate_block_header_checksum+0x2c>)
    5798:	310c      	adds	r1, #12
    579a:	7814      	ldrb	r4, [r2, #0]
    579c:	0a03      	lsrs	r3, r0, #8
    579e:	4063      	eors	r3, r4
    57a0:	091c      	lsrs	r4, r3, #4
    57a2:	4063      	eors	r3, r4
    57a4:	0200      	lsls	r0, r0, #8
    57a6:	4058      	eors	r0, r3
    57a8:	031c      	lsls	r4, r3, #12
    57aa:	4060      	eors	r0, r4
    57ac:	015b      	lsls	r3, r3, #5
    57ae:	4058      	eors	r0, r3
    57b0:	3201      	adds	r2, #1
    57b2:	b280      	uxth	r0, r0
    57b4:	4291      	cmp	r1, r2
    57b6:	d1f0      	bne.n	579a <calculate_block_header_checksum+0xa>
    57b8:	bd10      	pop	{r4, pc}
    57ba:	46c0      	nop			; (mov r8, r8)
    57bc:	0000ffff 	.word	0x0000ffff

000057c0 <write_and_verify>:
    57c0:	b5f7      	push	{r0, r1, r2, r4, r5, r6, r7, lr}
    57c2:	0007      	movs	r7, r0
    57c4:	0015      	movs	r5, r2
    57c6:	001e      	movs	r6, r3
    57c8:	4c04      	ldr	r4, [pc, #16]	; (57dc <write_and_verify+0x1c>)
    57ca:	9101      	str	r1, [sp, #4]
    57cc:	47a0      	blx	r4
    57ce:	0033      	movs	r3, r6
    57d0:	002a      	movs	r2, r5
    57d2:	0038      	movs	r0, r7
    57d4:	9901      	ldr	r1, [sp, #4]
    57d6:	4c02      	ldr	r4, [pc, #8]	; (57e0 <write_and_verify+0x20>)
    57d8:	47a0      	blx	r4
    57da:	bdfe      	pop	{r1, r2, r3, r4, r5, r6, r7, pc}
    57dc:	00005615 	.word	0x00005615
    57e0:	00005685 	.word	0x00005685

000057e4 <create_sector>:
    57e4:	b5f0      	push	{r4, r5, r6, r7, lr}
    57e6:	b087      	sub	sp, #28
    57e8:	9201      	str	r2, [sp, #4]
    57ea:	2280      	movs	r2, #128	; 0x80
    57ec:	000d      	movs	r5, r1
    57ee:	2100      	movs	r1, #0
    57f0:	ab02      	add	r3, sp, #8
    57f2:	0152      	lsls	r2, r2, #5
    57f4:	4e21      	ldr	r6, [pc, #132]	; (587c <create_sector+0x98>)
    57f6:	0004      	movs	r4, r0
    57f8:	70d9      	strb	r1, [r3, #3]
    57fa:	47b0      	blx	r6
    57fc:	1e07      	subs	r7, r0, #0
    57fe:	d01d      	beq.n	583c <create_sector+0x58>
    5800:	2009      	movs	r0, #9
    5802:	ab02      	add	r3, sp, #8
    5804:	2207      	movs	r2, #7
    5806:	491e      	ldr	r1, [pc, #120]	; (5880 <create_sector+0x9c>)
    5808:	18c0      	adds	r0, r0, r3
    580a:	4b1e      	ldr	r3, [pc, #120]	; (5884 <create_sector+0xa0>)
    580c:	4798      	blx	r3
    580e:	23ff      	movs	r3, #255	; 0xff
    5810:	ae03      	add	r6, sp, #12
    5812:	7033      	strb	r3, [r6, #0]
    5814:	0a2a      	lsrs	r2, r5, #8
    5816:	ab02      	add	r3, sp, #8
    5818:	715d      	strb	r5, [r3, #5]
    581a:	719a      	strb	r2, [r3, #6]
    581c:	0c2a      	lsrs	r2, r5, #16
    581e:	0e2d      	lsrs	r5, r5, #24
    5820:	71da      	strb	r2, [r3, #7]
    5822:	721d      	strb	r5, [r3, #8]
    5824:	0032      	movs	r2, r6
    5826:	230c      	movs	r3, #12
    5828:	2100      	movs	r1, #0
    582a:	0020      	movs	r0, r4
    582c:	4e16      	ldr	r6, [pc, #88]	; (5888 <create_sector+0xa4>)
    582e:	47b0      	blx	r6
    5830:	1e05      	subs	r5, r0, #0
    5832:	d10e      	bne.n	5852 <create_sector+0x6e>
    5834:	2500      	movs	r5, #0
    5836:	0028      	movs	r0, r5
    5838:	b007      	add	sp, #28
    583a:	bdf0      	pop	{r4, r5, r6, r7, pc}
    583c:	0020      	movs	r0, r4
    583e:	4b13      	ldr	r3, [pc, #76]	; (588c <create_sector+0xa8>)
    5840:	4798      	blx	r3
    5842:	2280      	movs	r2, #128	; 0x80
    5844:	0039      	movs	r1, r7
    5846:	0152      	lsls	r2, r2, #5
    5848:	0020      	movs	r0, r4
    584a:	47b0      	blx	r6
    584c:	2800      	cmp	r0, #0
    584e:	d1d7      	bne.n	5800 <create_sector+0x1c>
    5850:	e7f0      	b.n	5834 <create_sector+0x50>
    5852:	9b01      	ldr	r3, [sp, #4]
    5854:	2b00      	cmp	r3, #0
    5856:	d0ee      	beq.n	5836 <create_sector+0x52>
    5858:	aa02      	add	r2, sp, #8
    585a:	2301      	movs	r3, #1
    585c:	3203      	adds	r2, #3
    585e:	2100      	movs	r1, #0
    5860:	0020      	movs	r0, r4
    5862:	47b0      	blx	r6
    5864:	1e05      	subs	r5, r0, #0
    5866:	d0e5      	beq.n	5834 <create_sector+0x50>
    5868:	200c      	movs	r0, #12
    586a:	4e09      	ldr	r6, [pc, #36]	; (5890 <create_sector+0xac>)
    586c:	2100      	movs	r1, #0
    586e:	4b09      	ldr	r3, [pc, #36]	; (5894 <create_sector+0xb0>)
    5870:	8030      	strh	r0, [r6, #0]
    5872:	4798      	blx	r3
    5874:	8030      	strh	r0, [r6, #0]
    5876:	362c      	adds	r6, #44	; 0x2c
    5878:	7034      	strb	r4, [r6, #0]
    587a:	e7dc      	b.n	5836 <create_sector+0x52>
    587c:	000056e9 	.word	0x000056e9
    5880:	0000c2a0 	.word	0x0000c2a0
    5884:	0000707b 	.word	0x0000707b
    5888:	000057c1 	.word	0x000057c1
    588c:	0000564d 	.word	0x0000564d
    5890:	20000794 	.word	0x20000794
    5894:	00005751 	.word	0x00005751

00005898 <nv_storage_init>:
    5898:	2300      	movs	r3, #0
    589a:	b5f0      	push	{r4, r5, r6, r7, lr}
    589c:	26ff      	movs	r6, #255	; 0xff
    589e:	001d      	movs	r5, r3
    58a0:	b08b      	sub	sp, #44	; 0x2c
    58a2:	9300      	str	r3, [sp, #0]
    58a4:	af03      	add	r7, sp, #12
    58a6:	230c      	movs	r3, #12
    58a8:	003a      	movs	r2, r7
    58aa:	2100      	movs	r1, #0
    58ac:	0028      	movs	r0, r5
    58ae:	4c4b      	ldr	r4, [pc, #300]	; (59dc <nv_storage_init+0x144>)
    58b0:	47a0      	blx	r4
    58b2:	783b      	ldrb	r3, [r7, #0]
    58b4:	2b00      	cmp	r3, #0
    58b6:	d112      	bne.n	58de <nv_storage_init+0x46>
    58b8:	2009      	movs	r0, #9
    58ba:	ab02      	add	r3, sp, #8
    58bc:	18c0      	adds	r0, r0, r3
    58be:	2207      	movs	r2, #7
    58c0:	4947      	ldr	r1, [pc, #284]	; (59e0 <nv_storage_init+0x148>)
    58c2:	4b48      	ldr	r3, [pc, #288]	; (59e4 <nv_storage_init+0x14c>)
    58c4:	4798      	blx	r3
    58c6:	2800      	cmp	r0, #0
    58c8:	d109      	bne.n	58de <nv_storage_init+0x46>
    58ca:	683b      	ldr	r3, [r7, #0]
    58cc:	0a1a      	lsrs	r2, r3, #8
    58ce:	793b      	ldrb	r3, [r7, #4]
    58d0:	061b      	lsls	r3, r3, #24
    58d2:	4313      	orrs	r3, r2
    58d4:	9a00      	ldr	r2, [sp, #0]
    58d6:	4293      	cmp	r3, r2
    58d8:	d301      	bcc.n	58de <nv_storage_init+0x46>
    58da:	002e      	movs	r6, r5
    58dc:	9300      	str	r3, [sp, #0]
    58de:	3501      	adds	r5, #1
    58e0:	b2ed      	uxtb	r5, r5
    58e2:	2d02      	cmp	r5, #2
    58e4:	d1de      	bne.n	58a4 <nv_storage_init+0xc>
    58e6:	2eff      	cmp	r6, #255	; 0xff
    58e8:	d10e      	bne.n	5908 <nv_storage_init+0x70>
    58ea:	9c00      	ldr	r4, [sp, #0]
    58ec:	2201      	movs	r2, #1
    58ee:	3401      	adds	r4, #1
    58f0:	0021      	movs	r1, r4
    58f2:	2000      	movs	r0, #0
    58f4:	4d3c      	ldr	r5, [pc, #240]	; (59e8 <nv_storage_init+0x150>)
    58f6:	47a8      	blx	r5
    58f8:	2800      	cmp	r0, #0
    58fa:	d103      	bne.n	5904 <nv_storage_init+0x6c>
    58fc:	2201      	movs	r2, #1
    58fe:	0021      	movs	r1, r4
    5900:	0010      	movs	r0, r2
    5902:	47a8      	blx	r5
    5904:	b00b      	add	sp, #44	; 0x2c
    5906:	bdf0      	pop	{r4, r5, r6, r7, pc}
    5908:	4c38      	ldr	r4, [pc, #224]	; (59ec <nv_storage_init+0x154>)
    590a:	2100      	movs	r1, #0
    590c:	0023      	movs	r3, r4
    590e:	332c      	adds	r3, #44	; 0x2c
    5910:	701e      	strb	r6, [r3, #0]
    5912:	200c      	movs	r0, #12
    5914:	4b36      	ldr	r3, [pc, #216]	; (59f0 <nv_storage_init+0x158>)
    5916:	4798      	blx	r3
    5918:	0033      	movs	r3, r6
    591a:	3310      	adds	r3, #16
    591c:	031b      	lsls	r3, r3, #12
    591e:	9300      	str	r3, [sp, #0]
    5920:	9a00      	ldr	r2, [sp, #0]
    5922:	4b34      	ldr	r3, [pc, #208]	; (59f4 <nv_storage_init+0x15c>)
    5924:	4694      	mov	ip, r2
    5926:	4463      	add	r3, ip
    5928:	8020      	strh	r0, [r4, #0]
    592a:	9301      	str	r3, [sp, #4]
    592c:	4c2f      	ldr	r4, [pc, #188]	; (59ec <nv_storage_init+0x154>)
    592e:	ad06      	add	r5, sp, #24
    5930:	230e      	movs	r3, #14
    5932:	8821      	ldrh	r1, [r4, #0]
    5934:	002a      	movs	r2, r5
    5936:	0030      	movs	r0, r6
    5938:	4f28      	ldr	r7, [pc, #160]	; (59dc <nv_storage_init+0x144>)
    593a:	47b8      	blx	r7
    593c:	2300      	movs	r3, #0
    593e:	5cea      	ldrb	r2, [r5, r3]
    5940:	2aff      	cmp	r2, #255	; 0xff
    5942:	d13a      	bne.n	59ba <nv_storage_init+0x122>
    5944:	3301      	adds	r3, #1
    5946:	2b0e      	cmp	r3, #14
    5948:	d1f9      	bne.n	593e <nv_storage_init+0xa6>
    594a:	e7db      	b.n	5904 <nv_storage_init+0x6c>
    594c:	8820      	ldrh	r0, [r4, #0]
    594e:	300e      	adds	r0, #14
    5950:	b280      	uxth	r0, r0
    5952:	2101      	movs	r1, #1
    5954:	4b26      	ldr	r3, [pc, #152]	; (59f0 <nv_storage_init+0x158>)
    5956:	4798      	blx	r3
    5958:	8020      	strh	r0, [r4, #0]
    595a:	e7e7      	b.n	592c <nv_storage_init+0x94>
    595c:	886f      	ldrh	r7, [r5, #2]
    595e:	4b26      	ldr	r3, [pc, #152]	; (59f8 <nv_storage_init+0x160>)
    5960:	0038      	movs	r0, r7
    5962:	4798      	blx	r3
    5964:	1e05      	subs	r5, r0, #0
    5966:	d107      	bne.n	5978 <nv_storage_init+0xe0>
    5968:	8d63      	ldrh	r3, [r4, #42]	; 0x2a
    596a:	1c5a      	adds	r2, r3, #1
    596c:	009b      	lsls	r3, r3, #2
    596e:	1c9d      	adds	r5, r3, #2
    5970:	18e3      	adds	r3, r4, r3
    5972:	8562      	strh	r2, [r4, #42]	; 0x2a
    5974:	1965      	adds	r5, r4, r5
    5976:	805f      	strh	r7, [r3, #2]
    5978:	ab06      	add	r3, sp, #24
    597a:	891b      	ldrh	r3, [r3, #8]
    597c:	2b00      	cmp	r3, #0
    597e:	d10a      	bne.n	5996 <nv_storage_init+0xfe>
    5980:	8d61      	ldrh	r1, [r4, #42]	; 0x2a
    5982:	2204      	movs	r2, #4
    5984:	3901      	subs	r1, #1
    5986:	b289      	uxth	r1, r1
    5988:	8561      	strh	r1, [r4, #42]	; 0x2a
    598a:	0089      	lsls	r1, r1, #2
    598c:	1861      	adds	r1, r4, r1
    598e:	3102      	adds	r1, #2
    5990:	0028      	movs	r0, r5
    5992:	4b1a      	ldr	r3, [pc, #104]	; (59fc <nv_storage_init+0x164>)
    5994:	4798      	blx	r3
    5996:	8820      	ldrh	r0, [r4, #0]
    5998:	ab06      	add	r3, sp, #24
    599a:	8068      	strh	r0, [r5, #2]
    599c:	88db      	ldrh	r3, [r3, #6]
    599e:	2101      	movs	r1, #1
    59a0:	18c0      	adds	r0, r0, r3
    59a2:	300e      	adds	r0, #14
    59a4:	b280      	uxth	r0, r0
    59a6:	4b12      	ldr	r3, [pc, #72]	; (59f0 <nv_storage_init+0x158>)
    59a8:	8020      	strh	r0, [r4, #0]
    59aa:	4798      	blx	r3
    59ac:	9b00      	ldr	r3, [sp, #0]
    59ae:	8020      	strh	r0, [r4, #0]
    59b0:	18c0      	adds	r0, r0, r3
    59b2:	9b01      	ldr	r3, [sp, #4]
    59b4:	4298      	cmp	r0, r3
    59b6:	d3b9      	bcc.n	592c <nv_storage_init+0x94>
    59b8:	e7a4      	b.n	5904 <nv_storage_init+0x6c>
    59ba:	0028      	movs	r0, r5
    59bc:	4b10      	ldr	r3, [pc, #64]	; (5a00 <nv_storage_init+0x168>)
    59be:	89af      	ldrh	r7, [r5, #12]
    59c0:	4798      	blx	r3
    59c2:	4287      	cmp	r7, r0
    59c4:	d1c2      	bne.n	594c <nv_storage_init+0xb4>
    59c6:	882b      	ldrh	r3, [r5, #0]
    59c8:	2b00      	cmp	r3, #0
    59ca:	d0c7      	beq.n	595c <nv_storage_init+0xc4>
    59cc:	8820      	ldrh	r0, [r4, #0]
    59ce:	88eb      	ldrh	r3, [r5, #6]
    59d0:	18c0      	adds	r0, r0, r3
    59d2:	300e      	adds	r0, #14
    59d4:	b280      	uxth	r0, r0
    59d6:	8020      	strh	r0, [r4, #0]
    59d8:	e7bb      	b.n	5952 <nv_storage_init+0xba>
    59da:	46c0      	nop			; (mov r8, r8)
    59dc:	00005631 	.word	0x00005631
    59e0:	0000c2a0 	.word	0x0000c2a0
    59e4:	0000705d 	.word	0x0000705d
    59e8:	000057e5 	.word	0x000057e5
    59ec:	20000794 	.word	0x20000794
    59f0:	00005751 	.word	0x00005751
    59f4:	00000fff 	.word	0x00000fff
    59f8:	00005761 	.word	0x00005761
    59fc:	0000707b 	.word	0x0000707b
    5a00:	00005791 	.word	0x00005791

00005a04 <persistent_storage_init>:
    5a04:	b510      	push	{r4, lr}
    5a06:	4803      	ldr	r0, [pc, #12]	; (5a14 <persistent_storage_init+0x10>)
    5a08:	4b03      	ldr	r3, [pc, #12]	; (5a18 <persistent_storage_init+0x14>)
    5a0a:	4798      	blx	r3
    5a0c:	4b03      	ldr	r3, [pc, #12]	; (5a1c <persistent_storage_init+0x18>)
    5a0e:	4798      	blx	r3
    5a10:	bd10      	pop	{r4, pc}
    5a12:	46c0      	nop			; (mov r8, r8)
    5a14:	20000900 	.word	0x20000900
    5a18:	00005609 	.word	0x00005609
    5a1c:	00005899 	.word	0x00005899

00005a20 <_read>:
    5a20:	b510      	push	{r4, lr}
    5a22:	000b      	movs	r3, r1
    5a24:	2800      	cmp	r0, #0
    5a26:	d105      	bne.n	5a34 <_read+0x14>
    5a28:	0018      	movs	r0, r3
    5a2a:	0011      	movs	r1, r2
    5a2c:	4b03      	ldr	r3, [pc, #12]	; (5a3c <_read+0x1c>)
    5a2e:	4798      	blx	r3
    5a30:	2800      	cmp	r0, #0
    5a32:	da01      	bge.n	5a38 <_read+0x18>
    5a34:	2001      	movs	r0, #1
    5a36:	4240      	negs	r0, r0
    5a38:	bd10      	pop	{r4, pc}
    5a3a:	46c0      	nop			; (mov r8, r8)
    5a3c:	00005a8d 	.word	0x00005a8d

00005a40 <_write>:
    5a40:	3801      	subs	r0, #1
    5a42:	b510      	push	{r4, lr}
    5a44:	000c      	movs	r4, r1
    5a46:	2802      	cmp	r0, #2
    5a48:	d805      	bhi.n	5a56 <_write+0x16>
    5a4a:	0011      	movs	r1, r2
    5a4c:	0020      	movs	r0, r4
    5a4e:	4b03      	ldr	r3, [pc, #12]	; (5a5c <_write+0x1c>)
    5a50:	4798      	blx	r3
    5a52:	2800      	cmp	r0, #0
    5a54:	da01      	bge.n	5a5a <_write+0x1a>
    5a56:	2001      	movs	r0, #1
    5a58:	4240      	negs	r0, r0
    5a5a:	bd10      	pop	{r4, pc}
    5a5c:	00005aad 	.word	0x00005aad

00005a60 <stdio_io_init>:
    5a60:	b570      	push	{r4, r5, r6, lr}
    5a62:	0006      	movs	r6, r0
    5a64:	4d06      	ldr	r5, [pc, #24]	; (5a80 <stdio_io_init+0x20>)
    5a66:	4c07      	ldr	r4, [pc, #28]	; (5a84 <stdio_io_init+0x24>)
    5a68:	682b      	ldr	r3, [r5, #0]
    5a6a:	2100      	movs	r1, #0
    5a6c:	6898      	ldr	r0, [r3, #8]
    5a6e:	47a0      	blx	r4
    5a70:	682b      	ldr	r3, [r5, #0]
    5a72:	2100      	movs	r1, #0
    5a74:	6858      	ldr	r0, [r3, #4]
    5a76:	47a0      	blx	r4
    5a78:	4b03      	ldr	r3, [pc, #12]	; (5a88 <stdio_io_init+0x28>)
    5a7a:	601e      	str	r6, [r3, #0]
    5a7c:	bd70      	pop	{r4, r5, r6, pc}
    5a7e:	46c0      	nop			; (mov r8, r8)
    5a80:	200000dc 	.word	0x200000dc
    5a84:	000071a5 	.word	0x000071a5
    5a88:	200007c4 	.word	0x200007c4

00005a8c <stdio_io_read>:
    5a8c:	4b05      	ldr	r3, [pc, #20]	; (5aa4 <stdio_io_read+0x18>)
    5a8e:	b510      	push	{r4, lr}
    5a90:	681b      	ldr	r3, [r3, #0]
    5a92:	0004      	movs	r4, r0
    5a94:	1e18      	subs	r0, r3, #0
    5a96:	d003      	beq.n	5aa0 <stdio_io_read+0x14>
    5a98:	b28a      	uxth	r2, r1
    5a9a:	4b03      	ldr	r3, [pc, #12]	; (5aa8 <stdio_io_read+0x1c>)
    5a9c:	0021      	movs	r1, r4
    5a9e:	4798      	blx	r3
    5aa0:	bd10      	pop	{r4, pc}
    5aa2:	46c0      	nop			; (mov r8, r8)
    5aa4:	200007c4 	.word	0x200007c4
    5aa8:	00001165 	.word	0x00001165

00005aac <stdio_io_write>:
    5aac:	4b05      	ldr	r3, [pc, #20]	; (5ac4 <stdio_io_write+0x18>)
    5aae:	b510      	push	{r4, lr}
    5ab0:	681b      	ldr	r3, [r3, #0]
    5ab2:	0004      	movs	r4, r0
    5ab4:	1e18      	subs	r0, r3, #0
    5ab6:	d003      	beq.n	5ac0 <stdio_io_write+0x14>
    5ab8:	b28a      	uxth	r2, r1
    5aba:	4b03      	ldr	r3, [pc, #12]	; (5ac8 <stdio_io_write+0x1c>)
    5abc:	0021      	movs	r1, r4
    5abe:	4798      	blx	r3
    5ac0:	bd10      	pop	{r4, pc}
    5ac2:	46c0      	nop			; (mov r8, r8)
    5ac4:	200007c4 	.word	0x200007c4
    5ac8:	0000115d 	.word	0x0000115d

00005acc <stdio_redirect_init>:
    5acc:	b510      	push	{r4, lr}
    5ace:	4c04      	ldr	r4, [pc, #16]	; (5ae0 <stdio_redirect_init+0x14>)
    5ad0:	4b04      	ldr	r3, [pc, #16]	; (5ae4 <stdio_redirect_init+0x18>)
    5ad2:	0020      	movs	r0, r4
    5ad4:	4798      	blx	r3
    5ad6:	0020      	movs	r0, r4
    5ad8:	4b03      	ldr	r3, [pc, #12]	; (5ae8 <stdio_redirect_init+0x1c>)
    5ada:	4798      	blx	r3
    5adc:	bd10      	pop	{r4, pc}
    5ade:	46c0      	nop			; (mov r8, r8)
    5ae0:	2000099c 	.word	0x2000099c
    5ae4:	000015e5 	.word	0x000015e5
    5ae8:	00005a61 	.word	0x00005a61

00005aec <serial_rx_callback>:
    5aec:	b513      	push	{r0, r1, r4, lr}
    5aee:	466b      	mov	r3, sp
    5af0:	1ddc      	adds	r4, r3, #7
    5af2:	2201      	movs	r2, #1
    5af4:	4b23      	ldr	r3, [pc, #140]	; (5b84 <serial_rx_callback+0x98>)
    5af6:	0021      	movs	r1, r4
    5af8:	4823      	ldr	r0, [pc, #140]	; (5b88 <serial_rx_callback+0x9c>)
    5afa:	4798      	blx	r3
    5afc:	4b23      	ldr	r3, [pc, #140]	; (5b8c <serial_rx_callback+0xa0>)
    5afe:	781a      	ldrb	r2, [r3, #0]
    5b00:	2a00      	cmp	r2, #0
    5b02:	d10b      	bne.n	5b1c <serial_rx_callback+0x30>
    5b04:	7822      	ldrb	r2, [r4, #0]
    5b06:	2a06      	cmp	r2, #6
    5b08:	d103      	bne.n	5b12 <serial_rx_callback+0x26>
    5b0a:	4b21      	ldr	r3, [pc, #132]	; (5b90 <serial_rx_callback+0xa4>)
    5b0c:	3a05      	subs	r2, #5
    5b0e:	701a      	strb	r2, [r3, #0]
    5b10:	e012      	b.n	5b38 <serial_rx_callback+0x4c>
    5b12:	2a15      	cmp	r2, #21
    5b14:	d102      	bne.n	5b1c <serial_rx_callback+0x30>
    5b16:	3a14      	subs	r2, #20
    5b18:	4b1e      	ldr	r3, [pc, #120]	; (5b94 <serial_rx_callback+0xa8>)
    5b1a:	e7f8      	b.n	5b0e <serial_rx_callback+0x22>
    5b1c:	4a1e      	ldr	r2, [pc, #120]	; (5b98 <serial_rx_callback+0xac>)
    5b1e:	7951      	ldrb	r1, [r2, #5]
    5b20:	2900      	cmp	r1, #0
    5b22:	d109      	bne.n	5b38 <serial_rx_callback+0x4c>
    5b24:	7819      	ldrb	r1, [r3, #0]
    5b26:	2900      	cmp	r1, #0
    5b28:	d107      	bne.n	5b3a <serial_rx_callback+0x4e>
    5b2a:	7822      	ldrb	r2, [r4, #0]
    5b2c:	2a07      	cmp	r2, #7
    5b2e:	d103      	bne.n	5b38 <serial_rx_callback+0x4c>
    5b30:	3101      	adds	r1, #1
    5b32:	7019      	strb	r1, [r3, #0]
    5b34:	7059      	strb	r1, [r3, #1]
    5b36:	709a      	strb	r2, [r3, #2]
    5b38:	bd13      	pop	{r0, r1, r4, pc}
    5b3a:	7858      	ldrb	r0, [r3, #1]
    5b3c:	3801      	subs	r0, #1
    5b3e:	2804      	cmp	r0, #4
    5b40:	d8fa      	bhi.n	5b38 <serial_rx_callback+0x4c>
    5b42:	7821      	ldrb	r1, [r4, #0]
    5b44:	f001 f8a8 	bl	6c98 <__gnu_thumb1_case_uqi>
    5b48:	100e0c03 	.word	0x100e0c03
    5b4c:	12          	.byte	0x12
    5b4d:	00          	.byte	0x00
    5b4e:	7011      	strb	r1, [r2, #0]
    5b50:	789a      	ldrb	r2, [r3, #2]
    5b52:	4051      	eors	r1, r2
    5b54:	7099      	strb	r1, [r3, #2]
    5b56:	785a      	ldrb	r2, [r3, #1]
    5b58:	3201      	adds	r2, #1
    5b5a:	b2d2      	uxtb	r2, r2
    5b5c:	705a      	strb	r2, [r3, #1]
    5b5e:	e7eb      	b.n	5b38 <serial_rx_callback+0x4c>
    5b60:	7051      	strb	r1, [r2, #1]
    5b62:	e7f5      	b.n	5b50 <serial_rx_callback+0x64>
    5b64:	7091      	strb	r1, [r2, #2]
    5b66:	e7f3      	b.n	5b50 <serial_rx_callback+0x64>
    5b68:	70d1      	strb	r1, [r2, #3]
    5b6a:	e7f1      	b.n	5b50 <serial_rx_callback+0x64>
    5b6c:	7898      	ldrb	r0, [r3, #2]
    5b6e:	7111      	strb	r1, [r2, #4]
    5b70:	4041      	eors	r1, r0
    5b72:	7099      	strb	r1, [r3, #2]
    5b74:	7899      	ldrb	r1, [r3, #2]
    5b76:	2900      	cmp	r1, #0
    5b78:	d101      	bne.n	5b7e <serial_rx_callback+0x92>
    5b7a:	3101      	adds	r1, #1
    5b7c:	7151      	strb	r1, [r2, #5]
    5b7e:	2200      	movs	r2, #0
    5b80:	705a      	strb	r2, [r3, #1]
    5b82:	e7c4      	b.n	5b0e <serial_rx_callback+0x22>
    5b84:	00001165 	.word	0x00001165
    5b88:	200009a8 	.word	0x200009a8
    5b8c:	200007c8 	.word	0x200007c8
    5b90:	20000a64 	.word	0x20000a64
    5b94:	20000a7c 	.word	0x20000a7c
    5b98:	20000a34 	.word	0x20000a34

00005b9c <send_uart>:
    5b9c:	b570      	push	{r4, r5, r6, lr}
    5b9e:	7803      	ldrb	r3, [r0, #0]
    5ba0:	4c18      	ldr	r4, [pc, #96]	; (5c04 <send_uart+0x68>)
    5ba2:	2b00      	cmp	r3, #0
    5ba4:	d00a      	beq.n	5bbc <send_uart+0x20>
    5ba6:	78e3      	ldrb	r3, [r4, #3]
    5ba8:	2119      	movs	r1, #25
    5baa:	009b      	lsls	r3, r3, #2
    5bac:	18e3      	adds	r3, r4, r3
    5bae:	6058      	str	r0, [r3, #4]
    5bb0:	78e0      	ldrb	r0, [r4, #3]
    5bb2:	4b15      	ldr	r3, [pc, #84]	; (5c08 <send_uart+0x6c>)
    5bb4:	3001      	adds	r0, #1
    5bb6:	4798      	blx	r3
    5bb8:	b2c9      	uxtb	r1, r1
    5bba:	70e1      	strb	r1, [r4, #3]
    5bbc:	0026      	movs	r6, r4
    5bbe:	3668      	adds	r6, #104	; 0x68
    5bc0:	7833      	ldrb	r3, [r6, #0]
    5bc2:	2b00      	cmp	r3, #0
    5bc4:	d11d      	bne.n	5c02 <send_uart+0x66>
    5bc6:	0025      	movs	r5, r4
    5bc8:	3569      	adds	r5, #105	; 0x69
    5bca:	78e2      	ldrb	r2, [r4, #3]
    5bcc:	782b      	ldrb	r3, [r5, #0]
    5bce:	429a      	cmp	r2, r3
    5bd0:	d017      	beq.n	5c02 <send_uart+0x66>
    5bd2:	782b      	ldrb	r3, [r5, #0]
    5bd4:	009b      	lsls	r3, r3, #2
    5bd6:	18e3      	adds	r3, r4, r3
    5bd8:	6858      	ldr	r0, [r3, #4]
    5bda:	4b0c      	ldr	r3, [pc, #48]	; (5c0c <send_uart+0x70>)
    5bdc:	4798      	blx	r3
    5bde:	2301      	movs	r3, #1
    5be0:	7033      	strb	r3, [r6, #0]
    5be2:	782b      	ldrb	r3, [r5, #0]
    5be4:	b282      	uxth	r2, r0
    5be6:	009b      	lsls	r3, r3, #2
    5be8:	18e4      	adds	r4, r4, r3
    5bea:	4b09      	ldr	r3, [pc, #36]	; (5c10 <send_uart+0x74>)
    5bec:	6861      	ldr	r1, [r4, #4]
    5bee:	6818      	ldr	r0, [r3, #0]
    5bf0:	4b08      	ldr	r3, [pc, #32]	; (5c14 <send_uart+0x78>)
    5bf2:	4798      	blx	r3
    5bf4:	7828      	ldrb	r0, [r5, #0]
    5bf6:	2119      	movs	r1, #25
    5bf8:	3001      	adds	r0, #1
    5bfa:	4b03      	ldr	r3, [pc, #12]	; (5c08 <send_uart+0x6c>)
    5bfc:	4798      	blx	r3
    5bfe:	b2c9      	uxtb	r1, r1
    5c00:	7029      	strb	r1, [r5, #0]
    5c02:	bd70      	pop	{r4, r5, r6, pc}
    5c04:	200007c8 	.word	0x200007c8
    5c08:	00006fb5 	.word	0x00006fb5
    5c0c:	00007375 	.word	0x00007375
    5c10:	20000ac4 	.word	0x20000ac4
    5c14:	0000115d 	.word	0x0000115d

00005c18 <serial_tx_callback>:
    5c18:	2200      	movs	r2, #0
    5c1a:	b510      	push	{r4, lr}
    5c1c:	4b03      	ldr	r3, [pc, #12]	; (5c2c <serial_tx_callback+0x14>)
    5c1e:	4804      	ldr	r0, [pc, #16]	; (5c30 <serial_tx_callback+0x18>)
    5c20:	3368      	adds	r3, #104	; 0x68
    5c22:	701a      	strb	r2, [r3, #0]
    5c24:	4b03      	ldr	r3, [pc, #12]	; (5c34 <serial_tx_callback+0x1c>)
    5c26:	4798      	blx	r3
    5c28:	bd10      	pop	{r4, pc}
    5c2a:	46c0      	nop			; (mov r8, r8)
    5c2c:	200007c8 	.word	0x200007c8
    5c30:	0000bc69 	.word	0x0000bc69
    5c34:	00005b9d 	.word	0x00005b9d

00005c38 <uart_init>:
    5c38:	b570      	push	{r4, r5, r6, lr}
    5c3a:	480c      	ldr	r0, [pc, #48]	; (5c6c <uart_init+0x34>)
    5c3c:	4d0c      	ldr	r5, [pc, #48]	; (5c70 <uart_init+0x38>)
    5c3e:	47a8      	blx	r5
    5c40:	4c0c      	ldr	r4, [pc, #48]	; (5c74 <uart_init+0x3c>)
    5c42:	4e0d      	ldr	r6, [pc, #52]	; (5c78 <uart_init+0x40>)
    5c44:	4a0d      	ldr	r2, [pc, #52]	; (5c7c <uart_init+0x44>)
    5c46:	2100      	movs	r1, #0
    5c48:	0020      	movs	r0, r4
    5c4a:	47b0      	blx	r6
    5c4c:	480c      	ldr	r0, [pc, #48]	; (5c80 <uart_init+0x48>)
    5c4e:	47a8      	blx	r5
    5c50:	4a0c      	ldr	r2, [pc, #48]	; (5c84 <uart_init+0x4c>)
    5c52:	2101      	movs	r1, #1
    5c54:	0020      	movs	r0, r4
    5c56:	47b0      	blx	r6
    5c58:	490b      	ldr	r1, [pc, #44]	; (5c88 <uart_init+0x50>)
    5c5a:	4b0c      	ldr	r3, [pc, #48]	; (5c8c <uart_init+0x54>)
    5c5c:	0020      	movs	r0, r4
    5c5e:	4798      	blx	r3
    5c60:	480b      	ldr	r0, [pc, #44]	; (5c90 <uart_init+0x58>)
    5c62:	47a8      	blx	r5
    5c64:	0020      	movs	r0, r4
    5c66:	4b0b      	ldr	r3, [pc, #44]	; (5c94 <uart_init+0x5c>)
    5c68:	4798      	blx	r3
    5c6a:	bd70      	pop	{r4, r5, r6, pc}
    5c6c:	0000c2a8 	.word	0x0000c2a8
    5c70:	00007191 	.word	0x00007191
    5c74:	200009a8 	.word	0x200009a8
    5c78:	000014e9 	.word	0x000014e9
    5c7c:	00005aed 	.word	0x00005aed
    5c80:	0000c2be 	.word	0x0000c2be
    5c84:	00005c19 	.word	0x00005c19
    5c88:	20000ac4 	.word	0x20000ac4
    5c8c:	000014e1 	.word	0x000014e1
    5c90:	0000c2d4 	.word	0x0000c2d4
    5c94:	000014d1 	.word	0x000014d1

00005c98 <cdcdf_acm_req>:
    5c98:	b5f0      	push	{r4, r5, r6, r7, lr}
    5c9a:	0016      	movs	r6, r2
    5c9c:	780a      	ldrb	r2, [r1, #0]
    5c9e:	b085      	sub	sp, #20
    5ca0:	0653      	lsls	r3, r2, #25
    5ca2:	9001      	str	r0, [sp, #4]
    5ca4:	000c      	movs	r4, r1
    5ca6:	0f9b      	lsrs	r3, r3, #30
    5ca8:	2b01      	cmp	r3, #1
    5caa:	d156      	bne.n	5d5a <cdcdf_acm_req+0xc2>
    5cac:	7963      	ldrb	r3, [r4, #5]
    5cae:	7909      	ldrb	r1, [r1, #4]
    5cb0:	4d2c      	ldr	r5, [pc, #176]	; (5d64 <cdcdf_acm_req+0xcc>)
    5cb2:	021b      	lsls	r3, r3, #8
    5cb4:	430b      	orrs	r3, r1
    5cb6:	7829      	ldrb	r1, [r5, #0]
    5cb8:	4299      	cmp	r1, r3
    5cba:	d002      	beq.n	5cc2 <cdcdf_acm_req+0x2a>
    5cbc:	7869      	ldrb	r1, [r5, #1]
    5cbe:	4299      	cmp	r1, r3
    5cc0:	d14b      	bne.n	5d5a <cdcdf_acm_req+0xc2>
    5cc2:	b252      	sxtb	r2, r2
    5cc4:	2a00      	cmp	r2, #0
    5cc6:	da12      	bge.n	5cee <cdcdf_acm_req+0x56>
    5cc8:	2000      	movs	r0, #0
    5cca:	2e01      	cmp	r6, #1
    5ccc:	d00d      	beq.n	5cea <cdcdf_acm_req+0x52>
    5cce:	7863      	ldrb	r3, [r4, #1]
    5cd0:	2b21      	cmp	r3, #33	; 0x21
    5cd2:	d118      	bne.n	5d06 <cdcdf_acm_req+0x6e>
    5cd4:	79e2      	ldrb	r2, [r4, #7]
    5cd6:	79a3      	ldrb	r3, [r4, #6]
    5cd8:	0212      	lsls	r2, r2, #8
    5cda:	431a      	orrs	r2, r3
    5cdc:	2a07      	cmp	r2, #7
    5cde:	d13f      	bne.n	5d60 <cdcdf_acm_req+0xc8>
    5ce0:	0003      	movs	r3, r0
    5ce2:	1da9      	adds	r1, r5, #6
    5ce4:	9801      	ldr	r0, [sp, #4]
    5ce6:	4c20      	ldr	r4, [pc, #128]	; (5d68 <cdcdf_acm_req+0xd0>)
    5ce8:	47a0      	blx	r4
    5cea:	b005      	add	sp, #20
    5cec:	bdf0      	pop	{r4, r5, r6, r7, pc}
    5cee:	79e3      	ldrb	r3, [r4, #7]
    5cf0:	79a7      	ldrb	r7, [r4, #6]
    5cf2:	021b      	lsls	r3, r3, #8
    5cf4:	431f      	orrs	r7, r3
    5cf6:	4b1d      	ldr	r3, [pc, #116]	; (5d6c <cdcdf_acm_req+0xd4>)
    5cf8:	4798      	blx	r3
    5cfa:	7863      	ldrb	r3, [r4, #1]
    5cfc:	0001      	movs	r1, r0
    5cfe:	2b20      	cmp	r3, #32
    5d00:	d003      	beq.n	5d0a <cdcdf_acm_req+0x72>
    5d02:	2b22      	cmp	r3, #34	; 0x22
    5d04:	d01a      	beq.n	5d3c <cdcdf_acm_req+0xa4>
    5d06:	200d      	movs	r0, #13
    5d08:	e028      	b.n	5d5c <cdcdf_acm_req+0xc4>
    5d0a:	2f07      	cmp	r7, #7
    5d0c:	d128      	bne.n	5d60 <cdcdf_acm_req+0xc8>
    5d0e:	2e00      	cmp	r6, #0
    5d10:	d102      	bne.n	5d18 <cdcdf_acm_req+0x80>
    5d12:	0033      	movs	r3, r6
    5d14:	003a      	movs	r2, r7
    5d16:	e7e5      	b.n	5ce4 <cdcdf_acm_req+0x4c>
    5d18:	003a      	movs	r2, r7
    5d1a:	a802      	add	r0, sp, #8
    5d1c:	4c14      	ldr	r4, [pc, #80]	; (5d70 <cdcdf_acm_req+0xd8>)
    5d1e:	47a0      	blx	r4
    5d20:	692b      	ldr	r3, [r5, #16]
    5d22:	2b00      	cmp	r3, #0
    5d24:	d105      	bne.n	5d32 <cdcdf_acm_req+0x9a>
    5d26:	1da8      	adds	r0, r5, #6
    5d28:	2207      	movs	r2, #7
    5d2a:	a902      	add	r1, sp, #8
    5d2c:	47a0      	blx	r4
    5d2e:	2000      	movs	r0, #0
    5d30:	e7db      	b.n	5cea <cdcdf_acm_req+0x52>
    5d32:	a802      	add	r0, sp, #8
    5d34:	4798      	blx	r3
    5d36:	2800      	cmp	r0, #0
    5d38:	d1f5      	bne.n	5d26 <cdcdf_acm_req+0x8e>
    5d3a:	e7f8      	b.n	5d2e <cdcdf_acm_req+0x96>
    5d3c:	2300      	movs	r3, #0
    5d3e:	4e0a      	ldr	r6, [pc, #40]	; (5d68 <cdcdf_acm_req+0xd0>)
    5d40:	001a      	movs	r2, r3
    5d42:	0019      	movs	r1, r3
    5d44:	0018      	movs	r0, r3
    5d46:	47b0      	blx	r6
    5d48:	696b      	ldr	r3, [r5, #20]
    5d4a:	2b00      	cmp	r3, #0
    5d4c:	d0ef      	beq.n	5d2e <cdcdf_acm_req+0x96>
    5d4e:	78e0      	ldrb	r0, [r4, #3]
    5d50:	78a2      	ldrb	r2, [r4, #2]
    5d52:	0200      	lsls	r0, r0, #8
    5d54:	4310      	orrs	r0, r2
    5d56:	4798      	blx	r3
    5d58:	e7e9      	b.n	5d2e <cdcdf_acm_req+0x96>
    5d5a:	200a      	movs	r0, #10
    5d5c:	4240      	negs	r0, r0
    5d5e:	e7c4      	b.n	5cea <cdcdf_acm_req+0x52>
    5d60:	2001      	movs	r0, #1
    5d62:	e7fb      	b.n	5d5c <cdcdf_acm_req+0xc4>
    5d64:	20000834 	.word	0x20000834
    5d68:	00006471 	.word	0x00006471
    5d6c:	00006875 	.word	0x00006875
    5d70:	0000707b 	.word	0x0000707b

00005d74 <cdcdf_acm_ctrl>:
    5d74:	b5f7      	push	{r0, r1, r2, r4, r5, r6, r7, lr}
    5d76:	0015      	movs	r5, r2
    5d78:	2901      	cmp	r1, #1
    5d7a:	d050      	beq.n	5e1e <cdcdf_acm_ctrl+0xaa>
    5d7c:	2900      	cmp	r1, #0
    5d7e:	d004      	beq.n	5d8a <cdcdf_acm_ctrl+0x16>
    5d80:	201b      	movs	r0, #27
    5d82:	2902      	cmp	r1, #2
    5d84:	d00a      	beq.n	5d9c <cdcdf_acm_ctrl+0x28>
    5d86:	200d      	movs	r0, #13
    5d88:	e008      	b.n	5d9c <cdcdf_acm_ctrl+0x28>
    5d8a:	6883      	ldr	r3, [r0, #8]
    5d8c:	6810      	ldr	r0, [r2, #0]
    5d8e:	9300      	str	r3, [sp, #0]
    5d90:	001e      	movs	r6, r3
    5d92:	3302      	adds	r3, #2
    5d94:	9301      	str	r3, [sp, #4]
    5d96:	2800      	cmp	r0, #0
    5d98:	d102      	bne.n	5da0 <cdcdf_acm_ctrl+0x2c>
    5d9a:	200a      	movs	r0, #10
    5d9c:	4240      	negs	r0, r0
    5d9e:	e020      	b.n	5de2 <cdcdf_acm_ctrl+0x6e>
    5da0:	2108      	movs	r1, #8
    5da2:	7943      	ldrb	r3, [r0, #5]
    5da4:	7882      	ldrb	r2, [r0, #2]
    5da6:	438b      	bics	r3, r1
    5da8:	2b02      	cmp	r3, #2
    5daa:	d1f6      	bne.n	5d9a <cdcdf_acm_ctrl+0x26>
    5dac:	7833      	ldrb	r3, [r6, #0]
    5dae:	429a      	cmp	r2, r3
    5db0:	d05f      	beq.n	5e72 <cdcdf_acm_ctrl+0xfe>
    5db2:	2bff      	cmp	r3, #255	; 0xff
    5db4:	d15f      	bne.n	5e76 <cdcdf_acm_ctrl+0x102>
    5db6:	7032      	strb	r2, [r6, #0]
    5db8:	6869      	ldr	r1, [r5, #4]
    5dba:	2205      	movs	r2, #5
    5dbc:	4b30      	ldr	r3, [pc, #192]	; (5e80 <cdcdf_acm_ctrl+0x10c>)
    5dbe:	4798      	blx	r3
    5dc0:	1e04      	subs	r4, r0, #0
    5dc2:	d10f      	bne.n	5de4 <cdcdf_acm_ctrl+0x70>
    5dc4:	6828      	ldr	r0, [r5, #0]
    5dc6:	2204      	movs	r2, #4
    5dc8:	7803      	ldrb	r3, [r0, #0]
    5dca:	6869      	ldr	r1, [r5, #4]
    5dcc:	18c0      	adds	r0, r0, r3
    5dce:	4b2c      	ldr	r3, [pc, #176]	; (5e80 <cdcdf_acm_ctrl+0x10c>)
    5dd0:	4798      	blx	r3
    5dd2:	9b01      	ldr	r3, [sp, #4]
    5dd4:	3601      	adds	r6, #1
    5dd6:	42b3      	cmp	r3, r6
    5dd8:	d1dd      	bne.n	5d96 <cdcdf_acm_ctrl+0x22>
    5dda:	2201      	movs	r2, #1
    5ddc:	0020      	movs	r0, r4
    5dde:	4b29      	ldr	r3, [pc, #164]	; (5e84 <cdcdf_acm_ctrl+0x110>)
    5de0:	715a      	strb	r2, [r3, #5]
    5de2:	bdfe      	pop	{r1, r2, r3, r4, r5, r6, r7, pc}
    5de4:	7963      	ldrb	r3, [r4, #5]
    5de6:	7922      	ldrb	r2, [r4, #4]
    5de8:	021b      	lsls	r3, r3, #8
    5dea:	78a7      	ldrb	r7, [r4, #2]
    5dec:	18d2      	adds	r2, r2, r3
    5dee:	b292      	uxth	r2, r2
    5df0:	78e1      	ldrb	r1, [r4, #3]
    5df2:	0038      	movs	r0, r7
    5df4:	4b24      	ldr	r3, [pc, #144]	; (5e88 <cdcdf_acm_ctrl+0x114>)
    5df6:	4798      	blx	r3
    5df8:	2800      	cmp	r0, #0
    5dfa:	d13e      	bne.n	5e7a <cdcdf_acm_ctrl+0x106>
    5dfc:	b27b      	sxtb	r3, r7
    5dfe:	4a23      	ldr	r2, [pc, #140]	; (5e8c <cdcdf_acm_ctrl+0x118>)
    5e00:	2b00      	cmp	r3, #0
    5e02:	da09      	bge.n	5e18 <cdcdf_acm_ctrl+0xa4>
    5e04:	70b7      	strb	r7, [r6, #2]
    5e06:	0038      	movs	r0, r7
    5e08:	4790      	blx	r2
    5e0a:	602c      	str	r4, [r5, #0]
    5e0c:	7820      	ldrb	r0, [r4, #0]
    5e0e:	6869      	ldr	r1, [r5, #4]
    5e10:	1820      	adds	r0, r4, r0
    5e12:	4b1f      	ldr	r3, [pc, #124]	; (5e90 <cdcdf_acm_ctrl+0x11c>)
    5e14:	4798      	blx	r3
    5e16:	e7d3      	b.n	5dc0 <cdcdf_acm_ctrl+0x4c>
    5e18:	9b00      	ldr	r3, [sp, #0]
    5e1a:	711f      	strb	r7, [r3, #4]
    5e1c:	e7f3      	b.n	5e06 <cdcdf_acm_ctrl+0x92>
    5e1e:	6884      	ldr	r4, [r0, #8]
    5e20:	2a00      	cmp	r2, #0
    5e22:	d005      	beq.n	5e30 <cdcdf_acm_ctrl+0xbc>
    5e24:	6813      	ldr	r3, [r2, #0]
    5e26:	2208      	movs	r2, #8
    5e28:	795b      	ldrb	r3, [r3, #5]
    5e2a:	4393      	bics	r3, r2
    5e2c:	2b02      	cmp	r3, #2
    5e2e:	d1b4      	bne.n	5d9a <cdcdf_acm_ctrl+0x26>
    5e30:	7823      	ldrb	r3, [r4, #0]
    5e32:	2bff      	cmp	r3, #255	; 0xff
    5e34:	d007      	beq.n	5e46 <cdcdf_acm_ctrl+0xd2>
    5e36:	25ff      	movs	r5, #255	; 0xff
    5e38:	78a0      	ldrb	r0, [r4, #2]
    5e3a:	7025      	strb	r5, [r4, #0]
    5e3c:	42a8      	cmp	r0, r5
    5e3e:	d002      	beq.n	5e46 <cdcdf_acm_ctrl+0xd2>
    5e40:	4b14      	ldr	r3, [pc, #80]	; (5e94 <cdcdf_acm_ctrl+0x120>)
    5e42:	4798      	blx	r3
    5e44:	70a5      	strb	r5, [r4, #2]
    5e46:	7863      	ldrb	r3, [r4, #1]
    5e48:	2bff      	cmp	r3, #255	; 0xff
    5e4a:	d007      	beq.n	5e5c <cdcdf_acm_ctrl+0xe8>
    5e4c:	25ff      	movs	r5, #255	; 0xff
    5e4e:	78e0      	ldrb	r0, [r4, #3]
    5e50:	7065      	strb	r5, [r4, #1]
    5e52:	42a8      	cmp	r0, r5
    5e54:	d002      	beq.n	5e5c <cdcdf_acm_ctrl+0xe8>
    5e56:	4b0f      	ldr	r3, [pc, #60]	; (5e94 <cdcdf_acm_ctrl+0x120>)
    5e58:	4798      	blx	r3
    5e5a:	70e5      	strb	r5, [r4, #3]
    5e5c:	7920      	ldrb	r0, [r4, #4]
    5e5e:	28ff      	cmp	r0, #255	; 0xff
    5e60:	d003      	beq.n	5e6a <cdcdf_acm_ctrl+0xf6>
    5e62:	4b0c      	ldr	r3, [pc, #48]	; (5e94 <cdcdf_acm_ctrl+0x120>)
    5e64:	4798      	blx	r3
    5e66:	23ff      	movs	r3, #255	; 0xff
    5e68:	7123      	strb	r3, [r4, #4]
    5e6a:	2000      	movs	r0, #0
    5e6c:	4b05      	ldr	r3, [pc, #20]	; (5e84 <cdcdf_acm_ctrl+0x110>)
    5e6e:	7158      	strb	r0, [r3, #5]
    5e70:	e7b7      	b.n	5de2 <cdcdf_acm_ctrl+0x6e>
    5e72:	2012      	movs	r0, #18
    5e74:	e792      	b.n	5d9c <cdcdf_acm_ctrl+0x28>
    5e76:	201c      	movs	r0, #28
    5e78:	e790      	b.n	5d9c <cdcdf_acm_ctrl+0x28>
    5e7a:	2014      	movs	r0, #20
    5e7c:	e78e      	b.n	5d9c <cdcdf_acm_ctrl+0x28>
    5e7e:	46c0      	nop			; (mov r8, r8)
    5e80:	00006895 	.word	0x00006895
    5e84:	20000834 	.word	0x20000834
    5e88:	00001871 	.word	0x00001871
    5e8c:	00001901 	.word	0x00001901
    5e90:	000068af 	.word	0x000068af
    5e94:	000018d5 	.word	0x000018d5

00005e98 <cdcdf_acm_init>:
    5e98:	b510      	push	{r4, lr}
    5e9a:	4b0a      	ldr	r3, [pc, #40]	; (5ec4 <cdcdf_acm_init+0x2c>)
    5e9c:	4798      	blx	r3
    5e9e:	2801      	cmp	r0, #1
    5ea0:	d80c      	bhi.n	5ebc <cdcdf_acm_init+0x24>
    5ea2:	4809      	ldr	r0, [pc, #36]	; (5ec8 <cdcdf_acm_init+0x30>)
    5ea4:	4b09      	ldr	r3, [pc, #36]	; (5ecc <cdcdf_acm_init+0x34>)
    5ea6:	6200      	str	r0, [r0, #32]
    5ea8:	61c3      	str	r3, [r0, #28]
    5eaa:	3018      	adds	r0, #24
    5eac:	4b08      	ldr	r3, [pc, #32]	; (5ed0 <cdcdf_acm_init+0x38>)
    5eae:	4798      	blx	r3
    5eb0:	2001      	movs	r0, #1
    5eb2:	4908      	ldr	r1, [pc, #32]	; (5ed4 <cdcdf_acm_init+0x3c>)
    5eb4:	4b08      	ldr	r3, [pc, #32]	; (5ed8 <cdcdf_acm_init+0x40>)
    5eb6:	4798      	blx	r3
    5eb8:	2000      	movs	r0, #0
    5eba:	bd10      	pop	{r4, pc}
    5ebc:	2011      	movs	r0, #17
    5ebe:	4240      	negs	r0, r0
    5ec0:	e7fb      	b.n	5eba <cdcdf_acm_init+0x22>
    5ec2:	46c0      	nop			; (mov r8, r8)
    5ec4:	00006881 	.word	0x00006881
    5ec8:	20000834 	.word	0x20000834
    5ecc:	00005d75 	.word	0x00005d75
    5ed0:	0000681d 	.word	0x0000681d
    5ed4:	2000000c 	.word	0x2000000c
    5ed8:	000067a9 	.word	0x000067a9

00005edc <hid_keyboard_req>:
    5edc:	780a      	ldrb	r2, [r1, #0]
    5ede:	b570      	push	{r4, r5, r6, lr}
    5ee0:	2a81      	cmp	r2, #129	; 0x81
    5ee2:	d11b      	bne.n	5f1c <hid_keyboard_req+0x40>
    5ee4:	784b      	ldrb	r3, [r1, #1]
    5ee6:	2b06      	cmp	r3, #6
    5ee8:	d118      	bne.n	5f1c <hid_keyboard_req+0x40>
    5eea:	4c1b      	ldr	r4, [pc, #108]	; (5f58 <hid_keyboard_req+0x7c>)
    5eec:	794b      	ldrb	r3, [r1, #5]
    5eee:	790e      	ldrb	r6, [r1, #4]
    5ef0:	7b25      	ldrb	r5, [r4, #12]
    5ef2:	021b      	lsls	r3, r3, #8
    5ef4:	4333      	orrs	r3, r6
    5ef6:	429d      	cmp	r5, r3
    5ef8:	d110      	bne.n	5f1c <hid_keyboard_req+0x40>
    5efa:	78cb      	ldrb	r3, [r1, #3]
    5efc:	2b21      	cmp	r3, #33	; 0x21
    5efe:	d003      	beq.n	5f08 <hid_keyboard_req+0x2c>
    5f00:	2b22      	cmp	r3, #34	; 0x22
    5f02:	d005      	beq.n	5f10 <hid_keyboard_req+0x34>
    5f04:	200d      	movs	r0, #13
    5f06:	e024      	b.n	5f52 <hid_keyboard_req+0x76>
    5f08:	6821      	ldr	r1, [r4, #0]
    5f0a:	780a      	ldrb	r2, [r1, #0]
    5f0c:	2300      	movs	r3, #0
    5f0e:	e002      	b.n	5f16 <hid_keyboard_req+0x3a>
    5f10:	2300      	movs	r3, #0
    5f12:	223b      	movs	r2, #59	; 0x3b
    5f14:	4911      	ldr	r1, [pc, #68]	; (5f5c <hid_keyboard_req+0x80>)
    5f16:	4c12      	ldr	r4, [pc, #72]	; (5f60 <hid_keyboard_req+0x84>)
    5f18:	47a0      	blx	r4
    5f1a:	bd70      	pop	{r4, r5, r6, pc}
    5f1c:	0652      	lsls	r2, r2, #25
    5f1e:	0f92      	lsrs	r2, r2, #30
    5f20:	2a01      	cmp	r2, #1
    5f22:	d115      	bne.n	5f50 <hid_keyboard_req+0x74>
    5f24:	4b0c      	ldr	r3, [pc, #48]	; (5f58 <hid_keyboard_req+0x7c>)
    5f26:	794c      	ldrb	r4, [r1, #5]
    5f28:	790e      	ldrb	r6, [r1, #4]
    5f2a:	7b1d      	ldrb	r5, [r3, #12]
    5f2c:	0224      	lsls	r4, r4, #8
    5f2e:	4334      	orrs	r4, r6
    5f30:	42a5      	cmp	r5, r4
    5f32:	d10d      	bne.n	5f50 <hid_keyboard_req+0x74>
    5f34:	784c      	ldrb	r4, [r1, #1]
    5f36:	2c03      	cmp	r4, #3
    5f38:	d007      	beq.n	5f4a <hid_keyboard_req+0x6e>
    5f3a:	2c0b      	cmp	r4, #11
    5f3c:	d1e2      	bne.n	5f04 <hid_keyboard_req+0x28>
    5f3e:	788a      	ldrb	r2, [r1, #2]
    5f40:	73da      	strb	r2, [r3, #15]
    5f42:	2300      	movs	r3, #0
    5f44:	001a      	movs	r2, r3
    5f46:	0019      	movs	r1, r3
    5f48:	e7e5      	b.n	5f16 <hid_keyboard_req+0x3a>
    5f4a:	330f      	adds	r3, #15
    5f4c:	0019      	movs	r1, r3
    5f4e:	e7dd      	b.n	5f0c <hid_keyboard_req+0x30>
    5f50:	200a      	movs	r0, #10
    5f52:	4240      	negs	r0, r0
    5f54:	e7e1      	b.n	5f1a <hid_keyboard_req+0x3e>
    5f56:	46c0      	nop			; (mov r8, r8)
    5f58:	20000858 	.word	0x20000858
    5f5c:	0000c2e2 	.word	0x0000c2e2
    5f60:	00006471 	.word	0x00006471

00005f64 <hid_keyboard_ctrl>:
    5f64:	b5f7      	push	{r0, r1, r2, r4, r5, r6, r7, lr}
    5f66:	0015      	movs	r5, r2
    5f68:	2901      	cmp	r1, #1
    5f6a:	d04b      	beq.n	6004 <hid_keyboard_ctrl+0xa0>
    5f6c:	2900      	cmp	r1, #0
    5f6e:	d004      	beq.n	5f7a <hid_keyboard_ctrl+0x16>
    5f70:	240d      	movs	r4, #13
    5f72:	2902      	cmp	r1, #2
    5f74:	d106      	bne.n	5f84 <hid_keyboard_ctrl+0x20>
    5f76:	241b      	movs	r4, #27
    5f78:	e004      	b.n	5f84 <hid_keyboard_ctrl+0x20>
    5f7a:	6887      	ldr	r7, [r0, #8]
    5f7c:	6810      	ldr	r0, [r2, #0]
    5f7e:	2800      	cmp	r0, #0
    5f80:	d102      	bne.n	5f88 <hid_keyboard_ctrl+0x24>
    5f82:	240a      	movs	r4, #10
    5f84:	4264      	negs	r4, r4
    5f86:	e039      	b.n	5ffc <hid_keyboard_ctrl+0x98>
    5f88:	7942      	ldrb	r2, [r0, #5]
    5f8a:	7883      	ldrb	r3, [r0, #2]
    5f8c:	2a03      	cmp	r2, #3
    5f8e:	d1f8      	bne.n	5f82 <hid_keyboard_ctrl+0x1e>
    5f90:	7b3a      	ldrb	r2, [r7, #12]
    5f92:	4293      	cmp	r3, r2
    5f94:	d054      	beq.n	6040 <hid_keyboard_ctrl+0xdc>
    5f96:	2aff      	cmp	r2, #255	; 0xff
    5f98:	d154      	bne.n	6044 <hid_keyboard_ctrl+0xe0>
    5f9a:	733b      	strb	r3, [r7, #12]
    5f9c:	7803      	ldrb	r3, [r0, #0]
    5f9e:	3ade      	subs	r2, #222	; 0xde
    5fa0:	18c0      	adds	r0, r0, r3
    5fa2:	6869      	ldr	r1, [r5, #4]
    5fa4:	4b29      	ldr	r3, [pc, #164]	; (604c <hid_keyboard_ctrl+0xe8>)
    5fa6:	4798      	blx	r3
    5fa8:	4b29      	ldr	r3, [pc, #164]	; (6050 <hid_keyboard_ctrl+0xec>)
    5faa:	6018      	str	r0, [r3, #0]
    5fac:	2302      	movs	r3, #2
    5fae:	9301      	str	r3, [sp, #4]
    5fb0:	6828      	ldr	r0, [r5, #0]
    5fb2:	6869      	ldr	r1, [r5, #4]
    5fb4:	7803      	ldrb	r3, [r0, #0]
    5fb6:	18c0      	adds	r0, r0, r3
    5fb8:	4b26      	ldr	r3, [pc, #152]	; (6054 <hid_keyboard_ctrl+0xf0>)
    5fba:	4798      	blx	r3
    5fbc:	6028      	str	r0, [r5, #0]
    5fbe:	2800      	cmp	r0, #0
    5fc0:	d0df      	beq.n	5f82 <hid_keyboard_ctrl+0x1e>
    5fc2:	7943      	ldrb	r3, [r0, #5]
    5fc4:	7902      	ldrb	r2, [r0, #4]
    5fc6:	7886      	ldrb	r6, [r0, #2]
    5fc8:	021b      	lsls	r3, r3, #8
    5fca:	18d2      	adds	r2, r2, r3
    5fcc:	78c1      	ldrb	r1, [r0, #3]
    5fce:	b292      	uxth	r2, r2
    5fd0:	0030      	movs	r0, r6
    5fd2:	4b21      	ldr	r3, [pc, #132]	; (6058 <hid_keyboard_ctrl+0xf4>)
    5fd4:	4798      	blx	r3
    5fd6:	1e04      	subs	r4, r0, #0
    5fd8:	d136      	bne.n	6048 <hid_keyboard_ctrl+0xe4>
    5fda:	b273      	sxtb	r3, r6
    5fdc:	4a1f      	ldr	r2, [pc, #124]	; (605c <hid_keyboard_ctrl+0xf8>)
    5fde:	2b00      	cmp	r3, #0
    5fe0:	da0e      	bge.n	6000 <hid_keyboard_ctrl+0x9c>
    5fe2:	737e      	strb	r6, [r7, #13]
    5fe4:	0030      	movs	r0, r6
    5fe6:	4790      	blx	r2
    5fe8:	9b01      	ldr	r3, [sp, #4]
    5fea:	3b01      	subs	r3, #1
    5fec:	b2db      	uxtb	r3, r3
    5fee:	9301      	str	r3, [sp, #4]
    5ff0:	2b00      	cmp	r3, #0
    5ff2:	d1dd      	bne.n	5fb0 <hid_keyboard_ctrl+0x4c>
    5ff4:	4a16      	ldr	r2, [pc, #88]	; (6050 <hid_keyboard_ctrl+0xec>)
    5ff6:	3301      	adds	r3, #1
    5ff8:	73d3      	strb	r3, [r2, #15]
    5ffa:	7413      	strb	r3, [r2, #16]
    5ffc:	0020      	movs	r0, r4
    5ffe:	bdfe      	pop	{r1, r2, r3, r4, r5, r6, r7, pc}
    6000:	73be      	strb	r6, [r7, #14]
    6002:	e7ef      	b.n	5fe4 <hid_keyboard_ctrl+0x80>
    6004:	6884      	ldr	r4, [r0, #8]
    6006:	2a00      	cmp	r2, #0
    6008:	d003      	beq.n	6012 <hid_keyboard_ctrl+0xae>
    600a:	6813      	ldr	r3, [r2, #0]
    600c:	795b      	ldrb	r3, [r3, #5]
    600e:	2b03      	cmp	r3, #3
    6010:	d1b7      	bne.n	5f82 <hid_keyboard_ctrl+0x1e>
    6012:	7b23      	ldrb	r3, [r4, #12]
    6014:	2bff      	cmp	r3, #255	; 0xff
    6016:	d001      	beq.n	601c <hid_keyboard_ctrl+0xb8>
    6018:	23ff      	movs	r3, #255	; 0xff
    601a:	7323      	strb	r3, [r4, #12]
    601c:	7b60      	ldrb	r0, [r4, #13]
    601e:	28ff      	cmp	r0, #255	; 0xff
    6020:	d003      	beq.n	602a <hid_keyboard_ctrl+0xc6>
    6022:	4b0f      	ldr	r3, [pc, #60]	; (6060 <hid_keyboard_ctrl+0xfc>)
    6024:	4798      	blx	r3
    6026:	23ff      	movs	r3, #255	; 0xff
    6028:	7363      	strb	r3, [r4, #13]
    602a:	7ba0      	ldrb	r0, [r4, #14]
    602c:	28ff      	cmp	r0, #255	; 0xff
    602e:	d003      	beq.n	6038 <hid_keyboard_ctrl+0xd4>
    6030:	4b0b      	ldr	r3, [pc, #44]	; (6060 <hid_keyboard_ctrl+0xfc>)
    6032:	4798      	blx	r3
    6034:	23ff      	movs	r3, #255	; 0xff
    6036:	73a3      	strb	r3, [r4, #14]
    6038:	2400      	movs	r4, #0
    603a:	4b05      	ldr	r3, [pc, #20]	; (6050 <hid_keyboard_ctrl+0xec>)
    603c:	741c      	strb	r4, [r3, #16]
    603e:	e7dd      	b.n	5ffc <hid_keyboard_ctrl+0x98>
    6040:	2412      	movs	r4, #18
    6042:	e79f      	b.n	5f84 <hid_keyboard_ctrl+0x20>
    6044:	241c      	movs	r4, #28
    6046:	e79d      	b.n	5f84 <hid_keyboard_ctrl+0x20>
    6048:	2414      	movs	r4, #20
    604a:	e79b      	b.n	5f84 <hid_keyboard_ctrl+0x20>
    604c:	00006895 	.word	0x00006895
    6050:	20000858 	.word	0x20000858
    6054:	000068af 	.word	0x000068af
    6058:	00001871 	.word	0x00001871
    605c:	00001901 	.word	0x00001901
    6060:	000018d5 	.word	0x000018d5

00006064 <hiddf_keyboard_init>:
    6064:	b510      	push	{r4, lr}
    6066:	4b0a      	ldr	r3, [pc, #40]	; (6090 <hiddf_keyboard_init+0x2c>)
    6068:	4798      	blx	r3
    606a:	2801      	cmp	r0, #1
    606c:	d80c      	bhi.n	6088 <hiddf_keyboard_init+0x24>
    606e:	4809      	ldr	r0, [pc, #36]	; (6094 <hiddf_keyboard_init+0x30>)
    6070:	4b09      	ldr	r3, [pc, #36]	; (6098 <hiddf_keyboard_init+0x34>)
    6072:	61c0      	str	r0, [r0, #28]
    6074:	6183      	str	r3, [r0, #24]
    6076:	3014      	adds	r0, #20
    6078:	4b08      	ldr	r3, [pc, #32]	; (609c <hiddf_keyboard_init+0x38>)
    607a:	4798      	blx	r3
    607c:	2001      	movs	r0, #1
    607e:	4908      	ldr	r1, [pc, #32]	; (60a0 <hiddf_keyboard_init+0x3c>)
    6080:	4b08      	ldr	r3, [pc, #32]	; (60a4 <hiddf_keyboard_init+0x40>)
    6082:	4798      	blx	r3
    6084:	2000      	movs	r0, #0
    6086:	bd10      	pop	{r4, pc}
    6088:	2011      	movs	r0, #17
    608a:	4240      	negs	r0, r0
    608c:	e7fb      	b.n	6086 <hiddf_keyboard_init+0x22>
    608e:	46c0      	nop			; (mov r8, r8)
    6090:	00006881 	.word	0x00006881
    6094:	20000858 	.word	0x20000858
    6098:	00005f65 	.word	0x00005f65
    609c:	0000681d 	.word	0x0000681d
    60a0:	20000014 	.word	0x20000014
    60a4:	000067a9 	.word	0x000067a9

000060a8 <hiddf_keyboard_keys_state_change>:
    60a8:	b5f7      	push	{r0, r1, r2, r4, r5, r6, r7, lr}
    60aa:	4d22      	ldr	r5, [pc, #136]	; (6134 <hiddf_keyboard_keys_state_change+0x8c>)
    60ac:	0004      	movs	r4, r0
    60ae:	7c2b      	ldrb	r3, [r5, #16]
    60b0:	000e      	movs	r6, r1
    60b2:	2b00      	cmp	r3, #0
    60b4:	d03a      	beq.n	612c <hiddf_keyboard_keys_state_change+0x84>
    60b6:	2208      	movs	r2, #8
    60b8:	2100      	movs	r1, #0
    60ba:	1d28      	adds	r0, r5, #4
    60bc:	4f1e      	ldr	r7, [pc, #120]	; (6138 <hiddf_keyboard_keys_state_change+0x90>)
    60be:	47b8      	blx	r7
    60c0:	2303      	movs	r3, #3
    60c2:	4373      	muls	r3, r6
    60c4:	1c58      	adds	r0, r3, #1
    60c6:	1822      	adds	r2, r4, r0
    60c8:	9201      	str	r2, [sp, #4]
    60ca:	2200      	movs	r2, #0
    60cc:	1c61      	adds	r1, r4, #1
    60ce:	9801      	ldr	r0, [sp, #4]
    60d0:	4281      	cmp	r1, r0
    60d2:	d114      	bne.n	60fe <hiddf_keyboard_keys_state_change+0x56>
    60d4:	1ab6      	subs	r6, r6, r2
    60d6:	b2f6      	uxtb	r6, r6
    60d8:	2e06      	cmp	r6, #6
    60da:	d817      	bhi.n	610c <hiddf_keyboard_keys_state_change+0x64>
    60dc:	0020      	movs	r0, r4
    60de:	2202      	movs	r2, #2
    60e0:	18e3      	adds	r3, r4, r3
    60e2:	4298      	cmp	r0, r3
    60e4:	d016      	beq.n	6114 <hiddf_keyboard_keys_state_change+0x6c>
    60e6:	7881      	ldrb	r1, [r0, #2]
    60e8:	2901      	cmp	r1, #1
    60ea:	d106      	bne.n	60fa <hiddf_keyboard_keys_state_change+0x52>
    60ec:	7841      	ldrb	r1, [r0, #1]
    60ee:	7804      	ldrb	r4, [r0, #0]
    60f0:	2900      	cmp	r1, #0
    60f2:	d016      	beq.n	6122 <hiddf_keyboard_keys_state_change+0x7a>
    60f4:	7929      	ldrb	r1, [r5, #4]
    60f6:	4321      	orrs	r1, r4
    60f8:	7129      	strb	r1, [r5, #4]
    60fa:	3003      	adds	r0, #3
    60fc:	e7f1      	b.n	60e2 <hiddf_keyboard_keys_state_change+0x3a>
    60fe:	7808      	ldrb	r0, [r1, #0]
    6100:	2800      	cmp	r0, #0
    6102:	d001      	beq.n	6108 <hiddf_keyboard_keys_state_change+0x60>
    6104:	3201      	adds	r2, #1
    6106:	b2d2      	uxtb	r2, r2
    6108:	3103      	adds	r1, #3
    610a:	e7e0      	b.n	60ce <hiddf_keyboard_keys_state_change+0x26>
    610c:	1da8      	adds	r0, r5, #6
    610e:	2206      	movs	r2, #6
    6110:	21ff      	movs	r1, #255	; 0xff
    6112:	47b8      	blx	r7
    6114:	1d29      	adds	r1, r5, #4
    6116:	7b68      	ldrb	r0, [r5, #13]
    6118:	2300      	movs	r3, #0
    611a:	2208      	movs	r2, #8
    611c:	4c07      	ldr	r4, [pc, #28]	; (613c <hiddf_keyboard_keys_state_change+0x94>)
    611e:	47a0      	blx	r4
    6120:	bdfe      	pop	{r1, r2, r3, r4, r5, r6, r7, pc}
    6122:	1c51      	adds	r1, r2, #1
    6124:	18aa      	adds	r2, r5, r2
    6126:	7114      	strb	r4, [r2, #4]
    6128:	b2ca      	uxtb	r2, r1
    612a:	e7e6      	b.n	60fa <hiddf_keyboard_keys_state_change+0x52>
    612c:	2011      	movs	r0, #17
    612e:	4240      	negs	r0, r0
    6130:	e7f6      	b.n	6120 <hiddf_keyboard_keys_state_change+0x78>
    6132:	46c0      	nop			; (mov r8, r8)
    6134:	20000858 	.word	0x20000858
    6138:	0000708d 	.word	0x0000708d
    613c:	00006471 	.word	0x00006471

00006140 <hid_mouse_req>:
    6140:	780a      	ldrb	r2, [r1, #0]
    6142:	b570      	push	{r4, r5, r6, lr}
    6144:	2a81      	cmp	r2, #129	; 0x81
    6146:	d11b      	bne.n	6180 <hid_mouse_req+0x40>
    6148:	784b      	ldrb	r3, [r1, #1]
    614a:	2b06      	cmp	r3, #6
    614c:	d118      	bne.n	6180 <hid_mouse_req+0x40>
    614e:	4c1b      	ldr	r4, [pc, #108]	; (61bc <hid_mouse_req+0x7c>)
    6150:	794b      	ldrb	r3, [r1, #5]
    6152:	790e      	ldrb	r6, [r1, #4]
    6154:	7a25      	ldrb	r5, [r4, #8]
    6156:	021b      	lsls	r3, r3, #8
    6158:	4333      	orrs	r3, r6
    615a:	429d      	cmp	r5, r3
    615c:	d110      	bne.n	6180 <hid_mouse_req+0x40>
    615e:	78cb      	ldrb	r3, [r1, #3]
    6160:	2b21      	cmp	r3, #33	; 0x21
    6162:	d003      	beq.n	616c <hid_mouse_req+0x2c>
    6164:	2b22      	cmp	r3, #34	; 0x22
    6166:	d005      	beq.n	6174 <hid_mouse_req+0x34>
    6168:	200d      	movs	r0, #13
    616a:	e024      	b.n	61b6 <hid_mouse_req+0x76>
    616c:	6821      	ldr	r1, [r4, #0]
    616e:	780a      	ldrb	r2, [r1, #0]
    6170:	2300      	movs	r3, #0
    6172:	e002      	b.n	617a <hid_mouse_req+0x3a>
    6174:	2300      	movs	r3, #0
    6176:	2234      	movs	r2, #52	; 0x34
    6178:	4911      	ldr	r1, [pc, #68]	; (61c0 <hid_mouse_req+0x80>)
    617a:	4c12      	ldr	r4, [pc, #72]	; (61c4 <hid_mouse_req+0x84>)
    617c:	47a0      	blx	r4
    617e:	bd70      	pop	{r4, r5, r6, pc}
    6180:	0652      	lsls	r2, r2, #25
    6182:	0f92      	lsrs	r2, r2, #30
    6184:	2a01      	cmp	r2, #1
    6186:	d115      	bne.n	61b4 <hid_mouse_req+0x74>
    6188:	4b0c      	ldr	r3, [pc, #48]	; (61bc <hid_mouse_req+0x7c>)
    618a:	794c      	ldrb	r4, [r1, #5]
    618c:	790e      	ldrb	r6, [r1, #4]
    618e:	7a1d      	ldrb	r5, [r3, #8]
    6190:	0224      	lsls	r4, r4, #8
    6192:	4334      	orrs	r4, r6
    6194:	42a5      	cmp	r5, r4
    6196:	d10d      	bne.n	61b4 <hid_mouse_req+0x74>
    6198:	784c      	ldrb	r4, [r1, #1]
    619a:	2c03      	cmp	r4, #3
    619c:	d007      	beq.n	61ae <hid_mouse_req+0x6e>
    619e:	2c0b      	cmp	r4, #11
    61a0:	d1e2      	bne.n	6168 <hid_mouse_req+0x28>
    61a2:	788a      	ldrb	r2, [r1, #2]
    61a4:	729a      	strb	r2, [r3, #10]
    61a6:	2300      	movs	r3, #0
    61a8:	001a      	movs	r2, r3
    61aa:	0019      	movs	r1, r3
    61ac:	e7e5      	b.n	617a <hid_mouse_req+0x3a>
    61ae:	330a      	adds	r3, #10
    61b0:	0019      	movs	r1, r3
    61b2:	e7dd      	b.n	6170 <hid_mouse_req+0x30>
    61b4:	200a      	movs	r0, #10
    61b6:	4240      	negs	r0, r0
    61b8:	e7e1      	b.n	617e <hid_mouse_req+0x3e>
    61ba:	46c0      	nop			; (mov r8, r8)
    61bc:	20000878 	.word	0x20000878
    61c0:	0000c31d 	.word	0x0000c31d
    61c4:	00006471 	.word	0x00006471

000061c8 <hid_mouse_ctrl>:
    61c8:	b5f8      	push	{r3, r4, r5, r6, r7, lr}
    61ca:	0014      	movs	r4, r2
    61cc:	2901      	cmp	r1, #1
    61ce:	d040      	beq.n	6252 <hid_mouse_ctrl+0x8a>
    61d0:	2900      	cmp	r1, #0
    61d2:	d004      	beq.n	61de <hid_mouse_ctrl+0x16>
    61d4:	240d      	movs	r4, #13
    61d6:	2902      	cmp	r1, #2
    61d8:	d106      	bne.n	61e8 <hid_mouse_ctrl+0x20>
    61da:	241b      	movs	r4, #27
    61dc:	e004      	b.n	61e8 <hid_mouse_ctrl+0x20>
    61de:	6885      	ldr	r5, [r0, #8]
    61e0:	6810      	ldr	r0, [r2, #0]
    61e2:	2800      	cmp	r0, #0
    61e4:	d102      	bne.n	61ec <hid_mouse_ctrl+0x24>
    61e6:	240a      	movs	r4, #10
    61e8:	4264      	negs	r4, r4
    61ea:	e030      	b.n	624e <hid_mouse_ctrl+0x86>
    61ec:	7942      	ldrb	r2, [r0, #5]
    61ee:	7883      	ldrb	r3, [r0, #2]
    61f0:	2a03      	cmp	r2, #3
    61f2:	d1f8      	bne.n	61e6 <hid_mouse_ctrl+0x1e>
    61f4:	7a2a      	ldrb	r2, [r5, #8]
    61f6:	4293      	cmp	r3, r2
    61f8:	d042      	beq.n	6280 <hid_mouse_ctrl+0xb8>
    61fa:	2aff      	cmp	r2, #255	; 0xff
    61fc:	d142      	bne.n	6284 <hid_mouse_ctrl+0xbc>
    61fe:	722b      	strb	r3, [r5, #8]
    6200:	7803      	ldrb	r3, [r0, #0]
    6202:	3ade      	subs	r2, #222	; 0xde
    6204:	18c0      	adds	r0, r0, r3
    6206:	6861      	ldr	r1, [r4, #4]
    6208:	4b21      	ldr	r3, [pc, #132]	; (6290 <hid_mouse_ctrl+0xc8>)
    620a:	4798      	blx	r3
    620c:	4e21      	ldr	r6, [pc, #132]	; (6294 <hid_mouse_ctrl+0xcc>)
    620e:	6861      	ldr	r1, [r4, #4]
    6210:	6030      	str	r0, [r6, #0]
    6212:	6820      	ldr	r0, [r4, #0]
    6214:	7803      	ldrb	r3, [r0, #0]
    6216:	18c0      	adds	r0, r0, r3
    6218:	4b1f      	ldr	r3, [pc, #124]	; (6298 <hid_mouse_ctrl+0xd0>)
    621a:	4798      	blx	r3
    621c:	6020      	str	r0, [r4, #0]
    621e:	2800      	cmp	r0, #0
    6220:	d0e1      	beq.n	61e6 <hid_mouse_ctrl+0x1e>
    6222:	7943      	ldrb	r3, [r0, #5]
    6224:	7902      	ldrb	r2, [r0, #4]
    6226:	7887      	ldrb	r7, [r0, #2]
    6228:	021b      	lsls	r3, r3, #8
    622a:	18d2      	adds	r2, r2, r3
    622c:	78c1      	ldrb	r1, [r0, #3]
    622e:	b292      	uxth	r2, r2
    6230:	0038      	movs	r0, r7
    6232:	4b1a      	ldr	r3, [pc, #104]	; (629c <hid_mouse_ctrl+0xd4>)
    6234:	4798      	blx	r3
    6236:	1e04      	subs	r4, r0, #0
    6238:	d126      	bne.n	6288 <hid_mouse_ctrl+0xc0>
    623a:	b27b      	sxtb	r3, r7
    623c:	2b00      	cmp	r3, #0
    623e:	da25      	bge.n	628c <hid_mouse_ctrl+0xc4>
    6240:	4b17      	ldr	r3, [pc, #92]	; (62a0 <hid_mouse_ctrl+0xd8>)
    6242:	726f      	strb	r7, [r5, #9]
    6244:	0038      	movs	r0, r7
    6246:	4798      	blx	r3
    6248:	2301      	movs	r3, #1
    624a:	72b3      	strb	r3, [r6, #10]
    624c:	72f3      	strb	r3, [r6, #11]
    624e:	0020      	movs	r0, r4
    6250:	bdf8      	pop	{r3, r4, r5, r6, r7, pc}
    6252:	6885      	ldr	r5, [r0, #8]
    6254:	2a00      	cmp	r2, #0
    6256:	d003      	beq.n	6260 <hid_mouse_ctrl+0x98>
    6258:	6813      	ldr	r3, [r2, #0]
    625a:	795b      	ldrb	r3, [r3, #5]
    625c:	2b03      	cmp	r3, #3
    625e:	d1c2      	bne.n	61e6 <hid_mouse_ctrl+0x1e>
    6260:	7a2b      	ldrb	r3, [r5, #8]
    6262:	2bff      	cmp	r3, #255	; 0xff
    6264:	d001      	beq.n	626a <hid_mouse_ctrl+0xa2>
    6266:	23ff      	movs	r3, #255	; 0xff
    6268:	722b      	strb	r3, [r5, #8]
    626a:	7a68      	ldrb	r0, [r5, #9]
    626c:	28ff      	cmp	r0, #255	; 0xff
    626e:	d003      	beq.n	6278 <hid_mouse_ctrl+0xb0>
    6270:	4b0c      	ldr	r3, [pc, #48]	; (62a4 <hid_mouse_ctrl+0xdc>)
    6272:	4798      	blx	r3
    6274:	23ff      	movs	r3, #255	; 0xff
    6276:	726b      	strb	r3, [r5, #9]
    6278:	2400      	movs	r4, #0
    627a:	4b06      	ldr	r3, [pc, #24]	; (6294 <hid_mouse_ctrl+0xcc>)
    627c:	72dc      	strb	r4, [r3, #11]
    627e:	e7e6      	b.n	624e <hid_mouse_ctrl+0x86>
    6280:	2412      	movs	r4, #18
    6282:	e7b1      	b.n	61e8 <hid_mouse_ctrl+0x20>
    6284:	241c      	movs	r4, #28
    6286:	e7af      	b.n	61e8 <hid_mouse_ctrl+0x20>
    6288:	2414      	movs	r4, #20
    628a:	e7ad      	b.n	61e8 <hid_mouse_ctrl+0x20>
    628c:	2401      	movs	r4, #1
    628e:	e7ab      	b.n	61e8 <hid_mouse_ctrl+0x20>
    6290:	00006895 	.word	0x00006895
    6294:	20000878 	.word	0x20000878
    6298:	000068af 	.word	0x000068af
    629c:	00001871 	.word	0x00001871
    62a0:	00001901 	.word	0x00001901
    62a4:	000018d5 	.word	0x000018d5

000062a8 <hiddf_mouse_init>:
    62a8:	b510      	push	{r4, lr}
    62aa:	4b0a      	ldr	r3, [pc, #40]	; (62d4 <hiddf_mouse_init+0x2c>)
    62ac:	4798      	blx	r3
    62ae:	2801      	cmp	r0, #1
    62b0:	d80c      	bhi.n	62cc <hiddf_mouse_init+0x24>
    62b2:	4809      	ldr	r0, [pc, #36]	; (62d8 <hiddf_mouse_init+0x30>)
    62b4:	4b09      	ldr	r3, [pc, #36]	; (62dc <hiddf_mouse_init+0x34>)
    62b6:	6140      	str	r0, [r0, #20]
    62b8:	6103      	str	r3, [r0, #16]
    62ba:	300c      	adds	r0, #12
    62bc:	4b08      	ldr	r3, [pc, #32]	; (62e0 <hiddf_mouse_init+0x38>)
    62be:	4798      	blx	r3
    62c0:	2001      	movs	r0, #1
    62c2:	4908      	ldr	r1, [pc, #32]	; (62e4 <hiddf_mouse_init+0x3c>)
    62c4:	4b08      	ldr	r3, [pc, #32]	; (62e8 <hiddf_mouse_init+0x40>)
    62c6:	4798      	blx	r3
    62c8:	2000      	movs	r0, #0
    62ca:	bd10      	pop	{r4, pc}
    62cc:	2011      	movs	r0, #17
    62ce:	4240      	negs	r0, r0
    62d0:	e7fb      	b.n	62ca <hiddf_mouse_init+0x22>
    62d2:	46c0      	nop			; (mov r8, r8)
    62d4:	00006881 	.word	0x00006881
    62d8:	20000878 	.word	0x20000878
    62dc:	000061c9 	.word	0x000061c9
    62e0:	0000681d 	.word	0x0000681d
    62e4:	2000001c 	.word	0x2000001c
    62e8:	000067a9 	.word	0x000067a9

000062ec <usbdc_unconfig>:
    62ec:	4b06      	ldr	r3, [pc, #24]	; (6308 <usbdc_unconfig+0x1c>)
    62ee:	b510      	push	{r4, lr}
    62f0:	691c      	ldr	r4, [r3, #16]
    62f2:	2c00      	cmp	r4, #0
    62f4:	d100      	bne.n	62f8 <usbdc_unconfig+0xc>
    62f6:	bd10      	pop	{r4, pc}
    62f8:	0020      	movs	r0, r4
    62fa:	6863      	ldr	r3, [r4, #4]
    62fc:	2200      	movs	r2, #0
    62fe:	2101      	movs	r1, #1
    6300:	4798      	blx	r3
    6302:	6824      	ldr	r4, [r4, #0]
    6304:	e7f5      	b.n	62f2 <usbdc_unconfig+0x6>
    6306:	46c0      	nop			; (mov r8, r8)
    6308:	20000890 	.word	0x20000890

0000630c <usbdc_change_notify>:
    630c:	b570      	push	{r4, r5, r6, lr}
    630e:	0005      	movs	r5, r0
    6310:	000e      	movs	r6, r1
    6312:	4b06      	ldr	r3, [pc, #24]	; (632c <usbdc_change_notify+0x20>)
    6314:	68dc      	ldr	r4, [r3, #12]
    6316:	2c00      	cmp	r4, #0
    6318:	d100      	bne.n	631c <usbdc_change_notify+0x10>
    631a:	bd70      	pop	{r4, r5, r6, pc}
    631c:	6863      	ldr	r3, [r4, #4]
    631e:	2b00      	cmp	r3, #0
    6320:	d002      	beq.n	6328 <usbdc_change_notify+0x1c>
    6322:	0031      	movs	r1, r6
    6324:	0028      	movs	r0, r5
    6326:	4798      	blx	r3
    6328:	6824      	ldr	r4, [r4, #0]
    632a:	e7f4      	b.n	6316 <usbdc_change_notify+0xa>
    632c:	20000890 	.word	0x20000890

00006330 <usbdc_request_handler>:
    6330:	b5f8      	push	{r3, r4, r5, r6, r7, lr}
    6332:	0005      	movs	r5, r0
    6334:	000e      	movs	r6, r1
    6336:	0017      	movs	r7, r2
    6338:	4b0b      	ldr	r3, [pc, #44]	; (6368 <usbdc_request_handler+0x38>)
    633a:	689c      	ldr	r4, [r3, #8]
    633c:	2c00      	cmp	r4, #0
    633e:	d101      	bne.n	6344 <usbdc_request_handler+0x14>
    6340:	0020      	movs	r0, r4
    6342:	bdf8      	pop	{r3, r4, r5, r6, r7, pc}
    6344:	6863      	ldr	r3, [r4, #4]
    6346:	2b00      	cmp	r3, #0
    6348:	d101      	bne.n	634e <usbdc_request_handler+0x1e>
    634a:	6824      	ldr	r4, [r4, #0]
    634c:	e7f6      	b.n	633c <usbdc_request_handler+0xc>
    634e:	003a      	movs	r2, r7
    6350:	0031      	movs	r1, r6
    6352:	0028      	movs	r0, r5
    6354:	4798      	blx	r3
    6356:	2800      	cmp	r0, #0
    6358:	d004      	beq.n	6364 <usbdc_request_handler+0x34>
    635a:	300a      	adds	r0, #10
    635c:	d0f5      	beq.n	634a <usbdc_request_handler+0x1a>
    635e:	2001      	movs	r0, #1
    6360:	4240      	negs	r0, r0
    6362:	e7ee      	b.n	6342 <usbdc_request_handler+0x12>
    6364:	2001      	movs	r0, #1
    6366:	e7ec      	b.n	6342 <usbdc_request_handler+0x12>
    6368:	20000890 	.word	0x20000890

0000636c <usbd_sof_cb>:
    636c:	4b05      	ldr	r3, [pc, #20]	; (6384 <usbd_sof_cb+0x18>)
    636e:	b510      	push	{r4, lr}
    6370:	685c      	ldr	r4, [r3, #4]
    6372:	2c00      	cmp	r4, #0
    6374:	d100      	bne.n	6378 <usbd_sof_cb+0xc>
    6376:	bd10      	pop	{r4, pc}
    6378:	6863      	ldr	r3, [r4, #4]
    637a:	2b00      	cmp	r3, #0
    637c:	d000      	beq.n	6380 <usbd_sof_cb+0x14>
    637e:	4798      	blx	r3
    6380:	6824      	ldr	r4, [r4, #0]
    6382:	e7f6      	b.n	6372 <usbd_sof_cb+0x6>
    6384:	20000890 	.word	0x20000890

00006388 <usbdc_cb_ctl_done>:
    6388:	b510      	push	{r4, lr}
    638a:	0014      	movs	r4, r2
    638c:	2900      	cmp	r1, #0
    638e:	d003      	beq.n	6398 <usbdc_cb_ctl_done+0x10>
    6390:	2901      	cmp	r1, #1
    6392:	d023      	beq.n	63dc <usbdc_cb_ctl_done+0x54>
    6394:	2000      	movs	r0, #0
    6396:	bd10      	pop	{r4, pc}
    6398:	7813      	ldrb	r3, [r2, #0]
    639a:	2b00      	cmp	r3, #0
    639c:	d1fa      	bne.n	6394 <usbdc_cb_ctl_done+0xc>
    639e:	7853      	ldrb	r3, [r2, #1]
    63a0:	2b05      	cmp	r3, #5
    63a2:	d00f      	beq.n	63c4 <usbdc_cb_ctl_done+0x3c>
    63a4:	2b09      	cmp	r3, #9
    63a6:	d1f5      	bne.n	6394 <usbdc_cb_ctl_done+0xc>
    63a8:	78d1      	ldrb	r1, [r2, #3]
    63aa:	7893      	ldrb	r3, [r2, #2]
    63ac:	0209      	lsls	r1, r1, #8
    63ae:	4319      	orrs	r1, r3
    63b0:	4b0d      	ldr	r3, [pc, #52]	; (63e8 <usbdc_cb_ctl_done+0x60>)
    63b2:	76d9      	strb	r1, [r3, #27]
    63b4:	1e4a      	subs	r2, r1, #1
    63b6:	4191      	sbcs	r1, r2
    63b8:	3103      	adds	r1, #3
    63ba:	7699      	strb	r1, [r3, #26]
    63bc:	2001      	movs	r0, #1
    63be:	4b0b      	ldr	r3, [pc, #44]	; (63ec <usbdc_cb_ctl_done+0x64>)
    63c0:	4798      	blx	r3
    63c2:	e7e7      	b.n	6394 <usbdc_cb_ctl_done+0xc>
    63c4:	4b0a      	ldr	r3, [pc, #40]	; (63f0 <usbdc_cb_ctl_done+0x68>)
    63c6:	7890      	ldrb	r0, [r2, #2]
    63c8:	4798      	blx	r3
    63ca:	78e1      	ldrb	r1, [r4, #3]
    63cc:	78a3      	ldrb	r3, [r4, #2]
    63ce:	0209      	lsls	r1, r1, #8
    63d0:	4319      	orrs	r1, r3
    63d2:	1e4b      	subs	r3, r1, #1
    63d4:	4199      	sbcs	r1, r3
    63d6:	4b04      	ldr	r3, [pc, #16]	; (63e8 <usbdc_cb_ctl_done+0x60>)
    63d8:	3102      	adds	r1, #2
    63da:	e7ee      	b.n	63ba <usbdc_cb_ctl_done+0x32>
    63dc:	000a      	movs	r2, r1
    63de:	4b05      	ldr	r3, [pc, #20]	; (63f4 <usbdc_cb_ctl_done+0x6c>)
    63e0:	0021      	movs	r1, r4
    63e2:	2000      	movs	r0, #0
    63e4:	4798      	blx	r3
    63e6:	e7d5      	b.n	6394 <usbdc_cb_ctl_done+0xc>
    63e8:	20000890 	.word	0x20000890
    63ec:	0000630d 	.word	0x0000630d
    63f0:	00001865 	.word	0x00001865
    63f4:	00006331 	.word	0x00006331

000063f8 <usbdc_reset>:
    63f8:	b570      	push	{r4, r5, r6, lr}
    63fa:	2400      	movs	r4, #0
    63fc:	2602      	movs	r6, #2
    63fe:	4b0c      	ldr	r3, [pc, #48]	; (6430 <usbdc_reset+0x38>)
    6400:	4798      	blx	r3
    6402:	4d0c      	ldr	r5, [pc, #48]	; (6434 <usbdc_reset+0x3c>)
    6404:	0020      	movs	r0, r4
    6406:	4b0c      	ldr	r3, [pc, #48]	; (6438 <usbdc_reset+0x40>)
    6408:	76ae      	strb	r6, [r5, #26]
    640a:	76ec      	strb	r4, [r5, #27]
    640c:	776c      	strb	r4, [r5, #29]
    640e:	4798      	blx	r3
    6410:	4b0a      	ldr	r3, [pc, #40]	; (643c <usbdc_reset+0x44>)
    6412:	7f28      	ldrb	r0, [r5, #28]
    6414:	4798      	blx	r3
    6416:	4d0a      	ldr	r5, [pc, #40]	; (6440 <usbdc_reset+0x48>)
    6418:	0021      	movs	r1, r4
    641a:	0020      	movs	r0, r4
    641c:	4a09      	ldr	r2, [pc, #36]	; (6444 <usbdc_reset+0x4c>)
    641e:	47a8      	blx	r5
    6420:	0031      	movs	r1, r6
    6422:	4a09      	ldr	r2, [pc, #36]	; (6448 <usbdc_reset+0x50>)
    6424:	0020      	movs	r0, r4
    6426:	47a8      	blx	r5
    6428:	0020      	movs	r0, r4
    642a:	4b08      	ldr	r3, [pc, #32]	; (644c <usbdc_reset+0x54>)
    642c:	4798      	blx	r3
    642e:	bd70      	pop	{r4, r5, r6, pc}
    6430:	000062ed 	.word	0x000062ed
    6434:	20000890 	.word	0x20000890
    6438:	000018d5 	.word	0x000018d5
    643c:	000018c1 	.word	0x000018c1
    6440:	00001a99 	.word	0x00001a99
    6444:	0000648d 	.word	0x0000648d
    6448:	00006389 	.word	0x00006389
    644c:	00001901 	.word	0x00001901

00006450 <usbd_event_cb>:
    6450:	b510      	push	{r4, lr}
    6452:	2800      	cmp	r0, #0
    6454:	d002      	beq.n	645c <usbd_event_cb+0xc>
    6456:	2801      	cmp	r0, #1
    6458:	d003      	beq.n	6462 <usbd_event_cb+0x12>
    645a:	bd10      	pop	{r4, pc}
    645c:	4b02      	ldr	r3, [pc, #8]	; (6468 <usbd_event_cb+0x18>)
    645e:	4798      	blx	r3
    6460:	e7fb      	b.n	645a <usbd_event_cb+0xa>
    6462:	4b02      	ldr	r3, [pc, #8]	; (646c <usbd_event_cb+0x1c>)
    6464:	4798      	blx	r3
    6466:	e7f8      	b.n	645a <usbd_event_cb+0xa>
    6468:	0000630d 	.word	0x0000630d
    646c:	000063f9 	.word	0x000063f9

00006470 <usbdc_xfer>:
    6470:	b51f      	push	{r0, r1, r2, r3, r4, lr}
    6472:	ac01      	add	r4, sp, #4
    6474:	7220      	strb	r0, [r4, #8]
    6476:	7263      	strb	r3, [r4, #9]
    6478:	0020      	movs	r0, r4
    647a:	4b03      	ldr	r3, [pc, #12]	; (6488 <usbdc_xfer+0x18>)
    647c:	9101      	str	r1, [sp, #4]
    647e:	9202      	str	r2, [sp, #8]
    6480:	4798      	blx	r3
    6482:	b004      	add	sp, #16
    6484:	bd10      	pop	{r4, pc}
    6486:	46c0      	nop			; (mov r8, r8)
    6488:	00001941 	.word	0x00001941

0000648c <usbdc_cb_ctl_req>:
    648c:	b5f7      	push	{r0, r1, r2, r4, r5, r6, r7, lr}
    648e:	4bb3      	ldr	r3, [pc, #716]	; (675c <usbdc_cb_ctl_req+0x2d0>)
    6490:	2200      	movs	r2, #0
    6492:	0004      	movs	r4, r0
    6494:	000d      	movs	r5, r1
    6496:	4798      	blx	r3
    6498:	2200      	movs	r2, #0
    649a:	1c43      	adds	r3, r0, #1
    649c:	d100      	bne.n	64a0 <usbdc_cb_ctl_req+0x14>
    649e:	e15a      	b.n	6756 <usbdc_cb_ctl_req+0x2ca>
    64a0:	3201      	adds	r2, #1
    64a2:	4290      	cmp	r0, r2
    64a4:	d100      	bne.n	64a8 <usbdc_cb_ctl_req+0x1c>
    64a6:	e156      	b.n	6756 <usbdc_cb_ctl_req+0x2ca>
    64a8:	7829      	ldrb	r1, [r5, #0]
    64aa:	231f      	movs	r3, #31
    64ac:	000a      	movs	r2, r1
    64ae:	439a      	bics	r2, r3
    64b0:	d004      	beq.n	64bc <usbdc_cb_ctl_req+0x30>
    64b2:	2a80      	cmp	r2, #128	; 0x80
    64b4:	d100      	bne.n	64b8 <usbdc_cb_ctl_req+0x2c>
    64b6:	e0b1      	b.n	661c <usbdc_cb_ctl_req+0x190>
    64b8:	2200      	movs	r2, #0
    64ba:	e14c      	b.n	6756 <usbdc_cb_ctl_req+0x2ca>
    64bc:	7868      	ldrb	r0, [r5, #1]
    64be:	3801      	subs	r0, #1
    64c0:	280a      	cmp	r0, #10
    64c2:	d8f9      	bhi.n	64b8 <usbdc_cb_ctl_req+0x2c>
    64c4:	f000 fbde 	bl	6c84 <__gnu_thumb1_case_sqi>
    64c8:	f854f842 	.word	0xf854f842
    64cc:	f8f8f80b 	.word	0xf8f8f80b
    64d0:	f806      	.short	0xf806
    64d2:	5e          	.byte	0x5e
    64d3:	00          	.byte	0x00
    64d4:	78aa      	ldrb	r2, [r5, #2]
    64d6:	2a00      	cmp	r2, #0
    64d8:	d105      	bne.n	64e6 <usbdc_cb_ctl_req+0x5a>
    64da:	4ba1      	ldr	r3, [pc, #644]	; (6760 <usbdc_cb_ctl_req+0x2d4>)
    64dc:	4798      	blx	r3
    64de:	2200      	movs	r2, #0
    64e0:	2301      	movs	r3, #1
    64e2:	0011      	movs	r1, r2
    64e4:	e0cb      	b.n	667e <usbdc_cb_ctl_req+0x1f2>
    64e6:	4d9f      	ldr	r5, [pc, #636]	; (6764 <usbdc_cb_ctl_req+0x2d8>)
    64e8:	682b      	ldr	r3, [r5, #0]
    64ea:	cb03      	ldmia	r3!, {r0, r1}
    64ec:	4b9e      	ldr	r3, [pc, #632]	; (6768 <usbdc_cb_ctl_req+0x2dc>)
    64ee:	4798      	blx	r3
    64f0:	1e02      	subs	r2, r0, #0
    64f2:	d100      	bne.n	64f6 <usbdc_cb_ctl_req+0x6a>
    64f4:	e12f      	b.n	6756 <usbdc_cb_ctl_req+0x2ca>
    64f6:	78c3      	ldrb	r3, [r0, #3]
    64f8:	7881      	ldrb	r1, [r0, #2]
    64fa:	021b      	lsls	r3, r3, #8
    64fc:	18c9      	adds	r1, r1, r3
    64fe:	b289      	uxth	r1, r1
    6500:	1841      	adds	r1, r0, r1
    6502:	4b9a      	ldr	r3, [pc, #616]	; (676c <usbdc_cb_ctl_req+0x2e0>)
    6504:	2204      	movs	r2, #4
    6506:	9101      	str	r1, [sp, #4]
    6508:	4798      	blx	r3
    650a:	23ff      	movs	r3, #255	; 0xff
    650c:	9000      	str	r0, [sp, #0]
    650e:	9a00      	ldr	r2, [sp, #0]
    6510:	2a00      	cmp	r2, #0
    6512:	d0e4      	beq.n	64de <usbdc_cb_ctl_req+0x52>
    6514:	7896      	ldrb	r6, [r2, #2]
    6516:	429e      	cmp	r6, r3
    6518:	d016      	beq.n	6548 <usbdc_cb_ctl_req+0xbc>
    651a:	692f      	ldr	r7, [r5, #16]
    651c:	2f00      	cmp	r7, #0
    651e:	d10a      	bne.n	6536 <usbdc_cb_ctl_req+0xaa>
    6520:	9800      	ldr	r0, [sp, #0]
    6522:	2204      	movs	r2, #4
    6524:	7803      	ldrb	r3, [r0, #0]
    6526:	9901      	ldr	r1, [sp, #4]
    6528:	18c0      	adds	r0, r0, r3
    652a:	4b90      	ldr	r3, [pc, #576]	; (676c <usbdc_cb_ctl_req+0x2e0>)
    652c:	9000      	str	r0, [sp, #0]
    652e:	4798      	blx	r3
    6530:	0033      	movs	r3, r6
    6532:	9000      	str	r0, [sp, #0]
    6534:	e7eb      	b.n	650e <usbdc_cb_ctl_req+0x82>
    6536:	466a      	mov	r2, sp
    6538:	2100      	movs	r1, #0
    653a:	0038      	movs	r0, r7
    653c:	687b      	ldr	r3, [r7, #4]
    653e:	4798      	blx	r3
    6540:	2800      	cmp	r0, #0
    6542:	d0ed      	beq.n	6520 <usbdc_cb_ctl_req+0x94>
    6544:	683f      	ldr	r7, [r7, #0]
    6546:	e7e9      	b.n	651c <usbdc_cb_ctl_req+0x90>
    6548:	001e      	movs	r6, r3
    654a:	e7e9      	b.n	6520 <usbdc_cb_ctl_req+0x94>
    654c:	2902      	cmp	r1, #2
    654e:	d1b3      	bne.n	64b8 <usbdc_cb_ctl_req+0x2c>
    6550:	79ee      	ldrb	r6, [r5, #7]
    6552:	79ab      	ldrb	r3, [r5, #6]
    6554:	0236      	lsls	r6, r6, #8
    6556:	431e      	orrs	r6, r3
    6558:	d1ae      	bne.n	64b8 <usbdc_cb_ctl_req+0x2c>
    655a:	0031      	movs	r1, r6
    655c:	7928      	ldrb	r0, [r5, #4]
    655e:	4b84      	ldr	r3, [pc, #528]	; (6770 <usbdc_cb_ctl_req+0x2e4>)
    6560:	4798      	blx	r3
    6562:	2301      	movs	r3, #1
    6564:	0032      	movs	r2, r6
    6566:	0031      	movs	r1, r6
    6568:	0020      	movs	r0, r4
    656a:	4c82      	ldr	r4, [pc, #520]	; (6774 <usbdc_cb_ctl_req+0x2e8>)
    656c:	47a0      	blx	r4
    656e:	e0f1      	b.n	6754 <usbdc_cb_ctl_req+0x2c8>
    6570:	2902      	cmp	r1, #2
    6572:	d1a1      	bne.n	64b8 <usbdc_cb_ctl_req+0x2c>
    6574:	79eb      	ldrb	r3, [r5, #7]
    6576:	79ae      	ldrb	r6, [r5, #6]
    6578:	021b      	lsls	r3, r3, #8
    657a:	431e      	orrs	r6, r3
    657c:	d19c      	bne.n	64b8 <usbdc_cb_ctl_req+0x2c>
    657e:	7928      	ldrb	r0, [r5, #4]
    6580:	3901      	subs	r1, #1
    6582:	e7ec      	b.n	655e <usbdc_cb_ctl_req+0xd2>
    6584:	78ec      	ldrb	r4, [r5, #3]
    6586:	78ab      	ldrb	r3, [r5, #2]
    6588:	0224      	lsls	r4, r4, #8
    658a:	431c      	orrs	r4, r3
    658c:	792b      	ldrb	r3, [r5, #4]
    658e:	796d      	ldrb	r5, [r5, #5]
    6590:	4e74      	ldr	r6, [pc, #464]	; (6764 <usbdc_cb_ctl_req+0x2d8>)
    6592:	022d      	lsls	r5, r5, #8
    6594:	431d      	orrs	r5, r3
    6596:	6833      	ldr	r3, [r6, #0]
    6598:	7ef2      	ldrb	r2, [r6, #27]
    659a:	cb03      	ldmia	r3!, {r0, r1}
    659c:	4b72      	ldr	r3, [pc, #456]	; (6768 <usbdc_cb_ctl_req+0x2dc>)
    659e:	4798      	blx	r3
    65a0:	2800      	cmp	r0, #0
    65a2:	d089      	beq.n	64b8 <usbdc_cb_ctl_req+0x2c>
    65a4:	2204      	movs	r2, #4
    65a6:	9000      	str	r0, [sp, #0]
    65a8:	78c3      	ldrb	r3, [r0, #3]
    65aa:	7881      	ldrb	r1, [r0, #2]
    65ac:	021b      	lsls	r3, r3, #8
    65ae:	18c9      	adds	r1, r1, r3
    65b0:	b289      	uxth	r1, r1
    65b2:	1841      	adds	r1, r0, r1
    65b4:	4f6d      	ldr	r7, [pc, #436]	; (676c <usbdc_cb_ctl_req+0x2e0>)
    65b6:	9101      	str	r1, [sp, #4]
    65b8:	47b8      	blx	r7
    65ba:	2800      	cmp	r0, #0
    65bc:	d100      	bne.n	65c0 <usbdc_cb_ctl_req+0x134>
    65be:	e77b      	b.n	64b8 <usbdc_cb_ctl_req+0x2c>
    65c0:	7883      	ldrb	r3, [r0, #2]
    65c2:	42ab      	cmp	r3, r5
    65c4:	d110      	bne.n	65e8 <usbdc_cb_ctl_req+0x15c>
    65c6:	78c3      	ldrb	r3, [r0, #3]
    65c8:	42a3      	cmp	r3, r4
    65ca:	d10d      	bne.n	65e8 <usbdc_cb_ctl_req+0x15c>
    65cc:	6937      	ldr	r7, [r6, #16]
    65ce:	9000      	str	r0, [sp, #0]
    65d0:	2f00      	cmp	r7, #0
    65d2:	d100      	bne.n	65d6 <usbdc_cb_ctl_req+0x14a>
    65d4:	e770      	b.n	64b8 <usbdc_cb_ctl_req+0x2c>
    65d6:	2101      	movs	r1, #1
    65d8:	466a      	mov	r2, sp
    65da:	0038      	movs	r0, r7
    65dc:	687b      	ldr	r3, [r7, #4]
    65de:	4798      	blx	r3
    65e0:	1e01      	subs	r1, r0, #0
    65e2:	d008      	beq.n	65f6 <usbdc_cb_ctl_req+0x16a>
    65e4:	683f      	ldr	r7, [r7, #0]
    65e6:	e7f3      	b.n	65d0 <usbdc_cb_ctl_req+0x144>
    65e8:	9800      	ldr	r0, [sp, #0]
    65ea:	2204      	movs	r2, #4
    65ec:	7803      	ldrb	r3, [r0, #0]
    65ee:	9901      	ldr	r1, [sp, #4]
    65f0:	18c0      	adds	r0, r0, r3
    65f2:	9000      	str	r0, [sp, #0]
    65f4:	e7e0      	b.n	65b8 <usbdc_cb_ctl_req+0x12c>
    65f6:	687b      	ldr	r3, [r7, #4]
    65f8:	466a      	mov	r2, sp
    65fa:	0038      	movs	r0, r7
    65fc:	4798      	blx	r3
    65fe:	2800      	cmp	r0, #0
    6600:	d000      	beq.n	6604 <usbdc_cb_ctl_req+0x178>
    6602:	e759      	b.n	64b8 <usbdc_cb_ctl_req+0x2c>
    6604:	2c00      	cmp	r4, #0
    6606:	d004      	beq.n	6612 <usbdc_cb_ctl_req+0x186>
    6608:	2201      	movs	r2, #1
    660a:	40aa      	lsls	r2, r5
    660c:	7f73      	ldrb	r3, [r6, #29]
    660e:	4313      	orrs	r3, r2
    6610:	7773      	strb	r3, [r6, #29]
    6612:	2300      	movs	r3, #0
    6614:	001a      	movs	r2, r3
    6616:	0019      	movs	r1, r3
    6618:	0018      	movs	r0, r3
    661a:	e7a6      	b.n	656a <usbdc_cb_ctl_req+0xde>
    661c:	7868      	ldrb	r0, [r5, #1]
    661e:	280a      	cmp	r0, #10
    6620:	d900      	bls.n	6624 <usbdc_cb_ctl_req+0x198>
    6622:	e749      	b.n	64b8 <usbdc_cb_ctl_req+0x2c>
    6624:	f000 fb42 	bl	6cac <__gnu_thumb1_case_shi>
    6628:	ff480068 	.word	0xff480068
    662c:	ff48ff48 	.word	0xff48ff48
    6630:	ff48ff48 	.word	0xff48ff48
    6634:	ff48000b 	.word	0xff48000b
    6638:	ff480060 	.word	0xff480060
    663c:	0085      	.short	0x0085
    663e:	78e9      	ldrb	r1, [r5, #3]
    6640:	78aa      	ldrb	r2, [r5, #2]
    6642:	0209      	lsls	r1, r1, #8
    6644:	4311      	orrs	r1, r2
    6646:	0a0b      	lsrs	r3, r1, #8
    6648:	2b02      	cmp	r3, #2
    664a:	d01f      	beq.n	668c <usbdc_cb_ctl_req+0x200>
    664c:	2b03      	cmp	r3, #3
    664e:	d03b      	beq.n	66c8 <usbdc_cb_ctl_req+0x23c>
    6650:	2b01      	cmp	r3, #1
    6652:	d000      	beq.n	6656 <usbdc_cb_ctl_req+0x1ca>
    6654:	e730      	b.n	64b8 <usbdc_cb_ctl_req+0x2c>
    6656:	79eb      	ldrb	r3, [r5, #7]
    6658:	79aa      	ldrb	r2, [r5, #6]
    665a:	021b      	lsls	r3, r3, #8
    665c:	4313      	orrs	r3, r2
    665e:	1c1d      	adds	r5, r3, #0
    6660:	2b12      	cmp	r3, #18
    6662:	d900      	bls.n	6666 <usbdc_cb_ctl_req+0x1da>
    6664:	2512      	movs	r5, #18
    6666:	4b3f      	ldr	r3, [pc, #252]	; (6764 <usbdc_cb_ctl_req+0x2d8>)
    6668:	2201      	movs	r2, #1
    666a:	681b      	ldr	r3, [r3, #0]
    666c:	b2ad      	uxth	r5, r5
    666e:	cb03      	ldmia	r3!, {r0, r1}
    6670:	4b3e      	ldr	r3, [pc, #248]	; (676c <usbdc_cb_ctl_req+0x2e0>)
    6672:	4798      	blx	r3
    6674:	2300      	movs	r3, #0
    6676:	1e01      	subs	r1, r0, #0
    6678:	d100      	bne.n	667c <usbdc_cb_ctl_req+0x1f0>
    667a:	e71d      	b.n	64b8 <usbdc_cb_ctl_req+0x2c>
    667c:	002a      	movs	r2, r5
    667e:	0020      	movs	r0, r4
    6680:	4c3c      	ldr	r4, [pc, #240]	; (6774 <usbdc_cb_ctl_req+0x2e8>)
    6682:	47a0      	blx	r4
    6684:	4242      	negs	r2, r0
    6686:	4142      	adcs	r2, r0
    6688:	b2d2      	uxtb	r2, r2
    668a:	e064      	b.n	6756 <usbdc_cb_ctl_req+0x2ca>
    668c:	79ab      	ldrb	r3, [r5, #6]
    668e:	79ed      	ldrb	r5, [r5, #7]
    6690:	3101      	adds	r1, #1
    6692:	022d      	lsls	r5, r5, #8
    6694:	431d      	orrs	r5, r3
    6696:	4b33      	ldr	r3, [pc, #204]	; (6764 <usbdc_cb_ctl_req+0x2d8>)
    6698:	b2ca      	uxtb	r2, r1
    669a:	7f1e      	ldrb	r6, [r3, #28]
    669c:	681b      	ldr	r3, [r3, #0]
    669e:	cb03      	ldmia	r3!, {r0, r1}
    66a0:	4b31      	ldr	r3, [pc, #196]	; (6768 <usbdc_cb_ctl_req+0x2dc>)
    66a2:	4798      	blx	r3
    66a4:	1e01      	subs	r1, r0, #0
    66a6:	d100      	bne.n	66aa <usbdc_cb_ctl_req+0x21e>
    66a8:	e706      	b.n	64b8 <usbdc_cb_ctl_req+0x2c>
    66aa:	78c3      	ldrb	r3, [r0, #3]
    66ac:	7882      	ldrb	r2, [r0, #2]
    66ae:	021b      	lsls	r3, r3, #8
    66b0:	18d2      	adds	r2, r2, r3
    66b2:	b292      	uxth	r2, r2
    66b4:	2300      	movs	r3, #0
    66b6:	4295      	cmp	r5, r2
    66b8:	d9e0      	bls.n	667c <usbdc_cb_ctl_req+0x1f0>
    66ba:	3e01      	subs	r6, #1
    66bc:	4035      	ands	r5, r6
    66be:	426b      	negs	r3, r5
    66c0:	416b      	adcs	r3, r5
    66c2:	0015      	movs	r5, r2
    66c4:	b2db      	uxtb	r3, r3
    66c6:	e7d9      	b.n	667c <usbdc_cb_ctl_req+0x1f0>
    66c8:	79ab      	ldrb	r3, [r5, #6]
    66ca:	79ed      	ldrb	r5, [r5, #7]
    66cc:	b2ca      	uxtb	r2, r1
    66ce:	022d      	lsls	r5, r5, #8
    66d0:	431d      	orrs	r5, r3
    66d2:	4b24      	ldr	r3, [pc, #144]	; (6764 <usbdc_cb_ctl_req+0x2d8>)
    66d4:	7f1e      	ldrb	r6, [r3, #28]
    66d6:	681b      	ldr	r3, [r3, #0]
    66d8:	cb03      	ldmia	r3!, {r0, r1}
    66da:	4b27      	ldr	r3, [pc, #156]	; (6778 <usbdc_cb_ctl_req+0x2ec>)
    66dc:	4798      	blx	r3
    66de:	1e01      	subs	r1, r0, #0
    66e0:	d100      	bne.n	66e4 <usbdc_cb_ctl_req+0x258>
    66e2:	e6e9      	b.n	64b8 <usbdc_cb_ctl_req+0x2c>
    66e4:	7802      	ldrb	r2, [r0, #0]
    66e6:	e7e5      	b.n	66b4 <usbdc_cb_ctl_req+0x228>
    66e8:	491e      	ldr	r1, [pc, #120]	; (6764 <usbdc_cb_ctl_req+0x2d8>)
    66ea:	7ecb      	ldrb	r3, [r1, #27]
    66ec:	694a      	ldr	r2, [r1, #20]
    66ee:	7013      	strb	r3, [r2, #0]
    66f0:	6949      	ldr	r1, [r1, #20]
    66f2:	2300      	movs	r3, #0
    66f4:	2201      	movs	r2, #1
    66f6:	e737      	b.n	6568 <usbdc_cb_ctl_req+0xdc>
    66f8:	231f      	movs	r3, #31
    66fa:	4019      	ands	r1, r3
    66fc:	2901      	cmp	r1, #1
    66fe:	d90c      	bls.n	671a <usbdc_cb_ctl_req+0x28e>
    6700:	2902      	cmp	r1, #2
    6702:	d000      	beq.n	6706 <usbdc_cb_ctl_req+0x27a>
    6704:	e6d8      	b.n	64b8 <usbdc_cb_ctl_req+0x2c>
    6706:	7928      	ldrb	r0, [r5, #4]
    6708:	4b19      	ldr	r3, [pc, #100]	; (6770 <usbdc_cb_ctl_req+0x2e4>)
    670a:	4798      	blx	r3
    670c:	2200      	movs	r2, #0
    670e:	4290      	cmp	r0, r2
    6710:	db21      	blt.n	6756 <usbdc_cb_ctl_req+0x2ca>
    6712:	2301      	movs	r3, #1
    6714:	4018      	ands	r0, r3
    6716:	9000      	str	r0, [sp, #0]
    6718:	e001      	b.n	671e <usbdc_cb_ctl_req+0x292>
    671a:	2300      	movs	r3, #0
    671c:	9300      	str	r3, [sp, #0]
    671e:	4d11      	ldr	r5, [pc, #68]	; (6764 <usbdc_cb_ctl_req+0x2d8>)
    6720:	2202      	movs	r2, #2
    6722:	4669      	mov	r1, sp
    6724:	4b15      	ldr	r3, [pc, #84]	; (677c <usbdc_cb_ctl_req+0x2f0>)
    6726:	6968      	ldr	r0, [r5, #20]
    6728:	4798      	blx	r3
    672a:	2300      	movs	r3, #0
    672c:	2202      	movs	r2, #2
    672e:	6969      	ldr	r1, [r5, #20]
    6730:	e71a      	b.n	6568 <usbdc_cb_ctl_req+0xdc>
    6732:	4e0c      	ldr	r6, [pc, #48]	; (6764 <usbdc_cb_ctl_req+0x2d8>)
    6734:	796b      	ldrb	r3, [r5, #5]
    6736:	792a      	ldrb	r2, [r5, #4]
    6738:	7f70      	ldrb	r0, [r6, #29]
    673a:	021b      	lsls	r3, r3, #8
    673c:	4313      	orrs	r3, r2
    673e:	4118      	asrs	r0, r3
    6740:	2401      	movs	r4, #1
    6742:	4020      	ands	r0, r4
    6744:	d12e      	bne.n	67a4 <usbdc_cb_ctl_req+0x318>
    6746:	6973      	ldr	r3, [r6, #20]
    6748:	0022      	movs	r2, r4
    674a:	7018      	strb	r0, [r3, #0]
    674c:	6971      	ldr	r1, [r6, #20]
    674e:	0003      	movs	r3, r0
    6750:	4d08      	ldr	r5, [pc, #32]	; (6774 <usbdc_cb_ctl_req+0x2e8>)
    6752:	47a8      	blx	r5
    6754:	2201      	movs	r2, #1
    6756:	0010      	movs	r0, r2
    6758:	bdfe      	pop	{r1, r2, r3, r4, r5, r6, r7, pc}
    675a:	46c0      	nop			; (mov r8, r8)
    675c:	00006331 	.word	0x00006331
    6760:	000062ed 	.word	0x000062ed
    6764:	20000890 	.word	0x20000890
    6768:	000068cd 	.word	0x000068cd
    676c:	00006895 	.word	0x00006895
    6770:	00001a39 	.word	0x00001a39
    6774:	00006471 	.word	0x00006471
    6778:	00006909 	.word	0x00006909
    677c:	0000707b 	.word	0x0000707b
    6780:	002a      	movs	r2, r5
    6782:	2102      	movs	r1, #2
    6784:	0020      	movs	r0, r4
    6786:	6863      	ldr	r3, [r4, #4]
    6788:	4798      	blx	r3
    678a:	2800      	cmp	r0, #0
    678c:	da03      	bge.n	6796 <usbdc_cb_ctl_req+0x30a>
    678e:	6824      	ldr	r4, [r4, #0]
    6790:	2c00      	cmp	r4, #0
    6792:	d1f5      	bne.n	6780 <usbdc_cb_ctl_req+0x2f4>
    6794:	e690      	b.n	64b8 <usbdc_cb_ctl_req+0x2c>
    6796:	6973      	ldr	r3, [r6, #20]
    6798:	2201      	movs	r2, #1
    679a:	7018      	strb	r0, [r3, #0]
    679c:	2300      	movs	r3, #0
    679e:	6971      	ldr	r1, [r6, #20]
    67a0:	0018      	movs	r0, r3
    67a2:	e6e2      	b.n	656a <usbdc_cb_ctl_req+0xde>
    67a4:	6934      	ldr	r4, [r6, #16]
    67a6:	e7f3      	b.n	6790 <usbdc_cb_ctl_req+0x304>

000067a8 <usbdc_register_handler>:
    67a8:	b510      	push	{r4, lr}
    67aa:	2801      	cmp	r0, #1
    67ac:	d009      	beq.n	67c2 <usbdc_register_handler+0x1a>
    67ae:	2800      	cmp	r0, #0
    67b0:	d002      	beq.n	67b8 <usbdc_register_handler+0x10>
    67b2:	2802      	cmp	r0, #2
    67b4:	d008      	beq.n	67c8 <usbdc_register_handler+0x20>
    67b6:	bd10      	pop	{r4, pc}
    67b8:	4805      	ldr	r0, [pc, #20]	; (67d0 <usbdc_register_handler+0x28>)
    67ba:	3004      	adds	r0, #4
    67bc:	4b05      	ldr	r3, [pc, #20]	; (67d4 <usbdc_register_handler+0x2c>)
    67be:	4798      	blx	r3
    67c0:	e7f9      	b.n	67b6 <usbdc_register_handler+0xe>
    67c2:	4803      	ldr	r0, [pc, #12]	; (67d0 <usbdc_register_handler+0x28>)
    67c4:	3008      	adds	r0, #8
    67c6:	e7f9      	b.n	67bc <usbdc_register_handler+0x14>
    67c8:	4801      	ldr	r0, [pc, #4]	; (67d0 <usbdc_register_handler+0x28>)
    67ca:	300c      	adds	r0, #12
    67cc:	e7f6      	b.n	67bc <usbdc_register_handler+0x14>
    67ce:	46c0      	nop			; (mov r8, r8)
    67d0:	20000890 	.word	0x20000890
    67d4:	00001b05 	.word	0x00001b05

000067d8 <usbdc_init>:
    67d8:	b570      	push	{r4, r5, r6, lr}
    67da:	4b0a      	ldr	r3, [pc, #40]	; (6804 <usbdc_init+0x2c>)
    67dc:	0005      	movs	r5, r0
    67de:	4798      	blx	r3
    67e0:	2800      	cmp	r0, #0
    67e2:	db0e      	blt.n	6802 <usbdc_init+0x2a>
    67e4:	4c08      	ldr	r4, [pc, #32]	; (6808 <usbdc_init+0x30>)
    67e6:	2220      	movs	r2, #32
    67e8:	4b08      	ldr	r3, [pc, #32]	; (680c <usbdc_init+0x34>)
    67ea:	2100      	movs	r1, #0
    67ec:	0020      	movs	r0, r4
    67ee:	4798      	blx	r3
    67f0:	6165      	str	r5, [r4, #20]
    67f2:	4907      	ldr	r1, [pc, #28]	; (6810 <usbdc_init+0x38>)
    67f4:	2000      	movs	r0, #0
    67f6:	4c07      	ldr	r4, [pc, #28]	; (6814 <usbdc_init+0x3c>)
    67f8:	47a0      	blx	r4
    67fa:	2001      	movs	r0, #1
    67fc:	4906      	ldr	r1, [pc, #24]	; (6818 <usbdc_init+0x40>)
    67fe:	47a0      	blx	r4
    6800:	2000      	movs	r0, #0
    6802:	bd70      	pop	{r4, r5, r6, pc}
    6804:	000017d5 	.word	0x000017d5
    6808:	20000890 	.word	0x20000890
    680c:	0000708d 	.word	0x0000708d
    6810:	0000636d 	.word	0x0000636d
    6814:	00001841 	.word	0x00001841
    6818:	00006451 	.word	0x00006451

0000681c <usbdc_register_function>:
    681c:	b510      	push	{r4, lr}
    681e:	0001      	movs	r1, r0
    6820:	4802      	ldr	r0, [pc, #8]	; (682c <usbdc_register_function+0x10>)
    6822:	4b03      	ldr	r3, [pc, #12]	; (6830 <usbdc_register_function+0x14>)
    6824:	3010      	adds	r0, #16
    6826:	4798      	blx	r3
    6828:	bd10      	pop	{r4, pc}
    682a:	46c0      	nop			; (mov r8, r8)
    682c:	20000890 	.word	0x20000890
    6830:	00001b05 	.word	0x00001b05

00006834 <usbdc_start>:
    6834:	b510      	push	{r4, lr}
    6836:	4b0a      	ldr	r3, [pc, #40]	; (6860 <usbdc_start+0x2c>)
    6838:	7e9c      	ldrb	r4, [r3, #26]
    683a:	2c00      	cmp	r4, #0
    683c:	d10b      	bne.n	6856 <usbdc_start+0x22>
    683e:	2800      	cmp	r0, #0
    6840:	d00c      	beq.n	685c <usbdc_start+0x28>
    6842:	6802      	ldr	r2, [r0, #0]
    6844:	6018      	str	r0, [r3, #0]
    6846:	79d2      	ldrb	r2, [r2, #7]
    6848:	771a      	strb	r2, [r3, #28]
    684a:	2201      	movs	r2, #1
    684c:	769a      	strb	r2, [r3, #26]
    684e:	4b05      	ldr	r3, [pc, #20]	; (6864 <usbdc_start+0x30>)
    6850:	4798      	blx	r3
    6852:	0020      	movs	r0, r4
    6854:	bd10      	pop	{r4, pc}
    6856:	2004      	movs	r0, #4
    6858:	4240      	negs	r0, r0
    685a:	e7fb      	b.n	6854 <usbdc_start+0x20>
    685c:	2009      	movs	r0, #9
    685e:	e7fb      	b.n	6858 <usbdc_start+0x24>
    6860:	20000890 	.word	0x20000890
    6864:	0000184d 	.word	0x0000184d

00006868 <usbdc_attach>:
    6868:	b510      	push	{r4, lr}
    686a:	4b01      	ldr	r3, [pc, #4]	; (6870 <usbdc_attach+0x8>)
    686c:	4798      	blx	r3
    686e:	bd10      	pop	{r4, pc}
    6870:	00001859 	.word	0x00001859

00006874 <usbdc_get_ctrl_buffer>:
    6874:	4b01      	ldr	r3, [pc, #4]	; (687c <usbdc_get_ctrl_buffer+0x8>)
    6876:	6958      	ldr	r0, [r3, #20]
    6878:	4770      	bx	lr
    687a:	46c0      	nop			; (mov r8, r8)
    687c:	20000890 	.word	0x20000890

00006880 <usbdc_get_state>:
    6880:	4b03      	ldr	r3, [pc, #12]	; (6890 <usbdc_get_state+0x10>)
    6882:	7e98      	ldrb	r0, [r3, #26]
    6884:	2310      	movs	r3, #16
    6886:	4218      	tst	r0, r3
    6888:	d000      	beq.n	688c <usbdc_get_state+0xc>
    688a:	0018      	movs	r0, r3
    688c:	4770      	bx	lr
    688e:	46c0      	nop			; (mov r8, r8)
    6890:	20000890 	.word	0x20000890

00006894 <usb_find_desc>:
    6894:	b510      	push	{r4, lr}
    6896:	4288      	cmp	r0, r1
    6898:	d301      	bcc.n	689e <usb_find_desc+0xa>
    689a:	2000      	movs	r0, #0
    689c:	bd10      	pop	{r4, pc}
    689e:	7803      	ldrb	r3, [r0, #0]
    68a0:	2b01      	cmp	r3, #1
    68a2:	d9fa      	bls.n	689a <usb_find_desc+0x6>
    68a4:	7844      	ldrb	r4, [r0, #1]
    68a6:	4294      	cmp	r4, r2
    68a8:	d0f8      	beq.n	689c <usb_find_desc+0x8>
    68aa:	18c0      	adds	r0, r0, r3
    68ac:	e7f3      	b.n	6896 <usb_find_desc+0x2>

000068ae <usb_find_ep_desc>:
    68ae:	4288      	cmp	r0, r1
    68b0:	d301      	bcc.n	68b6 <usb_find_ep_desc+0x8>
    68b2:	2000      	movs	r0, #0
    68b4:	4770      	bx	lr
    68b6:	7803      	ldrb	r3, [r0, #0]
    68b8:	2b01      	cmp	r3, #1
    68ba:	d9fa      	bls.n	68b2 <usb_find_ep_desc+0x4>
    68bc:	7842      	ldrb	r2, [r0, #1]
    68be:	2a04      	cmp	r2, #4
    68c0:	d0f7      	beq.n	68b2 <usb_find_ep_desc+0x4>
    68c2:	2a05      	cmp	r2, #5
    68c4:	d0f6      	beq.n	68b4 <usb_find_ep_desc+0x6>
    68c6:	18c0      	adds	r0, r0, r3
    68c8:	e7f1      	b.n	68ae <usb_find_ep_desc>
	...

000068cc <usb_find_cfg_desc>:
    68cc:	b570      	push	{r4, r5, r6, lr}
    68ce:	4b0d      	ldr	r3, [pc, #52]	; (6904 <usb_find_cfg_desc+0x38>)
    68d0:	0015      	movs	r5, r2
    68d2:	2202      	movs	r2, #2
    68d4:	000c      	movs	r4, r1
    68d6:	4798      	blx	r3
    68d8:	2800      	cmp	r0, #0
    68da:	d10f      	bne.n	68fc <usb_find_cfg_desc+0x30>
    68dc:	bd70      	pop	{r4, r5, r6, pc}
    68de:	7803      	ldrb	r3, [r0, #0]
    68e0:	2b01      	cmp	r3, #1
    68e2:	d90d      	bls.n	6900 <usb_find_cfg_desc+0x34>
    68e4:	7843      	ldrb	r3, [r0, #1]
    68e6:	2b02      	cmp	r3, #2
    68e8:	d10a      	bne.n	6900 <usb_find_cfg_desc+0x34>
    68ea:	7943      	ldrb	r3, [r0, #5]
    68ec:	42ab      	cmp	r3, r5
    68ee:	d0f5      	beq.n	68dc <usb_find_cfg_desc+0x10>
    68f0:	78c2      	ldrb	r2, [r0, #3]
    68f2:	7883      	ldrb	r3, [r0, #2]
    68f4:	0212      	lsls	r2, r2, #8
    68f6:	189b      	adds	r3, r3, r2
    68f8:	b29b      	uxth	r3, r3
    68fa:	18c0      	adds	r0, r0, r3
    68fc:	42a0      	cmp	r0, r4
    68fe:	d3ee      	bcc.n	68de <usb_find_cfg_desc+0x12>
    6900:	2000      	movs	r0, #0
    6902:	e7eb      	b.n	68dc <usb_find_cfg_desc+0x10>
    6904:	00006895 	.word	0x00006895

00006908 <usb_find_str_desc>:
    6908:	b570      	push	{r4, r5, r6, lr}
    690a:	000d      	movs	r5, r1
    690c:	0016      	movs	r6, r2
    690e:	2400      	movs	r4, #0
    6910:	42a8      	cmp	r0, r5
    6912:	d301      	bcc.n	6918 <usb_find_str_desc+0x10>
    6914:	2000      	movs	r0, #0
    6916:	bd70      	pop	{r4, r5, r6, pc}
    6918:	2203      	movs	r2, #3
    691a:	0029      	movs	r1, r5
    691c:	4b05      	ldr	r3, [pc, #20]	; (6934 <usb_find_str_desc+0x2c>)
    691e:	4798      	blx	r3
    6920:	2800      	cmp	r0, #0
    6922:	d0f8      	beq.n	6916 <usb_find_str_desc+0xe>
    6924:	7803      	ldrb	r3, [r0, #0]
    6926:	2b01      	cmp	r3, #1
    6928:	d9f4      	bls.n	6914 <usb_find_str_desc+0xc>
    692a:	42b4      	cmp	r4, r6
    692c:	d0f3      	beq.n	6916 <usb_find_str_desc+0xe>
    692e:	18c0      	adds	r0, r0, r3
    6930:	3401      	adds	r4, #1
    6932:	e7ed      	b.n	6910 <usb_find_str_desc+0x8>
    6934:	00006895 	.word	0x00006895

00006938 <gpio_get_pin_level>:
    6938:	b537      	push	{r0, r1, r2, r4, r5, lr}
    693a:	4b0d      	ldr	r3, [pc, #52]	; (6970 <gpio_get_pin_level+0x38>)
    693c:	0005      	movs	r5, r0
    693e:	a801      	add	r0, sp, #4
    6940:	4798      	blx	r3
    6942:	23c0      	movs	r3, #192	; 0xc0
    6944:	05db      	lsls	r3, r3, #23
    6946:	1d1a      	adds	r2, r3, #4
    6948:	6fd4      	ldr	r4, [r2, #124]	; 0x7c
    694a:	4a0a      	ldr	r2, [pc, #40]	; (6974 <gpio_get_pin_level+0x3c>)
    694c:	3390      	adds	r3, #144	; 0x90
    694e:	6812      	ldr	r2, [r2, #0]
    6950:	6818      	ldr	r0, [r3, #0]
    6952:	4b09      	ldr	r3, [pc, #36]	; (6978 <gpio_get_pin_level+0x40>)
    6954:	4050      	eors	r0, r2
    6956:	4004      	ands	r4, r0
    6958:	a801      	add	r0, sp, #4
    695a:	4054      	eors	r4, r2
    695c:	4798      	blx	r3
    695e:	231f      	movs	r3, #31
    6960:	2001      	movs	r0, #1
    6962:	401d      	ands	r5, r3
    6964:	40a8      	lsls	r0, r5
    6966:	4004      	ands	r4, r0
    6968:	1e60      	subs	r0, r4, #1
    696a:	4184      	sbcs	r4, r0
    696c:	b2e0      	uxtb	r0, r4
    696e:	bd3e      	pop	{r1, r2, r3, r4, r5, pc}
    6970:	00000d45 	.word	0x00000d45
    6974:	410044a0 	.word	0x410044a0
    6978:	00000d53 	.word	0x00000d53

0000697c <hiddf_sof_event>:
    697c:	b5f8      	push	{r3, r4, r5, r6, r7, lr}
    697e:	4d87      	ldr	r5, [pc, #540]	; (6b9c <hiddf_sof_event+0x220>)
    6980:	792b      	ldrb	r3, [r5, #4]
    6982:	2b00      	cmp	r3, #0
    6984:	d001      	beq.n	698a <hiddf_sof_event+0xe>
    6986:	3b01      	subs	r3, #1
    6988:	712b      	strb	r3, [r5, #4]
    698a:	4a85      	ldr	r2, [pc, #532]	; (6ba0 <hiddf_sof_event+0x224>)
    698c:	8813      	ldrh	r3, [r2, #0]
    698e:	2b00      	cmp	r3, #0
    6990:	d001      	beq.n	6996 <hiddf_sof_event+0x1a>
    6992:	3b01      	subs	r3, #1
    6994:	8013      	strh	r3, [r2, #0]
    6996:	4e83      	ldr	r6, [pc, #524]	; (6ba4 <hiddf_sof_event+0x228>)
    6998:	4c83      	ldr	r4, [pc, #524]	; (6ba8 <hiddf_sof_event+0x22c>)
    699a:	78b3      	ldrb	r3, [r6, #2]
    699c:	2b00      	cmp	r3, #0
    699e:	d100      	bne.n	69a2 <hiddf_sof_event+0x26>
    69a0:	e084      	b.n	6aac <hiddf_sof_event+0x130>
    69a2:	7973      	ldrb	r3, [r6, #5]
    69a4:	2b00      	cmp	r3, #0
    69a6:	d01c      	beq.n	69e2 <hiddf_sof_event+0x66>
    69a8:	7ba3      	ldrb	r3, [r4, #14]
    69aa:	2b00      	cmp	r3, #0
    69ac:	d106      	bne.n	69bc <hiddf_sof_event+0x40>
    69ae:	3301      	adds	r3, #1
    69b0:	73a3      	strb	r3, [r4, #14]
    69b2:	716b      	strb	r3, [r5, #5]
    69b4:	4a7d      	ldr	r2, [pc, #500]	; (6bac <hiddf_sof_event+0x230>)
    69b6:	4b7e      	ldr	r3, [pc, #504]	; (6bb0 <hiddf_sof_event+0x234>)
    69b8:	801a      	strh	r2, [r3, #0]
    69ba:	e008      	b.n	69ce <hiddf_sof_event+0x52>
    69bc:	79ab      	ldrb	r3, [r5, #6]
    69be:	3301      	adds	r3, #1
    69c0:	b2db      	uxtb	r3, r3
    69c2:	71ab      	strb	r3, [r5, #6]
    69c4:	2b0a      	cmp	r3, #10
    69c6:	d902      	bls.n	69ce <hiddf_sof_event+0x52>
    69c8:	2300      	movs	r3, #0
    69ca:	7173      	strb	r3, [r6, #5]
    69cc:	71ab      	strb	r3, [r5, #6]
    69ce:	796b      	ldrb	r3, [r5, #5]
    69d0:	2b00      	cmp	r3, #0
    69d2:	d005      	beq.n	69e0 <hiddf_sof_event+0x64>
    69d4:	4b77      	ldr	r3, [pc, #476]	; (6bb4 <hiddf_sof_event+0x238>)
    69d6:	2105      	movs	r1, #5
    69d8:	0020      	movs	r0, r4
    69da:	4798      	blx	r3
    69dc:	2300      	movs	r3, #0
    69de:	716b      	strb	r3, [r5, #5]
    69e0:	bdf8      	pop	{r3, r4, r5, r6, r7, pc}
    69e2:	7ba3      	ldrb	r3, [r4, #14]
    69e4:	2b01      	cmp	r3, #1
    69e6:	d10a      	bne.n	69fe <hiddf_sof_event+0x82>
    69e8:	2300      	movs	r3, #0
    69ea:	73a3      	strb	r3, [r4, #14]
    69ec:	70a3      	strb	r3, [r4, #2]
    69ee:	7163      	strb	r3, [r4, #5]
    69f0:	7223      	strb	r3, [r4, #8]
    69f2:	72e3      	strb	r3, [r4, #11]
    69f4:	3301      	adds	r3, #1
    69f6:	716b      	strb	r3, [r5, #5]
    69f8:	3309      	adds	r3, #9
    69fa:	712b      	strb	r3, [r5, #4]
    69fc:	e7e7      	b.n	69ce <hiddf_sof_event+0x52>
    69fe:	792b      	ldrb	r3, [r5, #4]
    6a00:	2b00      	cmp	r3, #0
    6a02:	d1e4      	bne.n	69ce <hiddf_sof_event+0x52>
    6a04:	2028      	movs	r0, #40	; 0x28
    6a06:	4f6c      	ldr	r7, [pc, #432]	; (6bb8 <hiddf_sof_event+0x23c>)
    6a08:	47b8      	blx	r7
    6a0a:	78a3      	ldrb	r3, [r4, #2]
    6a0c:	2800      	cmp	r0, #0
    6a0e:	d03e      	beq.n	6a8e <hiddf_sof_event+0x112>
    6a10:	2b00      	cmp	r3, #0
    6a12:	d109      	bne.n	6a28 <hiddf_sof_event+0xac>
    6a14:	7ba2      	ldrb	r2, [r4, #14]
    6a16:	2a00      	cmp	r2, #0
    6a18:	d106      	bne.n	6a28 <hiddf_sof_event+0xac>
    6a1a:	3301      	adds	r3, #1
    6a1c:	70a3      	strb	r3, [r4, #2]
    6a1e:	71b2      	strb	r2, [r6, #6]
    6a20:	716b      	strb	r3, [r5, #5]
    6a22:	4a66      	ldr	r2, [pc, #408]	; (6bbc <hiddf_sof_event+0x240>)
    6a24:	4b66      	ldr	r3, [pc, #408]	; (6bc0 <hiddf_sof_event+0x244>)
    6a26:	801a      	strh	r2, [r3, #0]
    6a28:	202f      	movs	r0, #47	; 0x2f
    6a2a:	47b8      	blx	r7
    6a2c:	7963      	ldrb	r3, [r4, #5]
    6a2e:	2800      	cmp	r0, #0
    6a30:	d032      	beq.n	6a98 <hiddf_sof_event+0x11c>
    6a32:	2b00      	cmp	r3, #0
    6a34:	d109      	bne.n	6a4a <hiddf_sof_event+0xce>
    6a36:	7ba2      	ldrb	r2, [r4, #14]
    6a38:	2a00      	cmp	r2, #0
    6a3a:	d106      	bne.n	6a4a <hiddf_sof_event+0xce>
    6a3c:	3301      	adds	r3, #1
    6a3e:	7163      	strb	r3, [r4, #5]
    6a40:	71f2      	strb	r2, [r6, #7]
    6a42:	716b      	strb	r3, [r5, #5]
    6a44:	4a5d      	ldr	r2, [pc, #372]	; (6bbc <hiddf_sof_event+0x240>)
    6a46:	4b5e      	ldr	r3, [pc, #376]	; (6bc0 <hiddf_sof_event+0x244>)
    6a48:	801a      	strh	r2, [r3, #0]
    6a4a:	2029      	movs	r0, #41	; 0x29
    6a4c:	47b8      	blx	r7
    6a4e:	7a23      	ldrb	r3, [r4, #8]
    6a50:	2800      	cmp	r0, #0
    6a52:	d026      	beq.n	6aa2 <hiddf_sof_event+0x126>
    6a54:	2b00      	cmp	r3, #0
    6a56:	d109      	bne.n	6a6c <hiddf_sof_event+0xf0>
    6a58:	7ba2      	ldrb	r2, [r4, #14]
    6a5a:	2a00      	cmp	r2, #0
    6a5c:	d106      	bne.n	6a6c <hiddf_sof_event+0xf0>
    6a5e:	3301      	adds	r3, #1
    6a60:	7223      	strb	r3, [r4, #8]
    6a62:	7232      	strb	r2, [r6, #8]
    6a64:	716b      	strb	r3, [r5, #5]
    6a66:	4a55      	ldr	r2, [pc, #340]	; (6bbc <hiddf_sof_event+0x240>)
    6a68:	4b55      	ldr	r3, [pc, #340]	; (6bc0 <hiddf_sof_event+0x244>)
    6a6a:	801a      	strh	r2, [r3, #0]
    6a6c:	202e      	movs	r0, #46	; 0x2e
    6a6e:	47b8      	blx	r7
    6a70:	7ae3      	ldrb	r3, [r4, #11]
    6a72:	2800      	cmp	r0, #0
    6a74:	d06c      	beq.n	6b50 <hiddf_sof_event+0x1d4>
    6a76:	2b00      	cmp	r3, #0
    6a78:	d1a9      	bne.n	69ce <hiddf_sof_event+0x52>
    6a7a:	7ba2      	ldrb	r2, [r4, #14]
    6a7c:	2a00      	cmp	r2, #0
    6a7e:	d1a6      	bne.n	69ce <hiddf_sof_event+0x52>
    6a80:	3301      	adds	r3, #1
    6a82:	72e3      	strb	r3, [r4, #11]
    6a84:	7272      	strb	r2, [r6, #9]
    6a86:	716b      	strb	r3, [r5, #5]
    6a88:	4a4c      	ldr	r2, [pc, #304]	; (6bbc <hiddf_sof_event+0x240>)
    6a8a:	4b4d      	ldr	r3, [pc, #308]	; (6bc0 <hiddf_sof_event+0x244>)
    6a8c:	e794      	b.n	69b8 <hiddf_sof_event+0x3c>
    6a8e:	2b01      	cmp	r3, #1
    6a90:	d1ca      	bne.n	6a28 <hiddf_sof_event+0xac>
    6a92:	70a0      	strb	r0, [r4, #2]
    6a94:	716b      	strb	r3, [r5, #5]
    6a96:	e7c7      	b.n	6a28 <hiddf_sof_event+0xac>
    6a98:	2b01      	cmp	r3, #1
    6a9a:	d1d6      	bne.n	6a4a <hiddf_sof_event+0xce>
    6a9c:	7160      	strb	r0, [r4, #5]
    6a9e:	716b      	strb	r3, [r5, #5]
    6aa0:	e7d3      	b.n	6a4a <hiddf_sof_event+0xce>
    6aa2:	2b01      	cmp	r3, #1
    6aa4:	d1e2      	bne.n	6a6c <hiddf_sof_event+0xf0>
    6aa6:	7220      	strb	r0, [r4, #8]
    6aa8:	716b      	strb	r3, [r5, #5]
    6aaa:	e7df      	b.n	6a6c <hiddf_sof_event+0xf0>
    6aac:	7933      	ldrb	r3, [r6, #4]
    6aae:	2b00      	cmp	r3, #0
    6ab0:	d102      	bne.n	6ab8 <hiddf_sof_event+0x13c>
    6ab2:	78f2      	ldrb	r2, [r6, #3]
    6ab4:	2a00      	cmp	r2, #0
    6ab6:	d053      	beq.n	6b60 <hiddf_sof_event+0x1e4>
    6ab8:	7973      	ldrb	r3, [r6, #5]
    6aba:	2b00      	cmp	r3, #0
    6abc:	d006      	beq.n	6acc <hiddf_sof_event+0x150>
    6abe:	7ba3      	ldrb	r3, [r4, #14]
    6ac0:	2b00      	cmp	r3, #0
    6ac2:	d000      	beq.n	6ac6 <hiddf_sof_event+0x14a>
    6ac4:	e77a      	b.n	69bc <hiddf_sof_event+0x40>
    6ac6:	3301      	adds	r3, #1
    6ac8:	73a3      	strb	r3, [r4, #14]
    6aca:	e047      	b.n	6b5c <hiddf_sof_event+0x1e0>
    6acc:	7ba3      	ldrb	r3, [r4, #14]
    6ace:	2b01      	cmp	r3, #1
    6ad0:	d08a      	beq.n	69e8 <hiddf_sof_event+0x6c>
    6ad2:	792a      	ldrb	r2, [r5, #4]
    6ad4:	2a00      	cmp	r2, #0
    6ad6:	d000      	beq.n	6ada <hiddf_sof_event+0x15e>
    6ad8:	e779      	b.n	69ce <hiddf_sof_event+0x52>
    6ada:	79b1      	ldrb	r1, [r6, #6]
    6adc:	78a2      	ldrb	r2, [r4, #2]
    6ade:	2900      	cmp	r1, #0
    6ae0:	d029      	beq.n	6b36 <hiddf_sof_event+0x1ba>
    6ae2:	2a00      	cmp	r2, #0
    6ae4:	d104      	bne.n	6af0 <hiddf_sof_event+0x174>
    6ae6:	2b00      	cmp	r3, #0
    6ae8:	d102      	bne.n	6af0 <hiddf_sof_event+0x174>
    6aea:	3201      	adds	r2, #1
    6aec:	70a2      	strb	r2, [r4, #2]
    6aee:	716a      	strb	r2, [r5, #5]
    6af0:	79f1      	ldrb	r1, [r6, #7]
    6af2:	7962      	ldrb	r2, [r4, #5]
    6af4:	2900      	cmp	r1, #0
    6af6:	d022      	beq.n	6b3e <hiddf_sof_event+0x1c2>
    6af8:	2a00      	cmp	r2, #0
    6afa:	d104      	bne.n	6b06 <hiddf_sof_event+0x18a>
    6afc:	2b00      	cmp	r3, #0
    6afe:	d102      	bne.n	6b06 <hiddf_sof_event+0x18a>
    6b00:	3201      	adds	r2, #1
    6b02:	7162      	strb	r2, [r4, #5]
    6b04:	716a      	strb	r2, [r5, #5]
    6b06:	7a31      	ldrb	r1, [r6, #8]
    6b08:	7a22      	ldrb	r2, [r4, #8]
    6b0a:	2900      	cmp	r1, #0
    6b0c:	d01b      	beq.n	6b46 <hiddf_sof_event+0x1ca>
    6b0e:	2a00      	cmp	r2, #0
    6b10:	d104      	bne.n	6b1c <hiddf_sof_event+0x1a0>
    6b12:	2b00      	cmp	r3, #0
    6b14:	d102      	bne.n	6b1c <hiddf_sof_event+0x1a0>
    6b16:	3201      	adds	r2, #1
    6b18:	7222      	strb	r2, [r4, #8]
    6b1a:	716a      	strb	r2, [r5, #5]
    6b1c:	7a72      	ldrb	r2, [r6, #9]
    6b1e:	2a00      	cmp	r2, #0
    6b20:	d015      	beq.n	6b4e <hiddf_sof_event+0x1d2>
    6b22:	7ae2      	ldrb	r2, [r4, #11]
    6b24:	2a00      	cmp	r2, #0
    6b26:	d000      	beq.n	6b2a <hiddf_sof_event+0x1ae>
    6b28:	e751      	b.n	69ce <hiddf_sof_event+0x52>
    6b2a:	2b00      	cmp	r3, #0
    6b2c:	d000      	beq.n	6b30 <hiddf_sof_event+0x1b4>
    6b2e:	e74e      	b.n	69ce <hiddf_sof_event+0x52>
    6b30:	3301      	adds	r3, #1
    6b32:	72e3      	strb	r3, [r4, #11]
    6b34:	e012      	b.n	6b5c <hiddf_sof_event+0x1e0>
    6b36:	2a01      	cmp	r2, #1
    6b38:	d1da      	bne.n	6af0 <hiddf_sof_event+0x174>
    6b3a:	70a1      	strb	r1, [r4, #2]
    6b3c:	e7d7      	b.n	6aee <hiddf_sof_event+0x172>
    6b3e:	2a01      	cmp	r2, #1
    6b40:	d1e1      	bne.n	6b06 <hiddf_sof_event+0x18a>
    6b42:	7161      	strb	r1, [r4, #5]
    6b44:	e7de      	b.n	6b04 <hiddf_sof_event+0x188>
    6b46:	2a01      	cmp	r2, #1
    6b48:	d1e8      	bne.n	6b1c <hiddf_sof_event+0x1a0>
    6b4a:	7221      	strb	r1, [r4, #8]
    6b4c:	e7e5      	b.n	6b1a <hiddf_sof_event+0x19e>
    6b4e:	7ae3      	ldrb	r3, [r4, #11]
    6b50:	2b01      	cmp	r3, #1
    6b52:	d000      	beq.n	6b56 <hiddf_sof_event+0x1da>
    6b54:	e73b      	b.n	69ce <hiddf_sof_event+0x52>
    6b56:	2300      	movs	r3, #0
    6b58:	72e3      	strb	r3, [r4, #11]
    6b5a:	3301      	adds	r3, #1
    6b5c:	716b      	strb	r3, [r5, #5]
    6b5e:	e736      	b.n	69ce <hiddf_sof_event+0x52>
    6b60:	78a3      	ldrb	r3, [r4, #2]
    6b62:	2b01      	cmp	r3, #1
    6b64:	d101      	bne.n	6b6a <hiddf_sof_event+0x1ee>
    6b66:	70a2      	strb	r2, [r4, #2]
    6b68:	716b      	strb	r3, [r5, #5]
    6b6a:	7963      	ldrb	r3, [r4, #5]
    6b6c:	2b01      	cmp	r3, #1
    6b6e:	d102      	bne.n	6b76 <hiddf_sof_event+0x1fa>
    6b70:	2200      	movs	r2, #0
    6b72:	716b      	strb	r3, [r5, #5]
    6b74:	7162      	strb	r2, [r4, #5]
    6b76:	7a23      	ldrb	r3, [r4, #8]
    6b78:	2b01      	cmp	r3, #1
    6b7a:	d102      	bne.n	6b82 <hiddf_sof_event+0x206>
    6b7c:	2200      	movs	r2, #0
    6b7e:	716b      	strb	r3, [r5, #5]
    6b80:	7222      	strb	r2, [r4, #8]
    6b82:	7ae3      	ldrb	r3, [r4, #11]
    6b84:	2b01      	cmp	r3, #1
    6b86:	d102      	bne.n	6b8e <hiddf_sof_event+0x212>
    6b88:	2200      	movs	r2, #0
    6b8a:	716b      	strb	r3, [r5, #5]
    6b8c:	72e2      	strb	r2, [r4, #11]
    6b8e:	7ba3      	ldrb	r3, [r4, #14]
    6b90:	2b01      	cmp	r3, #1
    6b92:	d000      	beq.n	6b96 <hiddf_sof_event+0x21a>
    6b94:	e71b      	b.n	69ce <hiddf_sof_event+0x52>
    6b96:	2200      	movs	r2, #0
    6b98:	73a2      	strb	r2, [r4, #14]
    6b9a:	e7df      	b.n	6b5c <hiddf_sof_event+0x1e0>
    6b9c:	200008b0 	.word	0x200008b0
    6ba0:	2000017e 	.word	0x2000017e
    6ba4:	20000a3c 	.word	0x20000a3c
    6ba8:	20000024 	.word	0x20000024
    6bac:	000003d6 	.word	0x000003d6
    6bb0:	20000180 	.word	0x20000180
    6bb4:	000060a9 	.word	0x000060a9
    6bb8:	00006939 	.word	0x00006939
    6bbc:	0000047c 	.word	0x0000047c
    6bc0:	20000182 	.word	0x20000182

00006bc4 <hiddf_init>:
    6bc4:	b510      	push	{r4, lr}
    6bc6:	4903      	ldr	r1, [pc, #12]	; (6bd4 <hiddf_init+0x10>)
    6bc8:	2000      	movs	r0, #0
    6bca:	3110      	adds	r1, #16
    6bcc:	4b02      	ldr	r3, [pc, #8]	; (6bd8 <hiddf_init+0x14>)
    6bce:	4798      	blx	r3
    6bd0:	bd10      	pop	{r4, pc}
    6bd2:	46c0      	nop			; (mov r8, r8)
    6bd4:	20000024 	.word	0x20000024
    6bd8:	000067a9 	.word	0x000067a9

00006bdc <composite_device_init>:
    6bdc:	b570      	push	{r4, r5, r6, lr}
    6bde:	480b      	ldr	r0, [pc, #44]	; (6c0c <composite_device_init+0x30>)
    6be0:	4c0b      	ldr	r4, [pc, #44]	; (6c10 <composite_device_init+0x34>)
    6be2:	47a0      	blx	r4
    6be4:	4d0b      	ldr	r5, [pc, #44]	; (6c14 <composite_device_init+0x38>)
    6be6:	4b0c      	ldr	r3, [pc, #48]	; (6c18 <composite_device_init+0x3c>)
    6be8:	1de8      	adds	r0, r5, #7
    6bea:	4798      	blx	r3
    6bec:	480b      	ldr	r0, [pc, #44]	; (6c1c <composite_device_init+0x40>)
    6bee:	47a0      	blx	r4
    6bf0:	4b0b      	ldr	r3, [pc, #44]	; (6c20 <composite_device_init+0x44>)
    6bf2:	4798      	blx	r3
    6bf4:	4b0b      	ldr	r3, [pc, #44]	; (6c24 <composite_device_init+0x48>)
    6bf6:	4798      	blx	r3
    6bf8:	480b      	ldr	r0, [pc, #44]	; (6c28 <composite_device_init+0x4c>)
    6bfa:	47a0      	blx	r4
    6bfc:	2300      	movs	r3, #0
    6bfe:	716b      	strb	r3, [r5, #5]
    6c00:	4b0a      	ldr	r3, [pc, #40]	; (6c2c <composite_device_init+0x50>)
    6c02:	4798      	blx	r3
    6c04:	4b0a      	ldr	r3, [pc, #40]	; (6c30 <composite_device_init+0x54>)
    6c06:	4798      	blx	r3
    6c08:	bd70      	pop	{r4, r5, r6, pc}
    6c0a:	46c0      	nop			; (mov r8, r8)
    6c0c:	0000c351 	.word	0x0000c351
    6c10:	00007191 	.word	0x00007191
    6c14:	200008b0 	.word	0x200008b0
    6c18:	000067d9 	.word	0x000067d9
    6c1c:	0000c35f 	.word	0x0000c35f
    6c20:	00005e99 	.word	0x00005e99
    6c24:	000062a9 	.word	0x000062a9
    6c28:	0000c370 	.word	0x0000c370
    6c2c:	00006065 	.word	0x00006065
    6c30:	00006bc5 	.word	0x00006bc5

00006c34 <composite_device_start>:
    6c34:	b510      	push	{r4, lr}
    6c36:	4806      	ldr	r0, [pc, #24]	; (6c50 <composite_device_start+0x1c>)
    6c38:	4c06      	ldr	r4, [pc, #24]	; (6c54 <composite_device_start+0x20>)
    6c3a:	47a0      	blx	r4
    6c3c:	4806      	ldr	r0, [pc, #24]	; (6c58 <composite_device_start+0x24>)
    6c3e:	4b07      	ldr	r3, [pc, #28]	; (6c5c <composite_device_start+0x28>)
    6c40:	3018      	adds	r0, #24
    6c42:	4798      	blx	r3
    6c44:	4806      	ldr	r0, [pc, #24]	; (6c60 <composite_device_start+0x2c>)
    6c46:	47a0      	blx	r4
    6c48:	4b06      	ldr	r3, [pc, #24]	; (6c64 <composite_device_start+0x30>)
    6c4a:	4798      	blx	r3
    6c4c:	bd10      	pop	{r4, pc}
    6c4e:	46c0      	nop			; (mov r8, r8)
    6c50:	0000c381 	.word	0x0000c381
    6c54:	00007191 	.word	0x00007191
    6c58:	20000024 	.word	0x20000024
    6c5c:	00006835 	.word	0x00006835
    6c60:	0000c390 	.word	0x0000c390
    6c64:	00006869 	.word	0x00006869

00006c68 <usb_init>:
    6c68:	b510      	push	{r4, lr}
    6c6a:	4b03      	ldr	r3, [pc, #12]	; (6c78 <usb_init+0x10>)
    6c6c:	4803      	ldr	r0, [pc, #12]	; (6c7c <usb_init+0x14>)
    6c6e:	4798      	blx	r3
    6c70:	4b03      	ldr	r3, [pc, #12]	; (6c80 <usb_init+0x18>)
    6c72:	4798      	blx	r3
    6c74:	bd10      	pop	{r4, pc}
    6c76:	46c0      	nop			; (mov r8, r8)
    6c78:	00007191 	.word	0x00007191
    6c7c:	0000c3a0 	.word	0x0000c3a0
    6c80:	00006bdd 	.word	0x00006bdd

00006c84 <__gnu_thumb1_case_sqi>:
    6c84:	b402      	push	{r1}
    6c86:	4671      	mov	r1, lr
    6c88:	0849      	lsrs	r1, r1, #1
    6c8a:	0049      	lsls	r1, r1, #1
    6c8c:	5609      	ldrsb	r1, [r1, r0]
    6c8e:	0049      	lsls	r1, r1, #1
    6c90:	448e      	add	lr, r1
    6c92:	bc02      	pop	{r1}
    6c94:	4770      	bx	lr
    6c96:	46c0      	nop			; (mov r8, r8)

00006c98 <__gnu_thumb1_case_uqi>:
    6c98:	b402      	push	{r1}
    6c9a:	4671      	mov	r1, lr
    6c9c:	0849      	lsrs	r1, r1, #1
    6c9e:	0049      	lsls	r1, r1, #1
    6ca0:	5c09      	ldrb	r1, [r1, r0]
    6ca2:	0049      	lsls	r1, r1, #1
    6ca4:	448e      	add	lr, r1
    6ca6:	bc02      	pop	{r1}
    6ca8:	4770      	bx	lr
    6caa:	46c0      	nop			; (mov r8, r8)

00006cac <__gnu_thumb1_case_shi>:
    6cac:	b403      	push	{r0, r1}
    6cae:	4671      	mov	r1, lr
    6cb0:	0849      	lsrs	r1, r1, #1
    6cb2:	0040      	lsls	r0, r0, #1
    6cb4:	0049      	lsls	r1, r1, #1
    6cb6:	5e09      	ldrsh	r1, [r1, r0]
    6cb8:	0049      	lsls	r1, r1, #1
    6cba:	448e      	add	lr, r1
    6cbc:	bc03      	pop	{r0, r1}
    6cbe:	4770      	bx	lr

00006cc0 <__gnu_thumb1_case_uhi>:
    6cc0:	b403      	push	{r0, r1}
    6cc2:	4671      	mov	r1, lr
    6cc4:	0849      	lsrs	r1, r1, #1
    6cc6:	0040      	lsls	r0, r0, #1
    6cc8:	0049      	lsls	r1, r1, #1
    6cca:	5a09      	ldrh	r1, [r1, r0]
    6ccc:	0049      	lsls	r1, r1, #1
    6cce:	448e      	add	lr, r1
    6cd0:	bc03      	pop	{r0, r1}
    6cd2:	4770      	bx	lr

00006cd4 <__udivsi3>:
    6cd4:	2200      	movs	r2, #0
    6cd6:	0843      	lsrs	r3, r0, #1
    6cd8:	428b      	cmp	r3, r1
    6cda:	d374      	bcc.n	6dc6 <__udivsi3+0xf2>
    6cdc:	0903      	lsrs	r3, r0, #4
    6cde:	428b      	cmp	r3, r1
    6ce0:	d35f      	bcc.n	6da2 <__udivsi3+0xce>
    6ce2:	0a03      	lsrs	r3, r0, #8
    6ce4:	428b      	cmp	r3, r1
    6ce6:	d344      	bcc.n	6d72 <__udivsi3+0x9e>
    6ce8:	0b03      	lsrs	r3, r0, #12
    6cea:	428b      	cmp	r3, r1
    6cec:	d328      	bcc.n	6d40 <__udivsi3+0x6c>
    6cee:	0c03      	lsrs	r3, r0, #16
    6cf0:	428b      	cmp	r3, r1
    6cf2:	d30d      	bcc.n	6d10 <__udivsi3+0x3c>
    6cf4:	22ff      	movs	r2, #255	; 0xff
    6cf6:	0209      	lsls	r1, r1, #8
    6cf8:	ba12      	rev	r2, r2
    6cfa:	0c03      	lsrs	r3, r0, #16
    6cfc:	428b      	cmp	r3, r1
    6cfe:	d302      	bcc.n	6d06 <__udivsi3+0x32>
    6d00:	1212      	asrs	r2, r2, #8
    6d02:	0209      	lsls	r1, r1, #8
    6d04:	d065      	beq.n	6dd2 <__udivsi3+0xfe>
    6d06:	0b03      	lsrs	r3, r0, #12
    6d08:	428b      	cmp	r3, r1
    6d0a:	d319      	bcc.n	6d40 <__udivsi3+0x6c>
    6d0c:	e000      	b.n	6d10 <__udivsi3+0x3c>
    6d0e:	0a09      	lsrs	r1, r1, #8
    6d10:	0bc3      	lsrs	r3, r0, #15
    6d12:	428b      	cmp	r3, r1
    6d14:	d301      	bcc.n	6d1a <__udivsi3+0x46>
    6d16:	03cb      	lsls	r3, r1, #15
    6d18:	1ac0      	subs	r0, r0, r3
    6d1a:	4152      	adcs	r2, r2
    6d1c:	0b83      	lsrs	r3, r0, #14
    6d1e:	428b      	cmp	r3, r1
    6d20:	d301      	bcc.n	6d26 <__udivsi3+0x52>
    6d22:	038b      	lsls	r3, r1, #14
    6d24:	1ac0      	subs	r0, r0, r3
    6d26:	4152      	adcs	r2, r2
    6d28:	0b43      	lsrs	r3, r0, #13
    6d2a:	428b      	cmp	r3, r1
    6d2c:	d301      	bcc.n	6d32 <__udivsi3+0x5e>
    6d2e:	034b      	lsls	r3, r1, #13
    6d30:	1ac0      	subs	r0, r0, r3
    6d32:	4152      	adcs	r2, r2
    6d34:	0b03      	lsrs	r3, r0, #12
    6d36:	428b      	cmp	r3, r1
    6d38:	d301      	bcc.n	6d3e <__udivsi3+0x6a>
    6d3a:	030b      	lsls	r3, r1, #12
    6d3c:	1ac0      	subs	r0, r0, r3
    6d3e:	4152      	adcs	r2, r2
    6d40:	0ac3      	lsrs	r3, r0, #11
    6d42:	428b      	cmp	r3, r1
    6d44:	d301      	bcc.n	6d4a <__udivsi3+0x76>
    6d46:	02cb      	lsls	r3, r1, #11
    6d48:	1ac0      	subs	r0, r0, r3
    6d4a:	4152      	adcs	r2, r2
    6d4c:	0a83      	lsrs	r3, r0, #10
    6d4e:	428b      	cmp	r3, r1
    6d50:	d301      	bcc.n	6d56 <__udivsi3+0x82>
    6d52:	028b      	lsls	r3, r1, #10
    6d54:	1ac0      	subs	r0, r0, r3
    6d56:	4152      	adcs	r2, r2
    6d58:	0a43      	lsrs	r3, r0, #9
    6d5a:	428b      	cmp	r3, r1
    6d5c:	d301      	bcc.n	6d62 <__udivsi3+0x8e>
    6d5e:	024b      	lsls	r3, r1, #9
    6d60:	1ac0      	subs	r0, r0, r3
    6d62:	4152      	adcs	r2, r2
    6d64:	0a03      	lsrs	r3, r0, #8
    6d66:	428b      	cmp	r3, r1
    6d68:	d301      	bcc.n	6d6e <__udivsi3+0x9a>
    6d6a:	020b      	lsls	r3, r1, #8
    6d6c:	1ac0      	subs	r0, r0, r3
    6d6e:	4152      	adcs	r2, r2
    6d70:	d2cd      	bcs.n	6d0e <__udivsi3+0x3a>
    6d72:	09c3      	lsrs	r3, r0, #7
    6d74:	428b      	cmp	r3, r1
    6d76:	d301      	bcc.n	6d7c <__udivsi3+0xa8>
    6d78:	01cb      	lsls	r3, r1, #7
    6d7a:	1ac0      	subs	r0, r0, r3
    6d7c:	4152      	adcs	r2, r2
    6d7e:	0983      	lsrs	r3, r0, #6
    6d80:	428b      	cmp	r3, r1
    6d82:	d301      	bcc.n	6d88 <__udivsi3+0xb4>
    6d84:	018b      	lsls	r3, r1, #6
    6d86:	1ac0      	subs	r0, r0, r3
    6d88:	4152      	adcs	r2, r2
    6d8a:	0943      	lsrs	r3, r0, #5
    6d8c:	428b      	cmp	r3, r1
    6d8e:	d301      	bcc.n	6d94 <__udivsi3+0xc0>
    6d90:	014b      	lsls	r3, r1, #5
    6d92:	1ac0      	subs	r0, r0, r3
    6d94:	4152      	adcs	r2, r2
    6d96:	0903      	lsrs	r3, r0, #4
    6d98:	428b      	cmp	r3, r1
    6d9a:	d301      	bcc.n	6da0 <__udivsi3+0xcc>
    6d9c:	010b      	lsls	r3, r1, #4
    6d9e:	1ac0      	subs	r0, r0, r3
    6da0:	4152      	adcs	r2, r2
    6da2:	08c3      	lsrs	r3, r0, #3
    6da4:	428b      	cmp	r3, r1
    6da6:	d301      	bcc.n	6dac <__udivsi3+0xd8>
    6da8:	00cb      	lsls	r3, r1, #3
    6daa:	1ac0      	subs	r0, r0, r3
    6dac:	4152      	adcs	r2, r2
    6dae:	0883      	lsrs	r3, r0, #2
    6db0:	428b      	cmp	r3, r1
    6db2:	d301      	bcc.n	6db8 <__udivsi3+0xe4>
    6db4:	008b      	lsls	r3, r1, #2
    6db6:	1ac0      	subs	r0, r0, r3
    6db8:	4152      	adcs	r2, r2
    6dba:	0843      	lsrs	r3, r0, #1
    6dbc:	428b      	cmp	r3, r1
    6dbe:	d301      	bcc.n	6dc4 <__udivsi3+0xf0>
    6dc0:	004b      	lsls	r3, r1, #1
    6dc2:	1ac0      	subs	r0, r0, r3
    6dc4:	4152      	adcs	r2, r2
    6dc6:	1a41      	subs	r1, r0, r1
    6dc8:	d200      	bcs.n	6dcc <__udivsi3+0xf8>
    6dca:	4601      	mov	r1, r0
    6dcc:	4152      	adcs	r2, r2
    6dce:	4610      	mov	r0, r2
    6dd0:	4770      	bx	lr
    6dd2:	e7ff      	b.n	6dd4 <__udivsi3+0x100>
    6dd4:	b501      	push	{r0, lr}
    6dd6:	2000      	movs	r0, #0
    6dd8:	f000 f8f0 	bl	6fbc <__aeabi_idiv0>
    6ddc:	bd02      	pop	{r1, pc}
    6dde:	46c0      	nop			; (mov r8, r8)

00006de0 <__aeabi_uidivmod>:
    6de0:	2900      	cmp	r1, #0
    6de2:	d0f7      	beq.n	6dd4 <__udivsi3+0x100>
    6de4:	e776      	b.n	6cd4 <__udivsi3>
    6de6:	4770      	bx	lr

00006de8 <__divsi3>:
    6de8:	4603      	mov	r3, r0
    6dea:	430b      	orrs	r3, r1
    6dec:	d47f      	bmi.n	6eee <__divsi3+0x106>
    6dee:	2200      	movs	r2, #0
    6df0:	0843      	lsrs	r3, r0, #1
    6df2:	428b      	cmp	r3, r1
    6df4:	d374      	bcc.n	6ee0 <__divsi3+0xf8>
    6df6:	0903      	lsrs	r3, r0, #4
    6df8:	428b      	cmp	r3, r1
    6dfa:	d35f      	bcc.n	6ebc <__divsi3+0xd4>
    6dfc:	0a03      	lsrs	r3, r0, #8
    6dfe:	428b      	cmp	r3, r1
    6e00:	d344      	bcc.n	6e8c <__divsi3+0xa4>
    6e02:	0b03      	lsrs	r3, r0, #12
    6e04:	428b      	cmp	r3, r1
    6e06:	d328      	bcc.n	6e5a <__divsi3+0x72>
    6e08:	0c03      	lsrs	r3, r0, #16
    6e0a:	428b      	cmp	r3, r1
    6e0c:	d30d      	bcc.n	6e2a <__divsi3+0x42>
    6e0e:	22ff      	movs	r2, #255	; 0xff
    6e10:	0209      	lsls	r1, r1, #8
    6e12:	ba12      	rev	r2, r2
    6e14:	0c03      	lsrs	r3, r0, #16
    6e16:	428b      	cmp	r3, r1
    6e18:	d302      	bcc.n	6e20 <__divsi3+0x38>
    6e1a:	1212      	asrs	r2, r2, #8
    6e1c:	0209      	lsls	r1, r1, #8
    6e1e:	d065      	beq.n	6eec <__divsi3+0x104>
    6e20:	0b03      	lsrs	r3, r0, #12
    6e22:	428b      	cmp	r3, r1
    6e24:	d319      	bcc.n	6e5a <__divsi3+0x72>
    6e26:	e000      	b.n	6e2a <__divsi3+0x42>
    6e28:	0a09      	lsrs	r1, r1, #8
    6e2a:	0bc3      	lsrs	r3, r0, #15
    6e2c:	428b      	cmp	r3, r1
    6e2e:	d301      	bcc.n	6e34 <__divsi3+0x4c>
    6e30:	03cb      	lsls	r3, r1, #15
    6e32:	1ac0      	subs	r0, r0, r3
    6e34:	4152      	adcs	r2, r2
    6e36:	0b83      	lsrs	r3, r0, #14
    6e38:	428b      	cmp	r3, r1
    6e3a:	d301      	bcc.n	6e40 <__divsi3+0x58>
    6e3c:	038b      	lsls	r3, r1, #14
    6e3e:	1ac0      	subs	r0, r0, r3
    6e40:	4152      	adcs	r2, r2
    6e42:	0b43      	lsrs	r3, r0, #13
    6e44:	428b      	cmp	r3, r1
    6e46:	d301      	bcc.n	6e4c <__divsi3+0x64>
    6e48:	034b      	lsls	r3, r1, #13
    6e4a:	1ac0      	subs	r0, r0, r3
    6e4c:	4152      	adcs	r2, r2
    6e4e:	0b03      	lsrs	r3, r0, #12
    6e50:	428b      	cmp	r3, r1
    6e52:	d301      	bcc.n	6e58 <__divsi3+0x70>
    6e54:	030b      	lsls	r3, r1, #12
    6e56:	1ac0      	subs	r0, r0, r3
    6e58:	4152      	adcs	r2, r2
    6e5a:	0ac3      	lsrs	r3, r0, #11
    6e5c:	428b      	cmp	r3, r1
    6e5e:	d301      	bcc.n	6e64 <__divsi3+0x7c>
    6e60:	02cb      	lsls	r3, r1, #11
    6e62:	1ac0      	subs	r0, r0, r3
    6e64:	4152      	adcs	r2, r2
    6e66:	0a83      	lsrs	r3, r0, #10
    6e68:	428b      	cmp	r3, r1
    6e6a:	d301      	bcc.n	6e70 <__divsi3+0x88>
    6e6c:	028b      	lsls	r3, r1, #10
    6e6e:	1ac0      	subs	r0, r0, r3
    6e70:	4152      	adcs	r2, r2
    6e72:	0a43      	lsrs	r3, r0, #9
    6e74:	428b      	cmp	r3, r1
    6e76:	d301      	bcc.n	6e7c <__divsi3+0x94>
    6e78:	024b      	lsls	r3, r1, #9
    6e7a:	1ac0      	subs	r0, r0, r3
    6e7c:	4152      	adcs	r2, r2
    6e7e:	0a03      	lsrs	r3, r0, #8
    6e80:	428b      	cmp	r3, r1
    6e82:	d301      	bcc.n	6e88 <__divsi3+0xa0>
    6e84:	020b      	lsls	r3, r1, #8
    6e86:	1ac0      	subs	r0, r0, r3
    6e88:	4152      	adcs	r2, r2
    6e8a:	d2cd      	bcs.n	6e28 <__divsi3+0x40>
    6e8c:	09c3      	lsrs	r3, r0, #7
    6e8e:	428b      	cmp	r3, r1
    6e90:	d301      	bcc.n	6e96 <__divsi3+0xae>
    6e92:	01cb      	lsls	r3, r1, #7
    6e94:	1ac0      	subs	r0, r0, r3
    6e96:	4152      	adcs	r2, r2
    6e98:	0983      	lsrs	r3, r0, #6
    6e9a:	428b      	cmp	r3, r1
    6e9c:	d301      	bcc.n	6ea2 <__divsi3+0xba>
    6e9e:	018b      	lsls	r3, r1, #6
    6ea0:	1ac0      	subs	r0, r0, r3
    6ea2:	4152      	adcs	r2, r2
    6ea4:	0943      	lsrs	r3, r0, #5
    6ea6:	428b      	cmp	r3, r1
    6ea8:	d301      	bcc.n	6eae <__divsi3+0xc6>
    6eaa:	014b      	lsls	r3, r1, #5
    6eac:	1ac0      	subs	r0, r0, r3
    6eae:	4152      	adcs	r2, r2
    6eb0:	0903      	lsrs	r3, r0, #4
    6eb2:	428b      	cmp	r3, r1
    6eb4:	d301      	bcc.n	6eba <__divsi3+0xd2>
    6eb6:	010b      	lsls	r3, r1, #4
    6eb8:	1ac0      	subs	r0, r0, r3
    6eba:	4152      	adcs	r2, r2
    6ebc:	08c3      	lsrs	r3, r0, #3
    6ebe:	428b      	cmp	r3, r1
    6ec0:	d301      	bcc.n	6ec6 <__divsi3+0xde>
    6ec2:	00cb      	lsls	r3, r1, #3
    6ec4:	1ac0      	subs	r0, r0, r3
    6ec6:	4152      	adcs	r2, r2
    6ec8:	0883      	lsrs	r3, r0, #2
    6eca:	428b      	cmp	r3, r1
    6ecc:	d301      	bcc.n	6ed2 <__divsi3+0xea>
    6ece:	008b      	lsls	r3, r1, #2
    6ed0:	1ac0      	subs	r0, r0, r3
    6ed2:	4152      	adcs	r2, r2
    6ed4:	0843      	lsrs	r3, r0, #1
    6ed6:	428b      	cmp	r3, r1
    6ed8:	d301      	bcc.n	6ede <__divsi3+0xf6>
    6eda:	004b      	lsls	r3, r1, #1
    6edc:	1ac0      	subs	r0, r0, r3
    6ede:	4152      	adcs	r2, r2
    6ee0:	1a41      	subs	r1, r0, r1
    6ee2:	d200      	bcs.n	6ee6 <__divsi3+0xfe>
    6ee4:	4601      	mov	r1, r0
    6ee6:	4152      	adcs	r2, r2
    6ee8:	4610      	mov	r0, r2
    6eea:	4770      	bx	lr
    6eec:	e05d      	b.n	6faa <__divsi3+0x1c2>
    6eee:	0fca      	lsrs	r2, r1, #31
    6ef0:	d000      	beq.n	6ef4 <__divsi3+0x10c>
    6ef2:	4249      	negs	r1, r1
    6ef4:	1003      	asrs	r3, r0, #32
    6ef6:	d300      	bcc.n	6efa <__divsi3+0x112>
    6ef8:	4240      	negs	r0, r0
    6efa:	4053      	eors	r3, r2
    6efc:	2200      	movs	r2, #0
    6efe:	469c      	mov	ip, r3
    6f00:	0903      	lsrs	r3, r0, #4
    6f02:	428b      	cmp	r3, r1
    6f04:	d32d      	bcc.n	6f62 <__divsi3+0x17a>
    6f06:	0a03      	lsrs	r3, r0, #8
    6f08:	428b      	cmp	r3, r1
    6f0a:	d312      	bcc.n	6f32 <__divsi3+0x14a>
    6f0c:	22fc      	movs	r2, #252	; 0xfc
    6f0e:	0189      	lsls	r1, r1, #6
    6f10:	ba12      	rev	r2, r2
    6f12:	0a03      	lsrs	r3, r0, #8
    6f14:	428b      	cmp	r3, r1
    6f16:	d30c      	bcc.n	6f32 <__divsi3+0x14a>
    6f18:	0189      	lsls	r1, r1, #6
    6f1a:	1192      	asrs	r2, r2, #6
    6f1c:	428b      	cmp	r3, r1
    6f1e:	d308      	bcc.n	6f32 <__divsi3+0x14a>
    6f20:	0189      	lsls	r1, r1, #6
    6f22:	1192      	asrs	r2, r2, #6
    6f24:	428b      	cmp	r3, r1
    6f26:	d304      	bcc.n	6f32 <__divsi3+0x14a>
    6f28:	0189      	lsls	r1, r1, #6
    6f2a:	d03a      	beq.n	6fa2 <__divsi3+0x1ba>
    6f2c:	1192      	asrs	r2, r2, #6
    6f2e:	e000      	b.n	6f32 <__divsi3+0x14a>
    6f30:	0989      	lsrs	r1, r1, #6
    6f32:	09c3      	lsrs	r3, r0, #7
    6f34:	428b      	cmp	r3, r1
    6f36:	d301      	bcc.n	6f3c <__divsi3+0x154>
    6f38:	01cb      	lsls	r3, r1, #7
    6f3a:	1ac0      	subs	r0, r0, r3
    6f3c:	4152      	adcs	r2, r2
    6f3e:	0983      	lsrs	r3, r0, #6
    6f40:	428b      	cmp	r3, r1
    6f42:	d301      	bcc.n	6f48 <__divsi3+0x160>
    6f44:	018b      	lsls	r3, r1, #6
    6f46:	1ac0      	subs	r0, r0, r3
    6f48:	4152      	adcs	r2, r2
    6f4a:	0943      	lsrs	r3, r0, #5
    6f4c:	428b      	cmp	r3, r1
    6f4e:	d301      	bcc.n	6f54 <__divsi3+0x16c>
    6f50:	014b      	lsls	r3, r1, #5
    6f52:	1ac0      	subs	r0, r0, r3
    6f54:	4152      	adcs	r2, r2
    6f56:	0903      	lsrs	r3, r0, #4
    6f58:	428b      	cmp	r3, r1
    6f5a:	d301      	bcc.n	6f60 <__divsi3+0x178>
    6f5c:	010b      	lsls	r3, r1, #4
    6f5e:	1ac0      	subs	r0, r0, r3
    6f60:	4152      	adcs	r2, r2
    6f62:	08c3      	lsrs	r3, r0, #3
    6f64:	428b      	cmp	r3, r1
    6f66:	d301      	bcc.n	6f6c <__divsi3+0x184>
    6f68:	00cb      	lsls	r3, r1, #3
    6f6a:	1ac0      	subs	r0, r0, r3
    6f6c:	4152      	adcs	r2, r2
    6f6e:	0883      	lsrs	r3, r0, #2
    6f70:	428b      	cmp	r3, r1
    6f72:	d301      	bcc.n	6f78 <__divsi3+0x190>
    6f74:	008b      	lsls	r3, r1, #2
    6f76:	1ac0      	subs	r0, r0, r3
    6f78:	4152      	adcs	r2, r2
    6f7a:	d2d9      	bcs.n	6f30 <__divsi3+0x148>
    6f7c:	0843      	lsrs	r3, r0, #1
    6f7e:	428b      	cmp	r3, r1
    6f80:	d301      	bcc.n	6f86 <__divsi3+0x19e>
    6f82:	004b      	lsls	r3, r1, #1
    6f84:	1ac0      	subs	r0, r0, r3
    6f86:	4152      	adcs	r2, r2
    6f88:	1a41      	subs	r1, r0, r1
    6f8a:	d200      	bcs.n	6f8e <__divsi3+0x1a6>
    6f8c:	4601      	mov	r1, r0
    6f8e:	4663      	mov	r3, ip
    6f90:	4152      	adcs	r2, r2
    6f92:	105b      	asrs	r3, r3, #1
    6f94:	4610      	mov	r0, r2
    6f96:	d301      	bcc.n	6f9c <__divsi3+0x1b4>
    6f98:	4240      	negs	r0, r0
    6f9a:	2b00      	cmp	r3, #0
    6f9c:	d500      	bpl.n	6fa0 <__divsi3+0x1b8>
    6f9e:	4249      	negs	r1, r1
    6fa0:	4770      	bx	lr
    6fa2:	4663      	mov	r3, ip
    6fa4:	105b      	asrs	r3, r3, #1
    6fa6:	d300      	bcc.n	6faa <__divsi3+0x1c2>
    6fa8:	4240      	negs	r0, r0
    6faa:	b501      	push	{r0, lr}
    6fac:	2000      	movs	r0, #0
    6fae:	f000 f805 	bl	6fbc <__aeabi_idiv0>
    6fb2:	bd02      	pop	{r1, pc}

00006fb4 <__aeabi_idivmod>:
    6fb4:	2900      	cmp	r1, #0
    6fb6:	d0f8      	beq.n	6faa <__divsi3+0x1c2>
    6fb8:	e716      	b.n	6de8 <__divsi3>
    6fba:	4770      	bx	lr

00006fbc <__aeabi_idiv0>:
    6fbc:	4770      	bx	lr
    6fbe:	46c0      	nop			; (mov r8, r8)

00006fc0 <__ffssi2>:
    6fc0:	b510      	push	{r4, lr}
    6fc2:	2300      	movs	r3, #0
    6fc4:	2800      	cmp	r0, #0
    6fc6:	d002      	beq.n	6fce <__ffssi2+0xe>
    6fc8:	f000 f804 	bl	6fd4 <__ctzsi2>
    6fcc:	1c43      	adds	r3, r0, #1
    6fce:	0018      	movs	r0, r3
    6fd0:	bd10      	pop	{r4, pc}
    6fd2:	46c0      	nop			; (mov r8, r8)

00006fd4 <__ctzsi2>:
    6fd4:	4241      	negs	r1, r0
    6fd6:	4008      	ands	r0, r1
    6fd8:	211c      	movs	r1, #28
    6fda:	2301      	movs	r3, #1
    6fdc:	041b      	lsls	r3, r3, #16
    6fde:	4298      	cmp	r0, r3
    6fe0:	d301      	bcc.n	6fe6 <__ctzsi2+0x12>
    6fe2:	0c00      	lsrs	r0, r0, #16
    6fe4:	3910      	subs	r1, #16
    6fe6:	0a1b      	lsrs	r3, r3, #8
    6fe8:	4298      	cmp	r0, r3
    6fea:	d301      	bcc.n	6ff0 <__ctzsi2+0x1c>
    6fec:	0a00      	lsrs	r0, r0, #8
    6fee:	3908      	subs	r1, #8
    6ff0:	091b      	lsrs	r3, r3, #4
    6ff2:	4298      	cmp	r0, r3
    6ff4:	d301      	bcc.n	6ffa <__ctzsi2+0x26>
    6ff6:	0900      	lsrs	r0, r0, #4
    6ff8:	3904      	subs	r1, #4
    6ffa:	a202      	add	r2, pc, #8	; (adr r2, 7004 <__ctzsi2+0x30>)
    6ffc:	5c10      	ldrb	r0, [r2, r0]
    6ffe:	1a40      	subs	r0, r0, r1
    7000:	4770      	bx	lr
    7002:	46c0      	nop			; (mov r8, r8)
    7004:	1d1d1c1b 	.word	0x1d1d1c1b
    7008:	1e1e1e1e 	.word	0x1e1e1e1e
    700c:	1f1f1f1f 	.word	0x1f1f1f1f
    7010:	1f1f1f1f 	.word	0x1f1f1f1f

00007014 <__libc_init_array>:
    7014:	b570      	push	{r4, r5, r6, lr}
    7016:	2600      	movs	r6, #0
    7018:	4d0c      	ldr	r5, [pc, #48]	; (704c <__libc_init_array+0x38>)
    701a:	4c0d      	ldr	r4, [pc, #52]	; (7050 <__libc_init_array+0x3c>)
    701c:	1b64      	subs	r4, r4, r5
    701e:	10a4      	asrs	r4, r4, #2
    7020:	42a6      	cmp	r6, r4
    7022:	d109      	bne.n	7038 <__libc_init_array+0x24>
    7024:	2600      	movs	r6, #0
    7026:	f005 fa15 	bl	c454 <_init>
    702a:	4d0a      	ldr	r5, [pc, #40]	; (7054 <__libc_init_array+0x40>)
    702c:	4c0a      	ldr	r4, [pc, #40]	; (7058 <__libc_init_array+0x44>)
    702e:	1b64      	subs	r4, r4, r5
    7030:	10a4      	asrs	r4, r4, #2
    7032:	42a6      	cmp	r6, r4
    7034:	d105      	bne.n	7042 <__libc_init_array+0x2e>
    7036:	bd70      	pop	{r4, r5, r6, pc}
    7038:	00b3      	lsls	r3, r6, #2
    703a:	58eb      	ldr	r3, [r5, r3]
    703c:	4798      	blx	r3
    703e:	3601      	adds	r6, #1
    7040:	e7ee      	b.n	7020 <__libc_init_array+0xc>
    7042:	00b3      	lsls	r3, r6, #2
    7044:	58eb      	ldr	r3, [r5, r3]
    7046:	4798      	blx	r3
    7048:	3601      	adds	r6, #1
    704a:	e7f2      	b.n	7032 <__libc_init_array+0x1e>
    704c:	0000c460 	.word	0x0000c460
    7050:	0000c460 	.word	0x0000c460
    7054:	0000c460 	.word	0x0000c460
    7058:	0000c464 	.word	0x0000c464

0000705c <memcmp>:
    705c:	b530      	push	{r4, r5, lr}
    705e:	2400      	movs	r4, #0
    7060:	42a2      	cmp	r2, r4
    7062:	d101      	bne.n	7068 <memcmp+0xc>
    7064:	2000      	movs	r0, #0
    7066:	e005      	b.n	7074 <memcmp+0x18>
    7068:	5d03      	ldrb	r3, [r0, r4]
    706a:	1c65      	adds	r5, r4, #1
    706c:	5d0c      	ldrb	r4, [r1, r4]
    706e:	42a3      	cmp	r3, r4
    7070:	d001      	beq.n	7076 <memcmp+0x1a>
    7072:	1b18      	subs	r0, r3, r4
    7074:	bd30      	pop	{r4, r5, pc}
    7076:	002c      	movs	r4, r5
    7078:	e7f2      	b.n	7060 <memcmp+0x4>

0000707a <memcpy>:
    707a:	2300      	movs	r3, #0
    707c:	b510      	push	{r4, lr}
    707e:	429a      	cmp	r2, r3
    7080:	d100      	bne.n	7084 <memcpy+0xa>
    7082:	bd10      	pop	{r4, pc}
    7084:	5ccc      	ldrb	r4, [r1, r3]
    7086:	54c4      	strb	r4, [r0, r3]
    7088:	3301      	adds	r3, #1
    708a:	e7f8      	b.n	707e <memcpy+0x4>

0000708c <memset>:
    708c:	0003      	movs	r3, r0
    708e:	1882      	adds	r2, r0, r2
    7090:	4293      	cmp	r3, r2
    7092:	d100      	bne.n	7096 <memset+0xa>
    7094:	4770      	bx	lr
    7096:	7019      	strb	r1, [r3, #0]
    7098:	3301      	adds	r3, #1
    709a:	e7f9      	b.n	7090 <memset+0x4>

0000709c <iprintf>:
    709c:	b40f      	push	{r0, r1, r2, r3}
    709e:	4b0b      	ldr	r3, [pc, #44]	; (70cc <iprintf+0x30>)
    70a0:	b513      	push	{r0, r1, r4, lr}
    70a2:	681c      	ldr	r4, [r3, #0]
    70a4:	2c00      	cmp	r4, #0
    70a6:	d005      	beq.n	70b4 <iprintf+0x18>
    70a8:	69a3      	ldr	r3, [r4, #24]
    70aa:	2b00      	cmp	r3, #0
    70ac:	d102      	bne.n	70b4 <iprintf+0x18>
    70ae:	0020      	movs	r0, r4
    70b0:	f000 fb2c 	bl	770c <__sinit>
    70b4:	ab05      	add	r3, sp, #20
    70b6:	9a04      	ldr	r2, [sp, #16]
    70b8:	68a1      	ldr	r1, [r4, #8]
    70ba:	0020      	movs	r0, r4
    70bc:	9301      	str	r3, [sp, #4]
    70be:	f000 fe67 	bl	7d90 <_vfiprintf_r>
    70c2:	bc16      	pop	{r1, r2, r4}
    70c4:	bc08      	pop	{r3}
    70c6:	b004      	add	sp, #16
    70c8:	4718      	bx	r3
    70ca:	46c0      	nop			; (mov r8, r8)
    70cc:	200000dc 	.word	0x200000dc

000070d0 <_puts_r>:
    70d0:	b570      	push	{r4, r5, r6, lr}
    70d2:	0005      	movs	r5, r0
    70d4:	000e      	movs	r6, r1
    70d6:	2800      	cmp	r0, #0
    70d8:	d004      	beq.n	70e4 <_puts_r+0x14>
    70da:	6983      	ldr	r3, [r0, #24]
    70dc:	2b00      	cmp	r3, #0
    70de:	d101      	bne.n	70e4 <_puts_r+0x14>
    70e0:	f000 fb14 	bl	770c <__sinit>
    70e4:	69ab      	ldr	r3, [r5, #24]
    70e6:	68ac      	ldr	r4, [r5, #8]
    70e8:	2b00      	cmp	r3, #0
    70ea:	d102      	bne.n	70f2 <_puts_r+0x22>
    70ec:	0028      	movs	r0, r5
    70ee:	f000 fb0d 	bl	770c <__sinit>
    70f2:	4b24      	ldr	r3, [pc, #144]	; (7184 <_puts_r+0xb4>)
    70f4:	429c      	cmp	r4, r3
    70f6:	d10f      	bne.n	7118 <_puts_r+0x48>
    70f8:	686c      	ldr	r4, [r5, #4]
    70fa:	89a3      	ldrh	r3, [r4, #12]
    70fc:	071b      	lsls	r3, r3, #28
    70fe:	d502      	bpl.n	7106 <_puts_r+0x36>
    7100:	6923      	ldr	r3, [r4, #16]
    7102:	2b00      	cmp	r3, #0
    7104:	d120      	bne.n	7148 <_puts_r+0x78>
    7106:	0021      	movs	r1, r4
    7108:	0028      	movs	r0, r5
    710a:	f000 f991 	bl	7430 <__swsetup_r>
    710e:	2800      	cmp	r0, #0
    7110:	d01a      	beq.n	7148 <_puts_r+0x78>
    7112:	2001      	movs	r0, #1
    7114:	4240      	negs	r0, r0
    7116:	bd70      	pop	{r4, r5, r6, pc}
    7118:	4b1b      	ldr	r3, [pc, #108]	; (7188 <_puts_r+0xb8>)
    711a:	429c      	cmp	r4, r3
    711c:	d101      	bne.n	7122 <_puts_r+0x52>
    711e:	68ac      	ldr	r4, [r5, #8]
    7120:	e7eb      	b.n	70fa <_puts_r+0x2a>
    7122:	4b1a      	ldr	r3, [pc, #104]	; (718c <_puts_r+0xbc>)
    7124:	429c      	cmp	r4, r3
    7126:	d1e8      	bne.n	70fa <_puts_r+0x2a>
    7128:	68ec      	ldr	r4, [r5, #12]
    712a:	e7e6      	b.n	70fa <_puts_r+0x2a>
    712c:	3b01      	subs	r3, #1
    712e:	3601      	adds	r6, #1
    7130:	60a3      	str	r3, [r4, #8]
    7132:	2b00      	cmp	r3, #0
    7134:	da04      	bge.n	7140 <_puts_r+0x70>
    7136:	69a2      	ldr	r2, [r4, #24]
    7138:	4293      	cmp	r3, r2
    713a:	db16      	blt.n	716a <_puts_r+0x9a>
    713c:	290a      	cmp	r1, #10
    713e:	d014      	beq.n	716a <_puts_r+0x9a>
    7140:	6823      	ldr	r3, [r4, #0]
    7142:	1c5a      	adds	r2, r3, #1
    7144:	6022      	str	r2, [r4, #0]
    7146:	7019      	strb	r1, [r3, #0]
    7148:	7831      	ldrb	r1, [r6, #0]
    714a:	68a3      	ldr	r3, [r4, #8]
    714c:	2900      	cmp	r1, #0
    714e:	d1ed      	bne.n	712c <_puts_r+0x5c>
    7150:	3b01      	subs	r3, #1
    7152:	60a3      	str	r3, [r4, #8]
    7154:	2b00      	cmp	r3, #0
    7156:	da0f      	bge.n	7178 <_puts_r+0xa8>
    7158:	0022      	movs	r2, r4
    715a:	310a      	adds	r1, #10
    715c:	0028      	movs	r0, r5
    715e:	f000 f911 	bl	7384 <__swbuf_r>
    7162:	1c43      	adds	r3, r0, #1
    7164:	d0d5      	beq.n	7112 <_puts_r+0x42>
    7166:	200a      	movs	r0, #10
    7168:	e7d5      	b.n	7116 <_puts_r+0x46>
    716a:	0022      	movs	r2, r4
    716c:	0028      	movs	r0, r5
    716e:	f000 f909 	bl	7384 <__swbuf_r>
    7172:	1c43      	adds	r3, r0, #1
    7174:	d1e8      	bne.n	7148 <_puts_r+0x78>
    7176:	e7cc      	b.n	7112 <_puts_r+0x42>
    7178:	200a      	movs	r0, #10
    717a:	6823      	ldr	r3, [r4, #0]
    717c:	1c5a      	adds	r2, r3, #1
    717e:	6022      	str	r2, [r4, #0]
    7180:	7018      	strb	r0, [r3, #0]
    7182:	e7c8      	b.n	7116 <_puts_r+0x46>
    7184:	0000c3e0 	.word	0x0000c3e0
    7188:	0000c400 	.word	0x0000c400
    718c:	0000c3c0 	.word	0x0000c3c0

00007190 <puts>:
    7190:	b510      	push	{r4, lr}
    7192:	4b03      	ldr	r3, [pc, #12]	; (71a0 <puts+0x10>)
    7194:	0001      	movs	r1, r0
    7196:	6818      	ldr	r0, [r3, #0]
    7198:	f7ff ff9a 	bl	70d0 <_puts_r>
    719c:	bd10      	pop	{r4, pc}
    719e:	46c0      	nop			; (mov r8, r8)
    71a0:	200000dc 	.word	0x200000dc

000071a4 <setbuf>:
    71a4:	424a      	negs	r2, r1
    71a6:	414a      	adcs	r2, r1
    71a8:	2380      	movs	r3, #128	; 0x80
    71aa:	b510      	push	{r4, lr}
    71ac:	0052      	lsls	r2, r2, #1
    71ae:	00db      	lsls	r3, r3, #3
    71b0:	f000 f802 	bl	71b8 <setvbuf>
    71b4:	bd10      	pop	{r4, pc}
	...

000071b8 <setvbuf>:
    71b8:	b5f0      	push	{r4, r5, r6, r7, lr}
    71ba:	001d      	movs	r5, r3
    71bc:	4b4f      	ldr	r3, [pc, #316]	; (72fc <setvbuf+0x144>)
    71be:	b085      	sub	sp, #20
    71c0:	681e      	ldr	r6, [r3, #0]
    71c2:	0004      	movs	r4, r0
    71c4:	000f      	movs	r7, r1
    71c6:	9200      	str	r2, [sp, #0]
    71c8:	2e00      	cmp	r6, #0
    71ca:	d005      	beq.n	71d8 <setvbuf+0x20>
    71cc:	69b3      	ldr	r3, [r6, #24]
    71ce:	2b00      	cmp	r3, #0
    71d0:	d102      	bne.n	71d8 <setvbuf+0x20>
    71d2:	0030      	movs	r0, r6
    71d4:	f000 fa9a 	bl	770c <__sinit>
    71d8:	4b49      	ldr	r3, [pc, #292]	; (7300 <setvbuf+0x148>)
    71da:	429c      	cmp	r4, r3
    71dc:	d150      	bne.n	7280 <setvbuf+0xc8>
    71de:	6874      	ldr	r4, [r6, #4]
    71e0:	9b00      	ldr	r3, [sp, #0]
    71e2:	2b02      	cmp	r3, #2
    71e4:	d005      	beq.n	71f2 <setvbuf+0x3a>
    71e6:	2b01      	cmp	r3, #1
    71e8:	d900      	bls.n	71ec <setvbuf+0x34>
    71ea:	e084      	b.n	72f6 <setvbuf+0x13e>
    71ec:	2d00      	cmp	r5, #0
    71ee:	da00      	bge.n	71f2 <setvbuf+0x3a>
    71f0:	e081      	b.n	72f6 <setvbuf+0x13e>
    71f2:	0021      	movs	r1, r4
    71f4:	0030      	movs	r0, r6
    71f6:	f000 fa1b 	bl	7630 <_fflush_r>
    71fa:	6b61      	ldr	r1, [r4, #52]	; 0x34
    71fc:	2900      	cmp	r1, #0
    71fe:	d008      	beq.n	7212 <setvbuf+0x5a>
    7200:	0023      	movs	r3, r4
    7202:	3344      	adds	r3, #68	; 0x44
    7204:	4299      	cmp	r1, r3
    7206:	d002      	beq.n	720e <setvbuf+0x56>
    7208:	0030      	movs	r0, r6
    720a:	f000 fb8b 	bl	7924 <_free_r>
    720e:	2300      	movs	r3, #0
    7210:	6363      	str	r3, [r4, #52]	; 0x34
    7212:	2300      	movs	r3, #0
    7214:	61a3      	str	r3, [r4, #24]
    7216:	6063      	str	r3, [r4, #4]
    7218:	89a3      	ldrh	r3, [r4, #12]
    721a:	061b      	lsls	r3, r3, #24
    721c:	d503      	bpl.n	7226 <setvbuf+0x6e>
    721e:	6921      	ldr	r1, [r4, #16]
    7220:	0030      	movs	r0, r6
    7222:	f000 fb7f 	bl	7924 <_free_r>
    7226:	89a3      	ldrh	r3, [r4, #12]
    7228:	4a36      	ldr	r2, [pc, #216]	; (7304 <setvbuf+0x14c>)
    722a:	4013      	ands	r3, r2
    722c:	81a3      	strh	r3, [r4, #12]
    722e:	9b00      	ldr	r3, [sp, #0]
    7230:	2b02      	cmp	r3, #2
    7232:	d05a      	beq.n	72ea <setvbuf+0x132>
    7234:	ab03      	add	r3, sp, #12
    7236:	aa02      	add	r2, sp, #8
    7238:	0021      	movs	r1, r4
    723a:	0030      	movs	r0, r6
    723c:	f000 fafc 	bl	7838 <__swhatbuf_r>
    7240:	89a3      	ldrh	r3, [r4, #12]
    7242:	4318      	orrs	r0, r3
    7244:	81a0      	strh	r0, [r4, #12]
    7246:	2d00      	cmp	r5, #0
    7248:	d124      	bne.n	7294 <setvbuf+0xdc>
    724a:	9d02      	ldr	r5, [sp, #8]
    724c:	0028      	movs	r0, r5
    724e:	f000 fb5f 	bl	7910 <malloc>
    7252:	9501      	str	r5, [sp, #4]
    7254:	1e07      	subs	r7, r0, #0
    7256:	d142      	bne.n	72de <setvbuf+0x126>
    7258:	9b02      	ldr	r3, [sp, #8]
    725a:	9301      	str	r3, [sp, #4]
    725c:	42ab      	cmp	r3, r5
    725e:	d139      	bne.n	72d4 <setvbuf+0x11c>
    7260:	2001      	movs	r0, #1
    7262:	4240      	negs	r0, r0
    7264:	2302      	movs	r3, #2
    7266:	89a2      	ldrh	r2, [r4, #12]
    7268:	4313      	orrs	r3, r2
    726a:	81a3      	strh	r3, [r4, #12]
    726c:	2300      	movs	r3, #0
    726e:	60a3      	str	r3, [r4, #8]
    7270:	0023      	movs	r3, r4
    7272:	3347      	adds	r3, #71	; 0x47
    7274:	6023      	str	r3, [r4, #0]
    7276:	6123      	str	r3, [r4, #16]
    7278:	2301      	movs	r3, #1
    727a:	6163      	str	r3, [r4, #20]
    727c:	b005      	add	sp, #20
    727e:	bdf0      	pop	{r4, r5, r6, r7, pc}
    7280:	4b21      	ldr	r3, [pc, #132]	; (7308 <setvbuf+0x150>)
    7282:	429c      	cmp	r4, r3
    7284:	d101      	bne.n	728a <setvbuf+0xd2>
    7286:	68b4      	ldr	r4, [r6, #8]
    7288:	e7aa      	b.n	71e0 <setvbuf+0x28>
    728a:	4b20      	ldr	r3, [pc, #128]	; (730c <setvbuf+0x154>)
    728c:	429c      	cmp	r4, r3
    728e:	d1a7      	bne.n	71e0 <setvbuf+0x28>
    7290:	68f4      	ldr	r4, [r6, #12]
    7292:	e7a5      	b.n	71e0 <setvbuf+0x28>
    7294:	2f00      	cmp	r7, #0
    7296:	d0d9      	beq.n	724c <setvbuf+0x94>
    7298:	69b3      	ldr	r3, [r6, #24]
    729a:	2b00      	cmp	r3, #0
    729c:	d102      	bne.n	72a4 <setvbuf+0xec>
    729e:	0030      	movs	r0, r6
    72a0:	f000 fa34 	bl	770c <__sinit>
    72a4:	9b00      	ldr	r3, [sp, #0]
    72a6:	2b01      	cmp	r3, #1
    72a8:	d103      	bne.n	72b2 <setvbuf+0xfa>
    72aa:	89a3      	ldrh	r3, [r4, #12]
    72ac:	9a00      	ldr	r2, [sp, #0]
    72ae:	431a      	orrs	r2, r3
    72b0:	81a2      	strh	r2, [r4, #12]
    72b2:	2008      	movs	r0, #8
    72b4:	89a3      	ldrh	r3, [r4, #12]
    72b6:	6027      	str	r7, [r4, #0]
    72b8:	6127      	str	r7, [r4, #16]
    72ba:	6165      	str	r5, [r4, #20]
    72bc:	4018      	ands	r0, r3
    72be:	d018      	beq.n	72f2 <setvbuf+0x13a>
    72c0:	2001      	movs	r0, #1
    72c2:	4018      	ands	r0, r3
    72c4:	2300      	movs	r3, #0
    72c6:	4298      	cmp	r0, r3
    72c8:	d011      	beq.n	72ee <setvbuf+0x136>
    72ca:	426d      	negs	r5, r5
    72cc:	60a3      	str	r3, [r4, #8]
    72ce:	61a5      	str	r5, [r4, #24]
    72d0:	0018      	movs	r0, r3
    72d2:	e7d3      	b.n	727c <setvbuf+0xc4>
    72d4:	9801      	ldr	r0, [sp, #4]
    72d6:	f000 fb1b 	bl	7910 <malloc>
    72da:	1e07      	subs	r7, r0, #0
    72dc:	d0c0      	beq.n	7260 <setvbuf+0xa8>
    72de:	2380      	movs	r3, #128	; 0x80
    72e0:	89a2      	ldrh	r2, [r4, #12]
    72e2:	9d01      	ldr	r5, [sp, #4]
    72e4:	4313      	orrs	r3, r2
    72e6:	81a3      	strh	r3, [r4, #12]
    72e8:	e7d6      	b.n	7298 <setvbuf+0xe0>
    72ea:	2000      	movs	r0, #0
    72ec:	e7ba      	b.n	7264 <setvbuf+0xac>
    72ee:	60a5      	str	r5, [r4, #8]
    72f0:	e7c4      	b.n	727c <setvbuf+0xc4>
    72f2:	60a0      	str	r0, [r4, #8]
    72f4:	e7c2      	b.n	727c <setvbuf+0xc4>
    72f6:	2001      	movs	r0, #1
    72f8:	4240      	negs	r0, r0
    72fa:	e7bf      	b.n	727c <setvbuf+0xc4>
    72fc:	200000dc 	.word	0x200000dc
    7300:	0000c3e0 	.word	0x0000c3e0
    7304:	fffff35c 	.word	0xfffff35c
    7308:	0000c400 	.word	0x0000c400
    730c:	0000c3c0 	.word	0x0000c3c0

00007310 <sniprintf>:
    7310:	b40c      	push	{r2, r3}
    7312:	b530      	push	{r4, r5, lr}
    7314:	4b16      	ldr	r3, [pc, #88]	; (7370 <sniprintf+0x60>)
    7316:	b09d      	sub	sp, #116	; 0x74
    7318:	1e0c      	subs	r4, r1, #0
    731a:	681d      	ldr	r5, [r3, #0]
    731c:	da08      	bge.n	7330 <sniprintf+0x20>
    731e:	238b      	movs	r3, #139	; 0x8b
    7320:	2001      	movs	r0, #1
    7322:	602b      	str	r3, [r5, #0]
    7324:	4240      	negs	r0, r0
    7326:	b01d      	add	sp, #116	; 0x74
    7328:	bc30      	pop	{r4, r5}
    732a:	bc08      	pop	{r3}
    732c:	b002      	add	sp, #8
    732e:	4718      	bx	r3
    7330:	2382      	movs	r3, #130	; 0x82
    7332:	a902      	add	r1, sp, #8
    7334:	009b      	lsls	r3, r3, #2
    7336:	818b      	strh	r3, [r1, #12]
    7338:	2300      	movs	r3, #0
    733a:	9002      	str	r0, [sp, #8]
    733c:	6108      	str	r0, [r1, #16]
    733e:	429c      	cmp	r4, r3
    7340:	d000      	beq.n	7344 <sniprintf+0x34>
    7342:	1e63      	subs	r3, r4, #1
    7344:	608b      	str	r3, [r1, #8]
    7346:	614b      	str	r3, [r1, #20]
    7348:	2301      	movs	r3, #1
    734a:	425b      	negs	r3, r3
    734c:	81cb      	strh	r3, [r1, #14]
    734e:	9a20      	ldr	r2, [sp, #128]	; 0x80
    7350:	ab21      	add	r3, sp, #132	; 0x84
    7352:	0028      	movs	r0, r5
    7354:	9301      	str	r3, [sp, #4]
    7356:	f000 fbef 	bl	7b38 <_svfiprintf_r>
    735a:	1c43      	adds	r3, r0, #1
    735c:	da01      	bge.n	7362 <sniprintf+0x52>
    735e:	238b      	movs	r3, #139	; 0x8b
    7360:	602b      	str	r3, [r5, #0]
    7362:	2c00      	cmp	r4, #0
    7364:	d0df      	beq.n	7326 <sniprintf+0x16>
    7366:	2300      	movs	r3, #0
    7368:	9a02      	ldr	r2, [sp, #8]
    736a:	7013      	strb	r3, [r2, #0]
    736c:	e7db      	b.n	7326 <sniprintf+0x16>
    736e:	46c0      	nop			; (mov r8, r8)
    7370:	200000dc 	.word	0x200000dc

00007374 <strlen>:
    7374:	2300      	movs	r3, #0
    7376:	5cc2      	ldrb	r2, [r0, r3]
    7378:	3301      	adds	r3, #1
    737a:	2a00      	cmp	r2, #0
    737c:	d1fb      	bne.n	7376 <strlen+0x2>
    737e:	1e58      	subs	r0, r3, #1
    7380:	4770      	bx	lr
	...

00007384 <__swbuf_r>:
    7384:	b5f8      	push	{r3, r4, r5, r6, r7, lr}
    7386:	0005      	movs	r5, r0
    7388:	000e      	movs	r6, r1
    738a:	0014      	movs	r4, r2
    738c:	2800      	cmp	r0, #0
    738e:	d004      	beq.n	739a <__swbuf_r+0x16>
    7390:	6983      	ldr	r3, [r0, #24]
    7392:	2b00      	cmp	r3, #0
    7394:	d101      	bne.n	739a <__swbuf_r+0x16>
    7396:	f000 f9b9 	bl	770c <__sinit>
    739a:	4b22      	ldr	r3, [pc, #136]	; (7424 <__swbuf_r+0xa0>)
    739c:	429c      	cmp	r4, r3
    739e:	d12d      	bne.n	73fc <__swbuf_r+0x78>
    73a0:	686c      	ldr	r4, [r5, #4]
    73a2:	69a3      	ldr	r3, [r4, #24]
    73a4:	60a3      	str	r3, [r4, #8]
    73a6:	89a3      	ldrh	r3, [r4, #12]
    73a8:	071b      	lsls	r3, r3, #28
    73aa:	d531      	bpl.n	7410 <__swbuf_r+0x8c>
    73ac:	6923      	ldr	r3, [r4, #16]
    73ae:	2b00      	cmp	r3, #0
    73b0:	d02e      	beq.n	7410 <__swbuf_r+0x8c>
    73b2:	6823      	ldr	r3, [r4, #0]
    73b4:	6922      	ldr	r2, [r4, #16]
    73b6:	b2f7      	uxtb	r7, r6
    73b8:	1a98      	subs	r0, r3, r2
    73ba:	6963      	ldr	r3, [r4, #20]
    73bc:	b2f6      	uxtb	r6, r6
    73be:	4298      	cmp	r0, r3
    73c0:	db05      	blt.n	73ce <__swbuf_r+0x4a>
    73c2:	0021      	movs	r1, r4
    73c4:	0028      	movs	r0, r5
    73c6:	f000 f933 	bl	7630 <_fflush_r>
    73ca:	2800      	cmp	r0, #0
    73cc:	d126      	bne.n	741c <__swbuf_r+0x98>
    73ce:	68a3      	ldr	r3, [r4, #8]
    73d0:	3001      	adds	r0, #1
    73d2:	3b01      	subs	r3, #1
    73d4:	60a3      	str	r3, [r4, #8]
    73d6:	6823      	ldr	r3, [r4, #0]
    73d8:	1c5a      	adds	r2, r3, #1
    73da:	6022      	str	r2, [r4, #0]
    73dc:	701f      	strb	r7, [r3, #0]
    73de:	6963      	ldr	r3, [r4, #20]
    73e0:	4298      	cmp	r0, r3
    73e2:	d004      	beq.n	73ee <__swbuf_r+0x6a>
    73e4:	89a3      	ldrh	r3, [r4, #12]
    73e6:	07db      	lsls	r3, r3, #31
    73e8:	d51a      	bpl.n	7420 <__swbuf_r+0x9c>
    73ea:	2e0a      	cmp	r6, #10
    73ec:	d118      	bne.n	7420 <__swbuf_r+0x9c>
    73ee:	0021      	movs	r1, r4
    73f0:	0028      	movs	r0, r5
    73f2:	f000 f91d 	bl	7630 <_fflush_r>
    73f6:	2800      	cmp	r0, #0
    73f8:	d012      	beq.n	7420 <__swbuf_r+0x9c>
    73fa:	e00f      	b.n	741c <__swbuf_r+0x98>
    73fc:	4b0a      	ldr	r3, [pc, #40]	; (7428 <__swbuf_r+0xa4>)
    73fe:	429c      	cmp	r4, r3
    7400:	d101      	bne.n	7406 <__swbuf_r+0x82>
    7402:	68ac      	ldr	r4, [r5, #8]
    7404:	e7cd      	b.n	73a2 <__swbuf_r+0x1e>
    7406:	4b09      	ldr	r3, [pc, #36]	; (742c <__swbuf_r+0xa8>)
    7408:	429c      	cmp	r4, r3
    740a:	d1ca      	bne.n	73a2 <__swbuf_r+0x1e>
    740c:	68ec      	ldr	r4, [r5, #12]
    740e:	e7c8      	b.n	73a2 <__swbuf_r+0x1e>
    7410:	0021      	movs	r1, r4
    7412:	0028      	movs	r0, r5
    7414:	f000 f80c 	bl	7430 <__swsetup_r>
    7418:	2800      	cmp	r0, #0
    741a:	d0ca      	beq.n	73b2 <__swbuf_r+0x2e>
    741c:	2601      	movs	r6, #1
    741e:	4276      	negs	r6, r6
    7420:	0030      	movs	r0, r6
    7422:	bdf8      	pop	{r3, r4, r5, r6, r7, pc}
    7424:	0000c3e0 	.word	0x0000c3e0
    7428:	0000c400 	.word	0x0000c400
    742c:	0000c3c0 	.word	0x0000c3c0

00007430 <__swsetup_r>:
    7430:	4b36      	ldr	r3, [pc, #216]	; (750c <__swsetup_r+0xdc>)
    7432:	b570      	push	{r4, r5, r6, lr}
    7434:	681d      	ldr	r5, [r3, #0]
    7436:	0006      	movs	r6, r0
    7438:	000c      	movs	r4, r1
    743a:	2d00      	cmp	r5, #0
    743c:	d005      	beq.n	744a <__swsetup_r+0x1a>
    743e:	69ab      	ldr	r3, [r5, #24]
    7440:	2b00      	cmp	r3, #0
    7442:	d102      	bne.n	744a <__swsetup_r+0x1a>
    7444:	0028      	movs	r0, r5
    7446:	f000 f961 	bl	770c <__sinit>
    744a:	4b31      	ldr	r3, [pc, #196]	; (7510 <__swsetup_r+0xe0>)
    744c:	429c      	cmp	r4, r3
    744e:	d10f      	bne.n	7470 <__swsetup_r+0x40>
    7450:	686c      	ldr	r4, [r5, #4]
    7452:	230c      	movs	r3, #12
    7454:	5ee2      	ldrsh	r2, [r4, r3]
    7456:	b293      	uxth	r3, r2
    7458:	0719      	lsls	r1, r3, #28
    745a:	d42d      	bmi.n	74b8 <__swsetup_r+0x88>
    745c:	06d9      	lsls	r1, r3, #27
    745e:	d411      	bmi.n	7484 <__swsetup_r+0x54>
    7460:	2309      	movs	r3, #9
    7462:	2001      	movs	r0, #1
    7464:	6033      	str	r3, [r6, #0]
    7466:	3337      	adds	r3, #55	; 0x37
    7468:	4313      	orrs	r3, r2
    746a:	81a3      	strh	r3, [r4, #12]
    746c:	4240      	negs	r0, r0
    746e:	bd70      	pop	{r4, r5, r6, pc}
    7470:	4b28      	ldr	r3, [pc, #160]	; (7514 <__swsetup_r+0xe4>)
    7472:	429c      	cmp	r4, r3
    7474:	d101      	bne.n	747a <__swsetup_r+0x4a>
    7476:	68ac      	ldr	r4, [r5, #8]
    7478:	e7eb      	b.n	7452 <__swsetup_r+0x22>
    747a:	4b27      	ldr	r3, [pc, #156]	; (7518 <__swsetup_r+0xe8>)
    747c:	429c      	cmp	r4, r3
    747e:	d1e8      	bne.n	7452 <__swsetup_r+0x22>
    7480:	68ec      	ldr	r4, [r5, #12]
    7482:	e7e6      	b.n	7452 <__swsetup_r+0x22>
    7484:	075b      	lsls	r3, r3, #29
    7486:	d513      	bpl.n	74b0 <__swsetup_r+0x80>
    7488:	6b61      	ldr	r1, [r4, #52]	; 0x34
    748a:	2900      	cmp	r1, #0
    748c:	d008      	beq.n	74a0 <__swsetup_r+0x70>
    748e:	0023      	movs	r3, r4
    7490:	3344      	adds	r3, #68	; 0x44
    7492:	4299      	cmp	r1, r3
    7494:	d002      	beq.n	749c <__swsetup_r+0x6c>
    7496:	0030      	movs	r0, r6
    7498:	f000 fa44 	bl	7924 <_free_r>
    749c:	2300      	movs	r3, #0
    749e:	6363      	str	r3, [r4, #52]	; 0x34
    74a0:	2224      	movs	r2, #36	; 0x24
    74a2:	89a3      	ldrh	r3, [r4, #12]
    74a4:	4393      	bics	r3, r2
    74a6:	81a3      	strh	r3, [r4, #12]
    74a8:	2300      	movs	r3, #0
    74aa:	6063      	str	r3, [r4, #4]
    74ac:	6923      	ldr	r3, [r4, #16]
    74ae:	6023      	str	r3, [r4, #0]
    74b0:	2308      	movs	r3, #8
    74b2:	89a2      	ldrh	r2, [r4, #12]
    74b4:	4313      	orrs	r3, r2
    74b6:	81a3      	strh	r3, [r4, #12]
    74b8:	6923      	ldr	r3, [r4, #16]
    74ba:	2b00      	cmp	r3, #0
    74bc:	d10b      	bne.n	74d6 <__swsetup_r+0xa6>
    74be:	21a0      	movs	r1, #160	; 0xa0
    74c0:	2280      	movs	r2, #128	; 0x80
    74c2:	89a3      	ldrh	r3, [r4, #12]
    74c4:	0089      	lsls	r1, r1, #2
    74c6:	0092      	lsls	r2, r2, #2
    74c8:	400b      	ands	r3, r1
    74ca:	4293      	cmp	r3, r2
    74cc:	d003      	beq.n	74d6 <__swsetup_r+0xa6>
    74ce:	0021      	movs	r1, r4
    74d0:	0030      	movs	r0, r6
    74d2:	f000 f9d9 	bl	7888 <__smakebuf_r>
    74d6:	2301      	movs	r3, #1
    74d8:	89a2      	ldrh	r2, [r4, #12]
    74da:	4013      	ands	r3, r2
    74dc:	d011      	beq.n	7502 <__swsetup_r+0xd2>
    74de:	2300      	movs	r3, #0
    74e0:	60a3      	str	r3, [r4, #8]
    74e2:	6963      	ldr	r3, [r4, #20]
    74e4:	425b      	negs	r3, r3
    74e6:	61a3      	str	r3, [r4, #24]
    74e8:	2000      	movs	r0, #0
    74ea:	6923      	ldr	r3, [r4, #16]
    74ec:	4283      	cmp	r3, r0
    74ee:	d1be      	bne.n	746e <__swsetup_r+0x3e>
    74f0:	230c      	movs	r3, #12
    74f2:	5ee2      	ldrsh	r2, [r4, r3]
    74f4:	0613      	lsls	r3, r2, #24
    74f6:	d5ba      	bpl.n	746e <__swsetup_r+0x3e>
    74f8:	2340      	movs	r3, #64	; 0x40
    74fa:	4313      	orrs	r3, r2
    74fc:	81a3      	strh	r3, [r4, #12]
    74fe:	3801      	subs	r0, #1
    7500:	e7b5      	b.n	746e <__swsetup_r+0x3e>
    7502:	0792      	lsls	r2, r2, #30
    7504:	d400      	bmi.n	7508 <__swsetup_r+0xd8>
    7506:	6963      	ldr	r3, [r4, #20]
    7508:	60a3      	str	r3, [r4, #8]
    750a:	e7ed      	b.n	74e8 <__swsetup_r+0xb8>
    750c:	200000dc 	.word	0x200000dc
    7510:	0000c3e0 	.word	0x0000c3e0
    7514:	0000c400 	.word	0x0000c400
    7518:	0000c3c0 	.word	0x0000c3c0

0000751c <__sflush_r>:
    751c:	b5f7      	push	{r0, r1, r2, r4, r5, r6, r7, lr}
    751e:	898a      	ldrh	r2, [r1, #12]
    7520:	0005      	movs	r5, r0
    7522:	000c      	movs	r4, r1
    7524:	0713      	lsls	r3, r2, #28
    7526:	d460      	bmi.n	75ea <__sflush_r+0xce>
    7528:	684b      	ldr	r3, [r1, #4]
    752a:	2b00      	cmp	r3, #0
    752c:	dc04      	bgt.n	7538 <__sflush_r+0x1c>
    752e:	6c0b      	ldr	r3, [r1, #64]	; 0x40
    7530:	2b00      	cmp	r3, #0
    7532:	dc01      	bgt.n	7538 <__sflush_r+0x1c>
    7534:	2000      	movs	r0, #0
    7536:	bdfe      	pop	{r1, r2, r3, r4, r5, r6, r7, pc}
    7538:	6ae7      	ldr	r7, [r4, #44]	; 0x2c
    753a:	2f00      	cmp	r7, #0
    753c:	d0fa      	beq.n	7534 <__sflush_r+0x18>
    753e:	2300      	movs	r3, #0
    7540:	682e      	ldr	r6, [r5, #0]
    7542:	602b      	str	r3, [r5, #0]
    7544:	2380      	movs	r3, #128	; 0x80
    7546:	015b      	lsls	r3, r3, #5
    7548:	401a      	ands	r2, r3
    754a:	d034      	beq.n	75b6 <__sflush_r+0x9a>
    754c:	6d60      	ldr	r0, [r4, #84]	; 0x54
    754e:	89a3      	ldrh	r3, [r4, #12]
    7550:	075b      	lsls	r3, r3, #29
    7552:	d506      	bpl.n	7562 <__sflush_r+0x46>
    7554:	6863      	ldr	r3, [r4, #4]
    7556:	1ac0      	subs	r0, r0, r3
    7558:	6b63      	ldr	r3, [r4, #52]	; 0x34
    755a:	2b00      	cmp	r3, #0
    755c:	d001      	beq.n	7562 <__sflush_r+0x46>
    755e:	6c23      	ldr	r3, [r4, #64]	; 0x40
    7560:	1ac0      	subs	r0, r0, r3
    7562:	0002      	movs	r2, r0
    7564:	6a21      	ldr	r1, [r4, #32]
    7566:	2300      	movs	r3, #0
    7568:	0028      	movs	r0, r5
    756a:	6ae7      	ldr	r7, [r4, #44]	; 0x2c
    756c:	47b8      	blx	r7
    756e:	89a1      	ldrh	r1, [r4, #12]
    7570:	1c43      	adds	r3, r0, #1
    7572:	d106      	bne.n	7582 <__sflush_r+0x66>
    7574:	682b      	ldr	r3, [r5, #0]
    7576:	2b1d      	cmp	r3, #29
    7578:	d831      	bhi.n	75de <__sflush_r+0xc2>
    757a:	4a2c      	ldr	r2, [pc, #176]	; (762c <__sflush_r+0x110>)
    757c:	40da      	lsrs	r2, r3
    757e:	07d3      	lsls	r3, r2, #31
    7580:	d52d      	bpl.n	75de <__sflush_r+0xc2>
    7582:	2300      	movs	r3, #0
    7584:	6063      	str	r3, [r4, #4]
    7586:	6923      	ldr	r3, [r4, #16]
    7588:	6023      	str	r3, [r4, #0]
    758a:	04cb      	lsls	r3, r1, #19
    758c:	d505      	bpl.n	759a <__sflush_r+0x7e>
    758e:	1c43      	adds	r3, r0, #1
    7590:	d102      	bne.n	7598 <__sflush_r+0x7c>
    7592:	682b      	ldr	r3, [r5, #0]
    7594:	2b00      	cmp	r3, #0
    7596:	d100      	bne.n	759a <__sflush_r+0x7e>
    7598:	6560      	str	r0, [r4, #84]	; 0x54
    759a:	6b61      	ldr	r1, [r4, #52]	; 0x34
    759c:	602e      	str	r6, [r5, #0]
    759e:	2900      	cmp	r1, #0
    75a0:	d0c8      	beq.n	7534 <__sflush_r+0x18>
    75a2:	0023      	movs	r3, r4
    75a4:	3344      	adds	r3, #68	; 0x44
    75a6:	4299      	cmp	r1, r3
    75a8:	d002      	beq.n	75b0 <__sflush_r+0x94>
    75aa:	0028      	movs	r0, r5
    75ac:	f000 f9ba 	bl	7924 <_free_r>
    75b0:	2000      	movs	r0, #0
    75b2:	6360      	str	r0, [r4, #52]	; 0x34
    75b4:	e7bf      	b.n	7536 <__sflush_r+0x1a>
    75b6:	2301      	movs	r3, #1
    75b8:	6a21      	ldr	r1, [r4, #32]
    75ba:	0028      	movs	r0, r5
    75bc:	47b8      	blx	r7
    75be:	1c43      	adds	r3, r0, #1
    75c0:	d1c5      	bne.n	754e <__sflush_r+0x32>
    75c2:	682b      	ldr	r3, [r5, #0]
    75c4:	2b00      	cmp	r3, #0
    75c6:	d0c2      	beq.n	754e <__sflush_r+0x32>
    75c8:	2b1d      	cmp	r3, #29
    75ca:	d001      	beq.n	75d0 <__sflush_r+0xb4>
    75cc:	2b16      	cmp	r3, #22
    75ce:	d101      	bne.n	75d4 <__sflush_r+0xb8>
    75d0:	602e      	str	r6, [r5, #0]
    75d2:	e7af      	b.n	7534 <__sflush_r+0x18>
    75d4:	2340      	movs	r3, #64	; 0x40
    75d6:	89a2      	ldrh	r2, [r4, #12]
    75d8:	4313      	orrs	r3, r2
    75da:	81a3      	strh	r3, [r4, #12]
    75dc:	e7ab      	b.n	7536 <__sflush_r+0x1a>
    75de:	2340      	movs	r3, #64	; 0x40
    75e0:	430b      	orrs	r3, r1
    75e2:	2001      	movs	r0, #1
    75e4:	81a3      	strh	r3, [r4, #12]
    75e6:	4240      	negs	r0, r0
    75e8:	e7a5      	b.n	7536 <__sflush_r+0x1a>
    75ea:	690f      	ldr	r7, [r1, #16]
    75ec:	2f00      	cmp	r7, #0
    75ee:	d0a1      	beq.n	7534 <__sflush_r+0x18>
    75f0:	680b      	ldr	r3, [r1, #0]
    75f2:	600f      	str	r7, [r1, #0]
    75f4:	1bdb      	subs	r3, r3, r7
    75f6:	9301      	str	r3, [sp, #4]
    75f8:	2300      	movs	r3, #0
    75fa:	0792      	lsls	r2, r2, #30
    75fc:	d100      	bne.n	7600 <__sflush_r+0xe4>
    75fe:	694b      	ldr	r3, [r1, #20]
    7600:	60a3      	str	r3, [r4, #8]
    7602:	9b01      	ldr	r3, [sp, #4]
    7604:	2b00      	cmp	r3, #0
    7606:	dc00      	bgt.n	760a <__sflush_r+0xee>
    7608:	e794      	b.n	7534 <__sflush_r+0x18>
    760a:	9b01      	ldr	r3, [sp, #4]
    760c:	003a      	movs	r2, r7
    760e:	6a21      	ldr	r1, [r4, #32]
    7610:	0028      	movs	r0, r5
    7612:	6aa6      	ldr	r6, [r4, #40]	; 0x28
    7614:	47b0      	blx	r6
    7616:	2800      	cmp	r0, #0
    7618:	dc03      	bgt.n	7622 <__sflush_r+0x106>
    761a:	2340      	movs	r3, #64	; 0x40
    761c:	89a2      	ldrh	r2, [r4, #12]
    761e:	4313      	orrs	r3, r2
    7620:	e7df      	b.n	75e2 <__sflush_r+0xc6>
    7622:	9b01      	ldr	r3, [sp, #4]
    7624:	183f      	adds	r7, r7, r0
    7626:	1a1b      	subs	r3, r3, r0
    7628:	9301      	str	r3, [sp, #4]
    762a:	e7ea      	b.n	7602 <__sflush_r+0xe6>
    762c:	20400001 	.word	0x20400001

00007630 <_fflush_r>:
    7630:	690b      	ldr	r3, [r1, #16]
    7632:	b570      	push	{r4, r5, r6, lr}
    7634:	0005      	movs	r5, r0
    7636:	000c      	movs	r4, r1
    7638:	2b00      	cmp	r3, #0
    763a:	d101      	bne.n	7640 <_fflush_r+0x10>
    763c:	2000      	movs	r0, #0
    763e:	bd70      	pop	{r4, r5, r6, pc}
    7640:	2800      	cmp	r0, #0
    7642:	d004      	beq.n	764e <_fflush_r+0x1e>
    7644:	6983      	ldr	r3, [r0, #24]
    7646:	2b00      	cmp	r3, #0
    7648:	d101      	bne.n	764e <_fflush_r+0x1e>
    764a:	f000 f85f 	bl	770c <__sinit>
    764e:	4b0b      	ldr	r3, [pc, #44]	; (767c <_fflush_r+0x4c>)
    7650:	429c      	cmp	r4, r3
    7652:	d109      	bne.n	7668 <_fflush_r+0x38>
    7654:	686c      	ldr	r4, [r5, #4]
    7656:	220c      	movs	r2, #12
    7658:	5ea3      	ldrsh	r3, [r4, r2]
    765a:	2b00      	cmp	r3, #0
    765c:	d0ee      	beq.n	763c <_fflush_r+0xc>
    765e:	0021      	movs	r1, r4
    7660:	0028      	movs	r0, r5
    7662:	f7ff ff5b 	bl	751c <__sflush_r>
    7666:	e7ea      	b.n	763e <_fflush_r+0xe>
    7668:	4b05      	ldr	r3, [pc, #20]	; (7680 <_fflush_r+0x50>)
    766a:	429c      	cmp	r4, r3
    766c:	d101      	bne.n	7672 <_fflush_r+0x42>
    766e:	68ac      	ldr	r4, [r5, #8]
    7670:	e7f1      	b.n	7656 <_fflush_r+0x26>
    7672:	4b04      	ldr	r3, [pc, #16]	; (7684 <_fflush_r+0x54>)
    7674:	429c      	cmp	r4, r3
    7676:	d1ee      	bne.n	7656 <_fflush_r+0x26>
    7678:	68ec      	ldr	r4, [r5, #12]
    767a:	e7ec      	b.n	7656 <_fflush_r+0x26>
    767c:	0000c3e0 	.word	0x0000c3e0
    7680:	0000c400 	.word	0x0000c400
    7684:	0000c3c0 	.word	0x0000c3c0

00007688 <_cleanup_r>:
    7688:	b510      	push	{r4, lr}
    768a:	4902      	ldr	r1, [pc, #8]	; (7694 <_cleanup_r+0xc>)
    768c:	f000 f8b2 	bl	77f4 <_fwalk_reent>
    7690:	bd10      	pop	{r4, pc}
    7692:	46c0      	nop			; (mov r8, r8)
    7694:	00007631 	.word	0x00007631

00007698 <std.isra.0>:
    7698:	2300      	movs	r3, #0
    769a:	b510      	push	{r4, lr}
    769c:	0004      	movs	r4, r0
    769e:	6003      	str	r3, [r0, #0]
    76a0:	6043      	str	r3, [r0, #4]
    76a2:	6083      	str	r3, [r0, #8]
    76a4:	8181      	strh	r1, [r0, #12]
    76a6:	6643      	str	r3, [r0, #100]	; 0x64
    76a8:	81c2      	strh	r2, [r0, #14]
    76aa:	6103      	str	r3, [r0, #16]
    76ac:	6143      	str	r3, [r0, #20]
    76ae:	6183      	str	r3, [r0, #24]
    76b0:	0019      	movs	r1, r3
    76b2:	2208      	movs	r2, #8
    76b4:	305c      	adds	r0, #92	; 0x5c
    76b6:	f7ff fce9 	bl	708c <memset>
    76ba:	4b05      	ldr	r3, [pc, #20]	; (76d0 <std.isra.0+0x38>)
    76bc:	6224      	str	r4, [r4, #32]
    76be:	6263      	str	r3, [r4, #36]	; 0x24
    76c0:	4b04      	ldr	r3, [pc, #16]	; (76d4 <std.isra.0+0x3c>)
    76c2:	62a3      	str	r3, [r4, #40]	; 0x28
    76c4:	4b04      	ldr	r3, [pc, #16]	; (76d8 <std.isra.0+0x40>)
    76c6:	62e3      	str	r3, [r4, #44]	; 0x2c
    76c8:	4b04      	ldr	r3, [pc, #16]	; (76dc <std.isra.0+0x44>)
    76ca:	6323      	str	r3, [r4, #48]	; 0x30
    76cc:	bd10      	pop	{r4, pc}
    76ce:	46c0      	nop			; (mov r8, r8)
    76d0:	000082fd 	.word	0x000082fd
    76d4:	00008325 	.word	0x00008325
    76d8:	0000835d 	.word	0x0000835d
    76dc:	00008389 	.word	0x00008389

000076e0 <__sfmoreglue>:
    76e0:	b570      	push	{r4, r5, r6, lr}
    76e2:	2568      	movs	r5, #104	; 0x68
    76e4:	1e4a      	subs	r2, r1, #1
    76e6:	4355      	muls	r5, r2
    76e8:	000e      	movs	r6, r1
    76ea:	0029      	movs	r1, r5
    76ec:	3174      	adds	r1, #116	; 0x74
    76ee:	f000 f963 	bl	79b8 <_malloc_r>
    76f2:	1e04      	subs	r4, r0, #0
    76f4:	d008      	beq.n	7708 <__sfmoreglue+0x28>
    76f6:	2100      	movs	r1, #0
    76f8:	002a      	movs	r2, r5
    76fa:	6001      	str	r1, [r0, #0]
    76fc:	6046      	str	r6, [r0, #4]
    76fe:	300c      	adds	r0, #12
    7700:	60a0      	str	r0, [r4, #8]
    7702:	3268      	adds	r2, #104	; 0x68
    7704:	f7ff fcc2 	bl	708c <memset>
    7708:	0020      	movs	r0, r4
    770a:	bd70      	pop	{r4, r5, r6, pc}

0000770c <__sinit>:
    770c:	6983      	ldr	r3, [r0, #24]
    770e:	b513      	push	{r0, r1, r4, lr}
    7710:	0004      	movs	r4, r0
    7712:	2b00      	cmp	r3, #0
    7714:	d128      	bne.n	7768 <__sinit+0x5c>
    7716:	6483      	str	r3, [r0, #72]	; 0x48
    7718:	64c3      	str	r3, [r0, #76]	; 0x4c
    771a:	6503      	str	r3, [r0, #80]	; 0x50
    771c:	4b13      	ldr	r3, [pc, #76]	; (776c <__sinit+0x60>)
    771e:	4a14      	ldr	r2, [pc, #80]	; (7770 <__sinit+0x64>)
    7720:	681b      	ldr	r3, [r3, #0]
    7722:	6282      	str	r2, [r0, #40]	; 0x28
    7724:	9301      	str	r3, [sp, #4]
    7726:	4298      	cmp	r0, r3
    7728:	d101      	bne.n	772e <__sinit+0x22>
    772a:	2301      	movs	r3, #1
    772c:	6183      	str	r3, [r0, #24]
    772e:	0020      	movs	r0, r4
    7730:	f000 f820 	bl	7774 <__sfp>
    7734:	6060      	str	r0, [r4, #4]
    7736:	0020      	movs	r0, r4
    7738:	f000 f81c 	bl	7774 <__sfp>
    773c:	60a0      	str	r0, [r4, #8]
    773e:	0020      	movs	r0, r4
    7740:	f000 f818 	bl	7774 <__sfp>
    7744:	2200      	movs	r2, #0
    7746:	60e0      	str	r0, [r4, #12]
    7748:	2104      	movs	r1, #4
    774a:	6860      	ldr	r0, [r4, #4]
    774c:	f7ff ffa4 	bl	7698 <std.isra.0>
    7750:	2201      	movs	r2, #1
    7752:	2109      	movs	r1, #9
    7754:	68a0      	ldr	r0, [r4, #8]
    7756:	f7ff ff9f 	bl	7698 <std.isra.0>
    775a:	2202      	movs	r2, #2
    775c:	2112      	movs	r1, #18
    775e:	68e0      	ldr	r0, [r4, #12]
    7760:	f7ff ff9a 	bl	7698 <std.isra.0>
    7764:	2301      	movs	r3, #1
    7766:	61a3      	str	r3, [r4, #24]
    7768:	bd13      	pop	{r0, r1, r4, pc}
    776a:	46c0      	nop			; (mov r8, r8)
    776c:	0000c3bc 	.word	0x0000c3bc
    7770:	00007689 	.word	0x00007689

00007774 <__sfp>:
    7774:	b5f8      	push	{r3, r4, r5, r6, r7, lr}
    7776:	4b1e      	ldr	r3, [pc, #120]	; (77f0 <__sfp+0x7c>)
    7778:	0007      	movs	r7, r0
    777a:	681e      	ldr	r6, [r3, #0]
    777c:	69b3      	ldr	r3, [r6, #24]
    777e:	2b00      	cmp	r3, #0
    7780:	d102      	bne.n	7788 <__sfp+0x14>
    7782:	0030      	movs	r0, r6
    7784:	f7ff ffc2 	bl	770c <__sinit>
    7788:	3648      	adds	r6, #72	; 0x48
    778a:	68b4      	ldr	r4, [r6, #8]
    778c:	6873      	ldr	r3, [r6, #4]
    778e:	3b01      	subs	r3, #1
    7790:	d504      	bpl.n	779c <__sfp+0x28>
    7792:	6833      	ldr	r3, [r6, #0]
    7794:	2b00      	cmp	r3, #0
    7796:	d007      	beq.n	77a8 <__sfp+0x34>
    7798:	6836      	ldr	r6, [r6, #0]
    779a:	e7f6      	b.n	778a <__sfp+0x16>
    779c:	220c      	movs	r2, #12
    779e:	5ea5      	ldrsh	r5, [r4, r2]
    77a0:	2d00      	cmp	r5, #0
    77a2:	d00d      	beq.n	77c0 <__sfp+0x4c>
    77a4:	3468      	adds	r4, #104	; 0x68
    77a6:	e7f2      	b.n	778e <__sfp+0x1a>
    77a8:	2104      	movs	r1, #4
    77aa:	0038      	movs	r0, r7
    77ac:	f7ff ff98 	bl	76e0 <__sfmoreglue>
    77b0:	6030      	str	r0, [r6, #0]
    77b2:	2800      	cmp	r0, #0
    77b4:	d1f0      	bne.n	7798 <__sfp+0x24>
    77b6:	230c      	movs	r3, #12
    77b8:	0004      	movs	r4, r0
    77ba:	603b      	str	r3, [r7, #0]
    77bc:	0020      	movs	r0, r4
    77be:	bdf8      	pop	{r3, r4, r5, r6, r7, pc}
    77c0:	2301      	movs	r3, #1
    77c2:	0020      	movs	r0, r4
    77c4:	425b      	negs	r3, r3
    77c6:	81e3      	strh	r3, [r4, #14]
    77c8:	3302      	adds	r3, #2
    77ca:	81a3      	strh	r3, [r4, #12]
    77cc:	6665      	str	r5, [r4, #100]	; 0x64
    77ce:	6025      	str	r5, [r4, #0]
    77d0:	60a5      	str	r5, [r4, #8]
    77d2:	6065      	str	r5, [r4, #4]
    77d4:	6125      	str	r5, [r4, #16]
    77d6:	6165      	str	r5, [r4, #20]
    77d8:	61a5      	str	r5, [r4, #24]
    77da:	2208      	movs	r2, #8
    77dc:	0029      	movs	r1, r5
    77de:	305c      	adds	r0, #92	; 0x5c
    77e0:	f7ff fc54 	bl	708c <memset>
    77e4:	6365      	str	r5, [r4, #52]	; 0x34
    77e6:	63a5      	str	r5, [r4, #56]	; 0x38
    77e8:	64a5      	str	r5, [r4, #72]	; 0x48
    77ea:	64e5      	str	r5, [r4, #76]	; 0x4c
    77ec:	e7e6      	b.n	77bc <__sfp+0x48>
    77ee:	46c0      	nop			; (mov r8, r8)
    77f0:	0000c3bc 	.word	0x0000c3bc

000077f4 <_fwalk_reent>:
    77f4:	b5f7      	push	{r0, r1, r2, r4, r5, r6, r7, lr}
    77f6:	0004      	movs	r4, r0
    77f8:	0007      	movs	r7, r0
    77fa:	2600      	movs	r6, #0
    77fc:	9101      	str	r1, [sp, #4]
    77fe:	3448      	adds	r4, #72	; 0x48
    7800:	2c00      	cmp	r4, #0
    7802:	d101      	bne.n	7808 <_fwalk_reent+0x14>
    7804:	0030      	movs	r0, r6
    7806:	bdfe      	pop	{r1, r2, r3, r4, r5, r6, r7, pc}
    7808:	6863      	ldr	r3, [r4, #4]
    780a:	68a5      	ldr	r5, [r4, #8]
    780c:	9300      	str	r3, [sp, #0]
    780e:	9b00      	ldr	r3, [sp, #0]
    7810:	3b01      	subs	r3, #1
    7812:	9300      	str	r3, [sp, #0]
    7814:	d501      	bpl.n	781a <_fwalk_reent+0x26>
    7816:	6824      	ldr	r4, [r4, #0]
    7818:	e7f2      	b.n	7800 <_fwalk_reent+0xc>
    781a:	89ab      	ldrh	r3, [r5, #12]
    781c:	2b01      	cmp	r3, #1
    781e:	d908      	bls.n	7832 <_fwalk_reent+0x3e>
    7820:	220e      	movs	r2, #14
    7822:	5eab      	ldrsh	r3, [r5, r2]
    7824:	3301      	adds	r3, #1
    7826:	d004      	beq.n	7832 <_fwalk_reent+0x3e>
    7828:	0029      	movs	r1, r5
    782a:	0038      	movs	r0, r7
    782c:	9b01      	ldr	r3, [sp, #4]
    782e:	4798      	blx	r3
    7830:	4306      	orrs	r6, r0
    7832:	3568      	adds	r5, #104	; 0x68
    7834:	e7eb      	b.n	780e <_fwalk_reent+0x1a>
	...

00007838 <__swhatbuf_r>:
    7838:	b570      	push	{r4, r5, r6, lr}
    783a:	000e      	movs	r6, r1
    783c:	001d      	movs	r5, r3
    783e:	230e      	movs	r3, #14
    7840:	5ec9      	ldrsh	r1, [r1, r3]
    7842:	b090      	sub	sp, #64	; 0x40
    7844:	0014      	movs	r4, r2
    7846:	2900      	cmp	r1, #0
    7848:	da07      	bge.n	785a <__swhatbuf_r+0x22>
    784a:	2300      	movs	r3, #0
    784c:	602b      	str	r3, [r5, #0]
    784e:	89b3      	ldrh	r3, [r6, #12]
    7850:	061b      	lsls	r3, r3, #24
    7852:	d411      	bmi.n	7878 <__swhatbuf_r+0x40>
    7854:	2380      	movs	r3, #128	; 0x80
    7856:	00db      	lsls	r3, r3, #3
    7858:	e00f      	b.n	787a <__swhatbuf_r+0x42>
    785a:	aa01      	add	r2, sp, #4
    785c:	f000 fdc0 	bl	83e0 <_fstat_r>
    7860:	2800      	cmp	r0, #0
    7862:	dbf2      	blt.n	784a <__swhatbuf_r+0x12>
    7864:	22f0      	movs	r2, #240	; 0xf0
    7866:	9b02      	ldr	r3, [sp, #8]
    7868:	0212      	lsls	r2, r2, #8
    786a:	4013      	ands	r3, r2
    786c:	4a05      	ldr	r2, [pc, #20]	; (7884 <__swhatbuf_r+0x4c>)
    786e:	189b      	adds	r3, r3, r2
    7870:	425a      	negs	r2, r3
    7872:	4153      	adcs	r3, r2
    7874:	602b      	str	r3, [r5, #0]
    7876:	e7ed      	b.n	7854 <__swhatbuf_r+0x1c>
    7878:	2340      	movs	r3, #64	; 0x40
    787a:	2000      	movs	r0, #0
    787c:	6023      	str	r3, [r4, #0]
    787e:	b010      	add	sp, #64	; 0x40
    7880:	bd70      	pop	{r4, r5, r6, pc}
    7882:	46c0      	nop			; (mov r8, r8)
    7884:	ffffe000 	.word	0xffffe000

00007888 <__smakebuf_r>:
    7888:	b5f7      	push	{r0, r1, r2, r4, r5, r6, r7, lr}
    788a:	2602      	movs	r6, #2
    788c:	898b      	ldrh	r3, [r1, #12]
    788e:	0005      	movs	r5, r0
    7890:	000c      	movs	r4, r1
    7892:	4233      	tst	r3, r6
    7894:	d006      	beq.n	78a4 <__smakebuf_r+0x1c>
    7896:	0023      	movs	r3, r4
    7898:	3347      	adds	r3, #71	; 0x47
    789a:	6023      	str	r3, [r4, #0]
    789c:	6123      	str	r3, [r4, #16]
    789e:	2301      	movs	r3, #1
    78a0:	6163      	str	r3, [r4, #20]
    78a2:	bdf7      	pop	{r0, r1, r2, r4, r5, r6, r7, pc}
    78a4:	ab01      	add	r3, sp, #4
    78a6:	466a      	mov	r2, sp
    78a8:	f7ff ffc6 	bl	7838 <__swhatbuf_r>
    78ac:	9900      	ldr	r1, [sp, #0]
    78ae:	0007      	movs	r7, r0
    78b0:	0028      	movs	r0, r5
    78b2:	f000 f881 	bl	79b8 <_malloc_r>
    78b6:	2800      	cmp	r0, #0
    78b8:	d108      	bne.n	78cc <__smakebuf_r+0x44>
    78ba:	220c      	movs	r2, #12
    78bc:	5ea3      	ldrsh	r3, [r4, r2]
    78be:	059a      	lsls	r2, r3, #22
    78c0:	d4ef      	bmi.n	78a2 <__smakebuf_r+0x1a>
    78c2:	2203      	movs	r2, #3
    78c4:	4393      	bics	r3, r2
    78c6:	431e      	orrs	r6, r3
    78c8:	81a6      	strh	r6, [r4, #12]
    78ca:	e7e4      	b.n	7896 <__smakebuf_r+0xe>
    78cc:	4b0f      	ldr	r3, [pc, #60]	; (790c <__smakebuf_r+0x84>)
    78ce:	62ab      	str	r3, [r5, #40]	; 0x28
    78d0:	2380      	movs	r3, #128	; 0x80
    78d2:	89a2      	ldrh	r2, [r4, #12]
    78d4:	6020      	str	r0, [r4, #0]
    78d6:	4313      	orrs	r3, r2
    78d8:	81a3      	strh	r3, [r4, #12]
    78da:	9b00      	ldr	r3, [sp, #0]
    78dc:	6120      	str	r0, [r4, #16]
    78de:	6163      	str	r3, [r4, #20]
    78e0:	9b01      	ldr	r3, [sp, #4]
    78e2:	2b00      	cmp	r3, #0
    78e4:	d00d      	beq.n	7902 <__smakebuf_r+0x7a>
    78e6:	230e      	movs	r3, #14
    78e8:	5ee1      	ldrsh	r1, [r4, r3]
    78ea:	0028      	movs	r0, r5
    78ec:	f000 fd8a 	bl	8404 <_isatty_r>
    78f0:	2800      	cmp	r0, #0
    78f2:	d006      	beq.n	7902 <__smakebuf_r+0x7a>
    78f4:	2203      	movs	r2, #3
    78f6:	89a3      	ldrh	r3, [r4, #12]
    78f8:	4393      	bics	r3, r2
    78fa:	001a      	movs	r2, r3
    78fc:	2301      	movs	r3, #1
    78fe:	4313      	orrs	r3, r2
    7900:	81a3      	strh	r3, [r4, #12]
    7902:	89a0      	ldrh	r0, [r4, #12]
    7904:	4338      	orrs	r0, r7
    7906:	81a0      	strh	r0, [r4, #12]
    7908:	e7cb      	b.n	78a2 <__smakebuf_r+0x1a>
    790a:	46c0      	nop			; (mov r8, r8)
    790c:	00007689 	.word	0x00007689

00007910 <malloc>:
    7910:	b510      	push	{r4, lr}
    7912:	4b03      	ldr	r3, [pc, #12]	; (7920 <malloc+0x10>)
    7914:	0001      	movs	r1, r0
    7916:	6818      	ldr	r0, [r3, #0]
    7918:	f000 f84e 	bl	79b8 <_malloc_r>
    791c:	bd10      	pop	{r4, pc}
    791e:	46c0      	nop			; (mov r8, r8)
    7920:	200000dc 	.word	0x200000dc

00007924 <_free_r>:
    7924:	b570      	push	{r4, r5, r6, lr}
    7926:	0005      	movs	r5, r0
    7928:	2900      	cmp	r1, #0
    792a:	d010      	beq.n	794e <_free_r+0x2a>
    792c:	1f0c      	subs	r4, r1, #4
    792e:	6823      	ldr	r3, [r4, #0]
    7930:	2b00      	cmp	r3, #0
    7932:	da00      	bge.n	7936 <_free_r+0x12>
    7934:	18e4      	adds	r4, r4, r3
    7936:	0028      	movs	r0, r5
    7938:	f000 fda7 	bl	848a <__malloc_lock>
    793c:	4a1d      	ldr	r2, [pc, #116]	; (79b4 <_free_r+0x90>)
    793e:	6813      	ldr	r3, [r2, #0]
    7940:	2b00      	cmp	r3, #0
    7942:	d105      	bne.n	7950 <_free_r+0x2c>
    7944:	6063      	str	r3, [r4, #4]
    7946:	6014      	str	r4, [r2, #0]
    7948:	0028      	movs	r0, r5
    794a:	f000 fd9f 	bl	848c <__malloc_unlock>
    794e:	bd70      	pop	{r4, r5, r6, pc}
    7950:	42a3      	cmp	r3, r4
    7952:	d909      	bls.n	7968 <_free_r+0x44>
    7954:	6821      	ldr	r1, [r4, #0]
    7956:	1860      	adds	r0, r4, r1
    7958:	4283      	cmp	r3, r0
    795a:	d1f3      	bne.n	7944 <_free_r+0x20>
    795c:	6818      	ldr	r0, [r3, #0]
    795e:	685b      	ldr	r3, [r3, #4]
    7960:	1841      	adds	r1, r0, r1
    7962:	6021      	str	r1, [r4, #0]
    7964:	e7ee      	b.n	7944 <_free_r+0x20>
    7966:	0013      	movs	r3, r2
    7968:	685a      	ldr	r2, [r3, #4]
    796a:	2a00      	cmp	r2, #0
    796c:	d001      	beq.n	7972 <_free_r+0x4e>
    796e:	42a2      	cmp	r2, r4
    7970:	d9f9      	bls.n	7966 <_free_r+0x42>
    7972:	6819      	ldr	r1, [r3, #0]
    7974:	1858      	adds	r0, r3, r1
    7976:	42a0      	cmp	r0, r4
    7978:	d10b      	bne.n	7992 <_free_r+0x6e>
    797a:	6820      	ldr	r0, [r4, #0]
    797c:	1809      	adds	r1, r1, r0
    797e:	1858      	adds	r0, r3, r1
    7980:	6019      	str	r1, [r3, #0]
    7982:	4282      	cmp	r2, r0
    7984:	d1e0      	bne.n	7948 <_free_r+0x24>
    7986:	6810      	ldr	r0, [r2, #0]
    7988:	6852      	ldr	r2, [r2, #4]
    798a:	1841      	adds	r1, r0, r1
    798c:	6019      	str	r1, [r3, #0]
    798e:	605a      	str	r2, [r3, #4]
    7990:	e7da      	b.n	7948 <_free_r+0x24>
    7992:	42a0      	cmp	r0, r4
    7994:	d902      	bls.n	799c <_free_r+0x78>
    7996:	230c      	movs	r3, #12
    7998:	602b      	str	r3, [r5, #0]
    799a:	e7d5      	b.n	7948 <_free_r+0x24>
    799c:	6821      	ldr	r1, [r4, #0]
    799e:	1860      	adds	r0, r4, r1
    79a0:	4282      	cmp	r2, r0
    79a2:	d103      	bne.n	79ac <_free_r+0x88>
    79a4:	6810      	ldr	r0, [r2, #0]
    79a6:	6852      	ldr	r2, [r2, #4]
    79a8:	1841      	adds	r1, r0, r1
    79aa:	6021      	str	r1, [r4, #0]
    79ac:	6062      	str	r2, [r4, #4]
    79ae:	605c      	str	r4, [r3, #4]
    79b0:	e7ca      	b.n	7948 <_free_r+0x24>
    79b2:	46c0      	nop			; (mov r8, r8)
    79b4:	200008f8 	.word	0x200008f8

000079b8 <_malloc_r>:
    79b8:	2303      	movs	r3, #3
    79ba:	b570      	push	{r4, r5, r6, lr}
    79bc:	1ccd      	adds	r5, r1, #3
    79be:	439d      	bics	r5, r3
    79c0:	3508      	adds	r5, #8
    79c2:	0006      	movs	r6, r0
    79c4:	2d0c      	cmp	r5, #12
    79c6:	d21e      	bcs.n	7a06 <_malloc_r+0x4e>
    79c8:	250c      	movs	r5, #12
    79ca:	42a9      	cmp	r1, r5
    79cc:	d81d      	bhi.n	7a0a <_malloc_r+0x52>
    79ce:	0030      	movs	r0, r6
    79d0:	f000 fd5b 	bl	848a <__malloc_lock>
    79d4:	4a25      	ldr	r2, [pc, #148]	; (7a6c <_malloc_r+0xb4>)
    79d6:	6814      	ldr	r4, [r2, #0]
    79d8:	0021      	movs	r1, r4
    79da:	2900      	cmp	r1, #0
    79dc:	d119      	bne.n	7a12 <_malloc_r+0x5a>
    79de:	4c24      	ldr	r4, [pc, #144]	; (7a70 <_malloc_r+0xb8>)
    79e0:	6823      	ldr	r3, [r4, #0]
    79e2:	2b00      	cmp	r3, #0
    79e4:	d103      	bne.n	79ee <_malloc_r+0x36>
    79e6:	0030      	movs	r0, r6
    79e8:	f000 fc76 	bl	82d8 <_sbrk_r>
    79ec:	6020      	str	r0, [r4, #0]
    79ee:	0029      	movs	r1, r5
    79f0:	0030      	movs	r0, r6
    79f2:	f000 fc71 	bl	82d8 <_sbrk_r>
    79f6:	1c43      	adds	r3, r0, #1
    79f8:	d12c      	bne.n	7a54 <_malloc_r+0x9c>
    79fa:	230c      	movs	r3, #12
    79fc:	0030      	movs	r0, r6
    79fe:	6033      	str	r3, [r6, #0]
    7a00:	f000 fd44 	bl	848c <__malloc_unlock>
    7a04:	e003      	b.n	7a0e <_malloc_r+0x56>
    7a06:	2d00      	cmp	r5, #0
    7a08:	dadf      	bge.n	79ca <_malloc_r+0x12>
    7a0a:	230c      	movs	r3, #12
    7a0c:	6033      	str	r3, [r6, #0]
    7a0e:	2000      	movs	r0, #0
    7a10:	bd70      	pop	{r4, r5, r6, pc}
    7a12:	680b      	ldr	r3, [r1, #0]
    7a14:	1b5b      	subs	r3, r3, r5
    7a16:	d41a      	bmi.n	7a4e <_malloc_r+0x96>
    7a18:	2b0b      	cmp	r3, #11
    7a1a:	d903      	bls.n	7a24 <_malloc_r+0x6c>
    7a1c:	600b      	str	r3, [r1, #0]
    7a1e:	18cc      	adds	r4, r1, r3
    7a20:	6025      	str	r5, [r4, #0]
    7a22:	e003      	b.n	7a2c <_malloc_r+0x74>
    7a24:	428c      	cmp	r4, r1
    7a26:	d10e      	bne.n	7a46 <_malloc_r+0x8e>
    7a28:	6863      	ldr	r3, [r4, #4]
    7a2a:	6013      	str	r3, [r2, #0]
    7a2c:	0030      	movs	r0, r6
    7a2e:	f000 fd2d 	bl	848c <__malloc_unlock>
    7a32:	0020      	movs	r0, r4
    7a34:	2207      	movs	r2, #7
    7a36:	300b      	adds	r0, #11
    7a38:	1d23      	adds	r3, r4, #4
    7a3a:	4390      	bics	r0, r2
    7a3c:	1ac3      	subs	r3, r0, r3
    7a3e:	d0e7      	beq.n	7a10 <_malloc_r+0x58>
    7a40:	425a      	negs	r2, r3
    7a42:	50e2      	str	r2, [r4, r3]
    7a44:	e7e4      	b.n	7a10 <_malloc_r+0x58>
    7a46:	684b      	ldr	r3, [r1, #4]
    7a48:	6063      	str	r3, [r4, #4]
    7a4a:	000c      	movs	r4, r1
    7a4c:	e7ee      	b.n	7a2c <_malloc_r+0x74>
    7a4e:	000c      	movs	r4, r1
    7a50:	6849      	ldr	r1, [r1, #4]
    7a52:	e7c2      	b.n	79da <_malloc_r+0x22>
    7a54:	2303      	movs	r3, #3
    7a56:	1cc4      	adds	r4, r0, #3
    7a58:	439c      	bics	r4, r3
    7a5a:	42a0      	cmp	r0, r4
    7a5c:	d0e0      	beq.n	7a20 <_malloc_r+0x68>
    7a5e:	1a21      	subs	r1, r4, r0
    7a60:	0030      	movs	r0, r6
    7a62:	f000 fc39 	bl	82d8 <_sbrk_r>
    7a66:	1c43      	adds	r3, r0, #1
    7a68:	d1da      	bne.n	7a20 <_malloc_r+0x68>
    7a6a:	e7c6      	b.n	79fa <_malloc_r+0x42>
    7a6c:	200008f8 	.word	0x200008f8
    7a70:	200008fc 	.word	0x200008fc

00007a74 <__ssputs_r>:
    7a74:	b5f0      	push	{r4, r5, r6, r7, lr}
    7a76:	688e      	ldr	r6, [r1, #8]
    7a78:	b085      	sub	sp, #20
    7a7a:	0007      	movs	r7, r0
    7a7c:	000c      	movs	r4, r1
    7a7e:	9203      	str	r2, [sp, #12]
    7a80:	9301      	str	r3, [sp, #4]
    7a82:	429e      	cmp	r6, r3
    7a84:	d839      	bhi.n	7afa <__ssputs_r+0x86>
    7a86:	2390      	movs	r3, #144	; 0x90
    7a88:	898a      	ldrh	r2, [r1, #12]
    7a8a:	00db      	lsls	r3, r3, #3
    7a8c:	421a      	tst	r2, r3
    7a8e:	d034      	beq.n	7afa <__ssputs_r+0x86>
    7a90:	2503      	movs	r5, #3
    7a92:	6909      	ldr	r1, [r1, #16]
    7a94:	6823      	ldr	r3, [r4, #0]
    7a96:	1a5b      	subs	r3, r3, r1
    7a98:	9302      	str	r3, [sp, #8]
    7a9a:	6963      	ldr	r3, [r4, #20]
    7a9c:	9802      	ldr	r0, [sp, #8]
    7a9e:	435d      	muls	r5, r3
    7aa0:	0feb      	lsrs	r3, r5, #31
    7aa2:	195d      	adds	r5, r3, r5
    7aa4:	9b01      	ldr	r3, [sp, #4]
    7aa6:	106d      	asrs	r5, r5, #1
    7aa8:	3301      	adds	r3, #1
    7aaa:	181b      	adds	r3, r3, r0
    7aac:	42ab      	cmp	r3, r5
    7aae:	d900      	bls.n	7ab2 <__ssputs_r+0x3e>
    7ab0:	001d      	movs	r5, r3
    7ab2:	0553      	lsls	r3, r2, #21
    7ab4:	d532      	bpl.n	7b1c <__ssputs_r+0xa8>
    7ab6:	0029      	movs	r1, r5
    7ab8:	0038      	movs	r0, r7
    7aba:	f7ff ff7d 	bl	79b8 <_malloc_r>
    7abe:	1e06      	subs	r6, r0, #0
    7ac0:	d109      	bne.n	7ad6 <__ssputs_r+0x62>
    7ac2:	230c      	movs	r3, #12
    7ac4:	603b      	str	r3, [r7, #0]
    7ac6:	2340      	movs	r3, #64	; 0x40
    7ac8:	2001      	movs	r0, #1
    7aca:	89a2      	ldrh	r2, [r4, #12]
    7acc:	4240      	negs	r0, r0
    7ace:	4313      	orrs	r3, r2
    7ad0:	81a3      	strh	r3, [r4, #12]
    7ad2:	b005      	add	sp, #20
    7ad4:	bdf0      	pop	{r4, r5, r6, r7, pc}
    7ad6:	9a02      	ldr	r2, [sp, #8]
    7ad8:	6921      	ldr	r1, [r4, #16]
    7ada:	f7ff face 	bl	707a <memcpy>
    7ade:	89a3      	ldrh	r3, [r4, #12]
    7ae0:	4a14      	ldr	r2, [pc, #80]	; (7b34 <__ssputs_r+0xc0>)
    7ae2:	401a      	ands	r2, r3
    7ae4:	2380      	movs	r3, #128	; 0x80
    7ae6:	4313      	orrs	r3, r2
    7ae8:	81a3      	strh	r3, [r4, #12]
    7aea:	9b02      	ldr	r3, [sp, #8]
    7aec:	6126      	str	r6, [r4, #16]
    7aee:	18f6      	adds	r6, r6, r3
    7af0:	6026      	str	r6, [r4, #0]
    7af2:	6165      	str	r5, [r4, #20]
    7af4:	9e01      	ldr	r6, [sp, #4]
    7af6:	1aed      	subs	r5, r5, r3
    7af8:	60a5      	str	r5, [r4, #8]
    7afa:	9b01      	ldr	r3, [sp, #4]
    7afc:	42b3      	cmp	r3, r6
    7afe:	d200      	bcs.n	7b02 <__ssputs_r+0x8e>
    7b00:	001e      	movs	r6, r3
    7b02:	0032      	movs	r2, r6
    7b04:	9903      	ldr	r1, [sp, #12]
    7b06:	6820      	ldr	r0, [r4, #0]
    7b08:	f000 fcad 	bl	8466 <memmove>
    7b0c:	68a3      	ldr	r3, [r4, #8]
    7b0e:	2000      	movs	r0, #0
    7b10:	1b9b      	subs	r3, r3, r6
    7b12:	60a3      	str	r3, [r4, #8]
    7b14:	6823      	ldr	r3, [r4, #0]
    7b16:	199e      	adds	r6, r3, r6
    7b18:	6026      	str	r6, [r4, #0]
    7b1a:	e7da      	b.n	7ad2 <__ssputs_r+0x5e>
    7b1c:	002a      	movs	r2, r5
    7b1e:	0038      	movs	r0, r7
    7b20:	f000 fcb5 	bl	848e <_realloc_r>
    7b24:	1e06      	subs	r6, r0, #0
    7b26:	d1e0      	bne.n	7aea <__ssputs_r+0x76>
    7b28:	6921      	ldr	r1, [r4, #16]
    7b2a:	0038      	movs	r0, r7
    7b2c:	f7ff fefa 	bl	7924 <_free_r>
    7b30:	e7c7      	b.n	7ac2 <__ssputs_r+0x4e>
    7b32:	46c0      	nop			; (mov r8, r8)
    7b34:	fffffb7f 	.word	0xfffffb7f

00007b38 <_svfiprintf_r>:
    7b38:	b5f0      	push	{r4, r5, r6, r7, lr}
    7b3a:	b09f      	sub	sp, #124	; 0x7c
    7b3c:	9002      	str	r0, [sp, #8]
    7b3e:	9305      	str	r3, [sp, #20]
    7b40:	898b      	ldrh	r3, [r1, #12]
    7b42:	000f      	movs	r7, r1
    7b44:	0016      	movs	r6, r2
    7b46:	061b      	lsls	r3, r3, #24
    7b48:	d511      	bpl.n	7b6e <_svfiprintf_r+0x36>
    7b4a:	690b      	ldr	r3, [r1, #16]
    7b4c:	2b00      	cmp	r3, #0
    7b4e:	d10e      	bne.n	7b6e <_svfiprintf_r+0x36>
    7b50:	2140      	movs	r1, #64	; 0x40
    7b52:	f7ff ff31 	bl	79b8 <_malloc_r>
    7b56:	6038      	str	r0, [r7, #0]
    7b58:	6138      	str	r0, [r7, #16]
    7b5a:	2800      	cmp	r0, #0
    7b5c:	d105      	bne.n	7b6a <_svfiprintf_r+0x32>
    7b5e:	230c      	movs	r3, #12
    7b60:	9a02      	ldr	r2, [sp, #8]
    7b62:	3801      	subs	r0, #1
    7b64:	6013      	str	r3, [r2, #0]
    7b66:	b01f      	add	sp, #124	; 0x7c
    7b68:	bdf0      	pop	{r4, r5, r6, r7, pc}
    7b6a:	2340      	movs	r3, #64	; 0x40
    7b6c:	617b      	str	r3, [r7, #20]
    7b6e:	2300      	movs	r3, #0
    7b70:	ad06      	add	r5, sp, #24
    7b72:	616b      	str	r3, [r5, #20]
    7b74:	3320      	adds	r3, #32
    7b76:	766b      	strb	r3, [r5, #25]
    7b78:	3310      	adds	r3, #16
    7b7a:	76ab      	strb	r3, [r5, #26]
    7b7c:	0034      	movs	r4, r6
    7b7e:	7823      	ldrb	r3, [r4, #0]
    7b80:	2b00      	cmp	r3, #0
    7b82:	d147      	bne.n	7c14 <_svfiprintf_r+0xdc>
    7b84:	1ba3      	subs	r3, r4, r6
    7b86:	9304      	str	r3, [sp, #16]
    7b88:	d00d      	beq.n	7ba6 <_svfiprintf_r+0x6e>
    7b8a:	1ba3      	subs	r3, r4, r6
    7b8c:	0032      	movs	r2, r6
    7b8e:	0039      	movs	r1, r7
    7b90:	9802      	ldr	r0, [sp, #8]
    7b92:	f7ff ff6f 	bl	7a74 <__ssputs_r>
    7b96:	1c43      	adds	r3, r0, #1
    7b98:	d100      	bne.n	7b9c <_svfiprintf_r+0x64>
    7b9a:	e0b5      	b.n	7d08 <_svfiprintf_r+0x1d0>
    7b9c:	696a      	ldr	r2, [r5, #20]
    7b9e:	9b04      	ldr	r3, [sp, #16]
    7ba0:	4694      	mov	ip, r2
    7ba2:	4463      	add	r3, ip
    7ba4:	616b      	str	r3, [r5, #20]
    7ba6:	7823      	ldrb	r3, [r4, #0]
    7ba8:	2b00      	cmp	r3, #0
    7baa:	d100      	bne.n	7bae <_svfiprintf_r+0x76>
    7bac:	e0ac      	b.n	7d08 <_svfiprintf_r+0x1d0>
    7bae:	2201      	movs	r2, #1
    7bb0:	2300      	movs	r3, #0
    7bb2:	4252      	negs	r2, r2
    7bb4:	606a      	str	r2, [r5, #4]
    7bb6:	a902      	add	r1, sp, #8
    7bb8:	3254      	adds	r2, #84	; 0x54
    7bba:	1852      	adds	r2, r2, r1
    7bbc:	3401      	adds	r4, #1
    7bbe:	602b      	str	r3, [r5, #0]
    7bc0:	60eb      	str	r3, [r5, #12]
    7bc2:	60ab      	str	r3, [r5, #8]
    7bc4:	7013      	strb	r3, [r2, #0]
    7bc6:	65ab      	str	r3, [r5, #88]	; 0x58
    7bc8:	4e58      	ldr	r6, [pc, #352]	; (7d2c <_svfiprintf_r+0x1f4>)
    7bca:	2205      	movs	r2, #5
    7bcc:	7821      	ldrb	r1, [r4, #0]
    7bce:	0030      	movs	r0, r6
    7bd0:	f000 fc3e 	bl	8450 <memchr>
    7bd4:	1c62      	adds	r2, r4, #1
    7bd6:	2800      	cmp	r0, #0
    7bd8:	d120      	bne.n	7c1c <_svfiprintf_r+0xe4>
    7bda:	6829      	ldr	r1, [r5, #0]
    7bdc:	06cb      	lsls	r3, r1, #27
    7bde:	d504      	bpl.n	7bea <_svfiprintf_r+0xb2>
    7be0:	2353      	movs	r3, #83	; 0x53
    7be2:	ae02      	add	r6, sp, #8
    7be4:	3020      	adds	r0, #32
    7be6:	199b      	adds	r3, r3, r6
    7be8:	7018      	strb	r0, [r3, #0]
    7bea:	070b      	lsls	r3, r1, #28
    7bec:	d504      	bpl.n	7bf8 <_svfiprintf_r+0xc0>
    7bee:	2353      	movs	r3, #83	; 0x53
    7bf0:	202b      	movs	r0, #43	; 0x2b
    7bf2:	ae02      	add	r6, sp, #8
    7bf4:	199b      	adds	r3, r3, r6
    7bf6:	7018      	strb	r0, [r3, #0]
    7bf8:	7823      	ldrb	r3, [r4, #0]
    7bfa:	2b2a      	cmp	r3, #42	; 0x2a
    7bfc:	d016      	beq.n	7c2c <_svfiprintf_r+0xf4>
    7bfe:	2000      	movs	r0, #0
    7c00:	210a      	movs	r1, #10
    7c02:	9b09      	ldr	r3, [sp, #36]	; 0x24
    7c04:	7822      	ldrb	r2, [r4, #0]
    7c06:	3a30      	subs	r2, #48	; 0x30
    7c08:	2a09      	cmp	r2, #9
    7c0a:	d955      	bls.n	7cb8 <_svfiprintf_r+0x180>
    7c0c:	2800      	cmp	r0, #0
    7c0e:	d015      	beq.n	7c3c <_svfiprintf_r+0x104>
    7c10:	9309      	str	r3, [sp, #36]	; 0x24
    7c12:	e013      	b.n	7c3c <_svfiprintf_r+0x104>
    7c14:	2b25      	cmp	r3, #37	; 0x25
    7c16:	d0b5      	beq.n	7b84 <_svfiprintf_r+0x4c>
    7c18:	3401      	adds	r4, #1
    7c1a:	e7b0      	b.n	7b7e <_svfiprintf_r+0x46>
    7c1c:	2301      	movs	r3, #1
    7c1e:	1b80      	subs	r0, r0, r6
    7c20:	4083      	lsls	r3, r0
    7c22:	6829      	ldr	r1, [r5, #0]
    7c24:	0014      	movs	r4, r2
    7c26:	430b      	orrs	r3, r1
    7c28:	602b      	str	r3, [r5, #0]
    7c2a:	e7cd      	b.n	7bc8 <_svfiprintf_r+0x90>
    7c2c:	9b05      	ldr	r3, [sp, #20]
    7c2e:	1d18      	adds	r0, r3, #4
    7c30:	681b      	ldr	r3, [r3, #0]
    7c32:	9005      	str	r0, [sp, #20]
    7c34:	2b00      	cmp	r3, #0
    7c36:	db39      	blt.n	7cac <_svfiprintf_r+0x174>
    7c38:	9309      	str	r3, [sp, #36]	; 0x24
    7c3a:	0014      	movs	r4, r2
    7c3c:	7823      	ldrb	r3, [r4, #0]
    7c3e:	2b2e      	cmp	r3, #46	; 0x2e
    7c40:	d10b      	bne.n	7c5a <_svfiprintf_r+0x122>
    7c42:	7863      	ldrb	r3, [r4, #1]
    7c44:	1c62      	adds	r2, r4, #1
    7c46:	2b2a      	cmp	r3, #42	; 0x2a
    7c48:	d13e      	bne.n	7cc8 <_svfiprintf_r+0x190>
    7c4a:	9b05      	ldr	r3, [sp, #20]
    7c4c:	3402      	adds	r4, #2
    7c4e:	1d1a      	adds	r2, r3, #4
    7c50:	681b      	ldr	r3, [r3, #0]
    7c52:	9205      	str	r2, [sp, #20]
    7c54:	2b00      	cmp	r3, #0
    7c56:	db34      	blt.n	7cc2 <_svfiprintf_r+0x18a>
    7c58:	9307      	str	r3, [sp, #28]
    7c5a:	4e35      	ldr	r6, [pc, #212]	; (7d30 <_svfiprintf_r+0x1f8>)
    7c5c:	7821      	ldrb	r1, [r4, #0]
    7c5e:	2203      	movs	r2, #3
    7c60:	0030      	movs	r0, r6
    7c62:	f000 fbf5 	bl	8450 <memchr>
    7c66:	2800      	cmp	r0, #0
    7c68:	d006      	beq.n	7c78 <_svfiprintf_r+0x140>
    7c6a:	2340      	movs	r3, #64	; 0x40
    7c6c:	1b80      	subs	r0, r0, r6
    7c6e:	4083      	lsls	r3, r0
    7c70:	682a      	ldr	r2, [r5, #0]
    7c72:	3401      	adds	r4, #1
    7c74:	4313      	orrs	r3, r2
    7c76:	602b      	str	r3, [r5, #0]
    7c78:	7821      	ldrb	r1, [r4, #0]
    7c7a:	2206      	movs	r2, #6
    7c7c:	482d      	ldr	r0, [pc, #180]	; (7d34 <_svfiprintf_r+0x1fc>)
    7c7e:	1c66      	adds	r6, r4, #1
    7c80:	7629      	strb	r1, [r5, #24]
    7c82:	f000 fbe5 	bl	8450 <memchr>
    7c86:	2800      	cmp	r0, #0
    7c88:	d046      	beq.n	7d18 <_svfiprintf_r+0x1e0>
    7c8a:	4b2b      	ldr	r3, [pc, #172]	; (7d38 <_svfiprintf_r+0x200>)
    7c8c:	2b00      	cmp	r3, #0
    7c8e:	d12f      	bne.n	7cf0 <_svfiprintf_r+0x1b8>
    7c90:	6829      	ldr	r1, [r5, #0]
    7c92:	9b05      	ldr	r3, [sp, #20]
    7c94:	2207      	movs	r2, #7
    7c96:	05c9      	lsls	r1, r1, #23
    7c98:	d528      	bpl.n	7cec <_svfiprintf_r+0x1b4>
    7c9a:	189b      	adds	r3, r3, r2
    7c9c:	4393      	bics	r3, r2
    7c9e:	3308      	adds	r3, #8
    7ca0:	9305      	str	r3, [sp, #20]
    7ca2:	696b      	ldr	r3, [r5, #20]
    7ca4:	9a03      	ldr	r2, [sp, #12]
    7ca6:	189b      	adds	r3, r3, r2
    7ca8:	616b      	str	r3, [r5, #20]
    7caa:	e767      	b.n	7b7c <_svfiprintf_r+0x44>
    7cac:	425b      	negs	r3, r3
    7cae:	60eb      	str	r3, [r5, #12]
    7cb0:	2302      	movs	r3, #2
    7cb2:	430b      	orrs	r3, r1
    7cb4:	602b      	str	r3, [r5, #0]
    7cb6:	e7c0      	b.n	7c3a <_svfiprintf_r+0x102>
    7cb8:	434b      	muls	r3, r1
    7cba:	3401      	adds	r4, #1
    7cbc:	189b      	adds	r3, r3, r2
    7cbe:	2001      	movs	r0, #1
    7cc0:	e7a0      	b.n	7c04 <_svfiprintf_r+0xcc>
    7cc2:	2301      	movs	r3, #1
    7cc4:	425b      	negs	r3, r3
    7cc6:	e7c7      	b.n	7c58 <_svfiprintf_r+0x120>
    7cc8:	2300      	movs	r3, #0
    7cca:	0014      	movs	r4, r2
    7ccc:	200a      	movs	r0, #10
    7cce:	001a      	movs	r2, r3
    7cd0:	606b      	str	r3, [r5, #4]
    7cd2:	7821      	ldrb	r1, [r4, #0]
    7cd4:	3930      	subs	r1, #48	; 0x30
    7cd6:	2909      	cmp	r1, #9
    7cd8:	d903      	bls.n	7ce2 <_svfiprintf_r+0x1aa>
    7cda:	2b00      	cmp	r3, #0
    7cdc:	d0bd      	beq.n	7c5a <_svfiprintf_r+0x122>
    7cde:	9207      	str	r2, [sp, #28]
    7ce0:	e7bb      	b.n	7c5a <_svfiprintf_r+0x122>
    7ce2:	4342      	muls	r2, r0
    7ce4:	3401      	adds	r4, #1
    7ce6:	1852      	adds	r2, r2, r1
    7ce8:	2301      	movs	r3, #1
    7cea:	e7f2      	b.n	7cd2 <_svfiprintf_r+0x19a>
    7cec:	3307      	adds	r3, #7
    7cee:	e7d5      	b.n	7c9c <_svfiprintf_r+0x164>
    7cf0:	ab05      	add	r3, sp, #20
    7cf2:	9300      	str	r3, [sp, #0]
    7cf4:	003a      	movs	r2, r7
    7cf6:	4b11      	ldr	r3, [pc, #68]	; (7d3c <_svfiprintf_r+0x204>)
    7cf8:	0029      	movs	r1, r5
    7cfa:	9802      	ldr	r0, [sp, #8]
    7cfc:	e000      	b.n	7d00 <_svfiprintf_r+0x1c8>
    7cfe:	bf00      	nop
    7d00:	9003      	str	r0, [sp, #12]
    7d02:	9b03      	ldr	r3, [sp, #12]
    7d04:	3301      	adds	r3, #1
    7d06:	d1cc      	bne.n	7ca2 <_svfiprintf_r+0x16a>
    7d08:	89bb      	ldrh	r3, [r7, #12]
    7d0a:	980b      	ldr	r0, [sp, #44]	; 0x2c
    7d0c:	065b      	lsls	r3, r3, #25
    7d0e:	d400      	bmi.n	7d12 <_svfiprintf_r+0x1da>
    7d10:	e729      	b.n	7b66 <_svfiprintf_r+0x2e>
    7d12:	2001      	movs	r0, #1
    7d14:	4240      	negs	r0, r0
    7d16:	e726      	b.n	7b66 <_svfiprintf_r+0x2e>
    7d18:	ab05      	add	r3, sp, #20
    7d1a:	9300      	str	r3, [sp, #0]
    7d1c:	003a      	movs	r2, r7
    7d1e:	4b07      	ldr	r3, [pc, #28]	; (7d3c <_svfiprintf_r+0x204>)
    7d20:	0029      	movs	r1, r5
    7d22:	9802      	ldr	r0, [sp, #8]
    7d24:	f000 f9be 	bl	80a4 <_printf_i>
    7d28:	e7ea      	b.n	7d00 <_svfiprintf_r+0x1c8>
    7d2a:	46c0      	nop			; (mov r8, r8)
    7d2c:	0000c420 	.word	0x0000c420
    7d30:	0000c426 	.word	0x0000c426
    7d34:	0000c42a 	.word	0x0000c42a
    7d38:	00000000 	.word	0x00000000
    7d3c:	00007a75 	.word	0x00007a75

00007d40 <__sfputc_r>:
    7d40:	6893      	ldr	r3, [r2, #8]
    7d42:	b510      	push	{r4, lr}
    7d44:	3b01      	subs	r3, #1
    7d46:	6093      	str	r3, [r2, #8]
    7d48:	2b00      	cmp	r3, #0
    7d4a:	da05      	bge.n	7d58 <__sfputc_r+0x18>
    7d4c:	6994      	ldr	r4, [r2, #24]
    7d4e:	42a3      	cmp	r3, r4
    7d50:	db08      	blt.n	7d64 <__sfputc_r+0x24>
    7d52:	b2cb      	uxtb	r3, r1
    7d54:	2b0a      	cmp	r3, #10
    7d56:	d005      	beq.n	7d64 <__sfputc_r+0x24>
    7d58:	6813      	ldr	r3, [r2, #0]
    7d5a:	1c58      	adds	r0, r3, #1
    7d5c:	6010      	str	r0, [r2, #0]
    7d5e:	7019      	strb	r1, [r3, #0]
    7d60:	b2c8      	uxtb	r0, r1
    7d62:	bd10      	pop	{r4, pc}
    7d64:	f7ff fb0e 	bl	7384 <__swbuf_r>
    7d68:	e7fb      	b.n	7d62 <__sfputc_r+0x22>

00007d6a <__sfputs_r>:
    7d6a:	b5f8      	push	{r3, r4, r5, r6, r7, lr}
    7d6c:	0006      	movs	r6, r0
    7d6e:	000f      	movs	r7, r1
    7d70:	0014      	movs	r4, r2
    7d72:	18d5      	adds	r5, r2, r3
    7d74:	42ac      	cmp	r4, r5
    7d76:	d101      	bne.n	7d7c <__sfputs_r+0x12>
    7d78:	2000      	movs	r0, #0
    7d7a:	e007      	b.n	7d8c <__sfputs_r+0x22>
    7d7c:	7821      	ldrb	r1, [r4, #0]
    7d7e:	003a      	movs	r2, r7
    7d80:	0030      	movs	r0, r6
    7d82:	f7ff ffdd 	bl	7d40 <__sfputc_r>
    7d86:	3401      	adds	r4, #1
    7d88:	1c43      	adds	r3, r0, #1
    7d8a:	d1f3      	bne.n	7d74 <__sfputs_r+0xa>
    7d8c:	bdf8      	pop	{r3, r4, r5, r6, r7, pc}
	...

00007d90 <_vfiprintf_r>:
    7d90:	b5f0      	push	{r4, r5, r6, r7, lr}
    7d92:	b09f      	sub	sp, #124	; 0x7c
    7d94:	0006      	movs	r6, r0
    7d96:	000f      	movs	r7, r1
    7d98:	0014      	movs	r4, r2
    7d9a:	9305      	str	r3, [sp, #20]
    7d9c:	2800      	cmp	r0, #0
    7d9e:	d004      	beq.n	7daa <_vfiprintf_r+0x1a>
    7da0:	6983      	ldr	r3, [r0, #24]
    7da2:	2b00      	cmp	r3, #0
    7da4:	d101      	bne.n	7daa <_vfiprintf_r+0x1a>
    7da6:	f7ff fcb1 	bl	770c <__sinit>
    7daa:	4b7f      	ldr	r3, [pc, #508]	; (7fa8 <_vfiprintf_r+0x218>)
    7dac:	429f      	cmp	r7, r3
    7dae:	d15c      	bne.n	7e6a <_vfiprintf_r+0xda>
    7db0:	6877      	ldr	r7, [r6, #4]
    7db2:	89bb      	ldrh	r3, [r7, #12]
    7db4:	071b      	lsls	r3, r3, #28
    7db6:	d562      	bpl.n	7e7e <_vfiprintf_r+0xee>
    7db8:	693b      	ldr	r3, [r7, #16]
    7dba:	2b00      	cmp	r3, #0
    7dbc:	d05f      	beq.n	7e7e <_vfiprintf_r+0xee>
    7dbe:	2300      	movs	r3, #0
    7dc0:	ad06      	add	r5, sp, #24
    7dc2:	616b      	str	r3, [r5, #20]
    7dc4:	3320      	adds	r3, #32
    7dc6:	766b      	strb	r3, [r5, #25]
    7dc8:	3310      	adds	r3, #16
    7dca:	76ab      	strb	r3, [r5, #26]
    7dcc:	9402      	str	r4, [sp, #8]
    7dce:	9c02      	ldr	r4, [sp, #8]
    7dd0:	7823      	ldrb	r3, [r4, #0]
    7dd2:	2b00      	cmp	r3, #0
    7dd4:	d15d      	bne.n	7e92 <_vfiprintf_r+0x102>
    7dd6:	9b02      	ldr	r3, [sp, #8]
    7dd8:	1ae3      	subs	r3, r4, r3
    7dda:	9304      	str	r3, [sp, #16]
    7ddc:	d00d      	beq.n	7dfa <_vfiprintf_r+0x6a>
    7dde:	9b04      	ldr	r3, [sp, #16]
    7de0:	9a02      	ldr	r2, [sp, #8]
    7de2:	0039      	movs	r1, r7
    7de4:	0030      	movs	r0, r6
    7de6:	f7ff ffc0 	bl	7d6a <__sfputs_r>
    7dea:	1c43      	adds	r3, r0, #1
    7dec:	d100      	bne.n	7df0 <_vfiprintf_r+0x60>
    7dee:	e0cc      	b.n	7f8a <_vfiprintf_r+0x1fa>
    7df0:	696a      	ldr	r2, [r5, #20]
    7df2:	9b04      	ldr	r3, [sp, #16]
    7df4:	4694      	mov	ip, r2
    7df6:	4463      	add	r3, ip
    7df8:	616b      	str	r3, [r5, #20]
    7dfa:	7823      	ldrb	r3, [r4, #0]
    7dfc:	2b00      	cmp	r3, #0
    7dfe:	d100      	bne.n	7e02 <_vfiprintf_r+0x72>
    7e00:	e0c3      	b.n	7f8a <_vfiprintf_r+0x1fa>
    7e02:	2201      	movs	r2, #1
    7e04:	2300      	movs	r3, #0
    7e06:	4252      	negs	r2, r2
    7e08:	606a      	str	r2, [r5, #4]
    7e0a:	a902      	add	r1, sp, #8
    7e0c:	3254      	adds	r2, #84	; 0x54
    7e0e:	1852      	adds	r2, r2, r1
    7e10:	3401      	adds	r4, #1
    7e12:	602b      	str	r3, [r5, #0]
    7e14:	60eb      	str	r3, [r5, #12]
    7e16:	60ab      	str	r3, [r5, #8]
    7e18:	7013      	strb	r3, [r2, #0]
    7e1a:	65ab      	str	r3, [r5, #88]	; 0x58
    7e1c:	7821      	ldrb	r1, [r4, #0]
    7e1e:	2205      	movs	r2, #5
    7e20:	4862      	ldr	r0, [pc, #392]	; (7fac <_vfiprintf_r+0x21c>)
    7e22:	f000 fb15 	bl	8450 <memchr>
    7e26:	1c63      	adds	r3, r4, #1
    7e28:	469c      	mov	ip, r3
    7e2a:	2800      	cmp	r0, #0
    7e2c:	d135      	bne.n	7e9a <_vfiprintf_r+0x10a>
    7e2e:	6829      	ldr	r1, [r5, #0]
    7e30:	06cb      	lsls	r3, r1, #27
    7e32:	d504      	bpl.n	7e3e <_vfiprintf_r+0xae>
    7e34:	2353      	movs	r3, #83	; 0x53
    7e36:	aa02      	add	r2, sp, #8
    7e38:	3020      	adds	r0, #32
    7e3a:	189b      	adds	r3, r3, r2
    7e3c:	7018      	strb	r0, [r3, #0]
    7e3e:	070b      	lsls	r3, r1, #28
    7e40:	d504      	bpl.n	7e4c <_vfiprintf_r+0xbc>
    7e42:	2353      	movs	r3, #83	; 0x53
    7e44:	202b      	movs	r0, #43	; 0x2b
    7e46:	aa02      	add	r2, sp, #8
    7e48:	189b      	adds	r3, r3, r2
    7e4a:	7018      	strb	r0, [r3, #0]
    7e4c:	7823      	ldrb	r3, [r4, #0]
    7e4e:	2b2a      	cmp	r3, #42	; 0x2a
    7e50:	d02c      	beq.n	7eac <_vfiprintf_r+0x11c>
    7e52:	2000      	movs	r0, #0
    7e54:	210a      	movs	r1, #10
    7e56:	9b09      	ldr	r3, [sp, #36]	; 0x24
    7e58:	7822      	ldrb	r2, [r4, #0]
    7e5a:	3a30      	subs	r2, #48	; 0x30
    7e5c:	2a09      	cmp	r2, #9
    7e5e:	d800      	bhi.n	7e62 <_vfiprintf_r+0xd2>
    7e60:	e06b      	b.n	7f3a <_vfiprintf_r+0x1aa>
    7e62:	2800      	cmp	r0, #0
    7e64:	d02a      	beq.n	7ebc <_vfiprintf_r+0x12c>
    7e66:	9309      	str	r3, [sp, #36]	; 0x24
    7e68:	e028      	b.n	7ebc <_vfiprintf_r+0x12c>
    7e6a:	4b51      	ldr	r3, [pc, #324]	; (7fb0 <_vfiprintf_r+0x220>)
    7e6c:	429f      	cmp	r7, r3
    7e6e:	d101      	bne.n	7e74 <_vfiprintf_r+0xe4>
    7e70:	68b7      	ldr	r7, [r6, #8]
    7e72:	e79e      	b.n	7db2 <_vfiprintf_r+0x22>
    7e74:	4b4f      	ldr	r3, [pc, #316]	; (7fb4 <_vfiprintf_r+0x224>)
    7e76:	429f      	cmp	r7, r3
    7e78:	d19b      	bne.n	7db2 <_vfiprintf_r+0x22>
    7e7a:	68f7      	ldr	r7, [r6, #12]
    7e7c:	e799      	b.n	7db2 <_vfiprintf_r+0x22>
    7e7e:	0039      	movs	r1, r7
    7e80:	0030      	movs	r0, r6
    7e82:	f7ff fad5 	bl	7430 <__swsetup_r>
    7e86:	2800      	cmp	r0, #0
    7e88:	d099      	beq.n	7dbe <_vfiprintf_r+0x2e>
    7e8a:	2001      	movs	r0, #1
    7e8c:	4240      	negs	r0, r0
    7e8e:	b01f      	add	sp, #124	; 0x7c
    7e90:	bdf0      	pop	{r4, r5, r6, r7, pc}
    7e92:	2b25      	cmp	r3, #37	; 0x25
    7e94:	d09f      	beq.n	7dd6 <_vfiprintf_r+0x46>
    7e96:	3401      	adds	r4, #1
    7e98:	e79a      	b.n	7dd0 <_vfiprintf_r+0x40>
    7e9a:	4b44      	ldr	r3, [pc, #272]	; (7fac <_vfiprintf_r+0x21c>)
    7e9c:	6829      	ldr	r1, [r5, #0]
    7e9e:	1ac0      	subs	r0, r0, r3
    7ea0:	2301      	movs	r3, #1
    7ea2:	4083      	lsls	r3, r0
    7ea4:	430b      	orrs	r3, r1
    7ea6:	602b      	str	r3, [r5, #0]
    7ea8:	4664      	mov	r4, ip
    7eaa:	e7b7      	b.n	7e1c <_vfiprintf_r+0x8c>
    7eac:	9b05      	ldr	r3, [sp, #20]
    7eae:	1d18      	adds	r0, r3, #4
    7eb0:	681b      	ldr	r3, [r3, #0]
    7eb2:	9005      	str	r0, [sp, #20]
    7eb4:	2b00      	cmp	r3, #0
    7eb6:	db3a      	blt.n	7f2e <_vfiprintf_r+0x19e>
    7eb8:	9309      	str	r3, [sp, #36]	; 0x24
    7eba:	4664      	mov	r4, ip
    7ebc:	7823      	ldrb	r3, [r4, #0]
    7ebe:	2b2e      	cmp	r3, #46	; 0x2e
    7ec0:	d10b      	bne.n	7eda <_vfiprintf_r+0x14a>
    7ec2:	7863      	ldrb	r3, [r4, #1]
    7ec4:	1c62      	adds	r2, r4, #1
    7ec6:	2b2a      	cmp	r3, #42	; 0x2a
    7ec8:	d13f      	bne.n	7f4a <_vfiprintf_r+0x1ba>
    7eca:	9b05      	ldr	r3, [sp, #20]
    7ecc:	3402      	adds	r4, #2
    7ece:	1d1a      	adds	r2, r3, #4
    7ed0:	681b      	ldr	r3, [r3, #0]
    7ed2:	9205      	str	r2, [sp, #20]
    7ed4:	2b00      	cmp	r3, #0
    7ed6:	db35      	blt.n	7f44 <_vfiprintf_r+0x1b4>
    7ed8:	9307      	str	r3, [sp, #28]
    7eda:	7821      	ldrb	r1, [r4, #0]
    7edc:	2203      	movs	r2, #3
    7ede:	4836      	ldr	r0, [pc, #216]	; (7fb8 <_vfiprintf_r+0x228>)
    7ee0:	f000 fab6 	bl	8450 <memchr>
    7ee4:	2800      	cmp	r0, #0
    7ee6:	d007      	beq.n	7ef8 <_vfiprintf_r+0x168>
    7ee8:	4b33      	ldr	r3, [pc, #204]	; (7fb8 <_vfiprintf_r+0x228>)
    7eea:	682a      	ldr	r2, [r5, #0]
    7eec:	1ac0      	subs	r0, r0, r3
    7eee:	2340      	movs	r3, #64	; 0x40
    7ef0:	4083      	lsls	r3, r0
    7ef2:	4313      	orrs	r3, r2
    7ef4:	602b      	str	r3, [r5, #0]
    7ef6:	3401      	adds	r4, #1
    7ef8:	7821      	ldrb	r1, [r4, #0]
    7efa:	1c63      	adds	r3, r4, #1
    7efc:	2206      	movs	r2, #6
    7efe:	482f      	ldr	r0, [pc, #188]	; (7fbc <_vfiprintf_r+0x22c>)
    7f00:	9302      	str	r3, [sp, #8]
    7f02:	7629      	strb	r1, [r5, #24]
    7f04:	f000 faa4 	bl	8450 <memchr>
    7f08:	2800      	cmp	r0, #0
    7f0a:	d044      	beq.n	7f96 <_vfiprintf_r+0x206>
    7f0c:	4b2c      	ldr	r3, [pc, #176]	; (7fc0 <_vfiprintf_r+0x230>)
    7f0e:	2b00      	cmp	r3, #0
    7f10:	d12f      	bne.n	7f72 <_vfiprintf_r+0x1e2>
    7f12:	6829      	ldr	r1, [r5, #0]
    7f14:	9b05      	ldr	r3, [sp, #20]
    7f16:	2207      	movs	r2, #7
    7f18:	05c9      	lsls	r1, r1, #23
    7f1a:	d528      	bpl.n	7f6e <_vfiprintf_r+0x1de>
    7f1c:	189b      	adds	r3, r3, r2
    7f1e:	4393      	bics	r3, r2
    7f20:	3308      	adds	r3, #8
    7f22:	9305      	str	r3, [sp, #20]
    7f24:	696b      	ldr	r3, [r5, #20]
    7f26:	9a03      	ldr	r2, [sp, #12]
    7f28:	189b      	adds	r3, r3, r2
    7f2a:	616b      	str	r3, [r5, #20]
    7f2c:	e74f      	b.n	7dce <_vfiprintf_r+0x3e>
    7f2e:	425b      	negs	r3, r3
    7f30:	60eb      	str	r3, [r5, #12]
    7f32:	2302      	movs	r3, #2
    7f34:	430b      	orrs	r3, r1
    7f36:	602b      	str	r3, [r5, #0]
    7f38:	e7bf      	b.n	7eba <_vfiprintf_r+0x12a>
    7f3a:	434b      	muls	r3, r1
    7f3c:	3401      	adds	r4, #1
    7f3e:	189b      	adds	r3, r3, r2
    7f40:	2001      	movs	r0, #1
    7f42:	e789      	b.n	7e58 <_vfiprintf_r+0xc8>
    7f44:	2301      	movs	r3, #1
    7f46:	425b      	negs	r3, r3
    7f48:	e7c6      	b.n	7ed8 <_vfiprintf_r+0x148>
    7f4a:	2300      	movs	r3, #0
    7f4c:	0014      	movs	r4, r2
    7f4e:	200a      	movs	r0, #10
    7f50:	001a      	movs	r2, r3
    7f52:	606b      	str	r3, [r5, #4]
    7f54:	7821      	ldrb	r1, [r4, #0]
    7f56:	3930      	subs	r1, #48	; 0x30
    7f58:	2909      	cmp	r1, #9
    7f5a:	d903      	bls.n	7f64 <_vfiprintf_r+0x1d4>
    7f5c:	2b00      	cmp	r3, #0
    7f5e:	d0bc      	beq.n	7eda <_vfiprintf_r+0x14a>
    7f60:	9207      	str	r2, [sp, #28]
    7f62:	e7ba      	b.n	7eda <_vfiprintf_r+0x14a>
    7f64:	4342      	muls	r2, r0
    7f66:	3401      	adds	r4, #1
    7f68:	1852      	adds	r2, r2, r1
    7f6a:	2301      	movs	r3, #1
    7f6c:	e7f2      	b.n	7f54 <_vfiprintf_r+0x1c4>
    7f6e:	3307      	adds	r3, #7
    7f70:	e7d5      	b.n	7f1e <_vfiprintf_r+0x18e>
    7f72:	ab05      	add	r3, sp, #20
    7f74:	9300      	str	r3, [sp, #0]
    7f76:	003a      	movs	r2, r7
    7f78:	4b12      	ldr	r3, [pc, #72]	; (7fc4 <_vfiprintf_r+0x234>)
    7f7a:	0029      	movs	r1, r5
    7f7c:	0030      	movs	r0, r6
    7f7e:	e000      	b.n	7f82 <_vfiprintf_r+0x1f2>
    7f80:	bf00      	nop
    7f82:	9003      	str	r0, [sp, #12]
    7f84:	9b03      	ldr	r3, [sp, #12]
    7f86:	3301      	adds	r3, #1
    7f88:	d1cc      	bne.n	7f24 <_vfiprintf_r+0x194>
    7f8a:	89bb      	ldrh	r3, [r7, #12]
    7f8c:	065b      	lsls	r3, r3, #25
    7f8e:	d500      	bpl.n	7f92 <_vfiprintf_r+0x202>
    7f90:	e77b      	b.n	7e8a <_vfiprintf_r+0xfa>
    7f92:	980b      	ldr	r0, [sp, #44]	; 0x2c
    7f94:	e77b      	b.n	7e8e <_vfiprintf_r+0xfe>
    7f96:	ab05      	add	r3, sp, #20
    7f98:	9300      	str	r3, [sp, #0]
    7f9a:	003a      	movs	r2, r7
    7f9c:	4b09      	ldr	r3, [pc, #36]	; (7fc4 <_vfiprintf_r+0x234>)
    7f9e:	0029      	movs	r1, r5
    7fa0:	0030      	movs	r0, r6
    7fa2:	f000 f87f 	bl	80a4 <_printf_i>
    7fa6:	e7ec      	b.n	7f82 <_vfiprintf_r+0x1f2>
    7fa8:	0000c3e0 	.word	0x0000c3e0
    7fac:	0000c420 	.word	0x0000c420
    7fb0:	0000c400 	.word	0x0000c400
    7fb4:	0000c3c0 	.word	0x0000c3c0
    7fb8:	0000c426 	.word	0x0000c426
    7fbc:	0000c42a 	.word	0x0000c42a
    7fc0:	00000000 	.word	0x00000000
    7fc4:	00007d6b 	.word	0x00007d6b

00007fc8 <_printf_common>:
    7fc8:	b5f7      	push	{r0, r1, r2, r4, r5, r6, r7, lr}
    7fca:	0015      	movs	r5, r2
    7fcc:	9301      	str	r3, [sp, #4]
    7fce:	688a      	ldr	r2, [r1, #8]
    7fd0:	690b      	ldr	r3, [r1, #16]
    7fd2:	9000      	str	r0, [sp, #0]
    7fd4:	000c      	movs	r4, r1
    7fd6:	4293      	cmp	r3, r2
    7fd8:	da00      	bge.n	7fdc <_printf_common+0x14>
    7fda:	0013      	movs	r3, r2
    7fdc:	0022      	movs	r2, r4
    7fde:	602b      	str	r3, [r5, #0]
    7fe0:	3243      	adds	r2, #67	; 0x43
    7fe2:	7812      	ldrb	r2, [r2, #0]
    7fe4:	2a00      	cmp	r2, #0
    7fe6:	d001      	beq.n	7fec <_printf_common+0x24>
    7fe8:	3301      	adds	r3, #1
    7fea:	602b      	str	r3, [r5, #0]
    7fec:	6823      	ldr	r3, [r4, #0]
    7fee:	069b      	lsls	r3, r3, #26
    7ff0:	d502      	bpl.n	7ff8 <_printf_common+0x30>
    7ff2:	682b      	ldr	r3, [r5, #0]
    7ff4:	3302      	adds	r3, #2
    7ff6:	602b      	str	r3, [r5, #0]
    7ff8:	2706      	movs	r7, #6
    7ffa:	6823      	ldr	r3, [r4, #0]
    7ffc:	401f      	ands	r7, r3
    7ffe:	d027      	beq.n	8050 <_printf_common+0x88>
    8000:	0023      	movs	r3, r4
    8002:	3343      	adds	r3, #67	; 0x43
    8004:	781b      	ldrb	r3, [r3, #0]
    8006:	1e5a      	subs	r2, r3, #1
    8008:	4193      	sbcs	r3, r2
    800a:	6822      	ldr	r2, [r4, #0]
    800c:	0692      	lsls	r2, r2, #26
    800e:	d430      	bmi.n	8072 <_printf_common+0xaa>
    8010:	0022      	movs	r2, r4
    8012:	9901      	ldr	r1, [sp, #4]
    8014:	3243      	adds	r2, #67	; 0x43
    8016:	9800      	ldr	r0, [sp, #0]
    8018:	9e08      	ldr	r6, [sp, #32]
    801a:	47b0      	blx	r6
    801c:	1c43      	adds	r3, r0, #1
    801e:	d025      	beq.n	806c <_printf_common+0xa4>
    8020:	2306      	movs	r3, #6
    8022:	6820      	ldr	r0, [r4, #0]
    8024:	682a      	ldr	r2, [r5, #0]
    8026:	68e1      	ldr	r1, [r4, #12]
    8028:	4003      	ands	r3, r0
    802a:	2500      	movs	r5, #0
    802c:	2b04      	cmp	r3, #4
    802e:	d103      	bne.n	8038 <_printf_common+0x70>
    8030:	1a8d      	subs	r5, r1, r2
    8032:	43eb      	mvns	r3, r5
    8034:	17db      	asrs	r3, r3, #31
    8036:	401d      	ands	r5, r3
    8038:	68a3      	ldr	r3, [r4, #8]
    803a:	6922      	ldr	r2, [r4, #16]
    803c:	4293      	cmp	r3, r2
    803e:	dd01      	ble.n	8044 <_printf_common+0x7c>
    8040:	1a9b      	subs	r3, r3, r2
    8042:	18ed      	adds	r5, r5, r3
    8044:	2700      	movs	r7, #0
    8046:	42bd      	cmp	r5, r7
    8048:	d120      	bne.n	808c <_printf_common+0xc4>
    804a:	2000      	movs	r0, #0
    804c:	e010      	b.n	8070 <_printf_common+0xa8>
    804e:	3701      	adds	r7, #1
    8050:	68e3      	ldr	r3, [r4, #12]
    8052:	682a      	ldr	r2, [r5, #0]
    8054:	1a9b      	subs	r3, r3, r2
    8056:	429f      	cmp	r7, r3
    8058:	dad2      	bge.n	8000 <_printf_common+0x38>
    805a:	0022      	movs	r2, r4
    805c:	2301      	movs	r3, #1
    805e:	3219      	adds	r2, #25
    8060:	9901      	ldr	r1, [sp, #4]
    8062:	9800      	ldr	r0, [sp, #0]
    8064:	9e08      	ldr	r6, [sp, #32]
    8066:	47b0      	blx	r6
    8068:	1c43      	adds	r3, r0, #1
    806a:	d1f0      	bne.n	804e <_printf_common+0x86>
    806c:	2001      	movs	r0, #1
    806e:	4240      	negs	r0, r0
    8070:	bdfe      	pop	{r1, r2, r3, r4, r5, r6, r7, pc}
    8072:	2030      	movs	r0, #48	; 0x30
    8074:	18e1      	adds	r1, r4, r3
    8076:	3143      	adds	r1, #67	; 0x43
    8078:	7008      	strb	r0, [r1, #0]
    807a:	0021      	movs	r1, r4
    807c:	1c5a      	adds	r2, r3, #1
    807e:	3145      	adds	r1, #69	; 0x45
    8080:	7809      	ldrb	r1, [r1, #0]
    8082:	18a2      	adds	r2, r4, r2
    8084:	3243      	adds	r2, #67	; 0x43
    8086:	3302      	adds	r3, #2
    8088:	7011      	strb	r1, [r2, #0]
    808a:	e7c1      	b.n	8010 <_printf_common+0x48>
    808c:	0022      	movs	r2, r4
    808e:	2301      	movs	r3, #1
    8090:	321a      	adds	r2, #26
    8092:	9901      	ldr	r1, [sp, #4]
    8094:	9800      	ldr	r0, [sp, #0]
    8096:	9e08      	ldr	r6, [sp, #32]
    8098:	47b0      	blx	r6
    809a:	1c43      	adds	r3, r0, #1
    809c:	d0e6      	beq.n	806c <_printf_common+0xa4>
    809e:	3701      	adds	r7, #1
    80a0:	e7d1      	b.n	8046 <_printf_common+0x7e>
	...

000080a4 <_printf_i>:
    80a4:	b5f0      	push	{r4, r5, r6, r7, lr}
    80a6:	b08b      	sub	sp, #44	; 0x2c
    80a8:	9206      	str	r2, [sp, #24]
    80aa:	000a      	movs	r2, r1
    80ac:	3243      	adds	r2, #67	; 0x43
    80ae:	9307      	str	r3, [sp, #28]
    80b0:	9005      	str	r0, [sp, #20]
    80b2:	9204      	str	r2, [sp, #16]
    80b4:	7e0a      	ldrb	r2, [r1, #24]
    80b6:	000c      	movs	r4, r1
    80b8:	9b10      	ldr	r3, [sp, #64]	; 0x40
    80ba:	2a6e      	cmp	r2, #110	; 0x6e
    80bc:	d100      	bne.n	80c0 <_printf_i+0x1c>
    80be:	e08f      	b.n	81e0 <_printf_i+0x13c>
    80c0:	d817      	bhi.n	80f2 <_printf_i+0x4e>
    80c2:	2a63      	cmp	r2, #99	; 0x63
    80c4:	d02c      	beq.n	8120 <_printf_i+0x7c>
    80c6:	d808      	bhi.n	80da <_printf_i+0x36>
    80c8:	2a00      	cmp	r2, #0
    80ca:	d100      	bne.n	80ce <_printf_i+0x2a>
    80cc:	e099      	b.n	8202 <_printf_i+0x15e>
    80ce:	2a58      	cmp	r2, #88	; 0x58
    80d0:	d054      	beq.n	817c <_printf_i+0xd8>
    80d2:	0026      	movs	r6, r4
    80d4:	3642      	adds	r6, #66	; 0x42
    80d6:	7032      	strb	r2, [r6, #0]
    80d8:	e029      	b.n	812e <_printf_i+0x8a>
    80da:	2a64      	cmp	r2, #100	; 0x64
    80dc:	d001      	beq.n	80e2 <_printf_i+0x3e>
    80de:	2a69      	cmp	r2, #105	; 0x69
    80e0:	d1f7      	bne.n	80d2 <_printf_i+0x2e>
    80e2:	6821      	ldr	r1, [r4, #0]
    80e4:	681a      	ldr	r2, [r3, #0]
    80e6:	0608      	lsls	r0, r1, #24
    80e8:	d523      	bpl.n	8132 <_printf_i+0x8e>
    80ea:	1d11      	adds	r1, r2, #4
    80ec:	6019      	str	r1, [r3, #0]
    80ee:	6815      	ldr	r5, [r2, #0]
    80f0:	e025      	b.n	813e <_printf_i+0x9a>
    80f2:	2a73      	cmp	r2, #115	; 0x73
    80f4:	d100      	bne.n	80f8 <_printf_i+0x54>
    80f6:	e088      	b.n	820a <_printf_i+0x166>
    80f8:	d808      	bhi.n	810c <_printf_i+0x68>
    80fa:	2a6f      	cmp	r2, #111	; 0x6f
    80fc:	d029      	beq.n	8152 <_printf_i+0xae>
    80fe:	2a70      	cmp	r2, #112	; 0x70
    8100:	d1e7      	bne.n	80d2 <_printf_i+0x2e>
    8102:	2220      	movs	r2, #32
    8104:	6809      	ldr	r1, [r1, #0]
    8106:	430a      	orrs	r2, r1
    8108:	6022      	str	r2, [r4, #0]
    810a:	e003      	b.n	8114 <_printf_i+0x70>
    810c:	2a75      	cmp	r2, #117	; 0x75
    810e:	d020      	beq.n	8152 <_printf_i+0xae>
    8110:	2a78      	cmp	r2, #120	; 0x78
    8112:	d1de      	bne.n	80d2 <_printf_i+0x2e>
    8114:	0022      	movs	r2, r4
    8116:	2178      	movs	r1, #120	; 0x78
    8118:	3245      	adds	r2, #69	; 0x45
    811a:	7011      	strb	r1, [r2, #0]
    811c:	4a6c      	ldr	r2, [pc, #432]	; (82d0 <_printf_i+0x22c>)
    811e:	e030      	b.n	8182 <_printf_i+0xde>
    8120:	000e      	movs	r6, r1
    8122:	681a      	ldr	r2, [r3, #0]
    8124:	3642      	adds	r6, #66	; 0x42
    8126:	1d11      	adds	r1, r2, #4
    8128:	6019      	str	r1, [r3, #0]
    812a:	6813      	ldr	r3, [r2, #0]
    812c:	7033      	strb	r3, [r6, #0]
    812e:	2301      	movs	r3, #1
    8130:	e079      	b.n	8226 <_printf_i+0x182>
    8132:	0649      	lsls	r1, r1, #25
    8134:	d5d9      	bpl.n	80ea <_printf_i+0x46>
    8136:	1d11      	adds	r1, r2, #4
    8138:	6019      	str	r1, [r3, #0]
    813a:	2300      	movs	r3, #0
    813c:	5ed5      	ldrsh	r5, [r2, r3]
    813e:	2d00      	cmp	r5, #0
    8140:	da03      	bge.n	814a <_printf_i+0xa6>
    8142:	232d      	movs	r3, #45	; 0x2d
    8144:	9a04      	ldr	r2, [sp, #16]
    8146:	426d      	negs	r5, r5
    8148:	7013      	strb	r3, [r2, #0]
    814a:	4b62      	ldr	r3, [pc, #392]	; (82d4 <_printf_i+0x230>)
    814c:	270a      	movs	r7, #10
    814e:	9303      	str	r3, [sp, #12]
    8150:	e02f      	b.n	81b2 <_printf_i+0x10e>
    8152:	6820      	ldr	r0, [r4, #0]
    8154:	6819      	ldr	r1, [r3, #0]
    8156:	0605      	lsls	r5, r0, #24
    8158:	d503      	bpl.n	8162 <_printf_i+0xbe>
    815a:	1d08      	adds	r0, r1, #4
    815c:	6018      	str	r0, [r3, #0]
    815e:	680d      	ldr	r5, [r1, #0]
    8160:	e005      	b.n	816e <_printf_i+0xca>
    8162:	0640      	lsls	r0, r0, #25
    8164:	d5f9      	bpl.n	815a <_printf_i+0xb6>
    8166:	680d      	ldr	r5, [r1, #0]
    8168:	1d08      	adds	r0, r1, #4
    816a:	6018      	str	r0, [r3, #0]
    816c:	b2ad      	uxth	r5, r5
    816e:	4b59      	ldr	r3, [pc, #356]	; (82d4 <_printf_i+0x230>)
    8170:	2708      	movs	r7, #8
    8172:	9303      	str	r3, [sp, #12]
    8174:	2a6f      	cmp	r2, #111	; 0x6f
    8176:	d018      	beq.n	81aa <_printf_i+0x106>
    8178:	270a      	movs	r7, #10
    817a:	e016      	b.n	81aa <_printf_i+0x106>
    817c:	3145      	adds	r1, #69	; 0x45
    817e:	700a      	strb	r2, [r1, #0]
    8180:	4a54      	ldr	r2, [pc, #336]	; (82d4 <_printf_i+0x230>)
    8182:	9203      	str	r2, [sp, #12]
    8184:	681a      	ldr	r2, [r3, #0]
    8186:	6821      	ldr	r1, [r4, #0]
    8188:	1d10      	adds	r0, r2, #4
    818a:	6018      	str	r0, [r3, #0]
    818c:	6815      	ldr	r5, [r2, #0]
    818e:	0608      	lsls	r0, r1, #24
    8190:	d522      	bpl.n	81d8 <_printf_i+0x134>
    8192:	07cb      	lsls	r3, r1, #31
    8194:	d502      	bpl.n	819c <_printf_i+0xf8>
    8196:	2320      	movs	r3, #32
    8198:	4319      	orrs	r1, r3
    819a:	6021      	str	r1, [r4, #0]
    819c:	2710      	movs	r7, #16
    819e:	2d00      	cmp	r5, #0
    81a0:	d103      	bne.n	81aa <_printf_i+0x106>
    81a2:	2320      	movs	r3, #32
    81a4:	6822      	ldr	r2, [r4, #0]
    81a6:	439a      	bics	r2, r3
    81a8:	6022      	str	r2, [r4, #0]
    81aa:	0023      	movs	r3, r4
    81ac:	2200      	movs	r2, #0
    81ae:	3343      	adds	r3, #67	; 0x43
    81b0:	701a      	strb	r2, [r3, #0]
    81b2:	6863      	ldr	r3, [r4, #4]
    81b4:	60a3      	str	r3, [r4, #8]
    81b6:	2b00      	cmp	r3, #0
    81b8:	db5c      	blt.n	8274 <_printf_i+0x1d0>
    81ba:	2204      	movs	r2, #4
    81bc:	6821      	ldr	r1, [r4, #0]
    81be:	4391      	bics	r1, r2
    81c0:	6021      	str	r1, [r4, #0]
    81c2:	2d00      	cmp	r5, #0
    81c4:	d158      	bne.n	8278 <_printf_i+0x1d4>
    81c6:	9e04      	ldr	r6, [sp, #16]
    81c8:	2b00      	cmp	r3, #0
    81ca:	d064      	beq.n	8296 <_printf_i+0x1f2>
    81cc:	0026      	movs	r6, r4
    81ce:	9b03      	ldr	r3, [sp, #12]
    81d0:	3642      	adds	r6, #66	; 0x42
    81d2:	781b      	ldrb	r3, [r3, #0]
    81d4:	7033      	strb	r3, [r6, #0]
    81d6:	e05e      	b.n	8296 <_printf_i+0x1f2>
    81d8:	0648      	lsls	r0, r1, #25
    81da:	d5da      	bpl.n	8192 <_printf_i+0xee>
    81dc:	b2ad      	uxth	r5, r5
    81de:	e7d8      	b.n	8192 <_printf_i+0xee>
    81e0:	6809      	ldr	r1, [r1, #0]
    81e2:	681a      	ldr	r2, [r3, #0]
    81e4:	0608      	lsls	r0, r1, #24
    81e6:	d505      	bpl.n	81f4 <_printf_i+0x150>
    81e8:	1d11      	adds	r1, r2, #4
    81ea:	6019      	str	r1, [r3, #0]
    81ec:	6813      	ldr	r3, [r2, #0]
    81ee:	6962      	ldr	r2, [r4, #20]
    81f0:	601a      	str	r2, [r3, #0]
    81f2:	e006      	b.n	8202 <_printf_i+0x15e>
    81f4:	0649      	lsls	r1, r1, #25
    81f6:	d5f7      	bpl.n	81e8 <_printf_i+0x144>
    81f8:	1d11      	adds	r1, r2, #4
    81fa:	6019      	str	r1, [r3, #0]
    81fc:	6813      	ldr	r3, [r2, #0]
    81fe:	8aa2      	ldrh	r2, [r4, #20]
    8200:	801a      	strh	r2, [r3, #0]
    8202:	2300      	movs	r3, #0
    8204:	9e04      	ldr	r6, [sp, #16]
    8206:	6123      	str	r3, [r4, #16]
    8208:	e054      	b.n	82b4 <_printf_i+0x210>
    820a:	681a      	ldr	r2, [r3, #0]
    820c:	1d11      	adds	r1, r2, #4
    820e:	6019      	str	r1, [r3, #0]
    8210:	6816      	ldr	r6, [r2, #0]
    8212:	2100      	movs	r1, #0
    8214:	6862      	ldr	r2, [r4, #4]
    8216:	0030      	movs	r0, r6
    8218:	f000 f91a 	bl	8450 <memchr>
    821c:	2800      	cmp	r0, #0
    821e:	d001      	beq.n	8224 <_printf_i+0x180>
    8220:	1b80      	subs	r0, r0, r6
    8222:	6060      	str	r0, [r4, #4]
    8224:	6863      	ldr	r3, [r4, #4]
    8226:	6123      	str	r3, [r4, #16]
    8228:	2300      	movs	r3, #0
    822a:	9a04      	ldr	r2, [sp, #16]
    822c:	7013      	strb	r3, [r2, #0]
    822e:	e041      	b.n	82b4 <_printf_i+0x210>
    8230:	6923      	ldr	r3, [r4, #16]
    8232:	0032      	movs	r2, r6
    8234:	9906      	ldr	r1, [sp, #24]
    8236:	9805      	ldr	r0, [sp, #20]
    8238:	9d07      	ldr	r5, [sp, #28]
    823a:	47a8      	blx	r5
    823c:	1c43      	adds	r3, r0, #1
    823e:	d043      	beq.n	82c8 <_printf_i+0x224>
    8240:	6823      	ldr	r3, [r4, #0]
    8242:	2500      	movs	r5, #0
    8244:	079b      	lsls	r3, r3, #30
    8246:	d40f      	bmi.n	8268 <_printf_i+0x1c4>
    8248:	9b09      	ldr	r3, [sp, #36]	; 0x24
    824a:	68e0      	ldr	r0, [r4, #12]
    824c:	4298      	cmp	r0, r3
    824e:	da3d      	bge.n	82cc <_printf_i+0x228>
    8250:	0018      	movs	r0, r3
    8252:	e03b      	b.n	82cc <_printf_i+0x228>
    8254:	0022      	movs	r2, r4
    8256:	2301      	movs	r3, #1
    8258:	3219      	adds	r2, #25
    825a:	9906      	ldr	r1, [sp, #24]
    825c:	9805      	ldr	r0, [sp, #20]
    825e:	9e07      	ldr	r6, [sp, #28]
    8260:	47b0      	blx	r6
    8262:	1c43      	adds	r3, r0, #1
    8264:	d030      	beq.n	82c8 <_printf_i+0x224>
    8266:	3501      	adds	r5, #1
    8268:	68e3      	ldr	r3, [r4, #12]
    826a:	9a09      	ldr	r2, [sp, #36]	; 0x24
    826c:	1a9b      	subs	r3, r3, r2
    826e:	429d      	cmp	r5, r3
    8270:	dbf0      	blt.n	8254 <_printf_i+0x1b0>
    8272:	e7e9      	b.n	8248 <_printf_i+0x1a4>
    8274:	2d00      	cmp	r5, #0
    8276:	d0a9      	beq.n	81cc <_printf_i+0x128>
    8278:	9e04      	ldr	r6, [sp, #16]
    827a:	0028      	movs	r0, r5
    827c:	0039      	movs	r1, r7
    827e:	f7fe fdaf 	bl	6de0 <__aeabi_uidivmod>
    8282:	9b03      	ldr	r3, [sp, #12]
    8284:	3e01      	subs	r6, #1
    8286:	5c5b      	ldrb	r3, [r3, r1]
    8288:	0028      	movs	r0, r5
    828a:	7033      	strb	r3, [r6, #0]
    828c:	0039      	movs	r1, r7
    828e:	f7fe fd21 	bl	6cd4 <__udivsi3>
    8292:	1e05      	subs	r5, r0, #0
    8294:	d1f1      	bne.n	827a <_printf_i+0x1d6>
    8296:	2f08      	cmp	r7, #8
    8298:	d109      	bne.n	82ae <_printf_i+0x20a>
    829a:	6823      	ldr	r3, [r4, #0]
    829c:	07db      	lsls	r3, r3, #31
    829e:	d506      	bpl.n	82ae <_printf_i+0x20a>
    82a0:	6863      	ldr	r3, [r4, #4]
    82a2:	6922      	ldr	r2, [r4, #16]
    82a4:	4293      	cmp	r3, r2
    82a6:	dc02      	bgt.n	82ae <_printf_i+0x20a>
    82a8:	2330      	movs	r3, #48	; 0x30
    82aa:	3e01      	subs	r6, #1
    82ac:	7033      	strb	r3, [r6, #0]
    82ae:	9b04      	ldr	r3, [sp, #16]
    82b0:	1b9b      	subs	r3, r3, r6
    82b2:	6123      	str	r3, [r4, #16]
    82b4:	9b07      	ldr	r3, [sp, #28]
    82b6:	aa09      	add	r2, sp, #36	; 0x24
    82b8:	9300      	str	r3, [sp, #0]
    82ba:	0021      	movs	r1, r4
    82bc:	9b06      	ldr	r3, [sp, #24]
    82be:	9805      	ldr	r0, [sp, #20]
    82c0:	f7ff fe82 	bl	7fc8 <_printf_common>
    82c4:	1c43      	adds	r3, r0, #1
    82c6:	d1b3      	bne.n	8230 <_printf_i+0x18c>
    82c8:	2001      	movs	r0, #1
    82ca:	4240      	negs	r0, r0
    82cc:	b00b      	add	sp, #44	; 0x2c
    82ce:	bdf0      	pop	{r4, r5, r6, r7, pc}
    82d0:	0000c442 	.word	0x0000c442
    82d4:	0000c431 	.word	0x0000c431

000082d8 <_sbrk_r>:
    82d8:	2300      	movs	r3, #0
    82da:	b570      	push	{r4, r5, r6, lr}
    82dc:	4c06      	ldr	r4, [pc, #24]	; (82f8 <_sbrk_r+0x20>)
    82de:	0005      	movs	r5, r0
    82e0:	0008      	movs	r0, r1
    82e2:	6023      	str	r3, [r4, #0]
    82e4:	f7f9 fc54 	bl	1b90 <_sbrk>
    82e8:	1c43      	adds	r3, r0, #1
    82ea:	d103      	bne.n	82f4 <_sbrk_r+0x1c>
    82ec:	6823      	ldr	r3, [r4, #0]
    82ee:	2b00      	cmp	r3, #0
    82f0:	d000      	beq.n	82f4 <_sbrk_r+0x1c>
    82f2:	602b      	str	r3, [r5, #0]
    82f4:	bd70      	pop	{r4, r5, r6, pc}
    82f6:	46c0      	nop			; (mov r8, r8)
    82f8:	20000ac8 	.word	0x20000ac8

000082fc <__sread>:
    82fc:	b570      	push	{r4, r5, r6, lr}
    82fe:	000c      	movs	r4, r1
    8300:	250e      	movs	r5, #14
    8302:	5f49      	ldrsh	r1, [r1, r5]
    8304:	f000 f8ea 	bl	84dc <_read_r>
    8308:	2800      	cmp	r0, #0
    830a:	db03      	blt.n	8314 <__sread+0x18>
    830c:	6d63      	ldr	r3, [r4, #84]	; 0x54
    830e:	181b      	adds	r3, r3, r0
    8310:	6563      	str	r3, [r4, #84]	; 0x54
    8312:	bd70      	pop	{r4, r5, r6, pc}
    8314:	89a3      	ldrh	r3, [r4, #12]
    8316:	4a02      	ldr	r2, [pc, #8]	; (8320 <__sread+0x24>)
    8318:	4013      	ands	r3, r2
    831a:	81a3      	strh	r3, [r4, #12]
    831c:	e7f9      	b.n	8312 <__sread+0x16>
    831e:	46c0      	nop			; (mov r8, r8)
    8320:	ffffefff 	.word	0xffffefff

00008324 <__swrite>:
    8324:	b5f8      	push	{r3, r4, r5, r6, r7, lr}
    8326:	001f      	movs	r7, r3
    8328:	898b      	ldrh	r3, [r1, #12]
    832a:	0005      	movs	r5, r0
    832c:	000c      	movs	r4, r1
    832e:	0016      	movs	r6, r2
    8330:	05db      	lsls	r3, r3, #23
    8332:	d505      	bpl.n	8340 <__swrite+0x1c>
    8334:	230e      	movs	r3, #14
    8336:	5ec9      	ldrsh	r1, [r1, r3]
    8338:	2200      	movs	r2, #0
    833a:	2302      	movs	r3, #2
    833c:	f000 f874 	bl	8428 <_lseek_r>
    8340:	89a3      	ldrh	r3, [r4, #12]
    8342:	4a05      	ldr	r2, [pc, #20]	; (8358 <__swrite+0x34>)
    8344:	0028      	movs	r0, r5
    8346:	4013      	ands	r3, r2
    8348:	81a3      	strh	r3, [r4, #12]
    834a:	0032      	movs	r2, r6
    834c:	230e      	movs	r3, #14
    834e:	5ee1      	ldrsh	r1, [r4, r3]
    8350:	003b      	movs	r3, r7
    8352:	f000 f81f 	bl	8394 <_write_r>
    8356:	bdf8      	pop	{r3, r4, r5, r6, r7, pc}
    8358:	ffffefff 	.word	0xffffefff

0000835c <__sseek>:
    835c:	b570      	push	{r4, r5, r6, lr}
    835e:	000c      	movs	r4, r1
    8360:	250e      	movs	r5, #14
    8362:	5f49      	ldrsh	r1, [r1, r5]
    8364:	f000 f860 	bl	8428 <_lseek_r>
    8368:	89a3      	ldrh	r3, [r4, #12]
    836a:	1c42      	adds	r2, r0, #1
    836c:	d103      	bne.n	8376 <__sseek+0x1a>
    836e:	4a05      	ldr	r2, [pc, #20]	; (8384 <__sseek+0x28>)
    8370:	4013      	ands	r3, r2
    8372:	81a3      	strh	r3, [r4, #12]
    8374:	bd70      	pop	{r4, r5, r6, pc}
    8376:	2280      	movs	r2, #128	; 0x80
    8378:	0152      	lsls	r2, r2, #5
    837a:	4313      	orrs	r3, r2
    837c:	81a3      	strh	r3, [r4, #12]
    837e:	6560      	str	r0, [r4, #84]	; 0x54
    8380:	e7f8      	b.n	8374 <__sseek+0x18>
    8382:	46c0      	nop			; (mov r8, r8)
    8384:	ffffefff 	.word	0xffffefff

00008388 <__sclose>:
    8388:	b510      	push	{r4, lr}
    838a:	230e      	movs	r3, #14
    838c:	5ec9      	ldrsh	r1, [r1, r3]
    838e:	f000 f815 	bl	83bc <_close_r>
    8392:	bd10      	pop	{r4, pc}

00008394 <_write_r>:
    8394:	b570      	push	{r4, r5, r6, lr}
    8396:	0005      	movs	r5, r0
    8398:	0008      	movs	r0, r1
    839a:	0011      	movs	r1, r2
    839c:	2200      	movs	r2, #0
    839e:	4c06      	ldr	r4, [pc, #24]	; (83b8 <_write_r+0x24>)
    83a0:	6022      	str	r2, [r4, #0]
    83a2:	001a      	movs	r2, r3
    83a4:	f7fd fb4c 	bl	5a40 <_write>
    83a8:	1c43      	adds	r3, r0, #1
    83aa:	d103      	bne.n	83b4 <_write_r+0x20>
    83ac:	6823      	ldr	r3, [r4, #0]
    83ae:	2b00      	cmp	r3, #0
    83b0:	d000      	beq.n	83b4 <_write_r+0x20>
    83b2:	602b      	str	r3, [r5, #0]
    83b4:	bd70      	pop	{r4, r5, r6, pc}
    83b6:	46c0      	nop			; (mov r8, r8)
    83b8:	20000ac8 	.word	0x20000ac8

000083bc <_close_r>:
    83bc:	2300      	movs	r3, #0
    83be:	b570      	push	{r4, r5, r6, lr}
    83c0:	4c06      	ldr	r4, [pc, #24]	; (83dc <_close_r+0x20>)
    83c2:	0005      	movs	r5, r0
    83c4:	0008      	movs	r0, r1
    83c6:	6023      	str	r3, [r4, #0]
    83c8:	f7f9 fbf2 	bl	1bb0 <_close>
    83cc:	1c43      	adds	r3, r0, #1
    83ce:	d103      	bne.n	83d8 <_close_r+0x1c>
    83d0:	6823      	ldr	r3, [r4, #0]
    83d2:	2b00      	cmp	r3, #0
    83d4:	d000      	beq.n	83d8 <_close_r+0x1c>
    83d6:	602b      	str	r3, [r5, #0]
    83d8:	bd70      	pop	{r4, r5, r6, pc}
    83da:	46c0      	nop			; (mov r8, r8)
    83dc:	20000ac8 	.word	0x20000ac8

000083e0 <_fstat_r>:
    83e0:	2300      	movs	r3, #0
    83e2:	b570      	push	{r4, r5, r6, lr}
    83e4:	4c06      	ldr	r4, [pc, #24]	; (8400 <_fstat_r+0x20>)
    83e6:	0005      	movs	r5, r0
    83e8:	0008      	movs	r0, r1
    83ea:	0011      	movs	r1, r2
    83ec:	6023      	str	r3, [r4, #0]
    83ee:	f7f9 fbe2 	bl	1bb6 <_fstat>
    83f2:	1c43      	adds	r3, r0, #1
    83f4:	d103      	bne.n	83fe <_fstat_r+0x1e>
    83f6:	6823      	ldr	r3, [r4, #0]
    83f8:	2b00      	cmp	r3, #0
    83fa:	d000      	beq.n	83fe <_fstat_r+0x1e>
    83fc:	602b      	str	r3, [r5, #0]
    83fe:	bd70      	pop	{r4, r5, r6, pc}
    8400:	20000ac8 	.word	0x20000ac8

00008404 <_isatty_r>:
    8404:	2300      	movs	r3, #0
    8406:	b570      	push	{r4, r5, r6, lr}
    8408:	4c06      	ldr	r4, [pc, #24]	; (8424 <_isatty_r+0x20>)
    840a:	0005      	movs	r5, r0
    840c:	0008      	movs	r0, r1
    840e:	6023      	str	r3, [r4, #0]
    8410:	f7f9 fbd6 	bl	1bc0 <_isatty>
    8414:	1c43      	adds	r3, r0, #1
    8416:	d103      	bne.n	8420 <_isatty_r+0x1c>
    8418:	6823      	ldr	r3, [r4, #0]
    841a:	2b00      	cmp	r3, #0
    841c:	d000      	beq.n	8420 <_isatty_r+0x1c>
    841e:	602b      	str	r3, [r5, #0]
    8420:	bd70      	pop	{r4, r5, r6, pc}
    8422:	46c0      	nop			; (mov r8, r8)
    8424:	20000ac8 	.word	0x20000ac8

00008428 <_lseek_r>:
    8428:	b570      	push	{r4, r5, r6, lr}
    842a:	0005      	movs	r5, r0
    842c:	0008      	movs	r0, r1
    842e:	0011      	movs	r1, r2
    8430:	2200      	movs	r2, #0
    8432:	4c06      	ldr	r4, [pc, #24]	; (844c <_lseek_r+0x24>)
    8434:	6022      	str	r2, [r4, #0]
    8436:	001a      	movs	r2, r3
    8438:	f7f9 fbc4 	bl	1bc4 <_lseek>
    843c:	1c43      	adds	r3, r0, #1
    843e:	d103      	bne.n	8448 <_lseek_r+0x20>
    8440:	6823      	ldr	r3, [r4, #0]
    8442:	2b00      	cmp	r3, #0
    8444:	d000      	beq.n	8448 <_lseek_r+0x20>
    8446:	602b      	str	r3, [r5, #0]
    8448:	bd70      	pop	{r4, r5, r6, pc}
    844a:	46c0      	nop			; (mov r8, r8)
    844c:	20000ac8 	.word	0x20000ac8

00008450 <memchr>:
    8450:	b2c9      	uxtb	r1, r1
    8452:	1882      	adds	r2, r0, r2
    8454:	4290      	cmp	r0, r2
    8456:	d101      	bne.n	845c <memchr+0xc>
    8458:	2000      	movs	r0, #0
    845a:	4770      	bx	lr
    845c:	7803      	ldrb	r3, [r0, #0]
    845e:	428b      	cmp	r3, r1
    8460:	d0fb      	beq.n	845a <memchr+0xa>
    8462:	3001      	adds	r0, #1
    8464:	e7f6      	b.n	8454 <memchr+0x4>

00008466 <memmove>:
    8466:	b510      	push	{r4, lr}
    8468:	4288      	cmp	r0, r1
    846a:	d902      	bls.n	8472 <memmove+0xc>
    846c:	188b      	adds	r3, r1, r2
    846e:	4298      	cmp	r0, r3
    8470:	d308      	bcc.n	8484 <memmove+0x1e>
    8472:	2300      	movs	r3, #0
    8474:	429a      	cmp	r2, r3
    8476:	d007      	beq.n	8488 <memmove+0x22>
    8478:	5ccc      	ldrb	r4, [r1, r3]
    847a:	54c4      	strb	r4, [r0, r3]
    847c:	3301      	adds	r3, #1
    847e:	e7f9      	b.n	8474 <memmove+0xe>
    8480:	5c8b      	ldrb	r3, [r1, r2]
    8482:	5483      	strb	r3, [r0, r2]
    8484:	3a01      	subs	r2, #1
    8486:	d2fb      	bcs.n	8480 <memmove+0x1a>
    8488:	bd10      	pop	{r4, pc}

0000848a <__malloc_lock>:
    848a:	4770      	bx	lr

0000848c <__malloc_unlock>:
    848c:	4770      	bx	lr

0000848e <_realloc_r>:
    848e:	b5f8      	push	{r3, r4, r5, r6, r7, lr}
    8490:	0007      	movs	r7, r0
    8492:	000d      	movs	r5, r1
    8494:	0016      	movs	r6, r2
    8496:	2900      	cmp	r1, #0
    8498:	d105      	bne.n	84a6 <_realloc_r+0x18>
    849a:	0011      	movs	r1, r2
    849c:	f7ff fa8c 	bl	79b8 <_malloc_r>
    84a0:	0004      	movs	r4, r0
    84a2:	0020      	movs	r0, r4
    84a4:	bdf8      	pop	{r3, r4, r5, r6, r7, pc}
    84a6:	2a00      	cmp	r2, #0
    84a8:	d103      	bne.n	84b2 <_realloc_r+0x24>
    84aa:	f7ff fa3b 	bl	7924 <_free_r>
    84ae:	0034      	movs	r4, r6
    84b0:	e7f7      	b.n	84a2 <_realloc_r+0x14>
    84b2:	f000 f827 	bl	8504 <_malloc_usable_size_r>
    84b6:	002c      	movs	r4, r5
    84b8:	4286      	cmp	r6, r0
    84ba:	d9f2      	bls.n	84a2 <_realloc_r+0x14>
    84bc:	0031      	movs	r1, r6
    84be:	0038      	movs	r0, r7
    84c0:	f7ff fa7a 	bl	79b8 <_malloc_r>
    84c4:	1e04      	subs	r4, r0, #0
    84c6:	d0ec      	beq.n	84a2 <_realloc_r+0x14>
    84c8:	0029      	movs	r1, r5
    84ca:	0032      	movs	r2, r6
    84cc:	f7fe fdd5 	bl	707a <memcpy>
    84d0:	0029      	movs	r1, r5
    84d2:	0038      	movs	r0, r7
    84d4:	f7ff fa26 	bl	7924 <_free_r>
    84d8:	e7e3      	b.n	84a2 <_realloc_r+0x14>
	...

000084dc <_read_r>:
    84dc:	b570      	push	{r4, r5, r6, lr}
    84de:	0005      	movs	r5, r0
    84e0:	0008      	movs	r0, r1
    84e2:	0011      	movs	r1, r2
    84e4:	2200      	movs	r2, #0
    84e6:	4c06      	ldr	r4, [pc, #24]	; (8500 <_read_r+0x24>)
    84e8:	6022      	str	r2, [r4, #0]
    84ea:	001a      	movs	r2, r3
    84ec:	f7fd fa98 	bl	5a20 <_read>
    84f0:	1c43      	adds	r3, r0, #1
    84f2:	d103      	bne.n	84fc <_read_r+0x20>
    84f4:	6823      	ldr	r3, [r4, #0]
    84f6:	2b00      	cmp	r3, #0
    84f8:	d000      	beq.n	84fc <_read_r+0x20>
    84fa:	602b      	str	r3, [r5, #0]
    84fc:	bd70      	pop	{r4, r5, r6, pc}
    84fe:	46c0      	nop			; (mov r8, r8)
    8500:	20000ac8 	.word	0x20000ac8

00008504 <_malloc_usable_size_r>:
    8504:	1f0b      	subs	r3, r1, #4
    8506:	681b      	ldr	r3, [r3, #0]
    8508:	1f18      	subs	r0, r3, #4
    850a:	2b00      	cmp	r3, #0
    850c:	da01      	bge.n	8512 <_malloc_usable_size_r+0xe>
    850e:	580b      	ldr	r3, [r1, r0]
    8510:	18c0      	adds	r0, r0, r3
    8512:	4770      	bx	lr
    8514:	65620a0d 	.word	0x65620a0d
    8518:	65726f66 	.word	0x65726f66
    851c:	6d6f6320 	.word	0x6d6f6320
    8520:	69736f70 	.word	0x69736f70
    8524:	64206574 	.word	0x64206574
    8528:	63697665 	.word	0x63697665
    852c:	74732065 	.word	0x74732065
    8530:	0d747261 	.word	0x0d747261
    8534:	00000000 	.word	0x00000000

00008538 <_adcs>:
    8538:	03000200 00000000 00000000 00001801     ................
	...

00008554 <_map>:
    8554:	00000000 00000020 00000001 00000021     .... .......!...
    8564:	00000002 00000022 00000003 00000023     ....".......#...
    8574:	00000004 00000004 00000005 00000005     ................
    8584:	00000006 00000006 00000007 00000007     ................
    8594:	00000008 00000028 00000009 00000029     ....(.......)...
    85a4:	0000000a 0000002a 0000000b 0000002b     ....*.......+...
    85b4:	0000000c 0000002c 0000000d 0000002d     ....,.......-...
    85c4:	0000000e 0000002e 0000000f 0000002f     ............/...

000085d4 <_i2cms>:
    85d4:	00000003 00200014 00000100 00000022     ...... ....."...
    85e4:	00d70000 007a1200                       ......z.

000085ec <_usarts>:
    85ec:	00000001 40100004 00030000 0000c504     .......@........
    85fc:	00000000 00000005 40310004 00030000     ..........1@....
    860c:	0000c504 00000000                       ........

00008614 <_usb_ep_cfgs>:
    8614:	200006fc 00000000 00000040 00000000     ... ....@.......
	...
    862c:	200006f4 00000000 00000008 200006b4     ... ........... 
    863c:	00000000 00000040 00000000 00000000     ....@...........
	...

0000865c <error_beep_sound_data>:
    865c:	02a9022d 030b02bb 027d02ca 02a6028e     -.........}.....
    866c:	031d02c7 031c0306 02e9031a 03700331     ............1.p.
    867c:	03f103d0 036003ce 02ad02c5 037802e4     ......`.......x.
    868c:	03c803ea 02d30379 0214023f 02e00258     ....y...?...X...
    869c:	02cd0318 02340237 029402a5 01d9022e     ....7.4.........
    86ac:	026901d8 022e02d9 015c013c 02360207     ..i.....<.\...6.
    86bc:	018901ef 01a2014e 016301e2 010000ef     ....N.....c.....
    86cc:	01e4017c 016401d7 004900b0 005d001d     |.....d...I...].
    86dc:	014c0100 00e00155 002b0052 0098003b     ..L.U...R.+.;...
    86ec:	012000de 00f60120 010a0124 01770140     .. . ...$...@.w.
    86fc:	019e0183 0142017e 01a3016a 025001c1     ....~.B.j.....P.
    870c:	02a20260 027602b8 02810262 02ce028d     `.....v.b.......
    871c:	02df02f4 02d7030a 032e02e9 03cf0379     ............y...
    872c:	039703ce 02a10300 031702bb 03d903b8     ................
    873c:	032a039f 021c027a 029a0225 02ff0307     ..*.z...%.......
    874c:	0218027d 02ae026f 01ff0261 021101c7     }...o...a.......
    875c:	02a502b7 012a01a2 023301b7 01be021a     ......*...3.....
    876c:	016a0161 01b501da 00ec011d 01be0139     a.j.........9...
    877c:	01ad01ec 0076010e 002c0036 013500b4     ......v.6.,...5.
    878c:	012f015b 003a0090 0067002d 00ff00c4     [./...:.-.g.....
    879c:	01010133 011f010f 016a0115 01960179     3.........j.y...
    87ac:	015f0196 01970144 020b01a2 02730265     .._.D.......e.s.
    87bc:	029502c1 026d0264 02a00289 02de02f2     ....d.m.........
    87cc:	02f802f6 030d02cd 03a9034a 03ba03d5     ........J.......
    87dc:	02bc0353 02db02a6 03dd0368 037103be     S.......h.....q.
    87ec:	023d02cf 02550213 031302db 023502ca     ..=...U.......5.
    87fc:	02a20232 022d0292 01d701d9 02d60267     2.....-.....g...
    880c:	013e022f 0208015e 01ef0236 0151018c     /.>.^...6.....Q.
    881c:	01e501a4 00f30167 017e0105 01d901e5     ....g.....~.....
    882c:	00b70168 00240051 01040060 0157014f     h...Q.$.`...O.W.
    883c:	005600e4 003d0030 00e1009b 01230122     ..V.0.=.....".#.
    884c:	012600f7 0140010c 01830179 018001a0     ..&...@.y.......
    885c:	016a0143 01c001a5 02600250 02b802a0     C.j.....P.`.....
    886c:	02610275 028c027f 02f402cb 030902db     u.a.............
    887c:	02e602d6 0375032c 03cc03cc 03000396     ....,.u.........
    888c:	02ba029f 03b60314 039d03d8 0279032a     ............*.y.
    889c:	0224021b 03070299 027d02ff 026e0216     ..$.......}...n.
    88ac:	026102af 01c701fe 02b70210 01a302a8     ..a.............
    88bc:	01b70127 021b0235 016101bf 01da0169     '...5.....a.i...
    88cc:	011d01b7 013900ec 01ed01bf 010f01ae     ......9.........
    88dc:	00370077 00b3002c 015c0137 00910131     w.7.,...7.\.1...
    88ec:	002e003a 00c50066 013500ff 010d0102     :...f.....5.....
    88fc:	01140121 017a016b 01980196 0143015f     !...k.z....._.C.
    890c:	01a30197 02670209 02c20270 02630295     ......g.p.....c.
    891c:	0289026d 02f2029f 02f402df 02cb02f9     m...............
    892c:	0349030d 03d603a8 035503b9 02a402ba     ..I.......U.....
    893c:	036602da 03bd03de 02d00371 0212023b     ..f.....q...;...
    894c:	02db0253 02cb0314 022f0235 029302a3     S.......5./.....
    895c:	01d9022d 026501d6 023202d8 015b013c     -.....e...2.<.[.
    896c:	02380209 018c01f0 01a20150 016801e7     ..8.....P.....h.
    897c:	010400f2 01e7017d 016a01da 005100b7     ....}.....j...Q.
    898c:	005e0025 01500105 00e70158 00300055     %.^...P.X...U.0.
    899c:	009b003d 012100e2 00f50126 010d0127     =.....!.&...'...
    89ac:	017c013e 01a10182 01430180 01a80168     >.|.......C.h...
    89bc:	025101bd 029e0261 027402bb 027f0260     ..Q.a.....t.`...
    89cc:	02c9028d 02da02f6 02d70309 032d02e3     ..............-.
    89dc:	03cd0374 039603cc 029c0301 031202ba     t...............
    89ec:	03da03b6 032c039d 021a0279 02970223     ......,.y...#...
    89fc:	03010308 0213027f 02b1026c 01fe0262     ........l...b...
    8a0c:	020d01c6 02ac02b7 012301a4 023601b5     ..........#...6.
    8a1c:	01bf021c 01660161 01bb01db 00ea011d     ....a.f.........
    8a2c:	01bf0137 01af01ef 00760111 002b0037     7.........v.7.+.
    8a3c:	013900b1 0133015c 00390092 0064002e     ..9.\.3...9...d.
    8a4c:	00fe00c6 01040135 0124010b 016b0112     ....5.....$...k.
    8a5c:	0195017b 01600199 01960141 020501a5     {.....`.A.......
    8a6c:	026e026b 029702c3 026c0262 029e028a     k.n.....b.l.....
    8a7c:	02e102f2 02fc02f1 030c02c8 03a70349     ............I...
    8a8c:	03b903d7 02ba0357 02da02a2 03e00364     ....W.......d...
    8a9c:	037203be 023a02d2 02510211 031602db     ..r...:...Q.....
    8aac:	023502cd 02a4022b 022d0296 01d401d9     ..5.+.....-.....
    8abc:	02db0263 013a0238 02090156 01f1023a     c...8.:.V...:...
    8acc:	014f018d 01ea019f 00f0016b 017c0102     ..O.....k.....|.
    8adc:	01db01e8 00b8016c 0026004f 0104005b     ....l...O.&.[...
    8aec:	01590152 005400ea 003c002f 00e30099     R.Y...T./.<.....
    8afc:	01290120 012600f4 013a010f 0181017e      .)...&...:.~...
    8b0c:	018201a1 01650143 01bb01aa 02640250     ....C.e.....P.d.
    8b1c:	02bf029a 025f0273 028d027e 02f902c6     ....s._.~.......
    8b2c:	030902d8 02e002d9 0372032e 03cd03cd     ..........r.....
    8b3c:	03030397 02b9029a 03b40310 039c03de     ................
    8b4c:	0279032f 02220218 03090295 02810303     /.y...".........
    8b5c:	02690211 026302b5 01c501fe 02b6020a     ..i...c.........
    8b6c:	01a702b2 01b2011d 021e0239 016201c0     ........9.....b.
    8b7c:	01da0163 011d01c0 013500e8 01f101be     c.........5.....
    8b8c:	011401b1 00370075 00ad002a 015c013b     ....u.7.*...;.\.
    8b9c:	00940136 002e0036 00c70062 013600fe     6...6...b.....6.
    8bac:	01070106 01100127 017d016a 019b0193     ....'...j.}.....
    8bbc:	01400161 01a80194 026f01ff 02c2026c     a.@.......o.l...
    8bcc:	025f029b 028a026b 02f0029d 02ed02e4     .._.k...........
    8bdc:	02c70300 034a0309 03d903a4 035a03b9     ......J.......Z.
    8bec:	029f02ba 036002da 03c003e2 02d60372     ......`.....r...
    8bfc:	02100238 02da024e 02cf0318 02250236     8...N.......6.%.
    8c0c:	029a02a3 01d9022d 025f01d1 023f02de     ....-....._...?.
    8c1c:	014f0138 023e0209 018e01f2 019b014d     8.O...>.....M...
    8c2c:	017001ee 010000ee 01ea017a 016f01de     ..p.....z.....o.
    8c3c:	004e00bb 00570027 01540103 00ef0159     ..N.'.W...T.Y...
    8c4c:	002e0053 0097003c 011e00e5 00f3012c     S...<.......,...
    8c5c:	01130124 01810135 01a10181 01430184     $...5.........C.
    8c6c:	01ac0161 024c01ba 0294026a 027402c3     a.....L.j.....t.
    8c7c:	027e025d 02c3028e 02d802fb 02de0307     ].~.............
    8c8c:	032e02da 03cd0370 039703d0 02960307     ....p...........
    8c9c:	030e02b7 03e203b1 0331039c 0216027c     ..........1.|...
    8cac:	02910220 0305030a 020f0284 02b80263      ...........c...
    8cbc:	01fe0266 020501c5 02ba02b4 011601ad     f...............
    8ccc:	023c01ad 01c10221 01600162 01c701d8     ..<.!...b.`.....
    8cdc:	00e4011e 01bd0133 01b401f4 00750118     ....3.........u.
    8cec:	002a0036 013e00a8 0139015d 00330099     6.*...>.].9...3.
    8cfc:	0060002f 00ff00c6 010b0135 01290102     /.`.....5.....).
    8d0c:	01660110 01900182 0163019d 0191013e     ..f.......c.>...
    8d1c:	01f801ac 026c0272 02a102be 026a025d     ....r.l.....].j.
    8d2c:	029c028a 02e902ed 030302e9 030402c7     ................
    8d3c:	03a1034c 03bb03dc 02bc035c 02d9029a     L.......\.......
    8d4c:	03e3035b 037103c4 023802da 024c020d     [.....q...8...L.
    8d5c:	031b02d7 023802d3 02a1021f 022e02a0     ......8.........
    8d6c:	01cf01d9 02e10259 0138024a 02080145     ....Y...J.8.E...
    8d7c:	01f40243 014d018f 01f00196 00eb0177     C.....M.....w...
    8d8c:	017700fd 01e201ea 00be0172 0027004c     ..w.....r...L.'.
    8d9c:	00ff0053 01590159 005400f5 003c002b     S...Y.Y...T.+.<.
    8dac:	00e60093 012e011d 012000f4 01300118     .......... ...0.
    8dbc:	01820182 0188019f 015c0144 01ba01ad     ........D.\.....
    8dcc:	02710245 02c6028e 02590278 028f027d     E.q.....x.Y.}...
    8ddc:	02fd02c0 030202da 02d502e3 0370032c     ............,.p.
    8dec:	03d303ca 030c0398 02b30294 03ad030d     ................
    8dfc:	039e03e7 02800333 021e0212 030a028d     ....3...........
    8e0c:	0289030a 025b020d 026c02bc 01c401fd     ......[...l.....
    8e1c:	02b00200 01b702c3 01a3010e 02260240     ............@.&.
    8e2c:	016301c2 01d4015c 012301d0 013000df     ..c.\.....#...0.
    8e3c:	01f801bb 011d01b7 00340076 00a1002a     ........v.4.*...
    8e4c:	0161013e 009f013a 002e0030 00c4005e     >.a.:...0...^...
    8e5c:	01340101 00fe0110 0112012a 0186015f     ..4.....*..._...
    8e6c:	019e018e 013c0166 01b0018c 027201f1     ....f.<.......r.
    8e7c:	02b70270 025c02a9 028b0266 02e9029c     p.....\.f.......
    8e8c:	02e502ee 02cb0303 034d02fd 03dc039e     ..........M.....
    8e9c:	035f03be 029302c0 035702d7 03cb03e3     .._.......W.....
    8eac:	02df0371 02090239 02d30248 02d8031e     q...9...H.......
    8ebc:	0218023c 02a9029c 01d70231 025101cd     <.......1.....Q.
    8ecc:	025902e2 0137013b 024a0204 018f01f8     ..Y.;.7...J.....
    8edc:	018f014c 018201f2 00f600e9 01eb0174     L...........t...
    8eec:	017601e7 004a00c2 004f0027 015e00f9     ..v...J.'.O...^.
    8efc:	00fa015b 00260057 0090003c 011d00e7     [...W.&.<.......
    8f0c:	00f70130 011e011a 0180012c 019c0186     0.......,.......
    8f1c:	0146018b 01ac0156 023c01bd 028b0278     ..F.V.....<.x...
    8f2c:	027f02c5 027a0255 02bc0291 02de02fc     ....U.z.........
    8f3c:	02e902fc 032702d2 03c70371 039b03d7     ......'.q.......
    8f4c:	02930311 030b02ac 03ec03a7 033503a2     ..............5.
    8f5c:	020f0286 02880219 030f0309 020c028e     ................
    8f6c:	02be0250 01fd0275 01fa01c3 02cd02a9     P...u...........
    8f7c:	010701c6 02440195 01c3022f 01580164     ......D./...d.X.
    8f8c:	01d901cd 00d8012b 01b9012a 01bd01fb     ....+...*.......
    8f9c:	00780122 00290031 013d0099 013d0167     ".x.1.)...=.g.=.
    8fac:	002e00a7 005d002a 010200c1 01150133     ....*.].....3...
    8fbc:	012800fc 01580117 018f018a 016b019d     ..(...X.......k.
    8fcc:	0185013b 01ed01b5 0277026e 02ae02b0     ;.......n.w.....
    8fdc:	0260025f 029d028b 02f302e4 030102e4     _.`.............
    8fec:	02f502d0 039c034b 03c203dc 02c40363     ....K.......c...
    8ffc:	02d2028d 03e00353 037303d3 023c02e4     ....S.....s...<.
    900c:	02430204 032102ce 024002e0 02940210     ..C...!...@.....
    901c:	023802b2 01c901d5 02e10249 0143026b     ..8.....I...k.C.
    902c:	01fb0125 01fe0254 014c0190 01f10188     %...T.....L.....
    903c:	00eb0190 016e00ec 01ed01eb 00c8017c     ......n.....|...
    904c:	00250048 00f0004c 015f0161 005d0100     H.%.L...a._...].
    905c:	003a0021 00e7008d 0132011e 011300fc     !.:.......2.....
    906c:	012b0121 018b017b 018e019a 0151014a     !.+.{.......J.Q.
    907c:	01c101a9 027b0232 02c1028c 02530287     ....2.{.......S.
    908c:	02930275 02fa02b9 02f702e4 02d202ec     u...............
    909c:	0370031f 03da03c4 0317039f 02a30293     ..p.............
    90ac:	03a20307 03aa03f0 028c0336 0212020e     ........6.......
    90bc:	03070282 02970316 0243020c 028202bc     ..........C.....
    90cc:	01bf01ff 02a101f4 01db02d5 017f0102     ................
    90dc:	023c0244 016301c7 01c50154 013801e1     D.<...c.T.....8.
    90ec:	011f00d2 020001b5 012901c4 002e007c     ..........).|...
    90fc:	00920028 016e0138 00af0142 0025002e     (...8.n.B.....%.
    910c:	00be005b 01330104 00fc011a 011b0123     [.....3.....#...
    911c:	018a0152 019c0192 013c0170 01b7017c     R.......p.<.|...
    912c:	026601ec 02ac027e 026502b1 0287025a     ..f.~.....e.Z...
    913c:	02df029f 02e502f5 02d502fd 034602ef     ..............F.
    914c:	03d9039b 036203c2 028402c6 034202c4     ......b.......B.
    915c:	03c703ca 02dc0366 01fe023d 02ba0237     ....f...=...7...
    916c:	02d6030c 02080241 02a60279 01d8023c     ....A...y...<...
    917c:	023701ca 026e02c1 0134016b 025001ec     ..7...n.k.4...P.
    918c:	01a2020a 01960168 01b101f1 01180125     ....h.......%...
    919c:	01f00183 019f01f7 00aa0111 00af008e     ................
    91ac:	01890129 0145018d 009b00ce 00ef00b0     ).....E.........
    91bc:	015e0134 014c016e 01650156 01a0016d     4.^.n.L.V.e.m...
    91cc:	01bb01b3 018a01b4 01c20188 021b01da     ................
    91dc:	025b024f 02590277 02430234 0270025a     O.[.w.Y.4.C.Z.p.
    91ec:	028b0294 028b0290 02a0027b 02ff02d1     ........{.......
    91fc:	02ea030c 0251029e 02890253 030702db     ......Q.S.......
    920c:	02a302e4 0207024b 023c0205 028b0280     ....K.....<.....
    921c:	0207024e 02550219 02030243 01f601e0     N.....U.C.......
    922c:	02600242 019401fb 021801bd 01ec0220     B.`......... ...
    923c:	01b901c0 01f601e5 018d01ba 01e201a6     ................
    924c:	01ee0201 017a01b7 015f015f 01bc0183     ......z._._.....
    925c:	01c601d2 01710199 0181016d 01b701a0     ......q.m.......
    926c:	01c101c6 01c301b9 01d201c5 01e501e1     ................
    927c:	01de01e7 01df01d3 01fb01ef 021b0214     ................
    928c:	02230222 02100214 021c0217 02290225     ".#.........%.).
    929c:	02270225 02220220 0237022d 023a023e     %.'. .".-.7.>.:.
    92ac:	0218022c 0214020e 022d0221 0221022c     ,.......!.-.,.!.
    92bc:	02050213 020201ff 020f020c 0203020c     ................
    92cc:	02030200 02010206 01fd0200 01fe0201     ................
    92dc:	0262020c 029b0269 029a02d1 0265027a     ..b.i.......z.e.
    92ec:	02970281 02f5029f 02e902fb 03030312     ................
    92fc:	02f102e5 03670331 03ee03b2 03c203e6     ....1.g.........
    930c:	02dc0362 02c102ad 037f02fc 03ec03e6     b...............
    931c:	036a03bd 025a02e5 021e0220 02e0026d     ..j...Z. ...m...
    932c:	030c0318 0232029e 028d022e 027e02b2     ......2.......~.
    933c:	01e30226 020d01c7 02d6029c 01780261     &...........a.x.
    934c:	017c0128 02390209 01c80211 014c0172     (.|...9.....r.L.
    935c:	01db0183 014801be 00ed00e7 01a70132     ......H.....2...
    936c:	01d801e6 00fc0190 00350080 0029000f     ..........5...).
    937c:	0117009d 01510146 0087010f 00190035     ....F.Q.....5...
    938c:	0065001e 00e000aa 011a0119 00f700fa     ..e.............
    939c:	0104011e 016d011b 0189016a 0182019a     ......m.j.......
    93ac:	0132015c 019b0174 020c01a7 02670262     \.2.t.......b.g.
    93bc:	02cd029a 02770297 027f0264 029c0296     ......w.d.......
    93cc:	02f602f3 030e02e5 02e102ff 032d02ee     ..............-.
    93dc:	03ac0362 03e103e9 035d03be 02ab02d8     b.........].....
    93ec:	02fc02c0 03e3037e 03ba03e9 02e10366     ....~.......f...
    93fc:	02200257 026e021f 031702e0 029b030a     W. ...n.........
    940c:	022e0230 02b1028e 0224027c 01c701e2     0.......|.$.....
    941c:	029d020f 025d02d5 01290175 020b017e     ......].u.).~...
    942c:	02100239 017201c7 0185014c 01be01dd     9.....r.L.......
    943c:	00e70147 013400ef 01e701aa 018f01d8     G.....4.........
    944c:	008000fb 00110036 00a0002b 01470119     ....6...+.....G.
    945c:	010f0152 00350085 001f001a 00ac0067     R.....5.....g...
    946c:	011b00e1 00fa011b 011f00f7 011c0104     ................
    947c:	016a016f 019a0189 015c0182 01760132     o.j.......\.2.v.
    948c:	01a8019c 0263020d 029b0267 029602ce     ......c.g.......
    949c:	02640277 0296027f 02f3029c 02e402f6     w.d.............
    94ac:	02fe030e 02ee02e0 0362032d 03e903ad     ........-.b.....
    94bc:	03bc03e0 02d6035b 02c002aa 038002fc     ....[...........
    94cc:	03e803e4 036403b8 025502de 021f021f     ......d...U.....
    94dc:	02e2026f 03090318 022e0299 0290022e     o...............
    94ec:	027b02b2 01e10223 021001c7 02d5029f     ..{.#...........
    94fc:	0172025b 01800128 023a020d 01c6020f     [.r.(.....:.....
    950c:	014c0170 01de0186 014501bd 00f000e6     p.L.......E.....
    951c:	01ac0136 01d701e8 00f9018d 0035007e     6...........~.5.
    952c:	002c0011 011b00a3 01520148 0083010e     ..,.....H.R.....
    953c:	001a0034 00680020 00e200ad 011b011c     4... .h.........
    954c:	00f700fa 0104011f 0170011d 018a016a     ..........p.j...
    955c:	0182019b 0132015b 019c0177 020f01a8     ....[.2.w.......
    956c:	02670264 02ce029c 02760295 027f0263     d.g.......v.c...
    957c:	029c0296 02f602f5 030f02e4 02e002fe     ................
    958c:	032e02ee 03ae0363 03e003e9 035903bb     ....c.........Y.
    959c:	02aa02d4 02fd02c0 03e50382 03b703e8     ................
    95ac:	02dc0363 021e0253 0271021f 031802e4     c...S.....q.....
    95bc:	02970309 022e022d 02b20291 0222027a     ....-.......z.".
    95cc:	01c701e0 02a20211 025902d6 0127016e     ..........Y.n.'.
    95dc:	020f0182 020e023a 016f01c5 0187014c     ....:.....o.L...
    95ec:	01bc01df 00e50143 013700f0 01e901ad     ....C.....7.....
    95fc:	018c01d7 007d00f7 00110034 00a5002d     ......}.4...-...
    960c:	0148011d 010d0152 00330081 0020001a     ..H.R.....3... .
    961c:	00ae0069 011d00e3 00f9011b 012000f7     i............. .
    962c:	011d0104 016a0171 019b018a 015b0181     ....q.j.......[.
    963c:	01780131 01a8019d 02660211 029c0267     1.x.......f.g...
    964c:	029402cf 02630275 0297027f 02f6029c     ....u.c.........
    965c:	02e302f6 02fd030f 02ee02df 0364032f     ............/.d.
    966c:	03ea03ae 03bb03e0 02d20358 02c102a9     ........X.......
    967c:	038302fe 03e803e7 036103b6 025102da     ..........a...Q.
    968c:	021f021d 02e60271 03090319 022b0296     ....q.........+.
    969c:	0292022e 027902b3 01df0221 021201c6     ......y.!.......
    96ac:	02d602a4 016b0257 01830126 023b0211     ....W.k.&.....;.
    96bc:	01c4020d 014c016e 01e10187 014101bc     ....n.L.......A.
    96cc:	00f000e4 01af0138 01d601ea 00f5018b     ....8...........
    96dc:	0034007b 002d0010 011f00a6 01520149     {.4...-.....I.R.
    96ec:	0080010c 001a0032 006a0020 00e400b0     ....2... .j.....
    96fc:	011b011d 00f700f9 01040120 0173011d     ........ .....s.
    970c:	018a016a 0180019c 0131015b 019f0178     j.......[.1.x...
    971c:	021201a8 02670267 02d0029c 02740293     ....g.g.......t.
    972c:	027f0264 029c0298 02f702f6 031002e2     d...............
    973c:	02df02fd 033002ef 03af0365 03df03eb     ......0.e.......
    974c:	035703ba 02a802d0 02ff02c1 03e80385     ..W.............
    975c:	03b603e8 02d90360 021c024f 02720220     ....`...O... .r.
    976c:	031a02e7 02950308 022e022a 02b40293     ........*.......
    977c:	02200278 01c601de 02a60213 025602d7     x. ...........V.
    978c:	01240168 02120185 020c023d 016d01c3     h.$.....=.....m.
    979c:	0188014b 01bc01e2 00e20140 013900f0     K.......@.....9.
    97ac:	01eb01b0 018b01d6 007900f3 00100033     ..........y.3...
    97bc:	00a7002d 014a0121 010c0151 0030007e     -...!.J.Q...~.0.
    97cc:	0020001a 00b1006b 011e00e4 00f8011b     .. .k...........
    97dc:	012000f7 011c0104 016b0174 019d0189     .. .....t.k.....
    97ec:	015a0180 01780130 01a701a0 02690213     ..Z.0.x.......i.
    97fc:	029c0267 029302d2 02640273 0299027f     g.......s.d.....
    980c:	02f7029c 02e102f8 02fe0310 02ef02de     ................
    981c:	03660330 03ec03af 03b903df 02ce0356     0.f.........V...
    982c:	02c202a7 038602ff 03e803ea 035f03b5     .............._.
    983c:	024d02d7 0220021b 02e90272 0308031a     ..M... .r.......
    984c:	02280294 0294022e 027702b5 01dd021f     ..(.......w.....
    985c:	021301c6 02d802a7 01660256 01860122     ........V.f."...
    986c:	023e0214 01c2020c 014a016c 01e30188     ..>.....l.J.....
    987c:	013e01bd 00f000e1 01b1013a 01d501ed     ..>.....:.......
    988c:	00f2018a 00320077 002e0010 012300a8     ....w.2.......#.
    989c:	0151014b 007d010c 001a002f 006b0020     K.Q...}./... .k.
    98ac:	00e500b2 011c011f 00f700f8 01050121     ............!...
    98bc:	0175011b 0188016c 017f019e 0130015a     ..u.l.......Z.0.
    98cc:	01a20178 021301a7 0268026a 02d3029b     x.......j.h.....
    98dc:	02720293 027e0264 029c0299 02fa02f6     ..r.d.~.........
    98ec:	031102e0 02dd02ff 033102ee 03af0367     ..........1.g...
    98fc:	03e003ed 035503b8 02a502cd 030002c2     ......U.........
    990c:	03ec0386 03b403e8 02d6035e 021a024b     ........^...K...
    991c:	02720220 031b02ea 02930308 022d0226      .r.........&.-.
    992c:	02b60295 021e0277 01c601dc 02a90212     ....w...........
    993c:	025502da 011f0164 02150187 020b0240     ..U.d.......@...
    994c:	016b01c2 0188014a 01be01e4 00e0013d     ..k.J.......=...
    995c:	013b00ef 01ef01b1 018a01d5 007500f1     ..;...........u.
    996c:	000f0031 00a9002d 014c0125 010c0151     1...-...%.L.Q...
    997c:	002d007c 0020001a 00b4006b 011f00e5     |.-... .k.......
    998c:	00f8011d 012100f6 01190107 016e0176     ......!.....v.n.
    999c:	019f0187 015a017f 01760130 01a701a4     ......Z.0.v.....
    99ac:	026c0212 029a0269 029402d4 02650270     ..l.i.......p.e.
    99bc:	029a027d 02f5029c 02df02fd 03000310     }...............
    99cc:	02ee02dc 03680331 03ee03af 03b703e0     ....1.h.........
    99dc:	02cb0355 02c302a3 03870300 03e903ed     U...............
    99ec:	035e03b3 024a02d5 02200218 02eb0272     ..^...J... .r...
    99fc:	0308031d 02240294 0295022c 027702b8     ......$.,.....w.
    9a0c:	01db021d 021201c6 02dc02a9 01630256     ............V.c.
    9a1c:	0187011b 02420216 01c1020b 0149016b     ......B.....k.I.
    9a2c:	01e50187 013c01bf 00ee00de 01b2013c     ......<.....<...
    9a3c:	01d601f0 00f10189 00310073 002d000f     ........s.1...-.
    9a4c:	012600a9 0151014e 007c010d 001a002b     ..&.N.Q...|.+...
    9a5c:	006b0020 00e600b5 011e011f 00f600f7      .k.............
    9a6c:	01080120 01760118 01850170 018001a1      .....v.p.......
    9a7c:	01300159 01a60175 021101a7 026a026e     Y.0.u.......n.j.
    9a8c:	02d50298 026e0296 027d0265 029d029b     ......n.e.}.....
    9a9c:	02ff02f4 030f02de 02db0302 033102ed     ..............1.
    9aac:	03af0369 03e103ef 035503b6 02a102cb     i.........U.....
    9abc:	030002c3 03ef0386 03b303ea 02d5035d     ............]...
    9acc:	02160249 02710221 031e02ec 02940308     I...!.q.........
    9adc:	022a0223 02ba0294 021c0277 01c501da     #.*.....w.......
    9aec:	02aa0211 025702de 01170162 02180186     ......W.b.......
    9afc:	020c0244 016b01c0 01860148 01c201e5     D.....k.H.......
    9b0c:	00dd013c 013d00ed 01f201b2 018901d7     <.....=.........
    9b1c:	007100f2 000f0030 00a8002d 01500128     ..q.0...-...(.P.
    9b2c:	010e0150 0029007c 00210019 00b7006a     P...|.)...!.j...
    9b3c:	011f00e7 00f8011f 012000f5 0117010a     .......... .....
    9b4c:	01730175 01a10183 01580181 01720131     u.s.......X.1.r.
    9b5c:	01a901a8 0270020f 0296026c 029802d5     ......p.l.......
    9b6c:	0265026c 029b027d 02f2029e 02de0302     l.e.}...........
    9b7c:	0304030c 02ec02db 036a0331 03ef03af     ........1.j.....
    9b8c:	03b603e3 02cb0356 02c2029e 03850301     ....V...........
    9b9c:	03ec03f1 035c03b2 024802d5 02200214     ......\...H... .
    9bac:	02ec0271 03080320 02220295 02940227     q... .....".'...
    9bbc:	027802bd 01d9021b 021001c5 02e102a9     ..x.............
    9bcc:	01620259 01850112 02460219 01bf020d     Y.b.......F.....
    9bdc:	0147016b 01e60185 013d01c5 00eb00db     k.G.......=.....
    9bec:	01b2013d 01d801f4 00f30189 002e0070     =...........p...
    9bfc:	002c000f 012900a7 01500152 007d010f     ..,...).R.P...}.
    9c0c:	00190026 00690022 00e800b7 0121011e     &...".i.......!.
    9c1c:	00f400f8 010d011f 01730115 01820177     ..........s.w...
    9c2c:	018301a1 01310157 01a90170 020c01aa     ....W.1.p.......
    9c3c:	026f0271 02d50294 026a029c 027c0264     q.o.......j.d.|.
    9c4c:	029f029b 030402ef 030902df 02db0306     ................
    9c5c:	033002ea 03ae036b 03e403ef 035603b5     ..0.k.........V.
    9c6c:	029b02cb 030202c1 03f20383 03b203ee     ................
    9c7c:	02d6035c 02110247 02700220 032302eb     \...G... .p...#.
    9c8c:	02960309 02240221 02bf0292 021a027a     ....!.$.....z...
    9c9c:	01c401d8 02a8020e 025d02e4 010d0163     ..........].c...
    9cac:	021a0181 020e0249 016b01be 01830146     ....I.....k.F...
    9cbc:	01c801e5 00d9013e 013d00e8 01f501b2     ....>.....=.....
    9ccc:	018901da 006f00f4 0010002d 00a5002b     ......o.-...+...
    9cdc:	0155012a 010f0150 0024007f 00220017     *.U.P.....$...".
    9cec:	00b80068 011e00e9 00f90122 011e00f3     h.......".......
    9cfc:	0115010f 017b0171 019f0182 01570185     ....q.{.......W.
    9d0c:	016d0131 01ad01aa 02710208 02920273     1.m.......q.s...
    9d1c:	02a002d3 02620269 029b027c 02ec02a0     ....i.b.|.......
    9d2c:	02e10306 03080306 02e802dd 036c032f     ............/.l.
    9d3c:	03ee03ae 03b503e6 02cc0356 02bf0298     ........V.......
    9d4c:	03820302 03f103f2 035b03b2 024702d6     ..........[...G.
    9d5c:	021f020e 02ea026f 030b0325 02210298     ....o...%.....!.
    9d6c:	028f0221 027d02c2 01d7021a 020c01c4     !.....}.........
    9d7c:	02e602a6 01660262 017c0107 024d021b     ....b.f...|...M.
    9d8c:	01be0210 0145016b 01e40181 014101cd     ....k.E.......A.
    9d9c:	00e500d7 01b2013c 01dd01f7 00f60189     ....<...........
    9dac:	002b006f 002b000f 012a00a3 01510158     o.+...+...*.X.Q.
    9dbc:	00820110 00150022 00660023 00eb00b8     ...."...#.f.....
    9dcc:	0125011e 00f600fe 01180121 0172011c     ..%.....!.....r.
    9ddc:	01880183 018e01a2 013e0162 01b10175     ........b.>.u...
    9dec:	020501b6 026c0266 02bb0283 025d0292     ....f.l.......].
    9dfc:	026c0254 028b0287 02e102c9 02da02c2     T.l.............
    9e0c:	02ba02de 02f802bf 035e032b 038a0390     ........+.^.....
    9e1c:	0311035f 027502a3 02c90292 037d0328     _.....u.....(.}.
    9e2c:	034a037e 02a10305 02080235 02500215     ~.J.....5.....P.
    9e3c:	02d402a8 026d02c0 02140217 02870261     ......m.....a...
    9e4c:	02110258 01d701e3 026b0206 02430298     X.........k...C.
    9e5c:	015d019f 021101a8 020c0233 01a501d7     ..].....3.......
    9e6c:	01b2018e 01e401ee 01530193 0190015b     ..........S.[...
    9e7c:	01fb01d4 01bf01ee 01280170 00f90105     ........p.(.....
    9e8c:	014a010a 01ac0192 018901a9 01160145     ..J.........E...
    9e9c:	011c0111 0166013e 01980180 018c019c     ....>.f.........
    9eac:	019b0188 019c019a 01cb01c0 01d701cd     ................
    9ebc:	01bd01d0 01c401ae 01e301df 02280201     ..............(.
    9ecc:	0234022d 023a0248 021f0224 02320228     -.4.H.:.$...(.2.
    9edc:	02490234 02470252 024e024d 02410242     4.I.R.G.M.N.B.A.
    9eec:	02650253 02830275 02710280 02330256     S.e.u.....q.V.3.
    9efc:	022b0223 0256023b 026d026e 0247025d     #.+.;.V.n.m.].G.
    9f0c:	020e022b 02040201 02280213 022d0233     +.........(.3.-.
    9f1c:	02050219 02130203 0212021c 01fa0203     ................
    9f2c:	020001f8 02190211 01f2020b 01f301e8     ................
    9f3c:	02060202 01fb0201 01f501f6 01fe01f9     ................
    9f4c:	01f901fe 01f801f6 01fe01fb 01ff01ff     ................
    9f5c:	020001ff                                ....

00009f60 <click_sound_data>:
    9f60:	01fd01ff 01fe01fe 020001ff 02020201     ................
    9f70:	02020203 01fc01ff 01fb01f9 02070200     ................
    9f80:	01fe0207 01f801f5 020e0206 01e401fe     ................
    9f90:	020c0210 01f601f2 01eb021a 020f0201     ................
    9fa0:	021601e8 020c01ee 020201f8 01ff01fe     ................
    9fb0:	01fc0201 01fb0203 01fc0200 01fe0200     ................
    9fc0:	01fc0201 01f80206 02120200 020101f8     ................
    9fd0:	02060208 01fb01fb 02040208 01fe01fe     ................
    9fe0:	02060200 020601f8 020d01fb 020801f2     ................
    9ff0:	020401fc 01f30204 01eb0212 01ea0215     ................
    a000:	01d40221 01db022d 02150210 022e01d1     !...-...........
    a010:	020b01df 01e40214 022301fc 01f801e4     ..........#.....
    a020:	020c0210 01f201ee 02080209 01fb0204     ................
    a030:	01f901f8 020301fe 02030206 01f90201     ................
    a040:	01f801f3 02060200 02030207 01f701fd     ................
    a050:	01f701f8 01fa01fd 01f701fe 020101ff     ................
    a060:	0207020a 021401f0 020301ea 01f201fc     ................
    a070:	01f80204 01eb020b 01fc0216 020d0206     ................
    a080:	021a01f2 01ea0212 020301f4 01ef01e2     ................
    a090:	020001dd 01e101ee 01f201f7 01f60202     ................
    a0a0:	02120204 022a021d 02440232 024f0252     ......*.2.D.R.O.
    a0b0:	02200243 01ca0200 01670193 01890162     C. .......g.b...
    a0c0:	023f01cb 02c9028d 023b0272 0110005e     ..?.....r.;.^...
    a0d0:	03a602ec 0000026b 036f01f1 003f0304     ....k.....o...?.
    a0e0:	02e201c8 01d401fa 024c01c9 025201b4     ..........L...R.
    a0f0:	022401c6 021701d9 020501f8 01f80200     ..$.............
    a100:	01ef0209 01f3020f 01f5020c 01fa0205     ................
    a110:	01ff0201 01ff0201 01fe01ff 020001ff     ................
    a120:	020001ff 01ff01fe 020201fd 020101ff     ................
    a130:	020101fc 020d01f8 01f701fc 01f4020a     ................
    a140:	01f4020b 01fe0207 021001fa 01ff01e9     ................
    a150:	02060210 020001ea 01f80211 01fd01f8     ................
    a160:	01f5020d 01fe020d 01fe01f0 020f01ff     ................
    a170:	01fb01fc 01fc0204 01ff0201 020b01fe     ................
    a180:	020001ff 01fc01fc 02040201 01fb0203     ................
    a190:	020001fe 020001fe 02020204 02000200     ................
    a1a0:	02010201 02010201 02030203 02020201     ................
    a1b0:	02010202 02030201 02020203 02010202     ................
    a1c0:	02030204 02000201 02010202 02000201     ................
    a1d0:	02010201 02000200 01ff0200 01fd01fe     ................
    a1e0:	01fb01fc 01fa01fa 01f801f7 01f801f7     ................
    a1f0:	01f601f7 01f901f9 01fd01fa 01fe01fd     ................
    a200:	01fe01ff 02020201 02050204 01fe0203     ................
    a210:	020a0205 02020200 02010205 01ff0205     ................
    a220:	020301fe 02010202 020801f8 020501fa     ................
    a230:	01fa01fd 01fc0209 01fd0201 01fe0206     ................
    a240:	020001ff 020201ff 01f90200 02000204     ................

0000a250 <beep_sound_data>:
    a250:	01fb0200 01a301f0 017f0159 01d501ad     ........Y.......
    a260:	022b0233 01fb0232 018d0195 01b20178     3.+.2.......x...
    a270:	01f601af 027e025c 01c90254 018e01c4     ....\.~.T.......
    a280:	0132014b 01f3016a 022e0203 02720263     K.2.j.......c.r.
    a290:	01d10247 01aa01cc 01510150 024601a2     G.......P.Q...F.
    a2a0:	02b4026f 029e0301 0155022a 00c5011f     o.......*.U.....
    a2b0:	00ef0077 025e0167 02f90274 02d2032a     w...g.^.t...*...
    a2c0:	015f025f 00d7015b 010d00de 02ab01b1     _._.[...........
    a2d0:	033902ac 02e90316 00fd022d 004400cf     ..9.....-.....D.
    a2e0:	00c70091 02e001b7 036902dd 0308031f     ..........i.....
    a2f0:	013301ec 00940157 011c0106 02ff0244     ..3.W.......D...
    a300:	038c02f1 02eb030f 00e4018b 003c00e5     ..............<.
    a310:	00c900a3 028501f9 038502d1 02ff0311     ................
    a320:	014c01d6 006c00f9 00f500e8 025d022b     ..L...l.....+.].
    a330:	02f90276 0258027f 00e7011c 001e0099     v.....X.........
    a340:	00cd009a 021a0204 03100293 026f02aa     ..............o.
    a350:	01200124 003a00b6 00e10093 0213022d     $. ...:.....-...
    a360:	031702a2 0251029b 01120107 0011006d     ......Q.....m...
    a370:	00c2006e 01e501f8 02fe02be 023602b4     n.............6.
    a380:	01620123 005a0076 01370084 021f0247     #.b.v.Z...7.G...
    a390:	02ff031d 021d02d1 0151012e 0092004c     ..........Q.L...
    a3a0:	017700bd 0246026e 02f50350 021902df     ..w.n.F.P.......
    a3b0:	01790154 00c1005f 018700b7 025e0245     T.y._.......E.^.
    a3c0:	02c5034a 01df02d1 014e015f 00dd0056     J......._.N.V...
    a3d0:	01c000d2 027c024d 02e7035d 01e702ef     ....M.|.].......
    a3e0:	010f0167 00d80053 01f300c5 029d023c     g...S.......<...
    a3f0:	02d30356 01a302d1 01100190 00f80070     V...........p...
    a400:	022200f5 02b10237 02a6032a 01670294     ..".7...*.....g.
    a410:	00c6016a 00da0064 0253010b 02e20216     j...d.....S.....
    a420:	02a7031c 0141027b 00a6016d 00fd0097     ....{.A.m.......
    a430:	0277014a 03230245 02a0030a 0116023e     J.w.E.#.....>...
    a440:	00590156 00ce007a 02670142 0313023b     V.Y.z...B.g.;...
    a450:	029802cd 00fe01f5 004b0146 00c60090     ........F.K.....
    a460:	0235016d 03070200 02610288 00d7019b     m.5.......a.....
    a470:	000100fa 00a30091 02340190 033b0235     ..........4.5.;.
    a480:	02a902a5 012f01b5 002d0120 00e700db     ....../. .-.....
    a490:	027101ec 037402a9 029a02b1 01120169     ..q...t.....i...
    a4a0:	003000e9 010100e4 02730248 037102c1     ..0.....H.s...q.
    a4b0:	02a602bd 0154017c 004500d6 012400ec     ....|.T...E...$.
    a4c0:	026c026c 035602e7 029802b0 014b015a     l.l...V.....Z.K.
    a4d0:	006a00b7 01340108 026d0278 034b0318     ..j...4.x.m...K.
    a4e0:	028902b6 014b0133 006f0093 014f00f0     ....3.K...o...O.
    a4f0:	02440295 02fd0312 020f027a 013000fc     ..D.....z.....0.
    a500:	0065003c 015800cc 02410276 02e40330     <.e...X.v.A.0...
    a510:	01de028a 011b00d0 00930027 017f00cf     ........'.......
    a520:	02460260 02ce034a 01d4029c 010700f9     `.F.J...........
    a530:	00a7001f 01ac00d1 0263026a 02af034a     ........j.c.J...
    a540:	01a6029a 00ed010c 00a80000 01d100c7     ................
    a550:	027a0245 02940348 016c029a 00ef011f     E.z.H.....l.....
    a560:	00db0023 022f00f1 02c1026d 02a00355     #...../.m...U...
    a570:	015d02a6 00c40135 00e8003a 025e0110     ..].5...:.....^.
    a580:	02d30243 02980344 011f028b 00950135     C...D.......5...
    a590:	00cd0035 024c00f5 02f10237 0293030d     5.....L.7.......
    a5a0:	0118024e 007c0142 00d8006c 02640140     N...B.|.l...@.d.
    a5b0:	031d0245 02b80302 011c0236 00560155     E.......6...U.V.
    a5c0:	00fa0096 02950189 0368026d 02cd030e     ........m.h.....
    a5d0:	01260220 0073016e 011400cb 02ad01d2      .&.n.s.........
    a5e0:	0387029e 02c902fe 013a01f7 00590141     ..........:.A.Y.
    a5f0:	011600f4 029d01ff 03820299 02be02d2     ................
    a600:	013501b1 002d010d 00ee00dd 024e0208     ..5...-.......N.
    a610:	033e0298 028f0295 012b0168 003b00d9     ..>.....h.+...;.
    a620:	00f300da 022e0227 031c028f 02720275     ....'.......u.r.
    a630:	01240128 002400a2 00d200cb 02200222     (.$...$.....". .
    a640:	031c02c6 0259027c 01380112 0044007f     ....|.Y...8...D.
    a650:	011b00ce 024c0257 0320030b 025502b4     ....W.L... ...U.
    a660:	01500138 0085007f 015b00e2 02670289     8.P.......[...g.
    a670:	031d0344 024802c7 0164013b 009f0061     D.....H.;.d.a...
    a680:	018c00e7 02740297 02f60363 021b02cf     ......t.c.......
    a690:	01640143 00d0005c 01e80109 0290029c     C.d.\...........
    a6a0:	0314038f 020702eb 015f015c 00fc0071     ........\._.q...
    a6b0:	021d011c 02e002c8 032003bc 01ee0303     .......... .....
    a6c0:	0155017d 011c0087 025f0121 02df02bf     }.U.....!._.....
    a6d0:	02fd0394 01b202e5 0102015b 00fd005e     ........[...^...
    a6e0:	025f011f 02e90269 02d40381 017302b7     .._.i.........s.
    a6f0:	00e0016c 0106007e 02880145 02ff0264     l...~...E...d...
    a700:	02ba034b 014d028b 00af0164 00f60077     K.....M.d...w...
    a710:	0273013b 03180254 02a30318 012b0262     ;.s.T.......b.+.
    a720:	008a015d 00dc0083 0277015c 033b023d     ].......\.w.=.;.
    a730:	02b90312 013d0247 00700159 00f700b2     ....G.=.Y.p.....
    a740:	027c019d 03660265 02d20304 0146020b     ..|.e.f.......F.
    a750:	00600154 00e300cf 027301bd 037b0279     T.`.......s.y.{.
    a760:	02d902e9 014a01e8 004f0140 00f000e1     ......J.@.O.....
    a770:	0288020c 0378029d 02ca02de 014701a4     ......x.......G.
    a780:	005d0126 01110107 028f0233 038f02e1     &.].....3.......
    a790:	02c702d4 0172019e 00610107 013e010a     ......r...a...>.
    a7a0:	0282026d 036502fc 02bf02db 017c0180     m.....e.......|.
    a7b0:	008700f6 01560116 027e0291 037f032f     ......V...~./...
    a7c0:	02b202e3 018f017f 00bc00e8 01790139     ............9.y.
    a7d0:	02730292 03450349 027602d8 01840143     ..s.I.E...v.C...
    a7e0:	00c000bc 0199011d 026c02a0 0326034f     ..........l.O.&.
    a7f0:	023a02cc 0177012d 00b4006e 019300fc     ..:.-.w.n.......
    a800:	02540281 02f3035c 01f902ce 015b0135     ..T.\.......5.[.
    a810:	00c80058 01d000f9 02760277 02f00377     X.......w.v.w...
    a820:	01e702da 012a0131 00e40050 01ef00e7     ....1.*.P.......
    a830:	027f0262 02c3035d 019202b5 01160140     b...].......@...
    a840:	00f30040 022600f9 02b80270 02b50360     @.....&.p...`...
    a850:	017702ad 00f00149 00f80055 024b010b     ..w.I...U.....K.
    a860:	02e90260 02b8035a 017302b6 00c90168     `...Z.....s.h...
    a870:	00f80070 0274012b 03130264 02d70356     p...+.t.d...V...
    a880:	01610297 00bb016f 011700a7 027a0155     ..a.o.......U.z.
    a890:	034c0273 02e40348 01450288 00ac018b     s.L.H.....E.....
    a8a0:	013a00cb 02cc01bb 038f0290 030a034a     ..:.........J...
    a8b0:	016e027d 009b0197 013600f7 02dd01e5     }.n.......6.....
    a8c0:	03890298 02e30316 014f022b 0065015e     ........+.O.^.e.
    a8d0:	010800f4 02a301e6 037b0285 02d002da     ..........{.....
    a8e0:	012e01c8 00340121 00dc00d4 024901e2     ....!.4.......I.
    a8f0:	03380278 028c02a1 012e0177 002600e8     x.8.....w.....&.
    a900:	00cd00c3 023001f3 031e0283 02820288     ......0.........
    a910:	013d0150 004300c4 00e900d6 02470229     P.=...C.....).G.
    a920:	031602bf 0275028d 01310137 0047008f     ......u.7.1...G.
    a930:	010100d6 02240248 032e02f2 026402a8     ....H.$.......d.
    a940:	015c012e 007f008f 014000f4 025f0271     ..\.......@.q._.
    a950:	0327033f 026802c9 01580136 00a1007d     ?.'...h.6.X.}...
    a960:	017e0100 02530283 02f0033c 020302a5     ..~...S.<.......
    a970:	01480107 009f004b 018d00d2 024a026d     ..H.K.......m.J.
    a980:	02c50335 01d90299 0118011c 00c0003b     5...........;...
    a990:	01dd00f7 02870273 02d4036c 01dc02cb     ....s...l.......
    a9a0:	013f0137 00de005b 021a00fe 02ae0280     7.?.[...........
    a9b0:	02c7037c 01a302c5 01140152 00fa0054     |.......R...T...
    a9c0:	024b0113 02b5025e 02b10359 016002a9     ..K.^...Y.....`.
    a9d0:	00c60149 00e20046 024d0108 02de0231     I...F.....M.1...
    a9e0:	02b70350 01540299 00b3015b 00f9006c     P.....T.[...l...
    a9f0:	0265012b 02fb0254 02970317 010e0258     +.e.T.......X...
    aa00:	005e012d 00c30045 0258011a 030b022a     -.^.E.....X.*...
    aa10:	029c02eb 00f90229 003c0144 00c80078     ....)...D.<.x...
    aa20:	02600164 03120215 029602cc 00ef01e4     d.`.............
    aa30:	00250114 00c00090 025a0196 03510235     ..%.......Z.5.Q.
    aa40:	02b802d2 012e01de 002b012d 00d300bc     ........-.+.....
    aa50:	025401d1 03430264 02960294 0114018f     ..T.d.C.........
    aa60:	002500ff 00d300be 026001f5 034e029d     ..%.......`...N.
    aa70:	02b002b2 01330183 004700e1 00ed00e2     ......3...G.....
    aa80:	0259022b 035802cb 02b102b7 01740175     +.Y...X.....u.t.
    aa90:	006900de 011d0107 02700274 03570307     ..i.....t.p...W.
    aaa0:	02a802c2 0186016f 008700d0 01470105     ....o.........G.
    aab0:	025c0274 03280317 026a02c1 01520136     t.\...(...j.6.R.
    aac0:	00870092 014700e7 0234024f 02d5030a     ......G.O.4.....
    aad0:	01db026e 012400d7 00a5005f 01b3010e     n.....$._.......
    aae0:	02460286 02c10329 01550223 00c80088     ..F.)...#.U.....
    aaf0:	00c8003e 019d00f8 01ff024b 01e9028d     >.......K.......
    ab00:	017501d3 011400ef 01450084 01a1013d     ..u.......E.=...
    ab10:	01eb01f6 01e0029d 016001f7 00fa0122     ..........`."...
    ab20:	01500093 01b30124 01d601a1 01b9021e     ..P.$...........
    ab30:	01cd0229 01f20215 01f201bb 01e80197     )...............
    ab40:	01530171 019001a6                       q.S.....

0000ab48 <sync_beep_sound_data>:
    ab48:	01f60200 01e601e6 021401f5 0230022a     ............*.0.
    ab58:	01fb0224 018801c7 01fa0193 02c9028b     $...............
    ab68:	0188026d 013100ca 03f402af 01290333     m.....1.....3.).
    ab78:	007a000d 02fd01ab 035f03b2 00fa0248     ..z......._.H...
    ab88:	008c004b 028e0171 0336034d 014c0266     K...q...M.6.f.L.
    ab98:	00bf009c 02840181 03460343 018a0293     ........C.F.....
    aba8:	00d700d0 026c017d 0345032d 01b002ab     ....}.l.-.E.....
    abb8:	00dd00ed 024e016e 033b030f 01cc02b8     ....n.N...;.....
    abc8:	00df0103 022f015d 032e02f1 01e302c0     ....]./.........
    abd8:	00e10116 0212014e 031f02d2 020002cb     ....N...........
    abe8:	00df012f 01ef0134 031b02b7 021802db     /...4...........
    abf8:	00db013d 01da0124 031202a5 022302dd     =...$.........#.
    ac08:	00e8014e 01cb0125 02fb0287 023d02df     N...%.........=.
    ac18:	00f4016c 01b8011c 02ef0273 024e02e1     l.......s.....N.
    ac28:	01070184 01a5011f 02d2024f 027b02ea     ........O.....{.
    ac38:	011701b4 0181010b 02d30237 028e02f9     ........7.......
    ac48:	012301c8 0178010b 02c60229 029a02f6     ..#...x.).......
    ac58:	013401de 0169010b 02b20212 02a702f0     ..4...i.........
    ac68:	014701f6 015b010c 029f01fc 02b202eb     ..G...[.........
    ac78:	015c020d 01510113 028801e6 02bd02e1     ..\...Q.........
    ac88:	01730228 01400114 027901d0 02c502de     (.s...@...y.....
    ac98:	01850237 013e0120 025701ba 02d102cb     7... .>...W.....
    aca8:	01a8025c 012b0129 0245019f 02d702c5     \...).+...E.....
    acb8:	01bf026d 01290139 022b018c 02e002b6     m...9.)...+.....
    acc8:	01da028b 01090136 022b0170 02ef02c8     ....6...p.+.....
    acd8:	01db0290 01100139 0219016d 02eb02b6     ....9...m.......
    ace8:	01f4029e 01170150 02000160 02e902a2     ....P...`.......
    acf8:	020702ab 0115015b 01f20156 02de0293     ....[...V.......
    ad08:	021602ab 01250173 01da0151 02d30278     ....s.%.Q...x...
    ad18:	022d02b5 012b0188 01c90147 02ca0267     ..-...+.G...g...
    ad28:	024102bb 0133019e 01b4013f 02c00252     ..A...3.?...R...
    ad38:	025502c0 013f01b4 01a3013a 02b1023d     ..U...?.:...=...
    ad48:	026802c3 014d01cd 01900136 02a50226     ..h...M.6...&...
    ad58:	027802c5 015e01e4 01810135 029b0215     ..x...^.5.......
    ad68:	028102c6 016c01f3 017a013b 02870202     ......l.;.z.....
    ad78:	028d02bf 017c020a 01650137 027f01ed     ......|.7.e.....
    ad88:	029702c3 01880218 015f013c 026d01dd     ........<._...m.
    ad98:	029f02bc 019c0228 0165014b 025501d3     ....(...K.e...U.
    ada8:	029802a3 01b9023a 0160015f 023d01bc     ....:..._.`...=.
    adb8:	029d0298 01cb024b 01570165 022e01ac     ....K...e.W.....
    adc8:	029e0290 01dd0256 015a0174 0219019e     ....V...t.Z.....
    add8:	02a10282 01f00267 0155017e 020d0191     ....g...~.U.....
    ade8:	02a1027c 01fc026d 015e018b 01fd018e     |...m.....^.....
    adf8:	02980269 02120275 016501a2 01e80182     i...u.....e.....
    ae08:	02950259 0220027d 016b01af 01d9017d     Y...}. ...k.}...
    ae18:	028d0249 02300282 017301c1 01c80176     I.....0...s.v...
    ae28:	02880239 02390288 017a01ca 01c00177     9.....9...z.w...
    ae38:	02750228 024b0284 018901e5 01ab0170     (.u...K.....p...
    ae48:	026e0214 02580289 019301f3 01a30172     ..n...X.....r...
    ae58:	02640207 02630288 019d0205 0196016e     ..d...c.....n...
    ae68:	025f01fb 0268028a 01a6020b 01970175     .._...h.....u...
    ae78:	024d01f1 0268027c 01b90219 01910180     ..M.|.h.........
    ae88:	023e01e1 026c0275 01c80227 018b0186     ..>.u.l.'.......
    ae98:	023201d3 02760274 01d20234 0188018a     ..2.t.v.4.......
    aea8:	022301c7 0279026a 01e60246 01810193     ..#.j.y.F.......
    aeb8:	021601b9 02780264 01f3024b 018501a1     ....d.x.K.......
    aec8:	020201ac 027f025a 0201025b 018001a6     ....Z...[.......
    aed8:	01f801a3 027a024f 02130262 018501b8     ....O.z.b.......
    aee8:	01e40198 027b0242 021e026e 018101b9     ....B.{.n.......
    aef8:	01e20196 0271023b 021f0265 019101c8     ....;.q.e.......
    af08:	01dc019b 0264022e 02280261 019e01d8     ......d.a.(.....
    af18:	01d6019f 02570220 0230025e 01ab01e5     .... .W.^.0.....
    af28:	01cc01a3 0246020e 023a0259 01b801f8     ......F.Y.:.....
    af38:	01bf01a2 023f01fd 0247025f 01bb0202     ......?._.G.....
    af48:	01ba019e 023e01fb 0246025d 01c40206     ......>.].F.....
    af58:	01bd01a7 023301f5 02480255 01cc020f     ......3.U.H.....
    af68:	01bb01a9 022f01f3 0240024f 01db0211     ....../.O.@.....
    af78:	01ba01b7 022001e4 0248024b 01da0217     ...... .K.H.....
    af88:	01c601b9 021901ed 02390238 01f1021c     ........8.9.....
    af98:	01c301cd 020201d6 024c0235 01fe0235     ........5.L.5...
    afa8:	01b001c8 01f901c3 02540235 02080242     ........5.T.B...
    afb8:	01ad01c9 01f801c1 024e0232 0205023a     ........2.N.:...
    afc8:	01b501ce 01fd01c9 02450231 01fe0230     ........1.E.0...
    afd8:	01bc01cd 020701d8 022b0226 020a021d     ........&.+.....
    afe8:	01d301ee 01ed01d1 02290211 0212022a     ..........).*...
    aff8:	01d601f1 01ee01d4 022a0213 020f0225     ..........*.%...
    b008:	01db01f1 01ee01d9 0224020d 02160227     ..........$.'...
    b018:	01d701f7 01e701ce 0223020d 02140224     ..........#.$...
    b028:	01e401fc 01e401d8 021501fe 021b0220     ............ ...
    b038:	01ea0206 01e501db 021001fc 02120218     ................
    b048:	01f40204 01ee01eb 020301f8 0218020f     ................
    b058:	01fd0212 01e501e7 020f01f9 02140219     ................
    b068:	01f50204 01f601f0 020601ff 020b020b     ................
    b078:	01ff0208 01f001f2 020401fa 020b0209     ................
    b088:	02010209 01f001f4 020301f9 02050205     ................
    b098:	02040205 01f601fd 01f801f5 020601fd     ................
    b0a8:	0208020f 01ee01f6 020501f7 02070209     ................
    b0b8:	01ff0205 01f201f3 020c01ff 0204020c     ................
    b0c8:	01ff01ff 01f801fc 01fe01f8 02080204     ................
    b0d8:	02050209 01ef01fa 01fd01f1 020a0207     ................
    b0e8:	02040209 01ec01f8 020201f0 02150213     ................
    b0f8:	01f60208 01eb01eb 020e01fa 02100217     ................
    b108:	01f40200 01e801ec 020d01f4 0212021b     ................
    b118:	01ea01fa 01f101e9 02110201 02040211     ................
    b128:	01f801f9 01f701fa 020101f8 020f020c     ................
    b138:	01fc0209 01ee01f2 020901f6 02160218     ................
    b148:	01f50205 01f001ef 020801f8 02160217     ................
    b158:	01f30205 01ed01eb 020a01f8 02160219     ................
    b168:	01f00203 01eb01e9 020801f3 0220021d     .............. .
    b178:	01ec020a 01e701de 021101fd 02120219     ................
    b188:	01f00200 01f501ee 020301fc 0210020b     ................
    b198:	0202020d 01ec01f6 01f701e9 021b020f     ................
    b1a8:	02010215 01e901ee 01fb01ed 0219020e     ................
    b1b8:	02000213 01e801ee 01fc01ee 0217020d     ................
    b1c8:	02000212 01eb01ef 01fb01f1 02120209     ................
    b1d8:	02050211 01eb01f6 01f301e9 02160207     ................
    b1e8:	02070215 01ed01f8 01ec01e7 02170200     ................
    b1f8:	020f021e 01e801f7 01f301e8 02120204     ................
    b208:	020a0213 01f301fc 01f201f1 020a01fb     ................
    b218:	02110214 01f60203 01f101f1 020801f9     ................
    b228:	02140214 01f50207 01ee01ec 020a01fa     ................
    b238:	02120215 01f10202 01f601ee 02090200     ................
    b248:	020c020f 01f20200 01f601ef 020d0202     ................
    b258:	0206020e 01f101f9 01fc01f2 020c0207     ................
    b268:	02000208 01f701fa 01ff01f9 02060203     ................
    b278:	02060207 01f401ff 01fc01f3 020b0206     ................
    b288:	0202020a 01f401fa 01fe01f5 02070205     ................
    b298:	02010206 01f501fa 020501f9 0205020b     ................
    b2a8:	01f401fa 020301fa 02010205 01fe01fd     ................
    b2b8:	02000200 01fd01fe 01ff01fd 01fc01fe     ................
    b2c8:	020101fd 02040206 01f401fa 020401fa     ................
    b2d8:	02070208 01ff0204 01f801f8 020301fd     ................
    b2e8:	02070207 02000204 01fd01fe              ............

0000b2f4 <switch_to_default_form>:
    b2f4:	00000a01 0a010b00                                ......

0000b2fa <switch_to_session_running_form>:
    b2fa:	00010a01 0a010a00                                ......

0000b300 <switch_to_manual_trigger_form>:
    b300:	00020a01 0a010900                                ......

0000b306 <switch_to_simulation_running_form>:
    b306:	00030a01 0a010800                                ......

0000b30c <switch_to_settings_1_form>:
    b30c:	00040a01 11010f00                                ......

0000b312 <set_response_sound_on>:
    b312:	00031101 1e011201                                ......

0000b318 <set_response_sound_switch_on>:
    b318:	00011e01 11011f01                                ......

0000b31e <set_response_sound_off>:
    b31e:	00031101 1e011300                                ......

0000b324 <set_response_sound_switch_off>:
    b324:	00011e01 11011e00                                ......

0000b32a <set_trigger_sound_on>:
    b32a:	00021101 1e011301                                ......

0000b330 <set_trigger_sound_switch_on>:
    b330:	00001e01 11011e01                                ......

0000b336 <set_trigger_sound_off>:
    b336:	00021101 1e011200                                ......

0000b33c <set_trigger_sound_switch_off>:
    b33c:	00001e01 0a011f00                                ......

0000b342 <switch_to_settings_2_form>:
    b342:	00050a01 0a010e00                                ......

0000b348 <switch_to_settings_3_form>:
    b348:	00080a01 0a010300                                ......

0000b34e <switch_to_keyboard_form>:
    b34e:	00060a01 0a010d00                                ......

0000b354 <switch_to_menu_form>:
    b354:	00070a01 0a010c00                                ......

0000b35a <switch_to_about_form>:
    b35a:	000a0a01 0a010100                                ......

0000b360 <switch_to_error_form>:
    b360:	000b0a01 11010000                                ......

0000b366 <set_error_text_PS_low>:
    b366:	00121101 11010200                                ......

0000b36c <set_error_text_PS_high>:
    b36c:	00121101 11010301                                ......

0000b372 <set_error_text_USB_error>:
    b372:	00121101 13010002                                ......

0000b378 <simulation_trigger_LED_off>:
    b378:	00001301 13011200                                ......

0000b37e <man_trig_trigger_LED_off>:
    b37e:	00011301 13011300                                ......

0000b384 <man_trig_trigger_LED_on>:
    b384:	00011301 13011201                                ......

0000b38a <simulation_trigger_LED_on>:
    b38a:	00001301 11011301                                ......

0000b390 <set_trigg_slice_txt>:
    b390:	000a1101 11011802                                ......

0000b396 <set_trigg_volume_txt>:
    b396:	000a1101 11011903                                ......

0000b39c <set_no_of_slices_txt>:
    b39c:	000a1101 11011a00                                ......

0000b3a2 <set_no_of_volumes_txt>:
    b3a2:	000a1101 11011b01                                ......

0000b3a8 <set_pulse_length_txt>:
    b3a8:	000a1101 11011e04                                ......

0000b3ae <set_tr_time_txt>:
    b3ae:	000a1101 e0001f05                                ......

0000b3b4 <ad>:
    b3b4:	0003e000 74747562 70206e6f 73736572     ....button press
    b3c4:	000d6465 73616c66 72772068 20657469     ed..flash write 
    b3d4:	6f206f6e 6c732066 73656369 7525202c     no of slices, %u
    b3e4:	66000a0d 6873616c 69727720 6e657474     ...flash written
    b3f4:	206f6e20 7320666f 6563696c 25202c73      no of slices, %
    b404:	25202c75 000a0d75 73616c66 72772068     u, %u...flash wr
    b414:	20657469 6f206f6e 6f762066 656d756c     ite no of volume
    b424:	25202c73 000a0d75 73616c66 72772068     s, %u...flash wr
    b434:	65747469 6f6e206e 20666f20 756c6f76     itten no of volu
    b444:	2c73656d 2c752520 0d752520 6c66000a     mes, %u, %u...fl
    b454:	20687361 74697277 72742065 20676769     ash write trigg 
    b464:	73206e6f 6563696c 7525202c 66000a0d     on slice, %u...f
    b474:	6873616c 69727720 6e657474 69727420     lash written tri
    b484:	6f206767 6c73206e 2c656369 2c752520     gg on slice, %u,
    b494:	0d752520 6c66000a 20687361 74697277      %u...flash writ
    b4a4:	72742065 20676769 76206e6f 6d756c6f     e trigg on volum
    b4b4:	25202c65 000a0d75 73616c66 72772068     e, %u...flash wr
    b4c4:	65747469 7274206e 20676769 76206e6f     itten trigg on v
    b4d4:	6d756c6f 25202c65 25202c75 000a0d75     olume, %u, %u...
    b4e4:	73616c66 72772068 20657469 736c7570     flash write puls
    b4f4:	656c2065 6874676e 7525202c 66000a0d     e length, %u...f
    b504:	6873616c 69727720 6e657474 6c757020     lash written pul
    b514:	6c206573 68676e65 25202c74 25202c75     se lenght, %u, %
    b524:	000a0d75 73616c66 72772068 20657469     u...flash write 
    b534:	74205254 2c656d69 756c2520 66000a0d     TR time, %lu...f
    b544:	6873616c 69727720 6e657474 20525420     lash written TR 
    b554:	656d6974 7525202c 7525202c 7525202c     time, %u, %u, %u
    b564:	7525202c 66000a0d 6873616c 69727720     , %u...flash wri
    b574:	74206574 67676972 2f207265 73657220     te trigger / res
    b584:	736e6f70 6f732065 2c646e75 0d752520     ponse sound, %u.
    b594:	6c66000a 20687361 74697277 206e6574     ..flash written 
    b5a4:	67697274 20726567 6572202f 6e6f7073     trigger / respon
    b5b4:	73206573 646e756f 7525202c 7525202c     se sound, %u, %u
    b5c4:	66000a0d 6873616c 69727720 73206574     ...flash write s
    b5d4:	646e756f 6c6f7620 2c656d75 0d752520     ound volume, %u.
    b5e4:	6c66000a 20687361 74697277 206e6574     ..flash written 
    b5f4:	6e756f73 6f762064 656d756c 7525202c     sound volume, %u
    b604:	7525202c 72000a0d 20646165 73736573     , %u...read sess
    b614:	206e6f69 61746164 6f726620 6c66206d     ion data from fl
    b624:	0d687361 5f6f6e00 735f666f 6563696c     ash..no_of_slice
    b634:	65722073 66206461 206d6f72 73616c66     s read from flas
    b644:	25203a68 000a0d75 6f5f6f6e 6f765f66     h: %u...no_of_vo
    b654:	656d756c 65722073 66206461 206d6f72     lumes read from 
    b664:	73616c66 25203a68 000a0d75 67697274     flash: %u...trig
    b674:	5f6e6f5f 63696c73 65722065 66206461     _on_slice read f
    b684:	206d6f72 73616c66 25203a68 000a0d75     rom flash: %u...
    b694:	67697274 5f6e6f5f 756c6f76 7220656d     trig_on_volume r
    b6a4:	20646165 6d6f7266 616c6620 203a6873     ead from flash: 
    b6b4:	0a0d7525 6c757000 6c5f6573 74676e65     %u...pulse_lengt
    b6c4:	65722068 66206461 206d6f72 73616c66     h read from flas
    b6d4:	25203a68 000a0d75 745f5254 20656d69     h: %u...TR_time 
    b6e4:	64616572 6f726620 6c66206d 3a687361     read from flash:
    b6f4:	756c2520 74000a0d 67676972 2f207265      %lu...trigger /
    b704:	73657220 736e6f70 6f732065 3a646e75      response sound:
    b714:	2c752520 0d752520 6f73000a 20646e75      %u, %u...sound 
    b724:	756c6f76 7220656d 20646165 6d6f7266     volume read from
    b734:	616c6620 203a6873 0a0d7525 206f6e00      flash: %u...no 
    b744:	204b4341 65636572 64657669 6572202c     ACK received, re
    b754:	636e7973 61747300 74207472 6f656d69     sync.start timeo
    b764:	000d7475 65636572 64657669 206e6120     ut..received an 
    b774:	204b4341 616e6966 2e796c6c 000d2e2e     ACK finally.....
    b784:	656d6974 2074756f 6e756f63 3a726574     timeout counter:
    b794:	756c2520 73000a0d 20646e65 6d6d6f63      %lu...send comm
    b7a4:	0d646e61 5f5f5f00 00756c25 626d756e     and..___%lu.numb
    b7b4:	203a7265 0d756c25 7773000a 206f7420     er: %lu...sw to 
    b7c4:	61666564 20746c75 6d726f66 7773000d     default form..sw
    b7d4:	206f7420 20736573 6e6e7572 20676e69      to ses running 
    b7e4:	6d726f66 7773000d 206f7420 206e616d     form..sw to man 
    b7f4:	67697274 726f6620 73000d6d 6f742077     trig form..sw to
    b804:	6d697320 6e757220 676e696e 726f6620      sim running for
    b814:	73000d6d 63746977 6f742068 74657320     m..switch to set
    b824:	676e6974 20312073 6d726f66 6573000d     tings 1 form..se
    b834:	6e697474 65722067 6e6f7073 73206573     tting response s
    b844:	646e756f 69777320 20686374 20646e61     ound switch and 
    b854:	74786574 0d6e6f20 74657300 676e6974     text on..setting
    b864:	73657220 736e6f70 6f732065 20646e75      response sound 
    b874:	74697773 61206863 7420646e 20747865     switch and text 
    b884:	0d66666f 74657300 676e6974 69727420     off..setting tri
    b894:	72656767 756f7320 7320646e 63746977     gger sound switc
    b8a4:	6e612068 65742064 6f207478 73000d6e     h and text on..s
    b8b4:	69747465 7420676e 67676972 73207265     etting trigger s
    b8c4:	646e756f 69777320 20686374 20646e61     ound switch and 
    b8d4:	74786574 66666f20 6573000d 6e697474     text off..settin
    b8e4:	72742067 6f206769 6c73206e 20656369     g trig on slice 
    b8f4:	69727473 000d676e 74746573 20676e69     string..setting 
    b904:	67697274 206e6f20 756c6f76 7320656d     trig on volume s
    b914:	6e697274 73000d67 6f742077 74657320     tring..sw to set
    b924:	676e6974 20322073 6d726f66 6573000d     tings 2 form..se
    b934:	6e697474 6f6e2067 20666f20 756c6f76     tting no of volu
    b944:	2073656d 69727473 000d676e 74746573     mes string..sett
    b954:	20676e69 6f206f6e 6c732066 73656369     ing no of slices
    b964:	72747320 0d676e69 74657300 676e6974      string..setting
    b974:	6c757020 6c206573 74676e65 74732068      pulse length st
    b984:	676e6972 6573000d 6e697474 52542067     ring..setting TR
    b994:	6d697420 74732065 676e6972 7773000d      time string..sw
    b9a4:	206f7420 74746573 73676e69 66203320      to settings 3 f
    b9b4:	0d6d726f 20777300 6b206f74 6f627965     orm..sw to keybo
    b9c4:	20647261 6d726f66 7773000d 206f7420     ard form..sw to 
    b9d4:	756e656d 726f6620 73000d6d 6f742077     menu form..sw to
    b9e4:	6f626120 66207475 0d6d726f 302e3100      about form..1.0
    b9f4:	5f00362e 65765f5f 6f697372 25203a6e     .6.___version: %
    ba04:	65760073 6f697372 25203a6e 000a0d73     s.version: %s...
    ba14:	74207773 7265206f 20726f72 6d726f66     sw to error form
    ba24:	5f5f000d 2075255f 7525202f 20202020     ..___%u / %u    
    ba34:	72756300 746e6572 696c7320 203a6563     .current slice: 
    ba44:	0a0d7525 2a2a2a00 2a2a2a2a 632a2a2a     %u...**********c
    ba54:	65727275 7620746e 6d756c6f 25203a65     urrent volume: %
    ba64:	000a0d75 21212121 21212121 21212121     u...!!!!!!!!!!!!
    ba74:	21212121 00212121 76207370 61746c6f     !!!!!!!.ps volta
    ba84:	74206567 6c206f6f 7000776f 6f762073     ge too low.ps vo
    ba94:	6761746c 6f742065 6968206f 70006867     ltage too high.p
    baa4:	20707573 746c6f76 20656761 25207369     sup voltage is %
    bab4:	000a0d64 21212121 21212121 21212121     d...!!!!!!!!!!!!
    bac4:	21212121 0d212121 42535500 72726520     !!!!!!!..USB err
    bad4:	000d726f 20425355 6e6e6f63 69746365     or..USB connecti
    bae4:	6f206e6f 73000d6b 74726174 20676e69     on ok..starting 
    baf4:	756d6973 6974616c 000d6e6f 74746573     simulation..sett
    bb04:	20676e69 72727563 20746e65 63696c73     ing current slic
    bb14:	74732065 676e6972 6573000d 6e697474     e string..settin
    bb24:	75632067 6e657272 6f762074 656d756c     g current volume
    bb34:	72747320 0d676e69 616c7000 676e6979      string..playing
    bb44:	61747320 73207472 646e756f 7473000d      start sound..st
    bb54:	6970706f 7320676e 6c756d69 6f697461     opping simulatio
    bb64:	73000d6e 74726174 20676e69 756e616d     n..starting manu
    bb74:	74206c61 67676972 000d7265 706f7473     al trigger..stop
    bb84:	676e6970 6e616d20 206c6175 67697274     ping manual trig
    bb94:	0d726567 61747300 6e697472 65732067     ger..starting se
    bba4:	6f697373 65000d6e 6c62616e 58522065     ssion..enable RX
    bbb4:	72777020 6f70000d 69726577 7520676e      pwr..powering u
    bbc4:	58542070 2e686320 000d3120 65776f70     p TX ch. 1..powe
    bbd4:	676e6972 20707520 63205854 32202e68     ring up TX ch. 2
    bbe4:	7473000d 6970706f 7320676e 69737365     ..stopping sessi
    bbf4:	000d6e6f 65776f70 676e6972 776f6420     on..powering dow
    bc04:	5854206e 2e686320 000d3120 65776f70     n TX ch. 1..powe
    bc14:	676e6972 776f6420 5854206e 2e686320     ring down TX ch.
    bc24:	000d3220 61736964 20656c62 70205852      2..disable RX p
    bc34:	000d7277 4c460a0d 20485341 65676170     wr....FLASH page
    bc44:	7a697320 25203a65 000a0d64 65730a0d      size: %d.....se
    bc54:	6f697373 6164206e 73206174 3a657a69     ssion data size:
    bc64:	0d642520 0a0d000a 6e756f73 6f762064      %d.....sound vo
    bc74:	656d756c 7a697320 25203a65 000a0d64     lume size: %d...
    bc84:	65720a0d 6e6f7073 73206573 646e756f     ..response sound
    bc94:	7a697320 25203a65 000a0d64 75630a0d      size: %d.....cu
    bca4:	6e657272 6f662074 73206d72 3a657a69     rrent form size:
    bcb4:	0d642520 6572000a 6e696461 65732067      %d...reading se
    bcc4:	6e697474 66207367 206d6f72 53414c46     ttings from FLAS
    bcd4:	656d2048 79726f6d 616e6500 6e696c62     H memory.enablin
    bce4:	41442067 72000d43 73696765 20726574     g DAC..register 
    bcf4:	20747865 20717269 636e7973 69727420     ext irq sync tri
    bd04:	72656767 6572000d 74736967 65207265     gger..register e
    bd14:	69207478 62207172 6f747475 72000d6e     xt irq button..r
    bd24:	74657365 44434c20 6573000d 43412074     eset LCD..set AC
    bd34:	6661204b 20726574 70736964 2079616c     K after display 
    bd44:	65736572 65000d74 6c62616e 20676e69     reset..enabling 
    bd54:	69647561 6d61206f 2a000d70 2a2a2a2a     audio amp..*****
    bd64:	2a2a2a2a 2a2a2a2a 2a2a2a2a 2a2a2a2a     ****************
    bd74:	2a2a2a2a 2a2a2a2a 2a2a2a2a 2a2a2a2a     ****************
    bd84:	000d2a2a 74696e69 696c6169 6974617a     **..initializati
    bd94:	64206e6f 2c656e6f 61747320 6e697472     on done, startin
    bda4:	616d2067 6c206e69 0d706f6f 20737000     g main loop..ps 
    bdb4:	2c706964 6c6f7620 65676174 6425203a     dip, voltage: %d
    bdc4:	6f63202c 65746e75 25203a72 000a0d75     , counter: %u...
    bdd4:	20425355 63736964 656e6e6f 64657463     USB disconnected
    bde4:	73000d21 6c756d69 64657461 000d5320     !..simulated S..
    bdf4:	206e616d 67697274 69777320 20686374     man trig switch 
    be04:	67697274 20726567 2044454c 0d66666f     trigger LED off.
    be14:	6d697300 74616c75 206e6f69 74697773     .simulation swit
    be24:	74206863 67676972 4c207265 6f204445     ch trigger LED o
    be34:	73000d6e 6c756d69 6f697461 7773206e     n..simulation sw
    be44:	68637469 69727420 72656767 44454c20     itch trigger LED
    be54:	66666f20 7473000d 7320706f 69737365      off..stop sessi
    be64:	62206e6f 75702079 75626873 6e6f7474     on by pushbutton
    be74:	7473000d 20747261 73736573 206e6f69     ..start session 
    be84:	70207962 62687375 6f747475 0d000d6e     by pushbutton...
    be94:	6e69770a 74747562 70206e6f 73736572     .winbutton press
    bea4:	202c6465 65646e69 25203a78 000a0d75     ed, index: %u...
    beb4:	74697773 6e696863 6f742067 726f6620     switching to for
    bec4:	0d37206d 6d697300 74616c75 41206465     m 7..simulated A
    bed4:	6973000d 616c756d 20646574 73000d42     ..simulated B..s
    bee4:	6c756d69 64657461 000d4320 756d6973     imulated C..simu
    bef4:	6574616c 0d442064 61747300 73207472     lated D..start s
    bf04:	20636e79 6e756f73 73000d64 73207465     ync sound..set s
    bf14:	6563696c 69727420 6e206767 73202c6f     lice trigg no, s
    bf24:	63746977 6f742068 726f6620 0d36206d     witch to form 6.
    bf34:	74657300 6c6f7620 20656d75 67697274     .set volume trig
    bf44:	6f6e2067 7773202c 68637469 206f7420     g no, switch to 
    bf54:	6d726f66 000d3620 6d726f66 6f6d2034     form 6..form4 mo
    bf64:	202c6572 74697773 74206863 6f66206f     re, switch to fo
    bf74:	35206d72 6f66000d 20346d72 65636361     rm 5..form4 acce
    bf84:	202c7470 74697773 74206863 6f66206f     pt, switch to fo
    bf94:	37206d72 4c46000d 20485341 74697277     rm 7..FLASH writ
    bfa4:	0d6e6574 726f6600 6320346d 65636e61     ten..form4 cance
    bfb4:	73202c6c 63746977 6f742068 726f6620     l, switch to for
    bfc4:	0d37206d 74657300 696c7320 20736563     m 7..set slices 
    bfd4:	202c6f6e 74697773 74206863 6f66206f     no, switch to fo
    bfe4:	36206d72 6573000d 6f762074 656d756c     rm 6..set volume
    bff4:	6f6e2073 7773202c 68637469 206f7420     s no, switch to 
    c004:	6d726f66 000d3620 20746573 736c7570     form 6..set puls
    c014:	656c2065 6874676e 7773202c 68637469     e length, switch
    c024:	206f7420 6d726f66 000d3620 20746573      to form 6..set 
    c034:	74205254 2c656d69 69777320 74686374     TR time, switcht
    c044:	6f66206f 36206d72 6f66000d 20386d72     o form 6..form8 
    c054:	65726f6d 7773202c 68637469 206f7420     more, switch to 
    c064:	6d726f66 000d3820 6d726f66 63612035     form 8..form5 ac
    c074:	74706563 7773202c 68637469 206f7420     cept, switch to 
    c084:	6d726f66 000d3720 6d726f66 61632035     form 7..form5 ca
    c094:	6c65636e 7773202c 68637469 206f7420     ncel, switch to 
    c0a4:	6d726f66 000d3720 74746573 73676e69     form 7..settings
    c0b4:	7773202c 68637469 206f7420 6d726f66     , switch to form
    c0c4:	000d3420 756e656d 63616220 73202c6b      4..menu back, s
    c0d4:	63746977 6f742068 726f6620 0d30206d     witch to form 0.
    c0e4:	6f626100 202c7475 74697773 74206863     .about, switch t
    c0f4:	6f66206f 30206d72 6f66000d 20346d72     o form 0..form4 
    c104:	65726f6d 7773202c 68637469 206f7420     more, switch to 
    c114:	6d726f66 20203420 6f66000d 30316d72     form 4  ..form10
    c124:	63616220 73202c6b 63746977 6f742068      back, switch to
    c134:	6e656d20 6f662075 20206d72 6434000d      menu form  ..4d
    c144:	74747562 70206e6f 73736572 202c6465     button pressed, 
    c154:	65646e69 25203a78 76202c75 65756c61     index: %u, value
    c164:	7525203a 74000a0d 67676972 73207265     : %u...trigger s
    c174:	7320646e 63746977 73692068 0d6e6f20     nd switch is on.
    c184:	69727400 72656767 646e7320 69777320     .trigger snd swi
    c194:	20686374 6f207369 000d6666 70736572     tch is off..resp
    c1a4:	65736e6f 646e7320 69777320 20686374     onse snd switch 
    c1b4:	6f207369 72000d6e 6f707365 2065736e     is on..response 
    c1c4:	20646e73 74697773 69206863 666f2073     snd switch is of
    c1d4:	6b000d66 6f627965 20647261 000d6b6f     f..keyboard ok..
    c1e4:	7220626b 72757465 6176206e 3a65756c     kb return value:
    c1f4:	756c2520 6b000a0d 6f627965 20647261      %lu...keyboard 
    c204:	202c6b6f 74697773 62206863 206b6361     ok, switch back 
    c214:	66206f74 206d726f 0a0d7525 6e616300     to form %u...can
    c224:	0d6c6563 79656b00 72616f62 61632064     cel..keyboard ca
    c234:	6c65636e 7773202c 68637469 63616220     ncel, switch bac
    c244:	6f74206b 726f6620 7525206d 25000a0d     k to form %u...%
    c254:	000a0d69 7620626b 65756c61 6c25203a     i...kb value: %l
    c264:	70202c75 20766572 7620626b 65756c61     u, prev kb value
    c274:	6c25203a 000a0d75 6e657645 65722074     : %lu...Event re
    c284:	76696563 66206465 206d6f72 202c7525     ceived from %u, 
    c294:	65646e69 25203a78 000a0d75 524f5453     index: %u...STOR
    c2a4:	00454741 69676572 72657473 20787220     AGE.register rx 
    c2b4:	6c6c6163 6b636162 6572000d 74736967     callback..regist
    c2c4:	74207265 61632078 61626c6c 000d6b63     er tx callback..
    c2d4:	62616e45 7520656c 31747261 0105000d              Enable uart1..

0000c2e2 <keyboard_report_desc>:
    c2e2:	06090105 070501a1 e729e019 01250015     ..........)...%.
    c2f2:	08950175 01810281 65290019 65250015     u.........)e..%e
    c302:	06950875 08050081 05290119 01250015     u.........)...%.
    c312:	05950175 03950291 05c00191                       u..........

0000c31d <mouse_report_desc>:
    c31d:	02090105 010901a1 090500a1 03290119     ..............).
    c32d:	01250015 03950175 05750281 01810195     ..%.u.....u.....
    c33d:	30090105 38093109 7f258115 03950875     ...0.1.8..%.u...
    c34d:	c0c00681 73750a0d 20636462 74696e69     ......usbdc init
    c35d:	0a0d000d 66636463 6d63615f 696e6920     ....cdcf_acm ini
    c36d:	0d000d74 79656b0a 72616f62 6e692064     t....keyboard in
    c37d:	000d7469 73750a0d 20636462 72617473     it....usbdc star
    c38d:	0d000d74 6273750a 61206364 63617474     t....usbdc attac
    c39d:	0d000d68 6d6f630a 69736f70 64206574     h....composite d
    c3ad:	63697665 6e692065 000d7469 e0000000              evice init.....

0000c3bc <_global_impure_ptr>:
    c3bc:	200000e0                                ... 

0000c3c0 <__sf_fake_stderr>:
	...

0000c3e0 <__sf_fake_stdin>:
	...

0000c400 <__sf_fake_stdout>:
	...
    c420:	2b302d23 6c680020 6665004c 47464567     #-0+ .hlL.efgEFG
    c430:	32313000 36353433 41393837 45444342     .0123456789ABCDE
    c440:	31300046 35343332 39383736 64636261     F.0123456789abcd
    c450:	00006665                                ef..

0000c454 <_init>:
    c454:	b5f8      	push	{r3, r4, r5, r6, r7, lr}
    c456:	46c0      	nop			; (mov r8, r8)
    c458:	bcf8      	pop	{r3, r4, r5, r6, r7}
    c45a:	bc08      	pop	{r3}
    c45c:	469e      	mov	lr, r3
    c45e:	4770      	bx	lr

0000c460 <__init_array_start>:
    c460:	000000dd 	.word	0x000000dd

0000c464 <_fini>:
    c464:	b5f8      	push	{r3, r4, r5, r6, r7, lr}
    c466:	46c0      	nop			; (mov r8, r8)
    c468:	bcf8      	pop	{r3, r4, r5, r6, r7}
    c46a:	bc08      	pop	{r3}
    c46c:	469e      	mov	lr, r3
    c46e:	4770      	bx	lr

0000c470 <__fini_array_start>:
    c470:	000000b5 	.word	0x000000b5
