
MTA_response_box.elf:     file format elf32-littlearm

Sections:
Idx Name          Size      VMA       LMA       File off  Algn
  0 .text         0000edb0  00000000  00000000  00010000  2**2
                  CONTENTS, ALLOC, LOAD, READONLY, CODE
  1 .relocate     00000140  20000000  0000edb0  00020000  2**2
                  CONTENTS, ALLOC, LOAD, DATA
  2 .bss          0000098c  20000140  0000eef0  00020140  2**2
                  ALLOC
  3 .stack        00002004  20000acc  0000f87c  00020140  2**0
                  ALLOC
  4 .ARM.attributes 00000028  00000000  00000000  00020140  2**0
                  CONTENTS, READONLY
  5 .comment      00000059  00000000  00000000  00020168  2**0
                  CONTENTS, READONLY
  6 .debug_info   0005c543  00000000  00000000  000201c1  2**0
                  CONTENTS, READONLY, DEBUGGING
  7 .debug_abbrev 000080a3  00000000  00000000  0007c704  2**0
                  CONTENTS, READONLY, DEBUGGING
  8 .debug_loc    00025809  00000000  00000000  000847a7  2**0
                  CONTENTS, READONLY, DEBUGGING
  9 .debug_aranges 00001ac8  00000000  00000000  000a9fb0  2**0
                  CONTENTS, READONLY, DEBUGGING
 10 .debug_ranges 00001c38  00000000  00000000  000aba78  2**0
                  CONTENTS, READONLY, DEBUGGING
 11 .debug_macro  00027607  00000000  00000000  000ad6b0  2**0
                  CONTENTS, READONLY, DEBUGGING
 12 .debug_line   0002744d  00000000  00000000  000d4cb7  2**0
                  CONTENTS, READONLY, DEBUGGING
 13 .debug_str    0009fa0a  00000000  00000000  000fc104  2**0
                  CONTENTS, READONLY, DEBUGGING
 14 .debug_frame  000050b8  00000000  00000000  0019bb10  2**2
                  CONTENTS, READONLY, DEBUGGING

Disassembly of section .text:

00000000 <exception_table>:
       0:	d0 2a 00 20 55 01 00 00 51 01 00 00 51 01 00 00     .*. U...Q...Q...
	...
      2c:	51 01 00 00 00 00 00 00 00 00 00 00 51 01 00 00     Q...........Q...
      3c:	51 01 00 00 51 01 00 00 51 01 00 00 51 01 00 00     Q...Q...Q...Q...
      4c:	01 33 00 00 49 2d 00 00 c9 31 00 00 51 01 00 00     .3..I-...1..Q...
      5c:	dd 53 00 00 51 01 00 00 51 01 00 00 c5 3c 00 00     .S..Q...Q....<..
      6c:	51 01 00 00 51 01 00 00 51 01 00 00 51 01 00 00     Q...Q...Q...Q...
      7c:	51 01 00 00 51 01 00 00 51 01 00 00 51 01 00 00     Q...Q...Q...Q...
      8c:	51 01 00 00 51 01 00 00 51 01 00 00 51 01 00 00     Q...Q...Q...Q...
      9c:	a9 2a 00 00 51 01 00 00 91 2b 00 00 51 01 00 00     .*..Q....+..Q...
      ac:	51 01 00 00 00 00 00 00                             Q.......

000000b4 <__do_global_dtors_aux>:
      b4:	b510      	push	{r4, lr}
      b6:	4c06      	ldr	r4, [pc, #24]	; (d0 <__do_global_dtors_aux+0x1c>)
      b8:	7823      	ldrb	r3, [r4, #0]
      ba:	2b00      	cmp	r3, #0
      bc:	d107      	bne.n	ce <__do_global_dtors_aux+0x1a>
      be:	4b05      	ldr	r3, [pc, #20]	; (d4 <__do_global_dtors_aux+0x20>)
      c0:	2b00      	cmp	r3, #0
      c2:	d002      	beq.n	ca <__do_global_dtors_aux+0x16>
      c4:	4804      	ldr	r0, [pc, #16]	; (d8 <__do_global_dtors_aux+0x24>)
      c6:	e000      	b.n	ca <__do_global_dtors_aux+0x16>
      c8:	bf00      	nop
      ca:	2301      	movs	r3, #1
      cc:	7023      	strb	r3, [r4, #0]
      ce:	bd10      	pop	{r4, pc}
      d0:	20000140 	.word	0x20000140
      d4:	00000000 	.word	0x00000000
      d8:	0000edb0 	.word	0x0000edb0

000000dc <frame_dummy>:
      dc:	4b08      	ldr	r3, [pc, #32]	; (100 <frame_dummy+0x24>)
      de:	b510      	push	{r4, lr}
      e0:	2b00      	cmp	r3, #0
      e2:	d003      	beq.n	ec <frame_dummy+0x10>
      e4:	4907      	ldr	r1, [pc, #28]	; (104 <frame_dummy+0x28>)
      e6:	4808      	ldr	r0, [pc, #32]	; (108 <frame_dummy+0x2c>)
      e8:	e000      	b.n	ec <frame_dummy+0x10>
      ea:	bf00      	nop
      ec:	4807      	ldr	r0, [pc, #28]	; (10c <frame_dummy+0x30>)
      ee:	6803      	ldr	r3, [r0, #0]
      f0:	2b00      	cmp	r3, #0
      f2:	d100      	bne.n	f6 <frame_dummy+0x1a>
      f4:	bd10      	pop	{r4, pc}
      f6:	4b06      	ldr	r3, [pc, #24]	; (110 <frame_dummy+0x34>)
      f8:	2b00      	cmp	r3, #0
      fa:	d0fb      	beq.n	f4 <frame_dummy+0x18>
      fc:	4798      	blx	r3
      fe:	e7f9      	b.n	f4 <frame_dummy+0x18>
     100:	00000000 	.word	0x00000000
     104:	20000144 	.word	0x20000144
     108:	0000edb0 	.word	0x0000edb0
     10c:	0000edb0 	.word	0x0000edb0
     110:	00000000 	.word	0x00000000

00000114 <atmel_start_init>:
     114:	b510      	push	{r4, lr}
     116:	4b07      	ldr	r3, [pc, #28]	; (134 <atmel_start_init+0x20>)
     118:	4798      	blx	r3
     11a:	4b07      	ldr	r3, [pc, #28]	; (138 <atmel_start_init+0x24>)
     11c:	4798      	blx	r3
     11e:	4b07      	ldr	r3, [pc, #28]	; (13c <atmel_start_init+0x28>)
     120:	4798      	blx	r3
     122:	4807      	ldr	r0, [pc, #28]	; (140 <atmel_start_init+0x2c>)
     124:	4b07      	ldr	r3, [pc, #28]	; (144 <atmel_start_init+0x30>)
     126:	4798      	blx	r3
     128:	4b07      	ldr	r3, [pc, #28]	; (148 <atmel_start_init+0x34>)
     12a:	4798      	blx	r3
     12c:	4b07      	ldr	r3, [pc, #28]	; (14c <atmel_start_init+0x38>)
     12e:	4798      	blx	r3
     130:	bd10      	pop	{r4, pc}
     132:	46c0      	nop			; (mov r8, r8)
     134:	00000b0d 	.word	0x00000b0d
     138:	000078d9 	.word	0x000078d9
     13c:	00009121 	.word	0x00009121
     140:	0000a97c 	.word	0x0000a97c
     144:	000095f9 	.word	0x000095f9
     148:	000090ed 	.word	0x000090ed
     14c:	000077f9 	.word	0x000077f9

00000150 <Dummy_Handler>:
     150:	e7fe      	b.n	150 <Dummy_Handler>
	...

00000154 <Reset_Handler>:
     154:	b5f8      	push	{r3, r4, r5, r6, r7, lr}
     156:	4a23      	ldr	r2, [pc, #140]	; (1e4 <Reset_Handler+0x90>)
     158:	4b23      	ldr	r3, [pc, #140]	; (1e8 <Reset_Handler+0x94>)
     15a:	429a      	cmp	r2, r3
     15c:	d009      	beq.n	172 <Reset_Handler+0x1e>
     15e:	4b22      	ldr	r3, [pc, #136]	; (1e8 <Reset_Handler+0x94>)
     160:	4a20      	ldr	r2, [pc, #128]	; (1e4 <Reset_Handler+0x90>)
     162:	e003      	b.n	16c <Reset_Handler+0x18>
     164:	6811      	ldr	r1, [r2, #0]
     166:	6019      	str	r1, [r3, #0]
     168:	3304      	adds	r3, #4
     16a:	3204      	adds	r2, #4
     16c:	491f      	ldr	r1, [pc, #124]	; (1ec <Reset_Handler+0x98>)
     16e:	428b      	cmp	r3, r1
     170:	d3f8      	bcc.n	164 <Reset_Handler+0x10>
     172:	4b1f      	ldr	r3, [pc, #124]	; (1f0 <Reset_Handler+0x9c>)
     174:	e002      	b.n	17c <Reset_Handler+0x28>
     176:	2200      	movs	r2, #0
     178:	601a      	str	r2, [r3, #0]
     17a:	3304      	adds	r3, #4
     17c:	4a1d      	ldr	r2, [pc, #116]	; (1f4 <Reset_Handler+0xa0>)
     17e:	4293      	cmp	r3, r2
     180:	d3f9      	bcc.n	176 <Reset_Handler+0x22>
     182:	4a1d      	ldr	r2, [pc, #116]	; (1f8 <Reset_Handler+0xa4>)
     184:	21ff      	movs	r1, #255	; 0xff
     186:	4b1d      	ldr	r3, [pc, #116]	; (1fc <Reset_Handler+0xa8>)
     188:	438b      	bics	r3, r1
     18a:	6093      	str	r3, [r2, #8]
     18c:	39fd      	subs	r1, #253	; 0xfd
     18e:	2390      	movs	r3, #144	; 0x90
     190:	005b      	lsls	r3, r3, #1
     192:	4a1b      	ldr	r2, [pc, #108]	; (200 <Reset_Handler+0xac>)
     194:	50d1      	str	r1, [r2, r3]
     196:	4a1b      	ldr	r2, [pc, #108]	; (204 <Reset_Handler+0xb0>)
     198:	78d3      	ldrb	r3, [r2, #3]
     19a:	2503      	movs	r5, #3
     19c:	43ab      	bics	r3, r5
     19e:	2402      	movs	r4, #2
     1a0:	4323      	orrs	r3, r4
     1a2:	70d3      	strb	r3, [r2, #3]
     1a4:	78d3      	ldrb	r3, [r2, #3]
     1a6:	270c      	movs	r7, #12
     1a8:	43bb      	bics	r3, r7
     1aa:	2608      	movs	r6, #8
     1ac:	4333      	orrs	r3, r6
     1ae:	70d3      	strb	r3, [r2, #3]
     1b0:	4b15      	ldr	r3, [pc, #84]	; (208 <Reset_Handler+0xb4>)
     1b2:	7b98      	ldrb	r0, [r3, #14]
     1b4:	2230      	movs	r2, #48	; 0x30
     1b6:	4390      	bics	r0, r2
     1b8:	2220      	movs	r2, #32
     1ba:	4310      	orrs	r0, r2
     1bc:	7398      	strb	r0, [r3, #14]
     1be:	7b99      	ldrb	r1, [r3, #14]
     1c0:	43b9      	bics	r1, r7
     1c2:	4331      	orrs	r1, r6
     1c4:	7399      	strb	r1, [r3, #14]
     1c6:	7b9a      	ldrb	r2, [r3, #14]
     1c8:	43aa      	bics	r2, r5
     1ca:	4322      	orrs	r2, r4
     1cc:	739a      	strb	r2, [r3, #14]
     1ce:	4a0f      	ldr	r2, [pc, #60]	; (20c <Reset_Handler+0xb8>)
     1d0:	6851      	ldr	r1, [r2, #4]
     1d2:	2380      	movs	r3, #128	; 0x80
     1d4:	430b      	orrs	r3, r1
     1d6:	6053      	str	r3, [r2, #4]
     1d8:	4b0d      	ldr	r3, [pc, #52]	; (210 <Reset_Handler+0xbc>)
     1da:	4798      	blx	r3
     1dc:	4b0d      	ldr	r3, [pc, #52]	; (214 <Reset_Handler+0xc0>)
     1de:	4798      	blx	r3
     1e0:	e7fe      	b.n	1e0 <Reset_Handler+0x8c>
     1e2:	46c0      	nop			; (mov r8, r8)
     1e4:	0000edb0 	.word	0x0000edb0
     1e8:	20000000 	.word	0x20000000
     1ec:	20000140 	.word	0x20000140
     1f0:	20000140 	.word	0x20000140
     1f4:	20000acc 	.word	0x20000acc
     1f8:	e000ed00 	.word	0xe000ed00
     1fc:	00000000 	.word	0x00000000
     200:	41007000 	.word	0x41007000
     204:	41005000 	.word	0x41005000
     208:	41004800 	.word	0x41004800
     20c:	41004000 	.word	0x41004000
     210:	0000947d 	.word	0x0000947d
     214:	0000647d 	.word	0x0000647d

00000218 <TIMER_0_init>:
     218:	b510      	push	{r4, lr}
     21a:	4a08      	ldr	r2, [pc, #32]	; (23c <TIMER_0_init+0x24>)
     21c:	6993      	ldr	r3, [r2, #24]
     21e:	2120      	movs	r1, #32
     220:	430b      	orrs	r3, r1
     222:	6193      	str	r3, [r2, #24]
     224:	4a06      	ldr	r2, [pc, #24]	; (240 <TIMER_0_init+0x28>)
     226:	4b07      	ldr	r3, [pc, #28]	; (244 <TIMER_0_init+0x2c>)
     228:	805a      	strh	r2, [r3, #2]
     22a:	4b07      	ldr	r3, [pc, #28]	; (248 <TIMER_0_init+0x30>)
     22c:	4798      	blx	r3
     22e:	0002      	movs	r2, r0
     230:	4906      	ldr	r1, [pc, #24]	; (24c <TIMER_0_init+0x34>)
     232:	4807      	ldr	r0, [pc, #28]	; (250 <TIMER_0_init+0x38>)
     234:	4b07      	ldr	r3, [pc, #28]	; (254 <TIMER_0_init+0x3c>)
     236:	4798      	blx	r3
     238:	bd10      	pop	{r4, pc}
     23a:	46c0      	nop			; (mov r8, r8)
     23c:	40000400 	.word	0x40000400
     240:	00004004 	.word	0x00004004
     244:	40000c00 	.word	0x40000c00
     248:	000032fd 	.word	0x000032fd
     24c:	40001400 	.word	0x40001400
     250:	20000a18 	.word	0x20000a18
     254:	00001b6d 	.word	0x00001b6d

00000258 <ADC_0_init>:
     258:	b5f0      	push	{r4, r5, r6, r7, lr}
     25a:	b085      	sub	sp, #20
     25c:	4a1b      	ldr	r2, [pc, #108]	; (2cc <ADC_0_init+0x74>)
     25e:	6a11      	ldr	r1, [r2, #32]
     260:	2380      	movs	r3, #128	; 0x80
     262:	025b      	lsls	r3, r3, #9
     264:	430b      	orrs	r3, r1
     266:	6213      	str	r3, [r2, #32]
     268:	4a19      	ldr	r2, [pc, #100]	; (2d0 <ADC_0_init+0x78>)
     26a:	4b1a      	ldr	r3, [pc, #104]	; (2d4 <ADC_0_init+0x7c>)
     26c:	805a      	strh	r2, [r3, #2]
     26e:	4c1a      	ldr	r4, [pc, #104]	; (2d8 <ADC_0_init+0x80>)
     270:	4e1a      	ldr	r6, [pc, #104]	; (2dc <ADC_0_init+0x84>)
     272:	2300      	movs	r3, #0
     274:	9302      	str	r3, [sp, #8]
     276:	4b1a      	ldr	r3, [pc, #104]	; (2e0 <ADC_0_init+0x88>)
     278:	9301      	str	r3, [sp, #4]
     27a:	2501      	movs	r5, #1
     27c:	9500      	str	r5, [sp, #0]
     27e:	2300      	movs	r3, #0
     280:	0022      	movs	r2, r4
     282:	4918      	ldr	r1, [pc, #96]	; (2e4 <ADC_0_init+0x8c>)
     284:	0030      	movs	r0, r6
     286:	4f18      	ldr	r7, [pc, #96]	; (2e8 <ADC_0_init+0x90>)
     288:	47b8      	blx	r7
     28a:	1d22      	adds	r2, r4, #4
     28c:	2310      	movs	r3, #16
     28e:	2100      	movs	r1, #0
     290:	0030      	movs	r0, r6
     292:	4c16      	ldr	r4, [pc, #88]	; (2ec <ADC_0_init+0x94>)
     294:	47a0      	blx	r4
     296:	2208      	movs	r2, #8
     298:	23c0      	movs	r3, #192	; 0xc0
     29a:	05db      	lsls	r3, r3, #23
     29c:	605a      	str	r2, [r3, #4]
     29e:	4a14      	ldr	r2, [pc, #80]	; (2f0 <ADC_0_init+0x98>)
     2a0:	4b14      	ldr	r3, [pc, #80]	; (2f4 <ADC_0_init+0x9c>)
     2a2:	6293      	str	r3, [r2, #40]	; 0x28
     2a4:	23c0      	movs	r3, #192	; 0xc0
     2a6:	061b      	lsls	r3, r3, #24
     2a8:	6293      	str	r3, [r2, #40]	; 0x28
     2aa:	2143      	movs	r1, #67	; 0x43
     2ac:	5c53      	ldrb	r3, [r2, r1]
     2ae:	43ab      	bics	r3, r5
     2b0:	2001      	movs	r0, #1
     2b2:	4303      	orrs	r3, r0
     2b4:	b2db      	uxtb	r3, r3
     2b6:	5453      	strb	r3, [r2, r1]
     2b8:	3912      	subs	r1, #18
     2ba:	5c53      	ldrb	r3, [r2, r1]
     2bc:	200f      	movs	r0, #15
     2be:	4003      	ands	r3, r0
     2c0:	2010      	movs	r0, #16
     2c2:	4303      	orrs	r3, r0
     2c4:	b2db      	uxtb	r3, r3
     2c6:	5453      	strb	r3, [r2, r1]
     2c8:	b005      	add	sp, #20
     2ca:	bdf0      	pop	{r4, r5, r6, r7, pc}
     2cc:	40000400 	.word	0x40000400
     2d0:	0000401e 	.word	0x0000401e
     2d4:	40000c00 	.word	0x40000c00
     2d8:	2000015c 	.word	0x2000015c
     2dc:	2000091c 	.word	0x2000091c
     2e0:	2000096c 	.word	0x2000096c
     2e4:	42004000 	.word	0x42004000
     2e8:	00000f49 	.word	0x00000f49
     2ec:	00000ffd 	.word	0x00000ffd
     2f0:	41004400 	.word	0x41004400
     2f4:	40000008 	.word	0x40000008

000002f8 <EXTERNAL_IRQ_0_init>:
     2f8:	b5f8      	push	{r3, r4, r5, r6, r7, lr}
     2fa:	46de      	mov	lr, fp
     2fc:	4657      	mov	r7, sl
     2fe:	464e      	mov	r6, r9
     300:	4645      	mov	r5, r8
     302:	b5e0      	push	{r5, r6, r7, lr}
     304:	4ad8      	ldr	r2, [pc, #864]	; (668 <EXTERNAL_IRQ_0_init+0x370>)
     306:	4bd9      	ldr	r3, [pc, #868]	; (66c <EXTERNAL_IRQ_0_init+0x374>)
     308:	805a      	strh	r2, [r3, #2]
     30a:	21c0      	movs	r1, #192	; 0xc0
     30c:	05c9      	lsls	r1, r1, #23
     30e:	2001      	movs	r0, #1
     310:	2384      	movs	r3, #132	; 0x84
     312:	50c8      	str	r0, [r1, r3]
     314:	4bd6      	ldr	r3, [pc, #856]	; (670 <EXTERNAL_IRQ_0_init+0x378>)
     316:	22a8      	movs	r2, #168	; 0xa8
     318:	4cd6      	ldr	r4, [pc, #856]	; (674 <EXTERNAL_IRQ_0_init+0x37c>)
     31a:	509c      	str	r4, [r3, r2]
     31c:	4dd6      	ldr	r5, [pc, #856]	; (678 <EXTERNAL_IRQ_0_init+0x380>)
     31e:	509d      	str	r5, [r3, r2]
     320:	2484      	movs	r4, #132	; 0x84
     322:	5108      	str	r0, [r1, r4]
     324:	343c      	adds	r4, #60	; 0x3c
     326:	46a4      	mov	ip, r4
     328:	5d1c      	ldrb	r4, [r3, r4]
     32a:	2704      	movs	r7, #4
     32c:	46bb      	mov	fp, r7
     32e:	46b9      	mov	r9, r7
     330:	464f      	mov	r7, r9
     332:	433c      	orrs	r4, r7
     334:	b2e4      	uxtb	r4, r4
     336:	4667      	mov	r7, ip
     338:	55dc      	strb	r4, [r3, r7]
     33a:	2494      	movs	r4, #148	; 0x94
     33c:	5108      	str	r0, [r1, r4]
     33e:	5ddf      	ldrb	r7, [r3, r7]
     340:	4387      	bics	r7, r0
     342:	2401      	movs	r4, #1
     344:	4327      	orrs	r7, r4
     346:	b2ff      	uxtb	r7, r7
     348:	4666      	mov	r6, ip
     34a:	559f      	strb	r7, [r3, r6]
     34c:	3e10      	subs	r6, #16
     34e:	46b4      	mov	ip, r6
     350:	5d9f      	ldrb	r7, [r3, r6]
     352:	3ea1      	subs	r6, #161	; 0xa1
     354:	43b7      	bics	r7, r6
     356:	4666      	mov	r6, ip
     358:	559f      	strb	r7, [r3, r6]
     35a:	3eae      	subs	r6, #174	; 0xae
     35c:	46b2      	mov	sl, r6
     35e:	2784      	movs	r7, #132	; 0x84
     360:	51ce      	str	r6, [r1, r7]
     362:	4fc6      	ldr	r7, [pc, #792]	; (67c <EXTERNAL_IRQ_0_init+0x384>)
     364:	509f      	str	r7, [r3, r2]
     366:	509d      	str	r5, [r3, r2]
     368:	2784      	movs	r7, #132	; 0x84
     36a:	51ce      	str	r6, [r1, r7]
     36c:	36bf      	adds	r6, #191	; 0xbf
     36e:	46b0      	mov	r8, r6
     370:	5d9f      	ldrb	r7, [r3, r6]
     372:	464e      	mov	r6, r9
     374:	4337      	orrs	r7, r6
     376:	b2ff      	uxtb	r7, r7
     378:	4646      	mov	r6, r8
     37a:	559f      	strb	r7, [r3, r6]
     37c:	3e2d      	subs	r6, #45	; 0x2d
     37e:	4657      	mov	r7, sl
     380:	518f      	str	r7, [r1, r6]
     382:	4646      	mov	r6, r8
     384:	5d9f      	ldrb	r7, [r3, r6]
     386:	4387      	bics	r7, r0
     388:	4327      	orrs	r7, r4
     38a:	b2ff      	uxtb	r7, r7
     38c:	559f      	strb	r7, [r3, r6]
     38e:	4666      	mov	r6, ip
     390:	5d9f      	ldrb	r7, [r3, r6]
     392:	3ea1      	subs	r6, #161	; 0xa1
     394:	46b2      	mov	sl, r6
     396:	4037      	ands	r7, r6
     398:	4666      	mov	r6, ip
     39a:	559f      	strb	r7, [r3, r6]
     39c:	465e      	mov	r6, fp
     39e:	2784      	movs	r7, #132	; 0x84
     3a0:	51ce      	str	r6, [r1, r7]
     3a2:	4fb7      	ldr	r7, [pc, #732]	; (680 <EXTERNAL_IRQ_0_init+0x388>)
     3a4:	509f      	str	r7, [r3, r2]
     3a6:	509d      	str	r5, [r3, r2]
     3a8:	36be      	adds	r6, #190	; 0xbe
     3aa:	46b4      	mov	ip, r6
     3ac:	5d9f      	ldrb	r7, [r3, r6]
     3ae:	465e      	mov	r6, fp
     3b0:	43b7      	bics	r7, r6
     3b2:	4666      	mov	r6, ip
     3b4:	559f      	strb	r7, [r3, r6]
     3b6:	5d9f      	ldrb	r7, [r3, r6]
     3b8:	4387      	bics	r7, r0
     3ba:	4327      	orrs	r7, r4
     3bc:	b2ff      	uxtb	r7, r7
     3be:	559f      	strb	r7, [r3, r6]
     3c0:	3e11      	subs	r6, #17
     3c2:	46b4      	mov	ip, r6
     3c4:	5d9f      	ldrb	r7, [r3, r6]
     3c6:	3ea2      	subs	r6, #162	; 0xa2
     3c8:	43b7      	bics	r7, r6
     3ca:	4666      	mov	r6, ip
     3cc:	559f      	strb	r7, [r3, r6]
     3ce:	3ea9      	subs	r6, #169	; 0xa9
     3d0:	2784      	movs	r7, #132	; 0x84
     3d2:	51ce      	str	r6, [r1, r7]
     3d4:	4fab      	ldr	r7, [pc, #684]	; (684 <EXTERNAL_IRQ_0_init+0x38c>)
     3d6:	509f      	str	r7, [r3, r2]
     3d8:	509d      	str	r5, [r3, r2]
     3da:	2784      	movs	r7, #132	; 0x84
     3dc:	51ce      	str	r6, [r1, r7]
     3de:	36bb      	adds	r6, #187	; 0xbb
     3e0:	46b0      	mov	r8, r6
     3e2:	5d9f      	ldrb	r7, [r3, r6]
     3e4:	464e      	mov	r6, r9
     3e6:	4337      	orrs	r7, r6
     3e8:	b2ff      	uxtb	r7, r7
     3ea:	4646      	mov	r6, r8
     3ec:	559f      	strb	r7, [r3, r6]
     3ee:	2798      	movs	r7, #152	; 0x98
     3f0:	3ebb      	subs	r6, #187	; 0xbb
     3f2:	51ce      	str	r6, [r1, r7]
     3f4:	4646      	mov	r6, r8
     3f6:	5d9f      	ldrb	r7, [r3, r6]
     3f8:	4387      	bics	r7, r0
     3fa:	4327      	orrs	r7, r4
     3fc:	b2ff      	uxtb	r7, r7
     3fe:	559f      	strb	r7, [r3, r6]
     400:	4666      	mov	r6, ip
     402:	5d9f      	ldrb	r7, [r3, r6]
     404:	4656      	mov	r6, sl
     406:	4037      	ands	r7, r6
     408:	4666      	mov	r6, ip
     40a:	559f      	strb	r7, [r3, r6]
     40c:	2780      	movs	r7, #128	; 0x80
     40e:	00bf      	lsls	r7, r7, #2
     410:	3e2d      	subs	r6, #45	; 0x2d
     412:	518f      	str	r7, [r1, r6]
     414:	4f9c      	ldr	r7, [pc, #624]	; (688 <EXTERNAL_IRQ_0_init+0x390>)
     416:	509f      	str	r7, [r3, r2]
     418:	509d      	str	r5, [r3, r2]
     41a:	3645      	adds	r6, #69	; 0x45
     41c:	46b4      	mov	ip, r6
     41e:	5d9f      	ldrb	r7, [r3, r6]
     420:	465e      	mov	r6, fp
     422:	43b7      	bics	r7, r6
     424:	4666      	mov	r6, ip
     426:	559f      	strb	r7, [r3, r6]
     428:	5d9f      	ldrb	r7, [r3, r6]
     42a:	4387      	bics	r7, r0
     42c:	4327      	orrs	r7, r4
     42e:	b2ff      	uxtb	r7, r7
     430:	559f      	strb	r7, [r3, r6]
     432:	3e15      	subs	r6, #21
     434:	46b0      	mov	r8, r6
     436:	5d9f      	ldrb	r7, [r3, r6]
     438:	4656      	mov	r6, sl
     43a:	4037      	ands	r7, r6
     43c:	4646      	mov	r6, r8
     43e:	559f      	strb	r7, [r3, r6]
     440:	2780      	movs	r7, #128	; 0x80
     442:	01ff      	lsls	r7, r7, #7
     444:	3e30      	subs	r6, #48	; 0x30
     446:	518f      	str	r7, [r1, r6]
     448:	4f90      	ldr	r7, [pc, #576]	; (68c <EXTERNAL_IRQ_0_init+0x394>)
     44a:	509f      	str	r7, [r3, r2]
     44c:	509d      	str	r5, [r3, r2]
     44e:	364a      	adds	r6, #74	; 0x4a
     450:	46b4      	mov	ip, r6
     452:	5d9f      	ldrb	r7, [r3, r6]
     454:	465e      	mov	r6, fp
     456:	43b7      	bics	r7, r6
     458:	4666      	mov	r6, ip
     45a:	559f      	strb	r7, [r3, r6]
     45c:	5d9f      	ldrb	r7, [r3, r6]
     45e:	4387      	bics	r7, r0
     460:	4327      	orrs	r7, r4
     462:	b2ff      	uxtb	r7, r7
     464:	559f      	strb	r7, [r3, r6]
     466:	3e17      	subs	r6, #23
     468:	5d9f      	ldrb	r7, [r3, r6]
     46a:	3ea8      	subs	r6, #168	; 0xa8
     46c:	43b7      	bics	r7, r6
     46e:	36a8      	adds	r6, #168	; 0xa8
     470:	559f      	strb	r7, [r3, r6]
     472:	2710      	movs	r7, #16
     474:	604f      	str	r7, [r1, #4]
     476:	4f86      	ldr	r7, [pc, #536]	; (690 <EXTERNAL_IRQ_0_init+0x398>)
     478:	629f      	str	r7, [r3, #40]	; 0x28
     47a:	629d      	str	r5, [r3, #40]	; 0x28
     47c:	3e73      	subs	r6, #115	; 0x73
     47e:	46b4      	mov	ip, r6
     480:	5d9f      	ldrb	r7, [r3, r6]
     482:	465e      	mov	r6, fp
     484:	43b7      	bics	r7, r6
     486:	4666      	mov	r6, ip
     488:	559f      	strb	r7, [r3, r6]
     48a:	5d9f      	ldrb	r7, [r3, r6]
     48c:	4387      	bics	r7, r0
     48e:	4327      	orrs	r7, r4
     490:	b2ff      	uxtb	r7, r7
     492:	559f      	strb	r7, [r3, r6]
     494:	3e12      	subs	r6, #18
     496:	5d9f      	ldrb	r7, [r3, r6]
     498:	3e23      	subs	r6, #35	; 0x23
     49a:	43b7      	bics	r7, r6
     49c:	3623      	adds	r6, #35	; 0x23
     49e:	559f      	strb	r7, [r3, r6]
     4a0:	2780      	movs	r7, #128	; 0x80
     4a2:	01bf      	lsls	r7, r7, #6
     4a4:	3652      	adds	r6, #82	; 0x52
     4a6:	518f      	str	r7, [r1, r6]
     4a8:	4f7a      	ldr	r7, [pc, #488]	; (694 <EXTERNAL_IRQ_0_init+0x39c>)
     4aa:	509f      	str	r7, [r3, r2]
     4ac:	509d      	str	r5, [r3, r2]
     4ae:	3649      	adds	r6, #73	; 0x49
     4b0:	46b4      	mov	ip, r6
     4b2:	5d9f      	ldrb	r7, [r3, r6]
     4b4:	465e      	mov	r6, fp
     4b6:	43b7      	bics	r7, r6
     4b8:	4666      	mov	r6, ip
     4ba:	559f      	strb	r7, [r3, r6]
     4bc:	5d9f      	ldrb	r7, [r3, r6]
     4be:	4387      	bics	r7, r0
     4c0:	4327      	orrs	r7, r4
     4c2:	b2ff      	uxtb	r7, r7
     4c4:	559f      	strb	r7, [r3, r6]
     4c6:	3e17      	subs	r6, #23
     4c8:	46b4      	mov	ip, r6
     4ca:	5d9f      	ldrb	r7, [r3, r6]
     4cc:	4656      	mov	r6, sl
     4ce:	4037      	ands	r7, r6
     4d0:	4666      	mov	r6, ip
     4d2:	559f      	strb	r7, [r3, r6]
     4d4:	2780      	movs	r7, #128	; 0x80
     4d6:	007f      	lsls	r7, r7, #1
     4d8:	3e32      	subs	r6, #50	; 0x32
     4da:	518f      	str	r7, [r1, r6]
     4dc:	4f6e      	ldr	r7, [pc, #440]	; (698 <EXTERNAL_IRQ_0_init+0x3a0>)
     4de:	509f      	str	r7, [r3, r2]
     4e0:	509d      	str	r5, [r3, r2]
     4e2:	3644      	adds	r6, #68	; 0x44
     4e4:	46b1      	mov	r9, r6
     4e6:	5d9f      	ldrb	r7, [r3, r6]
     4e8:	465e      	mov	r6, fp
     4ea:	43b7      	bics	r7, r6
     4ec:	464e      	mov	r6, r9
     4ee:	559f      	strb	r7, [r3, r6]
     4f0:	5d9f      	ldrb	r7, [r3, r6]
     4f2:	4387      	bics	r7, r0
     4f4:	4327      	orrs	r7, r4
     4f6:	b2ff      	uxtb	r7, r7
     4f8:	559f      	strb	r7, [r3, r6]
     4fa:	4646      	mov	r6, r8
     4fc:	5d9f      	ldrb	r7, [r3, r6]
     4fe:	3ea5      	subs	r6, #165	; 0xa5
     500:	43b7      	bics	r7, r6
     502:	4646      	mov	r6, r8
     504:	559f      	strb	r7, [r3, r6]
     506:	2780      	movs	r7, #128	; 0x80
     508:	023f      	lsls	r7, r7, #8
     50a:	3e30      	subs	r6, #48	; 0x30
     50c:	518f      	str	r7, [r1, r6]
     50e:	4f63      	ldr	r7, [pc, #396]	; (69c <EXTERNAL_IRQ_0_init+0x3a4>)
     510:	509f      	str	r7, [r3, r2]
     512:	509d      	str	r5, [r3, r2]
     514:	364b      	adds	r6, #75	; 0x4b
     516:	46b0      	mov	r8, r6
     518:	5d9f      	ldrb	r7, [r3, r6]
     51a:	465e      	mov	r6, fp
     51c:	43b7      	bics	r7, r6
     51e:	4646      	mov	r6, r8
     520:	559f      	strb	r7, [r3, r6]
     522:	5d9f      	ldrb	r7, [r3, r6]
     524:	4387      	bics	r7, r0
     526:	4327      	orrs	r7, r4
     528:	b2ff      	uxtb	r7, r7
     52a:	559f      	strb	r7, [r3, r6]
     52c:	3e18      	subs	r6, #24
     52e:	5d9f      	ldrb	r7, [r3, r6]
     530:	4656      	mov	r6, sl
     532:	4037      	ands	r7, r6
     534:	36a8      	adds	r6, #168	; 0xa8
     536:	559f      	strb	r7, [r3, r6]
     538:	2720      	movs	r7, #32
     53a:	604f      	str	r7, [r1, #4]
     53c:	4f58      	ldr	r7, [pc, #352]	; (6a0 <EXTERNAL_IRQ_0_init+0x3a8>)
     53e:	629f      	str	r7, [r3, #40]	; 0x28
     540:	629d      	str	r5, [r3, #40]	; 0x28
     542:	3e72      	subs	r6, #114	; 0x72
     544:	46b0      	mov	r8, r6
     546:	5d9f      	ldrb	r7, [r3, r6]
     548:	465e      	mov	r6, fp
     54a:	43b7      	bics	r7, r6
     54c:	4646      	mov	r6, r8
     54e:	559f      	strb	r7, [r3, r6]
     550:	5d9f      	ldrb	r7, [r3, r6]
     552:	4387      	bics	r7, r0
     554:	4327      	orrs	r7, r4
     556:	b2ff      	uxtb	r7, r7
     558:	559f      	strb	r7, [r3, r6]
     55a:	3e13      	subs	r6, #19
     55c:	5d9f      	ldrb	r7, [r3, r6]
     55e:	4656      	mov	r6, sl
     560:	4037      	ands	r7, r6
     562:	3623      	adds	r6, #35	; 0x23
     564:	559f      	strb	r7, [r3, r6]
     566:	2780      	movs	r7, #128	; 0x80
     568:	017f      	lsls	r7, r7, #5
     56a:	3652      	adds	r6, #82	; 0x52
     56c:	518f      	str	r7, [r1, r6]
     56e:	4f4d      	ldr	r7, [pc, #308]	; (6a4 <EXTERNAL_IRQ_0_init+0x3ac>)
     570:	509f      	str	r7, [r3, r2]
     572:	509d      	str	r5, [r3, r2]
     574:	3648      	adds	r6, #72	; 0x48
     576:	46b0      	mov	r8, r6
     578:	5d9f      	ldrb	r7, [r3, r6]
     57a:	465e      	mov	r6, fp
     57c:	43b7      	bics	r7, r6
     57e:	4646      	mov	r6, r8
     580:	559f      	strb	r7, [r3, r6]
     582:	5d9f      	ldrb	r7, [r3, r6]
     584:	4387      	bics	r7, r0
     586:	4327      	orrs	r7, r4
     588:	b2ff      	uxtb	r7, r7
     58a:	559f      	strb	r7, [r3, r6]
     58c:	4666      	mov	r6, ip
     58e:	5d9f      	ldrb	r7, [r3, r6]
     590:	3ea7      	subs	r6, #167	; 0xa7
     592:	43b7      	bics	r7, r6
     594:	4666      	mov	r6, ip
     596:	559f      	strb	r7, [r3, r6]
     598:	2740      	movs	r7, #64	; 0x40
     59a:	604f      	str	r7, [r1, #4]
     59c:	4f42      	ldr	r7, [pc, #264]	; (6a8 <EXTERNAL_IRQ_0_init+0x3b0>)
     59e:	629f      	str	r7, [r3, #40]	; 0x28
     5a0:	629d      	str	r5, [r3, #40]	; 0x28
     5a2:	3e70      	subs	r6, #112	; 0x70
     5a4:	46b4      	mov	ip, r6
     5a6:	5d9f      	ldrb	r7, [r3, r6]
     5a8:	465e      	mov	r6, fp
     5aa:	43b7      	bics	r7, r6
     5ac:	4666      	mov	r6, ip
     5ae:	559f      	strb	r7, [r3, r6]
     5b0:	5d9f      	ldrb	r7, [r3, r6]
     5b2:	4387      	bics	r7, r0
     5b4:	4327      	orrs	r7, r4
     5b6:	b2ff      	uxtb	r7, r7
     5b8:	559f      	strb	r7, [r3, r6]
     5ba:	3e13      	subs	r6, #19
     5bc:	46b0      	mov	r8, r6
     5be:	5d9f      	ldrb	r7, [r3, r6]
     5c0:	3e24      	subs	r6, #36	; 0x24
     5c2:	43b7      	bics	r7, r6
     5c4:	4646      	mov	r6, r8
     5c6:	559f      	strb	r7, [r3, r6]
     5c8:	2780      	movs	r7, #128	; 0x80
     5ca:	013f      	lsls	r7, r7, #4
     5cc:	3651      	adds	r6, #81	; 0x51
     5ce:	518f      	str	r7, [r1, r6]
     5d0:	4f36      	ldr	r7, [pc, #216]	; (6ac <EXTERNAL_IRQ_0_init+0x3b4>)
     5d2:	509f      	str	r7, [r3, r2]
     5d4:	509d      	str	r5, [r3, r2]
     5d6:	3647      	adds	r6, #71	; 0x47
     5d8:	46b4      	mov	ip, r6
     5da:	5d9f      	ldrb	r7, [r3, r6]
     5dc:	465e      	mov	r6, fp
     5de:	43b7      	bics	r7, r6
     5e0:	4666      	mov	r6, ip
     5e2:	559f      	strb	r7, [r3, r6]
     5e4:	5d9f      	ldrb	r7, [r3, r6]
     5e6:	4387      	bics	r7, r0
     5e8:	4327      	orrs	r7, r4
     5ea:	b2ff      	uxtb	r7, r7
     5ec:	559f      	strb	r7, [r3, r6]
     5ee:	3e16      	subs	r6, #22
     5f0:	46b4      	mov	ip, r6
     5f2:	5d9f      	ldrb	r7, [r3, r6]
     5f4:	4656      	mov	r6, sl
     5f6:	4037      	ands	r7, r6
     5f8:	4666      	mov	r6, ip
     5fa:	559f      	strb	r7, [r3, r6]
     5fc:	2780      	movs	r7, #128	; 0x80
     5fe:	604f      	str	r7, [r1, #4]
     600:	4f2b      	ldr	r7, [pc, #172]	; (6b0 <EXTERNAL_IRQ_0_init+0x3b8>)
     602:	629f      	str	r7, [r3, #40]	; 0x28
     604:	629d      	str	r5, [r3, #40]	; 0x28
     606:	3e6e      	subs	r6, #110	; 0x6e
     608:	46b1      	mov	r9, r6
     60a:	5d9f      	ldrb	r7, [r3, r6]
     60c:	465e      	mov	r6, fp
     60e:	43b7      	bics	r7, r6
     610:	464e      	mov	r6, r9
     612:	559f      	strb	r7, [r3, r6]
     614:	5d9f      	ldrb	r7, [r3, r6]
     616:	4387      	bics	r7, r0
     618:	4327      	orrs	r7, r4
     61a:	b2ff      	uxtb	r7, r7
     61c:	559f      	strb	r7, [r3, r6]
     61e:	4646      	mov	r6, r8
     620:	5d9f      	ldrb	r7, [r3, r6]
     622:	4656      	mov	r6, sl
     624:	4037      	ands	r7, r6
     626:	4646      	mov	r6, r8
     628:	559f      	strb	r7, [r3, r6]
     62a:	2780      	movs	r7, #128	; 0x80
     62c:	00ff      	lsls	r7, r7, #3
     62e:	3651      	adds	r6, #81	; 0x51
     630:	518f      	str	r7, [r1, r6]
     632:	4920      	ldr	r1, [pc, #128]	; (6b4 <EXTERNAL_IRQ_0_init+0x3bc>)
     634:	5099      	str	r1, [r3, r2]
     636:	509d      	str	r5, [r3, r2]
     638:	21ca      	movs	r1, #202	; 0xca
     63a:	5c5a      	ldrb	r2, [r3, r1]
     63c:	465d      	mov	r5, fp
     63e:	43aa      	bics	r2, r5
     640:	545a      	strb	r2, [r3, r1]
     642:	5c5a      	ldrb	r2, [r3, r1]
     644:	4382      	bics	r2, r0
     646:	4314      	orrs	r4, r2
     648:	b2e4      	uxtb	r4, r4
     64a:	545c      	strb	r4, [r3, r1]
     64c:	4662      	mov	r2, ip
     64e:	5c9a      	ldrb	r2, [r3, r2]
     650:	39bb      	subs	r1, #187	; 0xbb
     652:	438a      	bics	r2, r1
     654:	4661      	mov	r1, ip
     656:	545a      	strb	r2, [r3, r1]
     658:	4b17      	ldr	r3, [pc, #92]	; (6b8 <EXTERNAL_IRQ_0_init+0x3c0>)
     65a:	4798      	blx	r3
     65c:	bc3c      	pop	{r2, r3, r4, r5}
     65e:	4690      	mov	r8, r2
     660:	4699      	mov	r9, r3
     662:	46a2      	mov	sl, r4
     664:	46ab      	mov	fp, r5
     666:	bdf8      	pop	{r3, r4, r5, r6, r7, pc}
     668:	00004005 	.word	0x00004005
     66c:	40000c00 	.word	0x40000c00
     670:	41004400 	.word	0x41004400
     674:	40020001 	.word	0x40020001
     678:	c0020000 	.word	0xc0020000
     67c:	40020002 	.word	0x40020002
     680:	40020004 	.word	0x40020004
     684:	40020008 	.word	0x40020008
     688:	40020200 	.word	0x40020200
     68c:	40024000 	.word	0x40024000
     690:	40020010 	.word	0x40020010
     694:	40022000 	.word	0x40022000
     698:	40020100 	.word	0x40020100
     69c:	40028000 	.word	0x40028000
     6a0:	40020020 	.word	0x40020020
     6a4:	40021000 	.word	0x40021000
     6a8:	40020040 	.word	0x40020040
     6ac:	40020800 	.word	0x40020800
     6b0:	40020080 	.word	0x40020080
     6b4:	40020400 	.word	0x40020400
     6b8:	00001461 	.word	0x00001461

000006bc <FLASH_0_CLOCK_init>:
     6bc:	4a02      	ldr	r2, [pc, #8]	; (6c8 <FLASH_0_CLOCK_init+0xc>)
     6be:	69d3      	ldr	r3, [r2, #28]
     6c0:	2104      	movs	r1, #4
     6c2:	430b      	orrs	r3, r1
     6c4:	61d3      	str	r3, [r2, #28]
     6c6:	4770      	bx	lr
     6c8:	40000400 	.word	0x40000400

000006cc <FLASH_0_init>:
     6cc:	b510      	push	{r4, lr}
     6ce:	4b03      	ldr	r3, [pc, #12]	; (6dc <FLASH_0_init+0x10>)
     6d0:	4798      	blx	r3
     6d2:	4903      	ldr	r1, [pc, #12]	; (6e0 <FLASH_0_init+0x14>)
     6d4:	4803      	ldr	r0, [pc, #12]	; (6e4 <FLASH_0_init+0x18>)
     6d6:	4b04      	ldr	r3, [pc, #16]	; (6e8 <FLASH_0_init+0x1c>)
     6d8:	4798      	blx	r3
     6da:	bd10      	pop	{r4, pc}
     6dc:	000006bd 	.word	0x000006bd
     6e0:	41004000 	.word	0x41004000
     6e4:	20000900 	.word	0x20000900
     6e8:	000015d1 	.word	0x000015d1

000006ec <SPI_0_PORT_init>:
     6ec:	b5f0      	push	{r4, r5, r6, r7, lr}
     6ee:	24c0      	movs	r4, #192	; 0xc0
     6f0:	05e4      	lsls	r4, r4, #23
     6f2:	2380      	movs	r3, #128	; 0x80
     6f4:	005b      	lsls	r3, r3, #1
     6f6:	6163      	str	r3, [r4, #20]
     6f8:	60a3      	str	r3, [r4, #8]
     6fa:	4b22      	ldr	r3, [pc, #136]	; (784 <SPI_0_PORT_init+0x98>)
     6fc:	4a22      	ldr	r2, [pc, #136]	; (788 <SPI_0_PORT_init+0x9c>)
     6fe:	629a      	str	r2, [r3, #40]	; 0x28
     700:	20c0      	movs	r0, #192	; 0xc0
     702:	0600      	lsls	r0, r0, #24
     704:	6298      	str	r0, [r3, #40]	; 0x28
     706:	2148      	movs	r1, #72	; 0x48
     708:	5c5a      	ldrb	r2, [r3, r1]
     70a:	2501      	movs	r5, #1
     70c:	46ac      	mov	ip, r5
     70e:	43aa      	bics	r2, r5
     710:	2701      	movs	r7, #1
     712:	433a      	orrs	r2, r7
     714:	b2d2      	uxtb	r2, r2
     716:	545a      	strb	r2, [r3, r1]
     718:	3914      	subs	r1, #20
     71a:	5c5a      	ldrb	r2, [r3, r1]
     71c:	350e      	adds	r5, #14
     71e:	43aa      	bics	r2, r5
     720:	2502      	movs	r5, #2
     722:	432a      	orrs	r2, r5
     724:	b2d2      	uxtb	r2, r2
     726:	545a      	strb	r2, [r3, r1]
     728:	2280      	movs	r2, #128	; 0x80
     72a:	0092      	lsls	r2, r2, #2
     72c:	6162      	str	r2, [r4, #20]
     72e:	60a2      	str	r2, [r4, #8]
     730:	4a16      	ldr	r2, [pc, #88]	; (78c <SPI_0_PORT_init+0xa0>)
     732:	629a      	str	r2, [r3, #40]	; 0x28
     734:	6298      	str	r0, [r3, #40]	; 0x28
     736:	2049      	movs	r0, #73	; 0x49
     738:	5c1a      	ldrb	r2, [r3, r0]
     73a:	4665      	mov	r5, ip
     73c:	43aa      	bics	r2, r5
     73e:	433a      	orrs	r2, r7
     740:	b2d2      	uxtb	r2, r2
     742:	541a      	strb	r2, [r3, r0]
     744:	5c58      	ldrb	r0, [r3, r1]
     746:	260f      	movs	r6, #15
     748:	4030      	ands	r0, r6
     74a:	2520      	movs	r5, #32
     74c:	4328      	orrs	r0, r5
     74e:	b2c0      	uxtb	r0, r0
     750:	5458      	strb	r0, [r3, r1]
     752:	2280      	movs	r2, #128	; 0x80
     754:	0112      	lsls	r2, r2, #4
     756:	6062      	str	r2, [r4, #4]
     758:	4a0d      	ldr	r2, [pc, #52]	; (790 <SPI_0_PORT_init+0xa4>)
     75a:	629a      	str	r2, [r3, #40]	; 0x28
     75c:	4a0d      	ldr	r2, [pc, #52]	; (794 <SPI_0_PORT_init+0xa8>)
     75e:	629a      	str	r2, [r3, #40]	; 0x28
     760:	224b      	movs	r2, #75	; 0x4b
     762:	5c99      	ldrb	r1, [r3, r2]
     764:	2004      	movs	r0, #4
     766:	4381      	bics	r1, r0
     768:	5499      	strb	r1, [r3, r2]
     76a:	5c99      	ldrb	r1, [r3, r2]
     76c:	4660      	mov	r0, ip
     76e:	4381      	bics	r1, r0
     770:	4339      	orrs	r1, r7
     772:	b2c9      	uxtb	r1, r1
     774:	5499      	strb	r1, [r3, r2]
     776:	2135      	movs	r1, #53	; 0x35
     778:	5c5a      	ldrb	r2, [r3, r1]
     77a:	4032      	ands	r2, r6
     77c:	432a      	orrs	r2, r5
     77e:	b2d2      	uxtb	r2, r2
     780:	545a      	strb	r2, [r3, r1]
     782:	bdf0      	pop	{r4, r5, r6, r7, pc}
     784:	41004400 	.word	0x41004400
     788:	40000100 	.word	0x40000100
     78c:	40000200 	.word	0x40000200
     790:	40020800 	.word	0x40020800
     794:	c0020000 	.word	0xc0020000

00000798 <SPI_0_CLOCK_init>:
     798:	4a04      	ldr	r2, [pc, #16]	; (7ac <SPI_0_CLOCK_init+0x14>)
     79a:	6a13      	ldr	r3, [r2, #32]
     79c:	2104      	movs	r1, #4
     79e:	430b      	orrs	r3, r1
     7a0:	6213      	str	r3, [r2, #32]
     7a2:	4a03      	ldr	r2, [pc, #12]	; (7b0 <SPI_0_CLOCK_init+0x18>)
     7a4:	4b03      	ldr	r3, [pc, #12]	; (7b4 <SPI_0_CLOCK_init+0x1c>)
     7a6:	805a      	strh	r2, [r3, #2]
     7a8:	4770      	bx	lr
     7aa:	46c0      	nop			; (mov r8, r8)
     7ac:	40000400 	.word	0x40000400
     7b0:	00004014 	.word	0x00004014
     7b4:	40000c00 	.word	0x40000c00

000007b8 <SPI_0_init>:
     7b8:	b510      	push	{r4, lr}
     7ba:	4b04      	ldr	r3, [pc, #16]	; (7cc <SPI_0_init+0x14>)
     7bc:	4798      	blx	r3
     7be:	4904      	ldr	r1, [pc, #16]	; (7d0 <SPI_0_init+0x18>)
     7c0:	4804      	ldr	r0, [pc, #16]	; (7d4 <SPI_0_init+0x1c>)
     7c2:	4b05      	ldr	r3, [pc, #20]	; (7d8 <SPI_0_init+0x20>)
     7c4:	4798      	blx	r3
     7c6:	4b05      	ldr	r3, [pc, #20]	; (7dc <SPI_0_init+0x24>)
     7c8:	4798      	blx	r3
     7ca:	bd10      	pop	{r4, pc}
     7cc:	00000799 	.word	0x00000799
     7d0:	42000800 	.word	0x42000800
     7d4:	20000984 	.word	0x20000984
     7d8:	00001999 	.word	0x00001999
     7dc:	000006ed 	.word	0x000006ed

000007e0 <USART_1_CLOCK_init>:
     7e0:	4a04      	ldr	r2, [pc, #16]	; (7f4 <USART_1_CLOCK_init+0x14>)
     7e2:	6a13      	ldr	r3, [r2, #32]
     7e4:	2108      	movs	r1, #8
     7e6:	430b      	orrs	r3, r1
     7e8:	6213      	str	r3, [r2, #32]
     7ea:	4a03      	ldr	r2, [pc, #12]	; (7f8 <USART_1_CLOCK_init+0x18>)
     7ec:	4b03      	ldr	r3, [pc, #12]	; (7fc <USART_1_CLOCK_init+0x1c>)
     7ee:	805a      	strh	r2, [r3, #2]
     7f0:	4770      	bx	lr
     7f2:	46c0      	nop			; (mov r8, r8)
     7f4:	40000400 	.word	0x40000400
     7f8:	00004015 	.word	0x00004015
     7fc:	40000c00 	.word	0x40000c00

00000800 <USART_1_PORT_init>:
     800:	b530      	push	{r4, r5, lr}
     802:	4b0f      	ldr	r3, [pc, #60]	; (840 <USART_1_PORT_init+0x40>)
     804:	2250      	movs	r2, #80	; 0x50
     806:	5c99      	ldrb	r1, [r3, r2]
     808:	2501      	movs	r5, #1
     80a:	43a9      	bics	r1, r5
     80c:	2401      	movs	r4, #1
     80e:	4321      	orrs	r1, r4
     810:	b2c9      	uxtb	r1, r1
     812:	5499      	strb	r1, [r3, r2]
     814:	2038      	movs	r0, #56	; 0x38
     816:	5c19      	ldrb	r1, [r3, r0]
     818:	3a41      	subs	r2, #65	; 0x41
     81a:	4391      	bics	r1, r2
     81c:	2202      	movs	r2, #2
     81e:	4311      	orrs	r1, r2
     820:	b2c9      	uxtb	r1, r1
     822:	5419      	strb	r1, [r3, r0]
     824:	2151      	movs	r1, #81	; 0x51
     826:	5c5a      	ldrb	r2, [r3, r1]
     828:	43aa      	bics	r2, r5
     82a:	4322      	orrs	r2, r4
     82c:	b2d2      	uxtb	r2, r2
     82e:	545a      	strb	r2, [r3, r1]
     830:	5c1a      	ldrb	r2, [r3, r0]
     832:	3942      	subs	r1, #66	; 0x42
     834:	400a      	ands	r2, r1
     836:	2120      	movs	r1, #32
     838:	430a      	orrs	r2, r1
     83a:	b2d2      	uxtb	r2, r2
     83c:	541a      	strb	r2, [r3, r0]
     83e:	bd30      	pop	{r4, r5, pc}
     840:	41004400 	.word	0x41004400

00000844 <USART_1_init>:
     844:	b510      	push	{r4, lr}
     846:	b082      	sub	sp, #8
     848:	4b07      	ldr	r3, [pc, #28]	; (868 <USART_1_init+0x24>)
     84a:	4798      	blx	r3
     84c:	2300      	movs	r3, #0
     84e:	9300      	str	r3, [sp, #0]
     850:	3310      	adds	r3, #16
     852:	4a06      	ldr	r2, [pc, #24]	; (86c <USART_1_init+0x28>)
     854:	3214      	adds	r2, #20
     856:	4906      	ldr	r1, [pc, #24]	; (870 <USART_1_init+0x2c>)
     858:	4806      	ldr	r0, [pc, #24]	; (874 <USART_1_init+0x30>)
     85a:	4c07      	ldr	r4, [pc, #28]	; (878 <USART_1_init+0x34>)
     85c:	47a0      	blx	r4
     85e:	4b07      	ldr	r3, [pc, #28]	; (87c <USART_1_init+0x38>)
     860:	4798      	blx	r3
     862:	b002      	add	sp, #8
     864:	bd10      	pop	{r4, pc}
     866:	46c0      	nop			; (mov r8, r8)
     868:	000007e1 	.word	0x000007e1
     86c:	2000015c 	.word	0x2000015c
     870:	42000c00 	.word	0x42000c00
     874:	200009a8 	.word	0x200009a8
     878:	00001e09 	.word	0x00001e09
     87c:	00000801 	.word	0x00000801

00000880 <I2C_0_PORT_init>:
     880:	b570      	push	{r4, r5, r6, lr}
     882:	4b13      	ldr	r3, [pc, #76]	; (8d0 <I2C_0_PORT_init+0x50>)
     884:	2056      	movs	r0, #86	; 0x56
     886:	5c19      	ldrb	r1, [r3, r0]
     888:	2204      	movs	r2, #4
     88a:	4391      	bics	r1, r2
     88c:	5419      	strb	r1, [r3, r0]
     88e:	5c19      	ldrb	r1, [r3, r0]
     890:	2501      	movs	r5, #1
     892:	43a9      	bics	r1, r5
     894:	2401      	movs	r4, #1
     896:	4321      	orrs	r1, r4
     898:	b2c9      	uxtb	r1, r1
     89a:	5419      	strb	r1, [r3, r0]
     89c:	381b      	subs	r0, #27
     89e:	5c19      	ldrb	r1, [r3, r0]
     8a0:	260f      	movs	r6, #15
     8a2:	43b1      	bics	r1, r6
     8a4:	2602      	movs	r6, #2
     8a6:	4331      	orrs	r1, r6
     8a8:	b2c9      	uxtb	r1, r1
     8aa:	5419      	strb	r1, [r3, r0]
     8ac:	2157      	movs	r1, #87	; 0x57
     8ae:	5c5e      	ldrb	r6, [r3, r1]
     8b0:	4396      	bics	r6, r2
     8b2:	545e      	strb	r6, [r3, r1]
     8b4:	5c5a      	ldrb	r2, [r3, r1]
     8b6:	43aa      	bics	r2, r5
     8b8:	4322      	orrs	r2, r4
     8ba:	b2d2      	uxtb	r2, r2
     8bc:	545a      	strb	r2, [r3, r1]
     8be:	5c1a      	ldrb	r2, [r3, r0]
     8c0:	3948      	subs	r1, #72	; 0x48
     8c2:	400a      	ands	r2, r1
     8c4:	2120      	movs	r1, #32
     8c6:	430a      	orrs	r2, r1
     8c8:	b2d2      	uxtb	r2, r2
     8ca:	541a      	strb	r2, [r3, r0]
     8cc:	bd70      	pop	{r4, r5, r6, pc}
     8ce:	46c0      	nop			; (mov r8, r8)
     8d0:	41004400 	.word	0x41004400

000008d4 <I2C_0_CLOCK_init>:
     8d4:	4a05      	ldr	r2, [pc, #20]	; (8ec <I2C_0_CLOCK_init+0x18>)
     8d6:	6a13      	ldr	r3, [r2, #32]
     8d8:	2120      	movs	r1, #32
     8da:	430b      	orrs	r3, r1
     8dc:	6213      	str	r3, [r2, #32]
     8de:	4b04      	ldr	r3, [pc, #16]	; (8f0 <I2C_0_CLOCK_init+0x1c>)
     8e0:	4a04      	ldr	r2, [pc, #16]	; (8f4 <I2C_0_CLOCK_init+0x20>)
     8e2:	805a      	strh	r2, [r3, #2]
     8e4:	4a04      	ldr	r2, [pc, #16]	; (8f8 <I2C_0_CLOCK_init+0x24>)
     8e6:	805a      	strh	r2, [r3, #2]
     8e8:	4770      	bx	lr
     8ea:	46c0      	nop			; (mov r8, r8)
     8ec:	40000400 	.word	0x40000400
     8f0:	40000c00 	.word	0x40000c00
     8f4:	00004017 	.word	0x00004017
     8f8:	00004313 	.word	0x00004313

000008fc <I2C_0_init>:
     8fc:	b510      	push	{r4, lr}
     8fe:	4b04      	ldr	r3, [pc, #16]	; (910 <I2C_0_init+0x14>)
     900:	4798      	blx	r3
     902:	4904      	ldr	r1, [pc, #16]	; (914 <I2C_0_init+0x18>)
     904:	4804      	ldr	r0, [pc, #16]	; (918 <I2C_0_init+0x1c>)
     906:	4b05      	ldr	r3, [pc, #20]	; (91c <I2C_0_init+0x20>)
     908:	4798      	blx	r3
     90a:	4b05      	ldr	r3, [pc, #20]	; (920 <I2C_0_init+0x24>)
     90c:	4798      	blx	r3
     90e:	bd10      	pop	{r4, pc}
     910:	000008d5 	.word	0x000008d5
     914:	42001400 	.word	0x42001400
     918:	200009f8 	.word	0x200009f8
     91c:	000018e9 	.word	0x000018e9
     920:	00000881 	.word	0x00000881

00000924 <USART_0_PORT_init>:
     924:	b530      	push	{r4, r5, lr}
     926:	4b0f      	ldr	r3, [pc, #60]	; (964 <USART_0_PORT_init+0x40>)
     928:	22d6      	movs	r2, #214	; 0xd6
     92a:	5c99      	ldrb	r1, [r3, r2]
     92c:	2501      	movs	r5, #1
     92e:	43a9      	bics	r1, r5
     930:	2401      	movs	r4, #1
     932:	4321      	orrs	r1, r4
     934:	b2c9      	uxtb	r1, r1
     936:	5499      	strb	r1, [r3, r2]
     938:	20bb      	movs	r0, #187	; 0xbb
     93a:	5c19      	ldrb	r1, [r3, r0]
     93c:	3ac7      	subs	r2, #199	; 0xc7
     93e:	4391      	bics	r1, r2
     940:	2203      	movs	r2, #3
     942:	4311      	orrs	r1, r2
     944:	b2c9      	uxtb	r1, r1
     946:	5419      	strb	r1, [r3, r0]
     948:	21d7      	movs	r1, #215	; 0xd7
     94a:	5c5a      	ldrb	r2, [r3, r1]
     94c:	43aa      	bics	r2, r5
     94e:	4322      	orrs	r2, r4
     950:	b2d2      	uxtb	r2, r2
     952:	545a      	strb	r2, [r3, r1]
     954:	5c1a      	ldrb	r2, [r3, r0]
     956:	39c8      	subs	r1, #200	; 0xc8
     958:	400a      	ands	r2, r1
     95a:	2130      	movs	r1, #48	; 0x30
     95c:	430a      	orrs	r2, r1
     95e:	b2d2      	uxtb	r2, r2
     960:	541a      	strb	r2, [r3, r0]
     962:	bd30      	pop	{r4, r5, pc}
     964:	41004400 	.word	0x41004400

00000968 <USART_0_CLOCK_init>:
     968:	4a04      	ldr	r2, [pc, #16]	; (97c <USART_0_CLOCK_init+0x14>)
     96a:	6a13      	ldr	r3, [r2, #32]
     96c:	2180      	movs	r1, #128	; 0x80
     96e:	430b      	orrs	r3, r1
     970:	6213      	str	r3, [r2, #32]
     972:	4a03      	ldr	r2, [pc, #12]	; (980 <USART_0_CLOCK_init+0x18>)
     974:	4b03      	ldr	r3, [pc, #12]	; (984 <USART_0_CLOCK_init+0x1c>)
     976:	805a      	strh	r2, [r3, #2]
     978:	4770      	bx	lr
     97a:	46c0      	nop			; (mov r8, r8)
     97c:	40000400 	.word	0x40000400
     980:	00004019 	.word	0x00004019
     984:	40000c00 	.word	0x40000c00

00000988 <USART_0_init>:
     988:	b510      	push	{r4, lr}
     98a:	4b05      	ldr	r3, [pc, #20]	; (9a0 <USART_0_init+0x18>)
     98c:	4798      	blx	r3
     98e:	2200      	movs	r2, #0
     990:	4904      	ldr	r1, [pc, #16]	; (9a4 <USART_0_init+0x1c>)
     992:	4805      	ldr	r0, [pc, #20]	; (9a8 <USART_0_init+0x20>)
     994:	4b05      	ldr	r3, [pc, #20]	; (9ac <USART_0_init+0x24>)
     996:	4798      	blx	r3
     998:	4b05      	ldr	r3, [pc, #20]	; (9b0 <USART_0_init+0x28>)
     99a:	4798      	blx	r3
     99c:	bd10      	pop	{r4, pc}
     99e:	46c0      	nop			; (mov r8, r8)
     9a0:	00000969 	.word	0x00000969
     9a4:	42001c00 	.word	0x42001c00
     9a8:	2000099c 	.word	0x2000099c
     9ac:	00002081 	.word	0x00002081
     9b0:	00000925 	.word	0x00000925

000009b4 <DAC_0_PORT_init>:
     9b4:	b510      	push	{r4, lr}
     9b6:	2204      	movs	r2, #4
     9b8:	23c0      	movs	r3, #192	; 0xc0
     9ba:	05db      	lsls	r3, r3, #23
     9bc:	605a      	str	r2, [r3, #4]
     9be:	490a      	ldr	r1, [pc, #40]	; (9e8 <DAC_0_PORT_init+0x34>)
     9c0:	4b0a      	ldr	r3, [pc, #40]	; (9ec <DAC_0_PORT_init+0x38>)
     9c2:	628b      	str	r3, [r1, #40]	; 0x28
     9c4:	23c0      	movs	r3, #192	; 0xc0
     9c6:	061b      	lsls	r3, r3, #24
     9c8:	628b      	str	r3, [r1, #40]	; 0x28
     9ca:	2342      	movs	r3, #66	; 0x42
     9cc:	5cca      	ldrb	r2, [r1, r3]
     9ce:	2001      	movs	r0, #1
     9d0:	4382      	bics	r2, r0
     9d2:	4302      	orrs	r2, r0
     9d4:	b2d2      	uxtb	r2, r2
     9d6:	54ca      	strb	r2, [r1, r3]
     9d8:	2231      	movs	r2, #49	; 0x31
     9da:	5c8b      	ldrb	r3, [r1, r2]
     9dc:	240f      	movs	r4, #15
     9de:	43a3      	bics	r3, r4
     9e0:	4303      	orrs	r3, r0
     9e2:	b2db      	uxtb	r3, r3
     9e4:	548b      	strb	r3, [r1, r2]
     9e6:	bd10      	pop	{r4, pc}
     9e8:	41004400 	.word	0x41004400
     9ec:	40000004 	.word	0x40000004

000009f0 <DAC_0_CLOCK_init>:
     9f0:	4a04      	ldr	r2, [pc, #16]	; (a04 <DAC_0_CLOCK_init+0x14>)
     9f2:	6a11      	ldr	r1, [r2, #32]
     9f4:	2380      	movs	r3, #128	; 0x80
     9f6:	02db      	lsls	r3, r3, #11
     9f8:	430b      	orrs	r3, r1
     9fa:	6213      	str	r3, [r2, #32]
     9fc:	4a02      	ldr	r2, [pc, #8]	; (a08 <DAC_0_CLOCK_init+0x18>)
     9fe:	4b03      	ldr	r3, [pc, #12]	; (a0c <DAC_0_CLOCK_init+0x1c>)
     a00:	805a      	strh	r2, [r3, #2]
     a02:	4770      	bx	lr
     a04:	40000400 	.word	0x40000400
     a08:	00004021 	.word	0x00004021
     a0c:	40000c00 	.word	0x40000c00

00000a10 <DAC_0_init>:
     a10:	b510      	push	{r4, lr}
     a12:	4b04      	ldr	r3, [pc, #16]	; (a24 <DAC_0_init+0x14>)
     a14:	4798      	blx	r3
     a16:	4904      	ldr	r1, [pc, #16]	; (a28 <DAC_0_init+0x18>)
     a18:	4804      	ldr	r0, [pc, #16]	; (a2c <DAC_0_init+0x1c>)
     a1a:	4b05      	ldr	r3, [pc, #20]	; (a30 <DAC_0_init+0x20>)
     a1c:	4798      	blx	r3
     a1e:	4b05      	ldr	r3, [pc, #20]	; (a34 <DAC_0_init+0x24>)
     a20:	4798      	blx	r3
     a22:	bd10      	pop	{r4, pc}
     a24:	000009f1 	.word	0x000009f1
     a28:	42004800 	.word	0x42004800
     a2c:	20000948 	.word	0x20000948
     a30:	000012e1 	.word	0x000012e1
     a34:	000009b5 	.word	0x000009b5

00000a38 <USB_0_PORT_init>:
     a38:	b5f0      	push	{r4, r5, r6, r7, lr}
     a3a:	46c6      	mov	lr, r8
     a3c:	b500      	push	{lr}
     a3e:	24c0      	movs	r4, #192	; 0xc0
     a40:	05e4      	lsls	r4, r4, #23
     a42:	2280      	movs	r2, #128	; 0x80
     a44:	0452      	lsls	r2, r2, #17
     a46:	60a2      	str	r2, [r4, #8]
     a48:	4b1c      	ldr	r3, [pc, #112]	; (abc <USB_0_PORT_init+0x84>)
     a4a:	2780      	movs	r7, #128	; 0x80
     a4c:	05ff      	lsls	r7, r7, #23
     a4e:	629f      	str	r7, [r3, #40]	; 0x28
     a50:	491b      	ldr	r1, [pc, #108]	; (ac0 <USB_0_PORT_init+0x88>)
     a52:	6299      	str	r1, [r3, #40]	; 0x28
     a54:	6162      	str	r2, [r4, #20]
     a56:	2058      	movs	r0, #88	; 0x58
     a58:	5c19      	ldrb	r1, [r3, r0]
     a5a:	2204      	movs	r2, #4
     a5c:	4690      	mov	r8, r2
     a5e:	4391      	bics	r1, r2
     a60:	5419      	strb	r1, [r3, r0]
     a62:	5c19      	ldrb	r1, [r3, r0]
     a64:	2601      	movs	r6, #1
     a66:	43b1      	bics	r1, r6
     a68:	2501      	movs	r5, #1
     a6a:	4329      	orrs	r1, r5
     a6c:	b2c9      	uxtb	r1, r1
     a6e:	5419      	strb	r1, [r3, r0]
     a70:	381c      	subs	r0, #28
     a72:	5c19      	ldrb	r1, [r3, r0]
     a74:	320b      	adds	r2, #11
     a76:	4391      	bics	r1, r2
     a78:	2206      	movs	r2, #6
     a7a:	4694      	mov	ip, r2
     a7c:	4662      	mov	r2, ip
     a7e:	4311      	orrs	r1, r2
     a80:	b2c9      	uxtb	r1, r1
     a82:	5419      	strb	r1, [r3, r0]
     a84:	2180      	movs	r1, #128	; 0x80
     a86:	0489      	lsls	r1, r1, #18
     a88:	60a1      	str	r1, [r4, #8]
     a8a:	629f      	str	r7, [r3, #40]	; 0x28
     a8c:	4f0d      	ldr	r7, [pc, #52]	; (ac4 <USB_0_PORT_init+0x8c>)
     a8e:	629f      	str	r7, [r3, #40]	; 0x28
     a90:	6161      	str	r1, [r4, #20]
     a92:	2159      	movs	r1, #89	; 0x59
     a94:	5c5c      	ldrb	r4, [r3, r1]
     a96:	4642      	mov	r2, r8
     a98:	4394      	bics	r4, r2
     a9a:	545c      	strb	r4, [r3, r1]
     a9c:	5c5a      	ldrb	r2, [r3, r1]
     a9e:	43b2      	bics	r2, r6
     aa0:	432a      	orrs	r2, r5
     aa2:	b2d2      	uxtb	r2, r2
     aa4:	545a      	strb	r2, [r3, r1]
     aa6:	5c1a      	ldrb	r2, [r3, r0]
     aa8:	394a      	subs	r1, #74	; 0x4a
     aaa:	400a      	ands	r2, r1
     aac:	2160      	movs	r1, #96	; 0x60
     aae:	430a      	orrs	r2, r1
     ab0:	b2d2      	uxtb	r2, r2
     ab2:	541a      	strb	r2, [r3, r0]
     ab4:	bc04      	pop	{r2}
     ab6:	4690      	mov	r8, r2
     ab8:	bdf0      	pop	{r4, r5, r6, r7, pc}
     aba:	46c0      	nop			; (mov r8, r8)
     abc:	41004400 	.word	0x41004400
     ac0:	c0000100 	.word	0xc0000100
     ac4:	c0000200 	.word	0xc0000200

00000ac8 <USB_0_CLOCK_init>:
     ac8:	4b06      	ldr	r3, [pc, #24]	; (ae4 <USB_0_CLOCK_init+0x1c>)
     aca:	69da      	ldr	r2, [r3, #28]
     acc:	2120      	movs	r1, #32
     ace:	430a      	orrs	r2, r1
     ad0:	61da      	str	r2, [r3, #28]
     ad2:	695a      	ldr	r2, [r3, #20]
     ad4:	3120      	adds	r1, #32
     ad6:	430a      	orrs	r2, r1
     ad8:	615a      	str	r2, [r3, #20]
     ada:	4a03      	ldr	r2, [pc, #12]	; (ae8 <USB_0_CLOCK_init+0x20>)
     adc:	4b03      	ldr	r3, [pc, #12]	; (aec <USB_0_CLOCK_init+0x24>)
     ade:	805a      	strh	r2, [r3, #2]
     ae0:	4770      	bx	lr
     ae2:	46c0      	nop			; (mov r8, r8)
     ae4:	40000400 	.word	0x40000400
     ae8:	00004706 	.word	0x00004706
     aec:	40000c00 	.word	0x40000c00

00000af0 <USB_0_init>:
     af0:	b510      	push	{r4, lr}
     af2:	4b03      	ldr	r3, [pc, #12]	; (b00 <USB_0_init+0x10>)
     af4:	4798      	blx	r3
     af6:	4b03      	ldr	r3, [pc, #12]	; (b04 <USB_0_init+0x14>)
     af8:	4798      	blx	r3
     afa:	4b03      	ldr	r3, [pc, #12]	; (b08 <USB_0_init+0x18>)
     afc:	4798      	blx	r3
     afe:	bd10      	pop	{r4, pc}
     b00:	00000ac9 	.word	0x00000ac9
     b04:	00002345 	.word	0x00002345
     b08:	00000a39 	.word	0x00000a39

00000b0c <system_init>:
     b0c:	b5f0      	push	{r4, r5, r6, r7, lr}
     b0e:	46de      	mov	lr, fp
     b10:	4657      	mov	r7, sl
     b12:	464e      	mov	r6, r9
     b14:	4645      	mov	r5, r8
     b16:	b5e0      	push	{r5, r6, r7, lr}
     b18:	b083      	sub	sp, #12
     b1a:	4bcc      	ldr	r3, [pc, #816]	; (e4c <system_init+0x340>)
     b1c:	4798      	blx	r3
     b1e:	22c0      	movs	r2, #192	; 0xc0
     b20:	05d2      	lsls	r2, r2, #23
     b22:	2380      	movs	r3, #128	; 0x80
     b24:	00db      	lsls	r3, r3, #3
     b26:	6153      	str	r3, [r2, #20]
     b28:	6093      	str	r3, [r2, #8]
     b2a:	4bc9      	ldr	r3, [pc, #804]	; (e50 <system_init+0x344>)
     b2c:	49c9      	ldr	r1, [pc, #804]	; (e54 <system_init+0x348>)
     b2e:	6299      	str	r1, [r3, #40]	; 0x28
     b30:	24c0      	movs	r4, #192	; 0xc0
     b32:	0624      	lsls	r4, r4, #24
     b34:	629c      	str	r4, [r3, #40]	; 0x28
     b36:	254a      	movs	r5, #74	; 0x4a
     b38:	5d58      	ldrb	r0, [r3, r5]
     b3a:	2101      	movs	r1, #1
     b3c:	4388      	bics	r0, r1
     b3e:	5558      	strb	r0, [r3, r5]
     b40:	2080      	movs	r0, #128	; 0x80
     b42:	0140      	lsls	r0, r0, #5
     b44:	4684      	mov	ip, r0
     b46:	6050      	str	r0, [r2, #4]
     b48:	48c3      	ldr	r0, [pc, #780]	; (e58 <system_init+0x34c>)
     b4a:	6298      	str	r0, [r3, #40]	; 0x28
     b4c:	48c3      	ldr	r0, [pc, #780]	; (e5c <system_init+0x350>)
     b4e:	6298      	str	r0, [r3, #40]	; 0x28
     b50:	4660      	mov	r0, ip
     b52:	6050      	str	r0, [r2, #4]
     b54:	3502      	adds	r5, #2
     b56:	5d58      	ldrb	r0, [r3, r5]
     b58:	2604      	movs	r6, #4
     b5a:	4330      	orrs	r0, r6
     b5c:	b2c0      	uxtb	r0, r0
     b5e:	5558      	strb	r0, [r3, r5]
     b60:	4660      	mov	r0, ip
     b62:	6190      	str	r0, [r2, #24]
     b64:	5d58      	ldrb	r0, [r3, r5]
     b66:	4388      	bics	r0, r1
     b68:	5558      	strb	r0, [r3, r5]
     b6a:	2080      	movs	r0, #128	; 0x80
     b6c:	0180      	lsls	r0, r0, #6
     b6e:	6150      	str	r0, [r2, #20]
     b70:	6090      	str	r0, [r2, #8]
     b72:	48bb      	ldr	r0, [pc, #748]	; (e60 <system_init+0x354>)
     b74:	6298      	str	r0, [r3, #40]	; 0x28
     b76:	629c      	str	r4, [r3, #40]	; 0x28
     b78:	3501      	adds	r5, #1
     b7a:	5d58      	ldrb	r0, [r3, r5]
     b7c:	4388      	bics	r0, r1
     b7e:	5558      	strb	r0, [r3, r5]
     b80:	2080      	movs	r0, #128	; 0x80
     b82:	0340      	lsls	r0, r0, #13
     b84:	6150      	str	r0, [r2, #20]
     b86:	6090      	str	r0, [r2, #8]
     b88:	2080      	movs	r0, #128	; 0x80
     b8a:	05c0      	lsls	r0, r0, #23
     b8c:	6298      	str	r0, [r3, #40]	; 0x28
     b8e:	48b5      	ldr	r0, [pc, #724]	; (e64 <system_init+0x358>)
     b90:	6298      	str	r0, [r3, #40]	; 0x28
     b92:	2054      	movs	r0, #84	; 0x54
     b94:	4684      	mov	ip, r0
     b96:	5c18      	ldrb	r0, [r3, r0]
     b98:	4388      	bics	r0, r1
     b9a:	4665      	mov	r5, ip
     b9c:	5558      	strb	r0, [r3, r5]
     b9e:	2080      	movs	r0, #128	; 0x80
     ba0:	0380      	lsls	r0, r0, #14
     ba2:	6150      	str	r0, [r2, #20]
     ba4:	6090      	str	r0, [r2, #8]
     ba6:	2080      	movs	r0, #128	; 0x80
     ba8:	05c0      	lsls	r0, r0, #23
     baa:	6298      	str	r0, [r3, #40]	; 0x28
     bac:	48ae      	ldr	r0, [pc, #696]	; (e68 <system_init+0x35c>)
     bae:	6298      	str	r0, [r3, #40]	; 0x28
     bb0:	2055      	movs	r0, #85	; 0x55
     bb2:	4684      	mov	ip, r0
     bb4:	5c18      	ldrb	r0, [r3, r0]
     bb6:	4388      	bics	r0, r1
     bb8:	4665      	mov	r5, ip
     bba:	5558      	strb	r0, [r3, r5]
     bbc:	2080      	movs	r0, #128	; 0x80
     bbe:	02c0      	lsls	r0, r0, #11
     bc0:	6090      	str	r0, [r2, #8]
     bc2:	2580      	movs	r5, #128	; 0x80
     bc4:	05ed      	lsls	r5, r5, #23
     bc6:	629d      	str	r5, [r3, #40]	; 0x28
     bc8:	4da8      	ldr	r5, [pc, #672]	; (e6c <system_init+0x360>)
     bca:	629d      	str	r5, [r3, #40]	; 0x28
     bcc:	6150      	str	r0, [r2, #20]
     bce:	2052      	movs	r0, #82	; 0x52
     bd0:	4684      	mov	ip, r0
     bd2:	5c18      	ldrb	r0, [r3, r0]
     bd4:	2504      	movs	r5, #4
     bd6:	43a8      	bics	r0, r5
     bd8:	4665      	mov	r5, ip
     bda:	5558      	strb	r0, [r3, r5]
     bdc:	5d58      	ldrb	r0, [r3, r5]
     bde:	4388      	bics	r0, r1
     be0:	2501      	movs	r5, #1
     be2:	46a8      	mov	r8, r5
     be4:	4645      	mov	r5, r8
     be6:	4328      	orrs	r0, r5
     be8:	b2c0      	uxtb	r0, r0
     bea:	4665      	mov	r5, ip
     bec:	5558      	strb	r0, [r3, r5]
     bee:	2039      	movs	r0, #57	; 0x39
     bf0:	4684      	mov	ip, r0
     bf2:	5c18      	ldrb	r0, [r3, r0]
     bf4:	3d43      	subs	r5, #67	; 0x43
     bf6:	43a8      	bics	r0, r5
     bf8:	2502      	movs	r5, #2
     bfa:	46a8      	mov	r8, r5
     bfc:	4645      	mov	r5, r8
     bfe:	4328      	orrs	r0, r5
     c00:	b2c0      	uxtb	r0, r0
     c02:	4665      	mov	r5, ip
     c04:	5558      	strb	r0, [r3, r5]
     c06:	2080      	movs	r0, #128	; 0x80
     c08:	0300      	lsls	r0, r0, #12
     c0a:	4681      	mov	r9, r0
     c0c:	6050      	str	r0, [r2, #4]
     c0e:	4898      	ldr	r0, [pc, #608]	; (e70 <system_init+0x364>)
     c10:	4684      	mov	ip, r0
     c12:	6298      	str	r0, [r3, #40]	; 0x28
     c14:	4897      	ldr	r0, [pc, #604]	; (e74 <system_init+0x368>)
     c16:	6298      	str	r0, [r3, #40]	; 0x28
     c18:	4648      	mov	r0, r9
     c1a:	6050      	str	r0, [r2, #4]
     c1c:	2053      	movs	r0, #83	; 0x53
     c1e:	4680      	mov	r8, r0
     c20:	5c18      	ldrb	r0, [r3, r0]
     c22:	4330      	orrs	r0, r6
     c24:	b2c0      	uxtb	r0, r0
     c26:	4645      	mov	r5, r8
     c28:	5558      	strb	r0, [r3, r5]
     c2a:	4648      	mov	r0, r9
     c2c:	6150      	str	r0, [r2, #20]
     c2e:	5d58      	ldrb	r0, [r3, r5]
     c30:	4388      	bics	r0, r1
     c32:	5558      	strb	r0, [r3, r5]
     c34:	2080      	movs	r0, #128	; 0x80
     c36:	01c0      	lsls	r0, r0, #7
     c38:	6150      	str	r0, [r2, #20]
     c3a:	6090      	str	r0, [r2, #8]
     c3c:	488e      	ldr	r0, [pc, #568]	; (e78 <system_init+0x36c>)
     c3e:	6298      	str	r0, [r3, #40]	; 0x28
     c40:	629c      	str	r4, [r3, #40]	; 0x28
     c42:	204e      	movs	r0, #78	; 0x4e
     c44:	4680      	mov	r8, r0
     c46:	5c18      	ldrb	r0, [r3, r0]
     c48:	4388      	bics	r0, r1
     c4a:	4645      	mov	r5, r8
     c4c:	5558      	strb	r0, [r3, r5]
     c4e:	2080      	movs	r0, #128	; 0x80
     c50:	0200      	lsls	r0, r0, #8
     c52:	6150      	str	r0, [r2, #20]
     c54:	6090      	str	r0, [r2, #8]
     c56:	4889      	ldr	r0, [pc, #548]	; (e7c <system_init+0x370>)
     c58:	6298      	str	r0, [r3, #40]	; 0x28
     c5a:	629c      	str	r4, [r3, #40]	; 0x28
     c5c:	244f      	movs	r4, #79	; 0x4f
     c5e:	5d18      	ldrb	r0, [r3, r4]
     c60:	4388      	bics	r0, r1
     c62:	5518      	strb	r0, [r3, r4]
     c64:	2080      	movs	r0, #128	; 0x80
     c66:	0500      	lsls	r0, r0, #20
     c68:	4680      	mov	r8, r0
     c6a:	6050      	str	r0, [r2, #4]
     c6c:	4660      	mov	r0, ip
     c6e:	6298      	str	r0, [r3, #40]	; 0x28
     c70:	4883      	ldr	r0, [pc, #524]	; (e80 <system_init+0x374>)
     c72:	6298      	str	r0, [r3, #40]	; 0x28
     c74:	4640      	mov	r0, r8
     c76:	6050      	str	r0, [r2, #4]
     c78:	340c      	adds	r4, #12
     c7a:	5d18      	ldrb	r0, [r3, r4]
     c7c:	4330      	orrs	r0, r6
     c7e:	b2c0      	uxtb	r0, r0
     c80:	5518      	strb	r0, [r3, r4]
     c82:	4640      	mov	r0, r8
     c84:	6190      	str	r0, [r2, #24]
     c86:	5d18      	ldrb	r0, [r3, r4]
     c88:	4388      	bics	r0, r1
     c8a:	5518      	strb	r0, [r3, r4]
     c8c:	2080      	movs	r0, #128	; 0x80
     c8e:	0540      	lsls	r0, r0, #21
     c90:	6150      	str	r0, [r2, #20]
     c92:	6090      	str	r0, [r2, #8]
     c94:	2080      	movs	r0, #128	; 0x80
     c96:	05c0      	lsls	r0, r0, #23
     c98:	6298      	str	r0, [r3, #40]	; 0x28
     c9a:	487a      	ldr	r0, [pc, #488]	; (e84 <system_init+0x378>)
     c9c:	6298      	str	r0, [r3, #40]	; 0x28
     c9e:	3401      	adds	r4, #1
     ca0:	5d18      	ldrb	r0, [r3, r4]
     ca2:	4388      	bics	r0, r1
     ca4:	5518      	strb	r0, [r3, r4]
     ca6:	3428      	adds	r4, #40	; 0x28
     ca8:	2010      	movs	r0, #16
     caa:	4682      	mov	sl, r0
     cac:	5110      	str	r0, [r2, r4]
     cae:	3098      	adds	r0, #152	; 0x98
     cb0:	4d75      	ldr	r5, [pc, #468]	; (e88 <system_init+0x37c>)
     cb2:	501d      	str	r5, [r3, r0]
     cb4:	4d69      	ldr	r5, [pc, #420]	; (e5c <system_init+0x350>)
     cb6:	501d      	str	r5, [r3, r0]
     cb8:	4655      	mov	r5, sl
     cba:	5115      	str	r5, [r2, r4]
     cbc:	35b4      	adds	r5, #180	; 0xb4
     cbe:	46a9      	mov	r9, r5
     cc0:	5d5d      	ldrb	r5, [r3, r5]
     cc2:	4335      	orrs	r5, r6
     cc4:	466f      	mov	r7, sp
     cc6:	71fd      	strb	r5, [r7, #7]
     cc8:	79fd      	ldrb	r5, [r7, #7]
     cca:	46a8      	mov	r8, r5
     ccc:	464d      	mov	r5, r9
     cce:	4647      	mov	r7, r8
     cd0:	555f      	strb	r7, [r3, r5]
     cd2:	3d30      	subs	r5, #48	; 0x30
     cd4:	46a8      	mov	r8, r5
     cd6:	4657      	mov	r7, sl
     cd8:	5157      	str	r7, [r2, r5]
     cda:	464d      	mov	r5, r9
     cdc:	5d5d      	ldrb	r5, [r3, r5]
     cde:	438d      	bics	r5, r1
     ce0:	46aa      	mov	sl, r5
     ce2:	464d      	mov	r5, r9
     ce4:	4657      	mov	r7, sl
     ce6:	555f      	strb	r7, [r3, r5]
     ce8:	3da4      	subs	r5, #164	; 0xa4
     cea:	46ab      	mov	fp, r5
     cec:	5115      	str	r5, [r2, r4]
     cee:	4d67      	ldr	r5, [pc, #412]	; (e8c <system_init+0x380>)
     cf0:	501d      	str	r5, [r3, r0]
     cf2:	4d5a      	ldr	r5, [pc, #360]	; (e5c <system_init+0x350>)
     cf4:	501d      	str	r5, [r3, r0]
     cf6:	465d      	mov	r5, fp
     cf8:	5115      	str	r5, [r2, r4]
     cfa:	35a5      	adds	r5, #165	; 0xa5
     cfc:	46aa      	mov	sl, r5
     cfe:	5d5d      	ldrb	r5, [r3, r5]
     d00:	4335      	orrs	r5, r6
     d02:	466f      	mov	r7, sp
     d04:	71fd      	strb	r5, [r7, #7]
     d06:	79fd      	ldrb	r5, [r7, #7]
     d08:	46a9      	mov	r9, r5
     d0a:	4655      	mov	r5, sl
     d0c:	464f      	mov	r7, r9
     d0e:	555f      	strb	r7, [r3, r5]
     d10:	4645      	mov	r5, r8
     d12:	465f      	mov	r7, fp
     d14:	5157      	str	r7, [r2, r5]
     d16:	4655      	mov	r5, sl
     d18:	5d5d      	ldrb	r5, [r3, r5]
     d1a:	438d      	bics	r5, r1
     d1c:	46a9      	mov	r9, r5
     d1e:	4655      	mov	r5, sl
     d20:	464f      	mov	r7, r9
     d22:	555f      	strb	r7, [r3, r5]
     d24:	3d85      	subs	r5, #133	; 0x85
     d26:	46ab      	mov	fp, r5
     d28:	5115      	str	r5, [r2, r4]
     d2a:	4d59      	ldr	r5, [pc, #356]	; (e90 <system_init+0x384>)
     d2c:	501d      	str	r5, [r3, r0]
     d2e:	4d4b      	ldr	r5, [pc, #300]	; (e5c <system_init+0x350>)
     d30:	501d      	str	r5, [r3, r0]
     d32:	465d      	mov	r5, fp
     d34:	5115      	str	r5, [r2, r4]
     d36:	3586      	adds	r5, #134	; 0x86
     d38:	46a9      	mov	r9, r5
     d3a:	5d5d      	ldrb	r5, [r3, r5]
     d3c:	4335      	orrs	r5, r6
     d3e:	466f      	mov	r7, sp
     d40:	71fd      	strb	r5, [r7, #7]
     d42:	79fd      	ldrb	r5, [r7, #7]
     d44:	46aa      	mov	sl, r5
     d46:	464d      	mov	r5, r9
     d48:	4657      	mov	r7, sl
     d4a:	555f      	strb	r7, [r3, r5]
     d4c:	3d2e      	subs	r5, #46	; 0x2e
     d4e:	46aa      	mov	sl, r5
     d50:	465f      	mov	r7, fp
     d52:	5157      	str	r7, [r2, r5]
     d54:	464d      	mov	r5, r9
     d56:	5d5d      	ldrb	r5, [r3, r5]
     d58:	438d      	bics	r5, r1
     d5a:	46ab      	mov	fp, r5
     d5c:	464d      	mov	r5, r9
     d5e:	465f      	mov	r7, fp
     d60:	555f      	strb	r7, [r3, r5]
     d62:	3d46      	subs	r5, #70	; 0x46
     d64:	46ab      	mov	fp, r5
     d66:	5115      	str	r5, [r2, r4]
     d68:	4d4a      	ldr	r5, [pc, #296]	; (e94 <system_init+0x388>)
     d6a:	501d      	str	r5, [r3, r0]
     d6c:	4d3b      	ldr	r5, [pc, #236]	; (e5c <system_init+0x350>)
     d6e:	501d      	str	r5, [r3, r0]
     d70:	465d      	mov	r5, fp
     d72:	5115      	str	r5, [r2, r4]
     d74:	3547      	adds	r5, #71	; 0x47
     d76:	46a9      	mov	r9, r5
     d78:	5d5f      	ldrb	r7, [r3, r5]
     d7a:	4337      	orrs	r7, r6
     d7c:	b2ff      	uxtb	r7, r7
     d7e:	555f      	strb	r7, [r3, r5]
     d80:	4655      	mov	r5, sl
     d82:	465f      	mov	r7, fp
     d84:	5157      	str	r7, [r2, r5]
     d86:	464d      	mov	r5, r9
     d88:	5d5f      	ldrb	r7, [r3, r5]
     d8a:	438f      	bics	r7, r1
     d8c:	555f      	strb	r7, [r3, r5]
     d8e:	2780      	movs	r7, #128	; 0x80
     d90:	02bf      	lsls	r7, r7, #10
     d92:	4645      	mov	r5, r8
     d94:	5157      	str	r7, [r2, r5]
     d96:	3d0c      	subs	r5, #12
     d98:	46a9      	mov	r9, r5
     d9a:	5157      	str	r7, [r2, r5]
     d9c:	2580      	movs	r5, #128	; 0x80
     d9e:	05ed      	lsls	r5, r5, #23
     da0:	501d      	str	r5, [r3, r0]
     da2:	4f3d      	ldr	r7, [pc, #244]	; (e98 <system_init+0x38c>)
     da4:	501f      	str	r7, [r3, r0]
     da6:	25d1      	movs	r5, #209	; 0xd1
     da8:	5d5f      	ldrb	r7, [r3, r5]
     daa:	438f      	bics	r7, r1
     dac:	555f      	strb	r7, [r3, r5]
     dae:	2780      	movs	r7, #128	; 0x80
     db0:	027f      	lsls	r7, r7, #9
     db2:	4645      	mov	r5, r8
     db4:	5157      	str	r7, [r2, r5]
     db6:	464d      	mov	r5, r9
     db8:	5157      	str	r7, [r2, r5]
     dba:	2580      	movs	r5, #128	; 0x80
     dbc:	05ed      	lsls	r5, r5, #23
     dbe:	501d      	str	r5, [r3, r0]
     dc0:	4f36      	ldr	r7, [pc, #216]	; (e9c <system_init+0x390>)
     dc2:	501f      	str	r7, [r3, r0]
     dc4:	25d0      	movs	r5, #208	; 0xd0
     dc6:	5d5f      	ldrb	r7, [r3, r5]
     dc8:	438f      	bics	r7, r1
     dca:	555f      	strb	r7, [r3, r5]
     dcc:	2580      	movs	r5, #128	; 0x80
     dce:	05ed      	lsls	r5, r5, #23
     dd0:	5115      	str	r5, [r2, r4]
     dd2:	4665      	mov	r5, ip
     dd4:	501d      	str	r5, [r3, r0]
     dd6:	4f32      	ldr	r7, [pc, #200]	; (ea0 <system_init+0x394>)
     dd8:	501f      	str	r7, [r3, r0]
     dda:	2580      	movs	r5, #128	; 0x80
     ddc:	05ed      	lsls	r5, r5, #23
     dde:	5115      	str	r5, [r2, r4]
     de0:	27de      	movs	r7, #222	; 0xde
     de2:	5ddd      	ldrb	r5, [r3, r7]
     de4:	432e      	orrs	r6, r5
     de6:	b2f6      	uxtb	r6, r6
     de8:	55de      	strb	r6, [r3, r7]
     dea:	4655      	mov	r5, sl
     dec:	2680      	movs	r6, #128	; 0x80
     dee:	05f6      	lsls	r6, r6, #23
     df0:	5156      	str	r6, [r2, r5]
     df2:	5ddd      	ldrb	r5, [r3, r7]
     df4:	438d      	bics	r5, r1
     df6:	55dd      	strb	r5, [r3, r7]
     df8:	2580      	movs	r5, #128	; 0x80
     dfa:	062d      	lsls	r5, r5, #24
     dfc:	5115      	str	r5, [r2, r4]
     dfe:	4662      	mov	r2, ip
     e00:	501a      	str	r2, [r3, r0]
     e02:	4a28      	ldr	r2, [pc, #160]	; (ea4 <system_init+0x398>)
     e04:	501a      	str	r2, [r3, r0]
     e06:	22df      	movs	r2, #223	; 0xdf
     e08:	5c98      	ldrb	r0, [r3, r2]
     e0a:	3c80      	subs	r4, #128	; 0x80
     e0c:	43a0      	bics	r0, r4
     e0e:	5498      	strb	r0, [r3, r2]
     e10:	5c98      	ldrb	r0, [r3, r2]
     e12:	4388      	bics	r0, r1
     e14:	5498      	strb	r0, [r3, r2]
     e16:	4b24      	ldr	r3, [pc, #144]	; (ea8 <system_init+0x39c>)
     e18:	4798      	blx	r3
     e1a:	4b24      	ldr	r3, [pc, #144]	; (eac <system_init+0x3a0>)
     e1c:	4798      	blx	r3
     e1e:	4b24      	ldr	r3, [pc, #144]	; (eb0 <system_init+0x3a4>)
     e20:	4798      	blx	r3
     e22:	4b24      	ldr	r3, [pc, #144]	; (eb4 <system_init+0x3a8>)
     e24:	4798      	blx	r3
     e26:	4b24      	ldr	r3, [pc, #144]	; (eb8 <system_init+0x3ac>)
     e28:	4798      	blx	r3
     e2a:	4b24      	ldr	r3, [pc, #144]	; (ebc <system_init+0x3b0>)
     e2c:	4798      	blx	r3
     e2e:	4b24      	ldr	r3, [pc, #144]	; (ec0 <system_init+0x3b4>)
     e30:	4798      	blx	r3
     e32:	4b24      	ldr	r3, [pc, #144]	; (ec4 <system_init+0x3b8>)
     e34:	4798      	blx	r3
     e36:	4b24      	ldr	r3, [pc, #144]	; (ec8 <system_init+0x3bc>)
     e38:	4798      	blx	r3
     e3a:	4b24      	ldr	r3, [pc, #144]	; (ecc <system_init+0x3c0>)
     e3c:	4798      	blx	r3
     e3e:	b003      	add	sp, #12
     e40:	bc3c      	pop	{r2, r3, r4, r5}
     e42:	4690      	mov	r8, r2
     e44:	4699      	mov	r9, r3
     e46:	46a2      	mov	sl, r4
     e48:	46ab      	mov	fp, r5
     e4a:	bdf0      	pop	{r4, r5, r6, r7, pc}
     e4c:	00002b1d 	.word	0x00002b1d
     e50:	41004400 	.word	0x41004400
     e54:	40000400 	.word	0x40000400
     e58:	40021000 	.word	0x40021000
     e5c:	c0020000 	.word	0xc0020000
     e60:	40002000 	.word	0x40002000
     e64:	c0000010 	.word	0xc0000010
     e68:	c0000020 	.word	0xc0000020
     e6c:	c0000004 	.word	0xc0000004
     e70:	40020000 	.word	0x40020000
     e74:	c0020008 	.word	0xc0020008
     e78:	40004000 	.word	0x40004000
     e7c:	40008000 	.word	0x40008000
     e80:	c0020800 	.word	0xc0020800
     e84:	c0001000 	.word	0xc0001000
     e88:	40020010 	.word	0x40020010
     e8c:	40020020 	.word	0x40020020
     e90:	40020040 	.word	0x40020040
     e94:	40020080 	.word	0x40020080
     e98:	c0000002 	.word	0xc0000002
     e9c:	c0000001 	.word	0xc0000001
     ea0:	c0024000 	.word	0xc0024000
     ea4:	c0028000 	.word	0xc0028000
     ea8:	00000259 	.word	0x00000259
     eac:	000002f9 	.word	0x000002f9
     eb0:	000006cd 	.word	0x000006cd
     eb4:	000007b9 	.word	0x000007b9
     eb8:	00000845 	.word	0x00000845
     ebc:	000008fd 	.word	0x000008fd
     ec0:	00000989 	.word	0x00000989
     ec4:	00000219 	.word	0x00000219
     ec8:	00000a11 	.word	0x00000a11
     ecc:	00000af1 	.word	0x00000af1

00000ed0 <adc_async_window_threshold_reached>:
     ed0:	b510      	push	{r4, lr}
     ed2:	6983      	ldr	r3, [r0, #24]
     ed4:	2b00      	cmp	r3, #0
     ed6:	d000      	beq.n	eda <adc_async_window_threshold_reached+0xa>
     ed8:	4798      	blx	r3
     eda:	bd10      	pop	{r4, pc}

00000edc <adc_async_error_occured>:
     edc:	b510      	push	{r4, lr}
     ede:	69c3      	ldr	r3, [r0, #28]
     ee0:	2b00      	cmp	r3, #0
     ee2:	d000      	beq.n	ee6 <adc_async_error_occured+0xa>
     ee4:	4798      	blx	r3
     ee6:	bd10      	pop	{r4, pc}

00000ee8 <adc_async_channel_conversion_done>:
     ee8:	b5f0      	push	{r4, r5, r6, r7, lr}
     eea:	b083      	sub	sp, #12
     eec:	0005      	movs	r5, r0
     eee:	000e      	movs	r6, r1
     ef0:	0011      	movs	r1, r2
     ef2:	6a03      	ldr	r3, [r0, #32]
     ef4:	5d9a      	ldrb	r2, [r3, r6]
     ef6:	0053      	lsls	r3, r2, #1
     ef8:	189b      	adds	r3, r3, r2
     efa:	00dc      	lsls	r4, r3, #3
     efc:	6a83      	ldr	r3, [r0, #40]	; 0x28
     efe:	469c      	mov	ip, r3
     f00:	4464      	add	r4, ip
     f02:	1d27      	adds	r7, r4, #4
     f04:	9101      	str	r1, [sp, #4]
     f06:	466b      	mov	r3, sp
     f08:	7919      	ldrb	r1, [r3, #4]
     f0a:	0038      	movs	r0, r7
     f0c:	4b0c      	ldr	r3, [pc, #48]	; (f40 <adc_async_channel_conversion_done+0x58>)
     f0e:	4798      	blx	r3
     f10:	0028      	movs	r0, r5
     f12:	4b0c      	ldr	r3, [pc, #48]	; (f44 <adc_async_channel_conversion_done+0x5c>)
     f14:	4798      	blx	r3
     f16:	2801      	cmp	r0, #1
     f18:	d907      	bls.n	f2a <adc_async_channel_conversion_done+0x42>
     f1a:	9b01      	ldr	r3, [sp, #4]
     f1c:	0a19      	lsrs	r1, r3, #8
     f1e:	0038      	movs	r0, r7
     f20:	4b07      	ldr	r3, [pc, #28]	; (f40 <adc_async_channel_conversion_done+0x58>)
     f22:	4798      	blx	r3
     f24:	8aa3      	ldrh	r3, [r4, #20]
     f26:	3301      	adds	r3, #1
     f28:	82a3      	strh	r3, [r4, #20]
     f2a:	8aa3      	ldrh	r3, [r4, #20]
     f2c:	3301      	adds	r3, #1
     f2e:	82a3      	strh	r3, [r4, #20]
     f30:	6823      	ldr	r3, [r4, #0]
     f32:	2b00      	cmp	r3, #0
     f34:	d002      	beq.n	f3c <adc_async_channel_conversion_done+0x54>
     f36:	0031      	movs	r1, r6
     f38:	0028      	movs	r0, r5
     f3a:	4798      	blx	r3
     f3c:	b003      	add	sp, #12
     f3e:	bdf0      	pop	{r4, r5, r6, r7, pc}
     f40:	000027e1 	.word	0x000027e1
     f44:	00002a3b 	.word	0x00002a3b

00000f48 <adc_async_init>:
     f48:	b5f0      	push	{r4, r5, r6, r7, lr}
     f4a:	46d6      	mov	lr, sl
     f4c:	b500      	push	{lr}
     f4e:	b082      	sub	sp, #8
     f50:	0005      	movs	r5, r0
     f52:	9101      	str	r1, [sp, #4]
     f54:	0016      	movs	r6, r2
     f56:	001c      	movs	r4, r3
     f58:	ab08      	add	r3, sp, #32
     f5a:	781f      	ldrb	r7, [r3, #0]
     f5c:	2800      	cmp	r0, #0
     f5e:	d00c      	beq.n	f7a <adc_async_init+0x32>
     f60:	2900      	cmp	r1, #0
     f62:	d00c      	beq.n	f7e <adc_async_init+0x36>
     f64:	2a00      	cmp	r2, #0
     f66:	d00c      	beq.n	f82 <adc_async_init+0x3a>
     f68:	2f00      	cmp	r7, #0
     f6a:	d00c      	beq.n	f86 <adc_async_init+0x3e>
     f6c:	9b09      	ldr	r3, [sp, #36]	; 0x24
     f6e:	2b00      	cmp	r3, #0
     f70:	d001      	beq.n	f76 <adc_async_init+0x2e>
     f72:	2001      	movs	r0, #1
     f74:	e008      	b.n	f88 <adc_async_init+0x40>
     f76:	2000      	movs	r0, #0
     f78:	e006      	b.n	f88 <adc_async_init+0x40>
     f7a:	2000      	movs	r0, #0
     f7c:	e004      	b.n	f88 <adc_async_init+0x40>
     f7e:	2000      	movs	r0, #0
     f80:	e002      	b.n	f88 <adc_async_init+0x40>
     f82:	2000      	movs	r0, #0
     f84:	e000      	b.n	f88 <adc_async_init+0x40>
     f86:	2000      	movs	r0, #0
     f88:	223f      	movs	r2, #63	; 0x3f
     f8a:	4916      	ldr	r1, [pc, #88]	; (fe4 <adc_async_init+0x9c>)
     f8c:	4b16      	ldr	r3, [pc, #88]	; (fe8 <adc_async_init+0xa0>)
     f8e:	469a      	mov	sl, r3
     f90:	4798      	blx	r3
     f92:	1c62      	adds	r2, r4, #1
     f94:	0ffb      	lsrs	r3, r7, #31
     f96:	17d0      	asrs	r0, r2, #31
     f98:	42ba      	cmp	r2, r7
     f9a:	4158      	adcs	r0, r3
     f9c:	b2c0      	uxtb	r0, r0
     f9e:	2240      	movs	r2, #64	; 0x40
     fa0:	4910      	ldr	r1, [pc, #64]	; (fe4 <adc_async_init+0x9c>)
     fa2:	47d0      	blx	sl
     fa4:	2300      	movs	r3, #0
     fa6:	e003      	b.n	fb0 <adc_async_init+0x68>
     fa8:	22ff      	movs	r2, #255	; 0xff
     faa:	54f2      	strb	r2, [r6, r3]
     fac:	3301      	adds	r3, #1
     fae:	b2db      	uxtb	r3, r3
     fb0:	42a3      	cmp	r3, r4
     fb2:	d9f9      	bls.n	fa8 <adc_async_init+0x60>
     fb4:	622e      	str	r6, [r5, #32]
     fb6:	2324      	movs	r3, #36	; 0x24
     fb8:	54ec      	strb	r4, [r5, r3]
     fba:	3301      	adds	r3, #1
     fbc:	54ef      	strb	r7, [r5, r3]
     fbe:	9b09      	ldr	r3, [sp, #36]	; 0x24
     fc0:	62ab      	str	r3, [r5, #40]	; 0x28
     fc2:	9901      	ldr	r1, [sp, #4]
     fc4:	0028      	movs	r0, r5
     fc6:	4b09      	ldr	r3, [pc, #36]	; (fec <adc_async_init+0xa4>)
     fc8:	4798      	blx	r3
     fca:	2800      	cmp	r0, #0
     fcc:	d105      	bne.n	fda <adc_async_init+0x92>
     fce:	4b08      	ldr	r3, [pc, #32]	; (ff0 <adc_async_init+0xa8>)
     fd0:	60ab      	str	r3, [r5, #8]
     fd2:	4b08      	ldr	r3, [pc, #32]	; (ff4 <adc_async_init+0xac>)
     fd4:	602b      	str	r3, [r5, #0]
     fd6:	4b08      	ldr	r3, [pc, #32]	; (ff8 <adc_async_init+0xb0>)
     fd8:	606b      	str	r3, [r5, #4]
     fda:	b002      	add	sp, #8
     fdc:	bc04      	pop	{r2}
     fde:	4692      	mov	sl, r2
     fe0:	bdf0      	pop	{r4, r5, r6, r7, pc}
     fe2:	46c0      	nop			; (mov r8, r8)
     fe4:	0000a9a0 	.word	0x0000a9a0
     fe8:	000026a1 	.word	0x000026a1
     fec:	000029cd 	.word	0x000029cd
     ff0:	00000ee9 	.word	0x00000ee9
     ff4:	00000ed1 	.word	0x00000ed1
     ff8:	00000edd 	.word	0x00000edd

00000ffc <adc_async_register_channel_buffer>:
     ffc:	b5f0      	push	{r4, r5, r6, r7, lr}
     ffe:	b083      	sub	sp, #12
    1000:	0007      	movs	r7, r0
    1002:	000c      	movs	r4, r1
    1004:	9200      	str	r2, [sp, #0]
    1006:	9301      	str	r3, [sp, #4]
    1008:	2800      	cmp	r0, #0
    100a:	d019      	beq.n	1040 <adc_async_register_channel_buffer+0x44>
    100c:	2a00      	cmp	r2, #0
    100e:	d019      	beq.n	1044 <adc_async_register_channel_buffer+0x48>
    1010:	2b00      	cmp	r3, #0
    1012:	d119      	bne.n	1048 <adc_async_register_channel_buffer+0x4c>
    1014:	2000      	movs	r0, #0
    1016:	4e24      	ldr	r6, [pc, #144]	; (10a8 <adc_async_register_channel_buffer+0xac>)
    1018:	2266      	movs	r2, #102	; 0x66
    101a:	0031      	movs	r1, r6
    101c:	4d23      	ldr	r5, [pc, #140]	; (10ac <adc_async_register_channel_buffer+0xb0>)
    101e:	47a8      	blx	r5
    1020:	2324      	movs	r3, #36	; 0x24
    1022:	5cfb      	ldrb	r3, [r7, r3]
    1024:	2000      	movs	r0, #0
    1026:	42a3      	cmp	r3, r4
    1028:	4140      	adcs	r0, r0
    102a:	b2c0      	uxtb	r0, r0
    102c:	2267      	movs	r2, #103	; 0x67
    102e:	0031      	movs	r1, r6
    1030:	47a8      	blx	r5
    1032:	6a39      	ldr	r1, [r7, #32]
    1034:	5d0b      	ldrb	r3, [r1, r4]
    1036:	2bff      	cmp	r3, #255	; 0xff
    1038:	d12c      	bne.n	1094 <adc_async_register_channel_buffer+0x98>
    103a:	2600      	movs	r6, #0
    103c:	2300      	movs	r3, #0
    103e:	e007      	b.n	1050 <adc_async_register_channel_buffer+0x54>
    1040:	2000      	movs	r0, #0
    1042:	e7e8      	b.n	1016 <adc_async_register_channel_buffer+0x1a>
    1044:	2000      	movs	r0, #0
    1046:	e7e6      	b.n	1016 <adc_async_register_channel_buffer+0x1a>
    1048:	2001      	movs	r0, #1
    104a:	e7e4      	b.n	1016 <adc_async_register_channel_buffer+0x1a>
    104c:	3301      	adds	r3, #1
    104e:	b2db      	uxtb	r3, r3
    1050:	2224      	movs	r2, #36	; 0x24
    1052:	5cba      	ldrb	r2, [r7, r2]
    1054:	4293      	cmp	r3, r2
    1056:	d805      	bhi.n	1064 <adc_async_register_channel_buffer+0x68>
    1058:	5cca      	ldrb	r2, [r1, r3]
    105a:	2aff      	cmp	r2, #255	; 0xff
    105c:	d0f6      	beq.n	104c <adc_async_register_channel_buffer+0x50>
    105e:	3601      	adds	r6, #1
    1060:	b2f6      	uxtb	r6, r6
    1062:	e7f3      	b.n	104c <adc_async_register_channel_buffer+0x50>
    1064:	2325      	movs	r3, #37	; 0x25
    1066:	5cfb      	ldrb	r3, [r7, r3]
    1068:	429e      	cmp	r6, r3
    106a:	d816      	bhi.n	109a <adc_async_register_channel_buffer+0x9e>
    106c:	0073      	lsls	r3, r6, #1
    106e:	199b      	adds	r3, r3, r6
    1070:	00dd      	lsls	r5, r3, #3
    1072:	6abb      	ldr	r3, [r7, #40]	; 0x28
    1074:	1958      	adds	r0, r3, r5
    1076:	3004      	adds	r0, #4
    1078:	9a01      	ldr	r2, [sp, #4]
    107a:	9900      	ldr	r1, [sp, #0]
    107c:	4b0c      	ldr	r3, [pc, #48]	; (10b0 <adc_async_register_channel_buffer+0xb4>)
    107e:	4798      	blx	r3
    1080:	2800      	cmp	r0, #0
    1082:	d10d      	bne.n	10a0 <adc_async_register_channel_buffer+0xa4>
    1084:	6a3b      	ldr	r3, [r7, #32]
    1086:	551e      	strb	r6, [r3, r4]
    1088:	6abb      	ldr	r3, [r7, #40]	; 0x28
    108a:	195b      	adds	r3, r3, r5
    108c:	2200      	movs	r2, #0
    108e:	829a      	strh	r2, [r3, #20]
    1090:	b003      	add	sp, #12
    1092:	bdf0      	pop	{r4, r5, r6, r7, pc}
    1094:	200d      	movs	r0, #13
    1096:	4240      	negs	r0, r0
    1098:	e7fa      	b.n	1090 <adc_async_register_channel_buffer+0x94>
    109a:	201c      	movs	r0, #28
    109c:	4240      	negs	r0, r0
    109e:	e7f7      	b.n	1090 <adc_async_register_channel_buffer+0x94>
    10a0:	200d      	movs	r0, #13
    10a2:	4240      	negs	r0, r0
    10a4:	e7f4      	b.n	1090 <adc_async_register_channel_buffer+0x94>
    10a6:	46c0      	nop			; (mov r8, r8)
    10a8:	0000a9a0 	.word	0x0000a9a0
    10ac:	000026a1 	.word	0x000026a1
    10b0:	00002749 	.word	0x00002749

000010b4 <adc_async_enable_channel>:
    10b4:	b5f8      	push	{r3, r4, r5, r6, r7, lr}
    10b6:	0006      	movs	r6, r0
    10b8:	000c      	movs	r4, r1
    10ba:	4d0b      	ldr	r5, [pc, #44]	; (10e8 <adc_async_enable_channel+0x34>)
    10bc:	1e43      	subs	r3, r0, #1
    10be:	4198      	sbcs	r0, r3
    10c0:	b2c0      	uxtb	r0, r0
    10c2:	2283      	movs	r2, #131	; 0x83
    10c4:	0029      	movs	r1, r5
    10c6:	4f09      	ldr	r7, [pc, #36]	; (10ec <adc_async_enable_channel+0x38>)
    10c8:	47b8      	blx	r7
    10ca:	2324      	movs	r3, #36	; 0x24
    10cc:	5cf3      	ldrb	r3, [r6, r3]
    10ce:	2000      	movs	r0, #0
    10d0:	42a3      	cmp	r3, r4
    10d2:	4140      	adcs	r0, r0
    10d4:	b2c0      	uxtb	r0, r0
    10d6:	2284      	movs	r2, #132	; 0x84
    10d8:	0029      	movs	r1, r5
    10da:	47b8      	blx	r7
    10dc:	0021      	movs	r1, r4
    10de:	0030      	movs	r0, r6
    10e0:	4b03      	ldr	r3, [pc, #12]	; (10f0 <adc_async_enable_channel+0x3c>)
    10e2:	4798      	blx	r3
    10e4:	2000      	movs	r0, #0
    10e6:	bdf8      	pop	{r3, r4, r5, r6, r7, pc}
    10e8:	0000a9a0 	.word	0x0000a9a0
    10ec:	000026a1 	.word	0x000026a1
    10f0:	00002a2d 	.word	0x00002a2d

000010f4 <adc_async_register_callback>:
    10f4:	b5f0      	push	{r4, r5, r6, r7, lr}
    10f6:	46ce      	mov	lr, r9
    10f8:	b500      	push	{lr}
    10fa:	0004      	movs	r4, r0
    10fc:	000d      	movs	r5, r1
    10fe:	0017      	movs	r7, r2
    1100:	001e      	movs	r6, r3
    1102:	1e43      	subs	r3, r0, #1
    1104:	4198      	sbcs	r0, r3
    1106:	b2c0      	uxtb	r0, r0
    1108:	229c      	movs	r2, #156	; 0x9c
    110a:	4916      	ldr	r1, [pc, #88]	; (1164 <adc_async_register_callback+0x70>)
    110c:	4b16      	ldr	r3, [pc, #88]	; (1168 <adc_async_register_callback+0x74>)
    110e:	4699      	mov	r9, r3
    1110:	4798      	blx	r3
    1112:	2324      	movs	r3, #36	; 0x24
    1114:	5ce3      	ldrb	r3, [r4, r3]
    1116:	2000      	movs	r0, #0
    1118:	42ab      	cmp	r3, r5
    111a:	4140      	adcs	r0, r0
    111c:	b2c0      	uxtb	r0, r0
    111e:	229d      	movs	r2, #157	; 0x9d
    1120:	4910      	ldr	r1, [pc, #64]	; (1164 <adc_async_register_callback+0x70>)
    1122:	47c8      	blx	r9
    1124:	6a23      	ldr	r3, [r4, #32]
    1126:	5d5b      	ldrb	r3, [r3, r5]
    1128:	2f01      	cmp	r7, #1
    112a:	d017      	beq.n	115c <adc_async_register_callback+0x68>
    112c:	2f00      	cmp	r7, #0
    112e:	d004      	beq.n	113a <adc_async_register_callback+0x46>
    1130:	2f02      	cmp	r7, #2
    1132:	d015      	beq.n	1160 <adc_async_register_callback+0x6c>
    1134:	200d      	movs	r0, #13
    1136:	4240      	negs	r0, r0
    1138:	e00d      	b.n	1156 <adc_async_register_callback+0x62>
    113a:	005a      	lsls	r2, r3, #1
    113c:	18d3      	adds	r3, r2, r3
    113e:	00da      	lsls	r2, r3, #3
    1140:	6aa3      	ldr	r3, [r4, #40]	; 0x28
    1142:	509e      	str	r6, [r3, r2]
    1144:	1e73      	subs	r3, r6, #1
    1146:	419e      	sbcs	r6, r3
    1148:	b2f3      	uxtb	r3, r6
    114a:	003a      	movs	r2, r7
    114c:	0029      	movs	r1, r5
    114e:	0020      	movs	r0, r4
    1150:	4c06      	ldr	r4, [pc, #24]	; (116c <adc_async_register_callback+0x78>)
    1152:	47a0      	blx	r4
    1154:	2000      	movs	r0, #0
    1156:	bc04      	pop	{r2}
    1158:	4691      	mov	r9, r2
    115a:	bdf0      	pop	{r4, r5, r6, r7, pc}
    115c:	61a6      	str	r6, [r4, #24]
    115e:	e7f1      	b.n	1144 <adc_async_register_callback+0x50>
    1160:	61e6      	str	r6, [r4, #28]
    1162:	e7ef      	b.n	1144 <adc_async_register_callback+0x50>
    1164:	0000a9a0 	.word	0x0000a9a0
    1168:	000026a1 	.word	0x000026a1
    116c:	00002a6b 	.word	0x00002a6b

00001170 <adc_async_read_channel>:
    1170:	b5f0      	push	{r4, r5, r6, r7, lr}
    1172:	46ce      	mov	lr, r9
    1174:	4647      	mov	r7, r8
    1176:	b580      	push	{r7, lr}
    1178:	b083      	sub	sp, #12
    117a:	0005      	movs	r5, r0
    117c:	000c      	movs	r4, r1
    117e:	4690      	mov	r8, r2
    1180:	001e      	movs	r6, r3
    1182:	2800      	cmp	r0, #0
    1184:	d034      	beq.n	11f0 <adc_async_read_channel+0x80>
    1186:	2a00      	cmp	r2, #0
    1188:	d034      	beq.n	11f4 <adc_async_read_channel+0x84>
    118a:	2e00      	cmp	r6, #0
    118c:	d134      	bne.n	11f8 <adc_async_read_channel+0x88>
    118e:	2000      	movs	r0, #0
    1190:	22bc      	movs	r2, #188	; 0xbc
    1192:	4925      	ldr	r1, [pc, #148]	; (1228 <adc_async_read_channel+0xb8>)
    1194:	4f25      	ldr	r7, [pc, #148]	; (122c <adc_async_read_channel+0xbc>)
    1196:	47b8      	blx	r7
    1198:	2324      	movs	r3, #36	; 0x24
    119a:	5ceb      	ldrb	r3, [r5, r3]
    119c:	2000      	movs	r0, #0
    119e:	42a3      	cmp	r3, r4
    11a0:	4140      	adcs	r0, r0
    11a2:	b2c0      	uxtb	r0, r0
    11a4:	22bd      	movs	r2, #189	; 0xbd
    11a6:	4920      	ldr	r1, [pc, #128]	; (1228 <adc_async_read_channel+0xb8>)
    11a8:	47b8      	blx	r7
    11aa:	0028      	movs	r0, r5
    11ac:	4b20      	ldr	r3, [pc, #128]	; (1230 <adc_async_read_channel+0xc0>)
    11ae:	4798      	blx	r3
    11b0:	0001      	movs	r1, r0
    11b2:	0030      	movs	r0, r6
    11b4:	4b1f      	ldr	r3, [pc, #124]	; (1234 <adc_async_read_channel+0xc4>)
    11b6:	4798      	blx	r3
    11b8:	4248      	negs	r0, r1
    11ba:	4148      	adcs	r0, r1
    11bc:	b2c0      	uxtb	r0, r0
    11be:	22bf      	movs	r2, #191	; 0xbf
    11c0:	4919      	ldr	r1, [pc, #100]	; (1228 <adc_async_read_channel+0xb8>)
    11c2:	47b8      	blx	r7
    11c4:	6a2b      	ldr	r3, [r5, #32]
    11c6:	5d1a      	ldrb	r2, [r3, r4]
    11c8:	6aa9      	ldr	r1, [r5, #40]	; 0x28
    11ca:	0053      	lsls	r3, r2, #1
    11cc:	189b      	adds	r3, r3, r2
    11ce:	00da      	lsls	r2, r3, #3
    11d0:	4689      	mov	r9, r1
    11d2:	4491      	add	r9, r2
    11d4:	a801      	add	r0, sp, #4
    11d6:	4b18      	ldr	r3, [pc, #96]	; (1238 <adc_async_read_channel+0xc8>)
    11d8:	4798      	blx	r3
    11da:	464b      	mov	r3, r9
    11dc:	1d1d      	adds	r5, r3, #4
    11de:	0028      	movs	r0, r5
    11e0:	4b16      	ldr	r3, [pc, #88]	; (123c <adc_async_read_channel+0xcc>)
    11e2:	4798      	blx	r3
    11e4:	0007      	movs	r7, r0
    11e6:	a801      	add	r0, sp, #4
    11e8:	4b15      	ldr	r3, [pc, #84]	; (1240 <adc_async_read_channel+0xd0>)
    11ea:	4798      	blx	r3
    11ec:	2400      	movs	r4, #0
    11ee:	e00b      	b.n	1208 <adc_async_read_channel+0x98>
    11f0:	2000      	movs	r0, #0
    11f2:	e7cd      	b.n	1190 <adc_async_read_channel+0x20>
    11f4:	2000      	movs	r0, #0
    11f6:	e7cb      	b.n	1190 <adc_async_read_channel+0x20>
    11f8:	2001      	movs	r0, #1
    11fa:	e7c9      	b.n	1190 <adc_async_read_channel+0x20>
    11fc:	3401      	adds	r4, #1
    11fe:	b2a4      	uxth	r4, r4
    1200:	4441      	add	r1, r8
    1202:	0028      	movs	r0, r5
    1204:	4b0f      	ldr	r3, [pc, #60]	; (1244 <adc_async_read_channel+0xd4>)
    1206:	4798      	blx	r3
    1208:	0021      	movs	r1, r4
    120a:	42a7      	cmp	r7, r4
    120c:	d901      	bls.n	1212 <adc_async_read_channel+0xa2>
    120e:	42b4      	cmp	r4, r6
    1210:	d3f4      	bcc.n	11fc <adc_async_read_channel+0x8c>
    1212:	464b      	mov	r3, r9
    1214:	8a9b      	ldrh	r3, [r3, #20]
    1216:	1b1b      	subs	r3, r3, r4
    1218:	464a      	mov	r2, r9
    121a:	8293      	strh	r3, [r2, #20]
    121c:	0020      	movs	r0, r4
    121e:	b003      	add	sp, #12
    1220:	bc0c      	pop	{r2, r3}
    1222:	4690      	mov	r8, r2
    1224:	4699      	mov	r9, r3
    1226:	bdf0      	pop	{r4, r5, r6, r7, pc}
    1228:	0000a9a0 	.word	0x0000a9a0
    122c:	000026a1 	.word	0x000026a1
    1230:	00002a3b 	.word	0x00002a3b
    1234:	0000941d 	.word	0x0000941d
    1238:	00001271 	.word	0x00001271
    123c:	00002821 	.word	0x00002821
    1240:	0000127f 	.word	0x0000127f
    1244:	00002795 	.word	0x00002795

00001248 <adc_async_start_conversion>:
    1248:	b510      	push	{r4, lr}
    124a:	0004      	movs	r4, r0
    124c:	1e43      	subs	r3, r0, #1
    124e:	4198      	sbcs	r0, r3
    1250:	b2c0      	uxtb	r0, r0
    1252:	22d6      	movs	r2, #214	; 0xd6
    1254:	4903      	ldr	r1, [pc, #12]	; (1264 <adc_async_start_conversion+0x1c>)
    1256:	4b04      	ldr	r3, [pc, #16]	; (1268 <adc_async_start_conversion+0x20>)
    1258:	4798      	blx	r3
    125a:	0020      	movs	r0, r4
    125c:	4b03      	ldr	r3, [pc, #12]	; (126c <adc_async_start_conversion+0x24>)
    125e:	4798      	blx	r3
    1260:	2000      	movs	r0, #0
    1262:	bd10      	pop	{r4, pc}
    1264:	0000a9a0 	.word	0x0000a9a0
    1268:	000026a1 	.word	0x000026a1
    126c:	00002a57 	.word	0x00002a57

00001270 <atomic_enter_critical>:
 */
__STATIC_FORCEINLINE uint32_t __get_PRIMASK(void)
{
  uint32_t result;

  __ASM volatile ("MRS %0, primask" : "=r" (result) :: "memory");
    1270:	f3ef 8310 	mrs	r3, PRIMASK
    1274:	6003      	str	r3, [r0, #0]
  __ASM volatile ("cpsid i" : : : "memory");
    1276:	b672      	cpsid	i
  \details Ensures the apparent order of the explicit memory operations before
           and after the instruction, without ensuring their completion.
 */
__STATIC_FORCEINLINE void __DMB(void)
{
  __ASM volatile ("dmb 0xF":::"memory");
    1278:	f3bf 8f5f 	dmb	sy
    127c:	4770      	bx	lr

0000127e <atomic_leave_critical>:
    127e:	f3bf 8f5f 	dmb	sy
    1282:	6803      	ldr	r3, [r0, #0]
  __ASM volatile ("MSR primask, %0" : : "r" (priMask) : "memory");
    1284:	f383 8810 	msr	PRIMASK, r3
    1288:	4770      	bx	lr

0000128a <dac_tx_error>:
    128a:	b510      	push	{r4, lr}
    128c:	3808      	subs	r0, #8
    128e:	6843      	ldr	r3, [r0, #4]
    1290:	2b00      	cmp	r3, #0
    1292:	d000      	beq.n	1296 <dac_tx_error+0xc>
    1294:	4798      	blx	r3
    1296:	bd10      	pop	{r4, pc}

00001298 <dac_tx_ready>:
    1298:	b570      	push	{r4, r5, r6, lr}
    129a:	0005      	movs	r5, r0
    129c:	3d08      	subs	r5, #8
    129e:	1ccb      	adds	r3, r1, #3
    12a0:	00db      	lsls	r3, r3, #3
    12a2:	18eb      	adds	r3, r5, r3
    12a4:	689b      	ldr	r3, [r3, #8]
    12a6:	2b00      	cmp	r3, #0
    12a8:	d00c      	beq.n	12c4 <dac_tx_ready+0x2c>
    12aa:	3b01      	subs	r3, #1
    12ac:	1cca      	adds	r2, r1, #3
    12ae:	00d2      	lsls	r2, r2, #3
    12b0:	18ac      	adds	r4, r5, r2
    12b2:	60a3      	str	r3, [r4, #8]
    12b4:	2b00      	cmp	r3, #0
    12b6:	d106      	bne.n	12c6 <dac_tx_ready+0x2e>
    12b8:	3808      	subs	r0, #8
    12ba:	6803      	ldr	r3, [r0, #0]
    12bc:	2b00      	cmp	r3, #0
    12be:	d001      	beq.n	12c4 <dac_tx_ready+0x2c>
    12c0:	0028      	movs	r0, r5
    12c2:	4798      	blx	r3
    12c4:	bd70      	pop	{r4, r5, r6, pc}
    12c6:	0023      	movs	r3, r4
    12c8:	6862      	ldr	r2, [r4, #4]
    12ca:	1c94      	adds	r4, r2, #2
    12cc:	605c      	str	r4, [r3, #4]
    12ce:	8853      	ldrh	r3, [r2, #2]
    12d0:	000a      	movs	r2, r1
    12d2:	0019      	movs	r1, r3
    12d4:	4b01      	ldr	r3, [pc, #4]	; (12dc <dac_tx_ready+0x44>)
    12d6:	4798      	blx	r3
    12d8:	e7f4      	b.n	12c4 <dac_tx_ready+0x2c>
    12da:	46c0      	nop			; (mov r8, r8)
    12dc:	00002c4f 	.word	0x00002c4f

000012e0 <dac_async_init>:
    12e0:	b570      	push	{r4, r5, r6, lr}
    12e2:	0004      	movs	r4, r0
    12e4:	000d      	movs	r5, r1
    12e6:	2800      	cmp	r0, #0
    12e8:	d017      	beq.n	131a <dac_async_init+0x3a>
    12ea:	2900      	cmp	r1, #0
    12ec:	d013      	beq.n	1316 <dac_async_init+0x36>
    12ee:	2001      	movs	r0, #1
    12f0:	2238      	movs	r2, #56	; 0x38
    12f2:	490f      	ldr	r1, [pc, #60]	; (1330 <dac_async_init+0x50>)
    12f4:	4b0f      	ldr	r3, [pc, #60]	; (1334 <dac_async_init+0x54>)
    12f6:	4798      	blx	r3
    12f8:	0020      	movs	r0, r4
    12fa:	3008      	adds	r0, #8
    12fc:	0029      	movs	r1, r5
    12fe:	4b0e      	ldr	r3, [pc, #56]	; (1338 <dac_async_init+0x58>)
    1300:	4798      	blx	r3
    1302:	2800      	cmp	r0, #0
    1304:	d106      	bne.n	1314 <dac_async_init+0x34>
    1306:	4b0d      	ldr	r3, [pc, #52]	; (133c <dac_async_init+0x5c>)
    1308:	60a3      	str	r3, [r4, #8]
    130a:	4b0d      	ldr	r3, [pc, #52]	; (1340 <dac_async_init+0x60>)
    130c:	60e3      	str	r3, [r4, #12]
    130e:	2300      	movs	r3, #0
    1310:	2b00      	cmp	r3, #0
    1312:	d004      	beq.n	131e <dac_async_init+0x3e>
    1314:	bd70      	pop	{r4, r5, r6, pc}
    1316:	2000      	movs	r0, #0
    1318:	e7ea      	b.n	12f0 <dac_async_init+0x10>
    131a:	2000      	movs	r0, #0
    131c:	e7e8      	b.n	12f0 <dac_async_init+0x10>
    131e:	1cda      	adds	r2, r3, #3
    1320:	00d2      	lsls	r2, r2, #3
    1322:	18a2      	adds	r2, r4, r2
    1324:	2100      	movs	r1, #0
    1326:	6051      	str	r1, [r2, #4]
    1328:	6091      	str	r1, [r2, #8]
    132a:	3301      	adds	r3, #1
    132c:	b2db      	uxtb	r3, r3
    132e:	e7ef      	b.n	1310 <dac_async_init+0x30>
    1330:	0000a9bc 	.word	0x0000a9bc
    1334:	000026a1 	.word	0x000026a1
    1338:	00002bd5 	.word	0x00002bd5
    133c:	00001299 	.word	0x00001299
    1340:	0000128b 	.word	0x0000128b

00001344 <dac_async_enable_channel>:
    1344:	b570      	push	{r4, r5, r6, lr}
    1346:	0004      	movs	r4, r0
    1348:	000d      	movs	r5, r1
    134a:	2800      	cmp	r0, #0
    134c:	d00d      	beq.n	136a <dac_async_enable_channel+0x26>
    134e:	2900      	cmp	r1, #0
    1350:	d00d      	beq.n	136e <dac_async_enable_channel+0x2a>
    1352:	2000      	movs	r0, #0
    1354:	225d      	movs	r2, #93	; 0x5d
    1356:	4907      	ldr	r1, [pc, #28]	; (1374 <dac_async_enable_channel+0x30>)
    1358:	4b07      	ldr	r3, [pc, #28]	; (1378 <dac_async_enable_channel+0x34>)
    135a:	4798      	blx	r3
    135c:	0020      	movs	r0, r4
    135e:	3008      	adds	r0, #8
    1360:	0029      	movs	r1, r5
    1362:	4b06      	ldr	r3, [pc, #24]	; (137c <dac_async_enable_channel+0x38>)
    1364:	4798      	blx	r3
    1366:	2000      	movs	r0, #0
    1368:	bd70      	pop	{r4, r5, r6, pc}
    136a:	2000      	movs	r0, #0
    136c:	e7f2      	b.n	1354 <dac_async_enable_channel+0x10>
    136e:	2001      	movs	r0, #1
    1370:	e7f0      	b.n	1354 <dac_async_enable_channel+0x10>
    1372:	46c0      	nop			; (mov r8, r8)
    1374:	0000a9bc 	.word	0x0000a9bc
    1378:	000026a1 	.word	0x000026a1
    137c:	00002c29 	.word	0x00002c29

00001380 <dac_async_write>:
    1380:	b5f0      	push	{r4, r5, r6, r7, lr}
    1382:	46c6      	mov	lr, r8
    1384:	b500      	push	{lr}
    1386:	0004      	movs	r4, r0
    1388:	000d      	movs	r5, r1
    138a:	0017      	movs	r7, r2
    138c:	4698      	mov	r8, r3
    138e:	2800      	cmp	r0, #0
    1390:	d007      	beq.n	13a2 <dac_async_write+0x22>
    1392:	2900      	cmp	r1, #0
    1394:	d107      	bne.n	13a6 <dac_async_write+0x26>
    1396:	2a00      	cmp	r2, #0
    1398:	d021      	beq.n	13de <dac_async_write+0x5e>
    139a:	2b00      	cmp	r3, #0
    139c:	d121      	bne.n	13e2 <dac_async_write+0x62>
    139e:	2000      	movs	r0, #0
    13a0:	e002      	b.n	13a8 <dac_async_write+0x28>
    13a2:	2000      	movs	r0, #0
    13a4:	e000      	b.n	13a8 <dac_async_write+0x28>
    13a6:	2000      	movs	r0, #0
    13a8:	228f      	movs	r2, #143	; 0x8f
    13aa:	4910      	ldr	r1, [pc, #64]	; (13ec <dac_async_write+0x6c>)
    13ac:	4b10      	ldr	r3, [pc, #64]	; (13f0 <dac_async_write+0x70>)
    13ae:	4798      	blx	r3
    13b0:	0026      	movs	r6, r4
    13b2:	3608      	adds	r6, #8
    13b4:	0029      	movs	r1, r5
    13b6:	0030      	movs	r0, r6
    13b8:	4b0e      	ldr	r3, [pc, #56]	; (13f4 <dac_async_write+0x74>)
    13ba:	4798      	blx	r3
    13bc:	2800      	cmp	r0, #0
    13be:	d012      	beq.n	13e6 <dac_async_write+0x66>
    13c0:	1ceb      	adds	r3, r5, #3
    13c2:	00db      	lsls	r3, r3, #3
    13c4:	18e4      	adds	r4, r4, r3
    13c6:	6067      	str	r7, [r4, #4]
    13c8:	4643      	mov	r3, r8
    13ca:	60a3      	str	r3, [r4, #8]
    13cc:	8839      	ldrh	r1, [r7, #0]
    13ce:	002a      	movs	r2, r5
    13d0:	0030      	movs	r0, r6
    13d2:	4b09      	ldr	r3, [pc, #36]	; (13f8 <dac_async_write+0x78>)
    13d4:	4798      	blx	r3
    13d6:	2000      	movs	r0, #0
    13d8:	bc04      	pop	{r2}
    13da:	4690      	mov	r8, r2
    13dc:	bdf0      	pop	{r4, r5, r6, r7, pc}
    13de:	2000      	movs	r0, #0
    13e0:	e7e2      	b.n	13a8 <dac_async_write+0x28>
    13e2:	2001      	movs	r0, #1
    13e4:	e7e0      	b.n	13a8 <dac_async_write+0x28>
    13e6:	200d      	movs	r0, #13
    13e8:	4240      	negs	r0, r0
    13ea:	e7f5      	b.n	13d8 <dac_async_write+0x58>
    13ec:	0000a9bc 	.word	0x0000a9bc
    13f0:	000026a1 	.word	0x000026a1
    13f4:	00002c3d 	.word	0x00002c3d
    13f8:	00002c4f 	.word	0x00002c4f

000013fc <delay_ms>:
    13fc:	b510      	push	{r4, lr}
    13fe:	4b04      	ldr	r3, [pc, #16]	; (1410 <delay_ms+0x14>)
    1400:	681c      	ldr	r4, [r3, #0]
    1402:	4b04      	ldr	r3, [pc, #16]	; (1414 <delay_ms+0x18>)
    1404:	4798      	blx	r3
    1406:	0001      	movs	r1, r0
    1408:	0020      	movs	r0, r4
    140a:	4b03      	ldr	r3, [pc, #12]	; (1418 <delay_ms+0x1c>)
    140c:	4798      	blx	r3
    140e:	bd10      	pop	{r4, pc}
    1410:	20000188 	.word	0x20000188
    1414:	00002af5 	.word	0x00002af5
    1418:	00002b15 	.word	0x00002b15

0000141c <process_ext_irq>:
    141c:	b570      	push	{r4, r5, r6, lr}
    141e:	2510      	movs	r5, #16
    1420:	2400      	movs	r4, #0
    1422:	e007      	b.n	1434 <process_ext_irq+0x18>
    1424:	4a0d      	ldr	r2, [pc, #52]	; (145c <process_ext_irq+0x40>)
    1426:	58b3      	ldr	r3, [r6, r2]
    1428:	2b00      	cmp	r3, #0
    142a:	d000      	beq.n	142e <process_ext_irq+0x12>
    142c:	4798      	blx	r3
    142e:	bd70      	pop	{r4, r5, r6, pc}
    1430:	3a01      	subs	r2, #1
    1432:	b2d5      	uxtb	r5, r2
    1434:	42ac      	cmp	r4, r5
    1436:	d8fa      	bhi.n	142e <process_ext_irq+0x12>
    1438:	192b      	adds	r3, r5, r4
    143a:	105b      	asrs	r3, r3, #1
    143c:	b2da      	uxtb	r2, r3
    143e:	2a0f      	cmp	r2, #15
    1440:	d8f5      	bhi.n	142e <process_ext_irq+0x12>
    1442:	21ff      	movs	r1, #255	; 0xff
    1444:	400b      	ands	r3, r1
    1446:	00de      	lsls	r6, r3, #3
    1448:	4904      	ldr	r1, [pc, #16]	; (145c <process_ext_irq+0x40>)
    144a:	1989      	adds	r1, r1, r6
    144c:	6849      	ldr	r1, [r1, #4]
    144e:	4281      	cmp	r1, r0
    1450:	d0e8      	beq.n	1424 <process_ext_irq+0x8>
    1452:	d2ed      	bcs.n	1430 <process_ext_irq+0x14>
    1454:	3201      	adds	r2, #1
    1456:	b2d4      	uxtb	r4, r2
    1458:	e7ec      	b.n	1434 <process_ext_irq+0x18>
    145a:	46c0      	nop			; (mov r8, r8)
    145c:	2000018c 	.word	0x2000018c

00001460 <ext_irq_init>:
    1460:	b510      	push	{r4, lr}
    1462:	2300      	movs	r3, #0
    1464:	e009      	b.n	147a <ext_irq_init+0x1a>
    1466:	4a08      	ldr	r2, [pc, #32]	; (1488 <ext_irq_init+0x28>)
    1468:	00d9      	lsls	r1, r3, #3
    146a:	1850      	adds	r0, r2, r1
    146c:	2401      	movs	r4, #1
    146e:	4264      	negs	r4, r4
    1470:	6044      	str	r4, [r0, #4]
    1472:	2000      	movs	r0, #0
    1474:	5088      	str	r0, [r1, r2]
    1476:	3301      	adds	r3, #1
    1478:	b29b      	uxth	r3, r3
    147a:	2b0f      	cmp	r3, #15
    147c:	d9f3      	bls.n	1466 <ext_irq_init+0x6>
    147e:	4803      	ldr	r0, [pc, #12]	; (148c <ext_irq_init+0x2c>)
    1480:	4b03      	ldr	r3, [pc, #12]	; (1490 <ext_irq_init+0x30>)
    1482:	4798      	blx	r3
    1484:	bd10      	pop	{r4, pc}
    1486:	46c0      	nop			; (mov r8, r8)
    1488:	2000018c 	.word	0x2000018c
    148c:	0000141d 	.word	0x0000141d
    1490:	00002c5d 	.word	0x00002c5d

00001494 <ext_irq_register>:
    1494:	b5f0      	push	{r4, r5, r6, r7, lr}
    1496:	46d6      	mov	lr, sl
    1498:	464f      	mov	r7, r9
    149a:	4646      	mov	r6, r8
    149c:	b5c0      	push	{r6, r7, lr}
    149e:	b084      	sub	sp, #16
    14a0:	2300      	movs	r3, #0
    14a2:	2b0f      	cmp	r3, #15
    14a4:	d80d      	bhi.n	14c2 <ext_irq_register+0x2e>
    14a6:	00dc      	lsls	r4, r3, #3
    14a8:	4a33      	ldr	r2, [pc, #204]	; (1578 <ext_irq_register+0xe4>)
    14aa:	1912      	adds	r2, r2, r4
    14ac:	6852      	ldr	r2, [r2, #4]
    14ae:	4282      	cmp	r2, r0
    14b0:	d002      	beq.n	14b8 <ext_irq_register+0x24>
    14b2:	3301      	adds	r3, #1
    14b4:	b2db      	uxtb	r3, r3
    14b6:	e7f4      	b.n	14a2 <ext_irq_register+0xe>
    14b8:	4b2f      	ldr	r3, [pc, #188]	; (1578 <ext_irq_register+0xe4>)
    14ba:	50e1      	str	r1, [r4, r3]
    14bc:	2301      	movs	r3, #1
    14be:	469a      	mov	sl, r3
    14c0:	e001      	b.n	14c6 <ext_irq_register+0x32>
    14c2:	2300      	movs	r3, #0
    14c4:	469a      	mov	sl, r3
    14c6:	2900      	cmp	r1, #0
    14c8:	d00c      	beq.n	14e4 <ext_irq_register+0x50>
    14ca:	4653      	mov	r3, sl
    14cc:	2b00      	cmp	r3, #0
    14ce:	d141      	bne.n	1554 <ext_irq_register+0xc0>
    14d0:	2b0f      	cmp	r3, #15
    14d2:	d813      	bhi.n	14fc <ext_irq_register+0x68>
    14d4:	00da      	lsls	r2, r3, #3
    14d6:	4d28      	ldr	r5, [pc, #160]	; (1578 <ext_irq_register+0xe4>)
    14d8:	5952      	ldr	r2, [r2, r5]
    14da:	2a00      	cmp	r2, #0
    14dc:	d008      	beq.n	14f0 <ext_irq_register+0x5c>
    14de:	3301      	adds	r3, #1
    14e0:	b2db      	uxtb	r3, r3
    14e2:	e7f5      	b.n	14d0 <ext_irq_register+0x3c>
    14e4:	4653      	mov	r3, sl
    14e6:	2b00      	cmp	r3, #0
    14e8:	d040      	beq.n	156c <ext_irq_register+0xd8>
    14ea:	4b24      	ldr	r3, [pc, #144]	; (157c <ext_irq_register+0xe8>)
    14ec:	4798      	blx	r3
    14ee:	e037      	b.n	1560 <ext_irq_register+0xcc>
    14f0:	00dc      	lsls	r4, r3, #3
    14f2:	5161      	str	r1, [r4, r5]
    14f4:	192c      	adds	r4, r5, r4
    14f6:	6060      	str	r0, [r4, #4]
    14f8:	2201      	movs	r2, #1
    14fa:	4692      	mov	sl, r2
    14fc:	2200      	movs	r2, #0
    14fe:	e001      	b.n	1504 <ext_irq_register+0x70>
    1500:	3201      	adds	r2, #1
    1502:	b2d2      	uxtb	r2, r2
    1504:	2a0f      	cmp	r2, #15
    1506:	d825      	bhi.n	1554 <ext_irq_register+0xc0>
    1508:	2b0f      	cmp	r3, #15
    150a:	d823      	bhi.n	1554 <ext_irq_register+0xc0>
    150c:	9301      	str	r3, [sp, #4]
    150e:	491a      	ldr	r1, [pc, #104]	; (1578 <ext_irq_register+0xe4>)
    1510:	00dc      	lsls	r4, r3, #3
    1512:	190c      	adds	r4, r1, r4
    1514:	6867      	ldr	r7, [r4, #4]
    1516:	00d4      	lsls	r4, r2, #3
    1518:	1909      	adds	r1, r1, r4
    151a:	6849      	ldr	r1, [r1, #4]
    151c:	428f      	cmp	r7, r1
    151e:	d2ef      	bcs.n	1500 <ext_irq_register+0x6c>
    1520:	1c4c      	adds	r4, r1, #1
    1522:	d0ed      	beq.n	1500 <ext_irq_register+0x6c>
    1524:	a902      	add	r1, sp, #8
    1526:	468c      	mov	ip, r1
    1528:	4f13      	ldr	r7, [pc, #76]	; (1578 <ext_irq_register+0xe4>)
    152a:	00d4      	lsls	r4, r2, #3
    152c:	46a0      	mov	r8, r4
    152e:	193c      	adds	r4, r7, r4
    1530:	4666      	mov	r6, ip
    1532:	cc22      	ldmia	r4!, {r1, r5}
    1534:	c622      	stmia	r6!, {r1, r5}
    1536:	9901      	ldr	r1, [sp, #4]
    1538:	00c9      	lsls	r1, r1, #3
    153a:	4689      	mov	r9, r1
    153c:	4641      	mov	r1, r8
    153e:	1879      	adds	r1, r7, r1
    1540:	464c      	mov	r4, r9
    1542:	193c      	adds	r4, r7, r4
    1544:	cc60      	ldmia	r4!, {r5, r6}
    1546:	c160      	stmia	r1!, {r5, r6}
    1548:	003d      	movs	r5, r7
    154a:	444d      	add	r5, r9
    154c:	4661      	mov	r1, ip
    154e:	c950      	ldmia	r1!, {r4, r6}
    1550:	c550      	stmia	r5!, {r4, r6}
    1552:	e7d5      	b.n	1500 <ext_irq_register+0x6c>
    1554:	4653      	mov	r3, sl
    1556:	2b00      	cmp	r3, #0
    1558:	d00b      	beq.n	1572 <ext_irq_register+0xde>
    155a:	2101      	movs	r1, #1
    155c:	4b07      	ldr	r3, [pc, #28]	; (157c <ext_irq_register+0xe8>)
    155e:	4798      	blx	r3
    1560:	b004      	add	sp, #16
    1562:	bc1c      	pop	{r2, r3, r4}
    1564:	4690      	mov	r8, r2
    1566:	4699      	mov	r9, r3
    1568:	46a2      	mov	sl, r4
    156a:	bdf0      	pop	{r4, r5, r6, r7, pc}
    156c:	200d      	movs	r0, #13
    156e:	4240      	negs	r0, r0
    1570:	e7f6      	b.n	1560 <ext_irq_register+0xcc>
    1572:	200d      	movs	r0, #13
    1574:	4240      	negs	r0, r0
    1576:	e7f3      	b.n	1560 <ext_irq_register+0xcc>
    1578:	2000018c 	.word	0x2000018c
    157c:	00002cf5 	.word	0x00002cf5

00001580 <flash_ready>:
    1580:	b510      	push	{r4, lr}
    1582:	6943      	ldr	r3, [r0, #20]
    1584:	2b00      	cmp	r3, #0
    1586:	d000      	beq.n	158a <flash_ready+0xa>
    1588:	4798      	blx	r3
    158a:	bd10      	pop	{r4, pc}

0000158c <flash_error>:
    158c:	b510      	push	{r4, lr}
    158e:	6983      	ldr	r3, [r0, #24]
    1590:	2b00      	cmp	r3, #0
    1592:	d000      	beq.n	1596 <flash_error+0xa>
    1594:	4798      	blx	r3
    1596:	bd10      	pop	{r4, pc}

00001598 <flash_is_address_aligned>:
    1598:	b570      	push	{r4, r5, r6, lr}
    159a:	0004      	movs	r4, r0
    159c:	000d      	movs	r5, r1
    159e:	1e43      	subs	r3, r0, #1
    15a0:	4198      	sbcs	r0, r3
    15a2:	b2c0      	uxtb	r0, r0
    15a4:	2218      	movs	r2, #24
    15a6:	32ff      	adds	r2, #255	; 0xff
    15a8:	4906      	ldr	r1, [pc, #24]	; (15c4 <flash_is_address_aligned+0x2c>)
    15aa:	4b07      	ldr	r3, [pc, #28]	; (15c8 <flash_is_address_aligned+0x30>)
    15ac:	4798      	blx	r3
    15ae:	0020      	movs	r0, r4
    15b0:	4b06      	ldr	r3, [pc, #24]	; (15cc <flash_is_address_aligned+0x34>)
    15b2:	4798      	blx	r3
    15b4:	3801      	subs	r0, #1
    15b6:	4205      	tst	r5, r0
    15b8:	d101      	bne.n	15be <flash_is_address_aligned+0x26>
    15ba:	2000      	movs	r0, #0
    15bc:	bd70      	pop	{r4, r5, r6, pc}
    15be:	200e      	movs	r0, #14
    15c0:	4240      	negs	r0, r0
    15c2:	e7fb      	b.n	15bc <flash_is_address_aligned+0x24>
    15c4:	0000a9d8 	.word	0x0000a9d8
    15c8:	000026a1 	.word	0x000026a1
    15cc:	00002f5d 	.word	0x00002f5d

000015d0 <flash_init>:
    15d0:	b570      	push	{r4, r5, r6, lr}
    15d2:	0004      	movs	r4, r0
    15d4:	000d      	movs	r5, r1
    15d6:	2800      	cmp	r0, #0
    15d8:	d013      	beq.n	1602 <flash_init+0x32>
    15da:	2900      	cmp	r1, #0
    15dc:	d00f      	beq.n	15fe <flash_init+0x2e>
    15de:	2001      	movs	r0, #1
    15e0:	2238      	movs	r2, #56	; 0x38
    15e2:	4909      	ldr	r1, [pc, #36]	; (1608 <flash_init+0x38>)
    15e4:	4b09      	ldr	r3, [pc, #36]	; (160c <flash_init+0x3c>)
    15e6:	4798      	blx	r3
    15e8:	0029      	movs	r1, r5
    15ea:	0020      	movs	r0, r4
    15ec:	4b08      	ldr	r3, [pc, #32]	; (1610 <flash_init+0x40>)
    15ee:	4798      	blx	r3
    15f0:	2800      	cmp	r0, #0
    15f2:	d103      	bne.n	15fc <flash_init+0x2c>
    15f4:	4b07      	ldr	r3, [pc, #28]	; (1614 <flash_init+0x44>)
    15f6:	6023      	str	r3, [r4, #0]
    15f8:	4b07      	ldr	r3, [pc, #28]	; (1618 <flash_init+0x48>)
    15fa:	6063      	str	r3, [r4, #4]
    15fc:	bd70      	pop	{r4, r5, r6, pc}
    15fe:	2000      	movs	r0, #0
    1600:	e7ee      	b.n	15e0 <flash_init+0x10>
    1602:	2000      	movs	r0, #0
    1604:	e7ec      	b.n	15e0 <flash_init+0x10>
    1606:	46c0      	nop			; (mov r8, r8)
    1608:	0000a9d8 	.word	0x0000a9d8
    160c:	000026a1 	.word	0x000026a1
    1610:	00002efd 	.word	0x00002efd
    1614:	00001581 	.word	0x00001581
    1618:	0000158d 	.word	0x0000158d

0000161c <flash_read>:
    161c:	b5f0      	push	{r4, r5, r6, r7, lr}
    161e:	46c6      	mov	lr, r8
    1620:	b500      	push	{lr}
    1622:	0004      	movs	r4, r0
    1624:	000e      	movs	r6, r1
    1626:	0015      	movs	r5, r2
    1628:	001f      	movs	r7, r3
    162a:	2800      	cmp	r0, #0
    162c:	d020      	beq.n	1670 <flash_read+0x54>
    162e:	2a00      	cmp	r2, #0
    1630:	d020      	beq.n	1674 <flash_read+0x58>
    1632:	2b00      	cmp	r3, #0
    1634:	d120      	bne.n	1678 <flash_read+0x5c>
    1636:	2000      	movs	r0, #0
    1638:	2256      	movs	r2, #86	; 0x56
    163a:	4913      	ldr	r1, [pc, #76]	; (1688 <flash_read+0x6c>)
    163c:	4b13      	ldr	r3, [pc, #76]	; (168c <flash_read+0x70>)
    163e:	4798      	blx	r3
    1640:	0020      	movs	r0, r4
    1642:	4b13      	ldr	r3, [pc, #76]	; (1690 <flash_read+0x74>)
    1644:	4798      	blx	r3
    1646:	4680      	mov	r8, r0
    1648:	0020      	movs	r0, r4
    164a:	4b12      	ldr	r3, [pc, #72]	; (1694 <flash_read+0x78>)
    164c:	4798      	blx	r3
    164e:	4643      	mov	r3, r8
    1650:	4358      	muls	r0, r3
    1652:	42b0      	cmp	r0, r6
    1654:	d312      	bcc.n	167c <flash_read+0x60>
    1656:	19bb      	adds	r3, r7, r6
    1658:	4298      	cmp	r0, r3
    165a:	d312      	bcc.n	1682 <flash_read+0x66>
    165c:	003b      	movs	r3, r7
    165e:	002a      	movs	r2, r5
    1660:	0031      	movs	r1, r6
    1662:	0020      	movs	r0, r4
    1664:	4c0c      	ldr	r4, [pc, #48]	; (1698 <flash_read+0x7c>)
    1666:	47a0      	blx	r4
    1668:	2000      	movs	r0, #0
    166a:	bc04      	pop	{r2}
    166c:	4690      	mov	r8, r2
    166e:	bdf0      	pop	{r4, r5, r6, r7, pc}
    1670:	2000      	movs	r0, #0
    1672:	e7e1      	b.n	1638 <flash_read+0x1c>
    1674:	2000      	movs	r0, #0
    1676:	e7df      	b.n	1638 <flash_read+0x1c>
    1678:	2001      	movs	r0, #1
    167a:	e7dd      	b.n	1638 <flash_read+0x1c>
    167c:	200e      	movs	r0, #14
    167e:	4240      	negs	r0, r0
    1680:	e7f3      	b.n	166a <flash_read+0x4e>
    1682:	200e      	movs	r0, #14
    1684:	4240      	negs	r0, r0
    1686:	e7f0      	b.n	166a <flash_read+0x4e>
    1688:	0000a9d8 	.word	0x0000a9d8
    168c:	000026a1 	.word	0x000026a1
    1690:	00002f5d 	.word	0x00002f5d
    1694:	00002f61 	.word	0x00002f61
    1698:	00002f67 	.word	0x00002f67

0000169c <flash_write>:
    169c:	b5f0      	push	{r4, r5, r6, r7, lr}
    169e:	46c6      	mov	lr, r8
    16a0:	b500      	push	{lr}
    16a2:	0004      	movs	r4, r0
    16a4:	000d      	movs	r5, r1
    16a6:	0016      	movs	r6, r2
    16a8:	001f      	movs	r7, r3
    16aa:	2800      	cmp	r0, #0
    16ac:	d026      	beq.n	16fc <flash_write+0x60>
    16ae:	2a00      	cmp	r2, #0
    16b0:	d026      	beq.n	1700 <flash_write+0x64>
    16b2:	2b00      	cmp	r3, #0
    16b4:	d126      	bne.n	1704 <flash_write+0x68>
    16b6:	2000      	movs	r0, #0
    16b8:	226a      	movs	r2, #106	; 0x6a
    16ba:	4918      	ldr	r1, [pc, #96]	; (171c <flash_write+0x80>)
    16bc:	4b18      	ldr	r3, [pc, #96]	; (1720 <flash_write+0x84>)
    16be:	4798      	blx	r3
    16c0:	0020      	movs	r0, r4
    16c2:	4b18      	ldr	r3, [pc, #96]	; (1724 <flash_write+0x88>)
    16c4:	4798      	blx	r3
    16c6:	4680      	mov	r8, r0
    16c8:	0020      	movs	r0, r4
    16ca:	4b17      	ldr	r3, [pc, #92]	; (1728 <flash_write+0x8c>)
    16cc:	4798      	blx	r3
    16ce:	4643      	mov	r3, r8
    16d0:	4358      	muls	r0, r3
    16d2:	42a8      	cmp	r0, r5
    16d4:	d318      	bcc.n	1708 <flash_write+0x6c>
    16d6:	197b      	adds	r3, r7, r5
    16d8:	4298      	cmp	r0, r3
    16da:	d318      	bcc.n	170e <flash_write+0x72>
    16dc:	0029      	movs	r1, r5
    16de:	0020      	movs	r0, r4
    16e0:	4b12      	ldr	r3, [pc, #72]	; (172c <flash_write+0x90>)
    16e2:	4798      	blx	r3
    16e4:	2800      	cmp	r0, #0
    16e6:	d115      	bne.n	1714 <flash_write+0x78>
    16e8:	003b      	movs	r3, r7
    16ea:	0032      	movs	r2, r6
    16ec:	0029      	movs	r1, r5
    16ee:	0020      	movs	r0, r4
    16f0:	4c0f      	ldr	r4, [pc, #60]	; (1730 <flash_write+0x94>)
    16f2:	47a0      	blx	r4
    16f4:	2000      	movs	r0, #0
    16f6:	bc04      	pop	{r2}
    16f8:	4690      	mov	r8, r2
    16fa:	bdf0      	pop	{r4, r5, r6, r7, pc}
    16fc:	2000      	movs	r0, #0
    16fe:	e7db      	b.n	16b8 <flash_write+0x1c>
    1700:	2000      	movs	r0, #0
    1702:	e7d9      	b.n	16b8 <flash_write+0x1c>
    1704:	2001      	movs	r0, #1
    1706:	e7d7      	b.n	16b8 <flash_write+0x1c>
    1708:	200e      	movs	r0, #14
    170a:	4240      	negs	r0, r0
    170c:	e7f3      	b.n	16f6 <flash_write+0x5a>
    170e:	200e      	movs	r0, #14
    1710:	4240      	negs	r0, r0
    1712:	e7f0      	b.n	16f6 <flash_write+0x5a>
    1714:	2011      	movs	r0, #17
    1716:	4240      	negs	r0, r0
    1718:	e7ed      	b.n	16f6 <flash_write+0x5a>
    171a:	46c0      	nop			; (mov r8, r8)
    171c:	0000a9d8 	.word	0x0000a9d8
    1720:	000026a1 	.word	0x000026a1
    1724:	00002f5d 	.word	0x00002f5d
    1728:	00002f61 	.word	0x00002f61
    172c:	000031b1 	.word	0x000031b1
    1730:	00002fb5 	.word	0x00002fb5

00001734 <flash_append>:
    1734:	b5f0      	push	{r4, r5, r6, r7, lr}
    1736:	46c6      	mov	lr, r8
    1738:	b500      	push	{lr}
    173a:	0004      	movs	r4, r0
    173c:	000d      	movs	r5, r1
    173e:	0016      	movs	r6, r2
    1740:	001f      	movs	r7, r3
    1742:	2800      	cmp	r0, #0
    1744:	d026      	beq.n	1794 <flash_append+0x60>
    1746:	2a00      	cmp	r2, #0
    1748:	d026      	beq.n	1798 <flash_append+0x64>
    174a:	2b00      	cmp	r3, #0
    174c:	d126      	bne.n	179c <flash_append+0x68>
    174e:	2000      	movs	r0, #0
    1750:	2282      	movs	r2, #130	; 0x82
    1752:	4918      	ldr	r1, [pc, #96]	; (17b4 <flash_append+0x80>)
    1754:	4b18      	ldr	r3, [pc, #96]	; (17b8 <flash_append+0x84>)
    1756:	4798      	blx	r3
    1758:	0020      	movs	r0, r4
    175a:	4b18      	ldr	r3, [pc, #96]	; (17bc <flash_append+0x88>)
    175c:	4798      	blx	r3
    175e:	4680      	mov	r8, r0
    1760:	0020      	movs	r0, r4
    1762:	4b17      	ldr	r3, [pc, #92]	; (17c0 <flash_append+0x8c>)
    1764:	4798      	blx	r3
    1766:	4643      	mov	r3, r8
    1768:	4358      	muls	r0, r3
    176a:	42a8      	cmp	r0, r5
    176c:	d318      	bcc.n	17a0 <flash_append+0x6c>
    176e:	197b      	adds	r3, r7, r5
    1770:	4298      	cmp	r0, r3
    1772:	d318      	bcc.n	17a6 <flash_append+0x72>
    1774:	0029      	movs	r1, r5
    1776:	0020      	movs	r0, r4
    1778:	4b12      	ldr	r3, [pc, #72]	; (17c4 <flash_append+0x90>)
    177a:	4798      	blx	r3
    177c:	2800      	cmp	r0, #0
    177e:	d115      	bne.n	17ac <flash_append+0x78>
    1780:	003b      	movs	r3, r7
    1782:	0032      	movs	r2, r6
    1784:	0029      	movs	r1, r5
    1786:	0020      	movs	r0, r4
    1788:	4c0f      	ldr	r4, [pc, #60]	; (17c8 <flash_append+0x94>)
    178a:	47a0      	blx	r4
    178c:	2000      	movs	r0, #0
    178e:	bc04      	pop	{r2}
    1790:	4690      	mov	r8, r2
    1792:	bdf0      	pop	{r4, r5, r6, r7, pc}
    1794:	2000      	movs	r0, #0
    1796:	e7db      	b.n	1750 <flash_append+0x1c>
    1798:	2000      	movs	r0, #0
    179a:	e7d9      	b.n	1750 <flash_append+0x1c>
    179c:	2001      	movs	r0, #1
    179e:	e7d7      	b.n	1750 <flash_append+0x1c>
    17a0:	200e      	movs	r0, #14
    17a2:	4240      	negs	r0, r0
    17a4:	e7f3      	b.n	178e <flash_append+0x5a>
    17a6:	200e      	movs	r0, #14
    17a8:	4240      	negs	r0, r0
    17aa:	e7f0      	b.n	178e <flash_append+0x5a>
    17ac:	2011      	movs	r0, #17
    17ae:	4240      	negs	r0, r0
    17b0:	e7ed      	b.n	178e <flash_append+0x5a>
    17b2:	46c0      	nop			; (mov r8, r8)
    17b4:	0000a9d8 	.word	0x0000a9d8
    17b8:	000026a1 	.word	0x000026a1
    17bc:	00002f5d 	.word	0x00002f5d
    17c0:	00002f61 	.word	0x00002f61
    17c4:	000031b1 	.word	0x000031b1
    17c8:	0000308d 	.word	0x0000308d

000017cc <flash_erase>:
    17cc:	b5f0      	push	{r4, r5, r6, r7, lr}
    17ce:	b083      	sub	sp, #12
    17d0:	0004      	movs	r4, r0
    17d2:	9100      	str	r1, [sp, #0]
    17d4:	0017      	movs	r7, r2
    17d6:	2800      	cmp	r0, #0
    17d8:	d025      	beq.n	1826 <flash_erase+0x5a>
    17da:	2a00      	cmp	r2, #0
    17dc:	d125      	bne.n	182a <flash_erase+0x5e>
    17de:	2000      	movs	r0, #0
    17e0:	229a      	movs	r2, #154	; 0x9a
    17e2:	4916      	ldr	r1, [pc, #88]	; (183c <flash_erase+0x70>)
    17e4:	4b16      	ldr	r3, [pc, #88]	; (1840 <flash_erase+0x74>)
    17e6:	4798      	blx	r3
    17e8:	0020      	movs	r0, r4
    17ea:	4b16      	ldr	r3, [pc, #88]	; (1844 <flash_erase+0x78>)
    17ec:	4798      	blx	r3
    17ee:	9001      	str	r0, [sp, #4]
    17f0:	0020      	movs	r0, r4
    17f2:	4b15      	ldr	r3, [pc, #84]	; (1848 <flash_erase+0x7c>)
    17f4:	4798      	blx	r3
    17f6:	0005      	movs	r5, r0
    17f8:	9900      	ldr	r1, [sp, #0]
    17fa:	0020      	movs	r0, r4
    17fc:	4b13      	ldr	r3, [pc, #76]	; (184c <flash_erase+0x80>)
    17fe:	4798      	blx	r3
    1800:	1e06      	subs	r6, r0, #0
    1802:	d10d      	bne.n	1820 <flash_erase+0x54>
    1804:	42af      	cmp	r7, r5
    1806:	d812      	bhi.n	182e <flash_erase+0x62>
    1808:	9901      	ldr	r1, [sp, #4]
    180a:	9800      	ldr	r0, [sp, #0]
    180c:	4b10      	ldr	r3, [pc, #64]	; (1850 <flash_erase+0x84>)
    180e:	4798      	blx	r3
    1810:	1838      	adds	r0, r7, r0
    1812:	4285      	cmp	r5, r0
    1814:	d30e      	bcc.n	1834 <flash_erase+0x68>
    1816:	003a      	movs	r2, r7
    1818:	9900      	ldr	r1, [sp, #0]
    181a:	0020      	movs	r0, r4
    181c:	4b0d      	ldr	r3, [pc, #52]	; (1854 <flash_erase+0x88>)
    181e:	4798      	blx	r3
    1820:	0030      	movs	r0, r6
    1822:	b003      	add	sp, #12
    1824:	bdf0      	pop	{r4, r5, r6, r7, pc}
    1826:	2000      	movs	r0, #0
    1828:	e7da      	b.n	17e0 <flash_erase+0x14>
    182a:	2001      	movs	r0, #1
    182c:	e7d8      	b.n	17e0 <flash_erase+0x14>
    182e:	260d      	movs	r6, #13
    1830:	4276      	negs	r6, r6
    1832:	e7f5      	b.n	1820 <flash_erase+0x54>
    1834:	260d      	movs	r6, #13
    1836:	4276      	negs	r6, r6
    1838:	e7f2      	b.n	1820 <flash_erase+0x54>
    183a:	46c0      	nop			; (mov r8, r8)
    183c:	0000a9d8 	.word	0x0000a9d8
    1840:	000026a1 	.word	0x000026a1
    1844:	00002f5d 	.word	0x00002f5d
    1848:	00002f61 	.word	0x00002f61
    184c:	00001599 	.word	0x00001599
    1850:	0000913d 	.word	0x0000913d
    1854:	00003109 	.word	0x00003109

00001858 <flash_get_page_size>:
    1858:	b510      	push	{r4, lr}
    185a:	0004      	movs	r4, r0
    185c:	1e43      	subs	r3, r0, #1
    185e:	4198      	sbcs	r0, r3
    1860:	b2c0      	uxtb	r0, r0
    1862:	22f7      	movs	r2, #247	; 0xf7
    1864:	4903      	ldr	r1, [pc, #12]	; (1874 <flash_get_page_size+0x1c>)
    1866:	4b04      	ldr	r3, [pc, #16]	; (1878 <flash_get_page_size+0x20>)
    1868:	4798      	blx	r3
    186a:	0020      	movs	r0, r4
    186c:	4b03      	ldr	r3, [pc, #12]	; (187c <flash_get_page_size+0x24>)
    186e:	4798      	blx	r3
    1870:	bd10      	pop	{r4, pc}
    1872:	46c0      	nop			; (mov r8, r8)
    1874:	0000a9d8 	.word	0x0000a9d8
    1878:	000026a1 	.word	0x000026a1
    187c:	00002f5d 	.word	0x00002f5d

00001880 <i2c_m_sync_write>:
    1880:	b510      	push	{r4, lr}
    1882:	b084      	sub	sp, #16
    1884:	3814      	subs	r0, #20
    1886:	8b84      	ldrh	r4, [r0, #28]
    1888:	ab01      	add	r3, sp, #4
    188a:	801c      	strh	r4, [r3, #0]
    188c:	0014      	movs	r4, r2
    188e:	9202      	str	r2, [sp, #8]
    1890:	4a06      	ldr	r2, [pc, #24]	; (18ac <i2c_m_sync_write+0x2c>)
    1892:	805a      	strh	r2, [r3, #2]
    1894:	9103      	str	r1, [sp, #12]
    1896:	0019      	movs	r1, r3
    1898:	4b05      	ldr	r3, [pc, #20]	; (18b0 <i2c_m_sync_write+0x30>)
    189a:	4798      	blx	r3
    189c:	2800      	cmp	r0, #0
    189e:	d102      	bne.n	18a6 <i2c_m_sync_write+0x26>
    18a0:	0020      	movs	r0, r4
    18a2:	b004      	add	sp, #16
    18a4:	bd10      	pop	{r4, pc}
    18a6:	0004      	movs	r4, r0
    18a8:	e7fa      	b.n	18a0 <i2c_m_sync_write+0x20>
    18aa:	46c0      	nop			; (mov r8, r8)
    18ac:	ffff8000 	.word	0xffff8000
    18b0:	00003a49 	.word	0x00003a49

000018b4 <i2c_m_sync_read>:
    18b4:	b510      	push	{r4, lr}
    18b6:	b084      	sub	sp, #16
    18b8:	3814      	subs	r0, #20
    18ba:	8b84      	ldrh	r4, [r0, #28]
    18bc:	ab01      	add	r3, sp, #4
    18be:	801c      	strh	r4, [r3, #0]
    18c0:	0014      	movs	r4, r2
    18c2:	9202      	str	r2, [sp, #8]
    18c4:	4a06      	ldr	r2, [pc, #24]	; (18e0 <i2c_m_sync_read+0x2c>)
    18c6:	805a      	strh	r2, [r3, #2]
    18c8:	9103      	str	r1, [sp, #12]
    18ca:	0019      	movs	r1, r3
    18cc:	4b05      	ldr	r3, [pc, #20]	; (18e4 <i2c_m_sync_read+0x30>)
    18ce:	4798      	blx	r3
    18d0:	2800      	cmp	r0, #0
    18d2:	d102      	bne.n	18da <i2c_m_sync_read+0x26>
    18d4:	0020      	movs	r0, r4
    18d6:	b004      	add	sp, #16
    18d8:	bd10      	pop	{r4, pc}
    18da:	0004      	movs	r4, r0
    18dc:	e7fa      	b.n	18d4 <i2c_m_sync_read+0x20>
    18de:	46c0      	nop			; (mov r8, r8)
    18e0:	ffff8001 	.word	0xffff8001
    18e4:	00003a49 	.word	0x00003a49

000018e8 <i2c_m_sync_init>:
    18e8:	b570      	push	{r4, r5, r6, lr}
    18ea:	0004      	movs	r4, r0
    18ec:	000d      	movs	r5, r1
    18ee:	1e43      	subs	r3, r0, #1
    18f0:	4198      	sbcs	r0, r3
    18f2:	b2c0      	uxtb	r0, r0
    18f4:	225e      	movs	r2, #94	; 0x5e
    18f6:	4907      	ldr	r1, [pc, #28]	; (1914 <i2c_m_sync_init+0x2c>)
    18f8:	4b07      	ldr	r3, [pc, #28]	; (1918 <i2c_m_sync_init+0x30>)
    18fa:	4798      	blx	r3
    18fc:	0029      	movs	r1, r5
    18fe:	0020      	movs	r0, r4
    1900:	4b06      	ldr	r3, [pc, #24]	; (191c <i2c_m_sync_init+0x34>)
    1902:	4798      	blx	r3
    1904:	2800      	cmp	r0, #0
    1906:	d103      	bne.n	1910 <i2c_m_sync_init+0x28>
    1908:	4b05      	ldr	r3, [pc, #20]	; (1920 <i2c_m_sync_init+0x38>)
    190a:	61a3      	str	r3, [r4, #24]
    190c:	4b05      	ldr	r3, [pc, #20]	; (1924 <i2c_m_sync_init+0x3c>)
    190e:	6163      	str	r3, [r4, #20]
    1910:	bd70      	pop	{r4, r5, r6, pc}
    1912:	46c0      	nop			; (mov r8, r8)
    1914:	0000a9f0 	.word	0x0000a9f0
    1918:	000026a1 	.word	0x000026a1
    191c:	00003a19 	.word	0x00003a19
    1920:	000018b5 	.word	0x000018b5
    1924:	00001881 	.word	0x00001881

00001928 <io_write>:
    1928:	b570      	push	{r4, r5, r6, lr}
    192a:	0004      	movs	r4, r0
    192c:	000d      	movs	r5, r1
    192e:	0016      	movs	r6, r2
    1930:	2800      	cmp	r0, #0
    1932:	d00e      	beq.n	1952 <io_write+0x2a>
    1934:	2900      	cmp	r1, #0
    1936:	d00a      	beq.n	194e <io_write+0x26>
    1938:	2001      	movs	r0, #1
    193a:	2234      	movs	r2, #52	; 0x34
    193c:	4906      	ldr	r1, [pc, #24]	; (1958 <io_write+0x30>)
    193e:	4b07      	ldr	r3, [pc, #28]	; (195c <io_write+0x34>)
    1940:	4798      	blx	r3
    1942:	6823      	ldr	r3, [r4, #0]
    1944:	0032      	movs	r2, r6
    1946:	0029      	movs	r1, r5
    1948:	0020      	movs	r0, r4
    194a:	4798      	blx	r3
    194c:	bd70      	pop	{r4, r5, r6, pc}
    194e:	2000      	movs	r0, #0
    1950:	e7f3      	b.n	193a <io_write+0x12>
    1952:	2000      	movs	r0, #0
    1954:	e7f1      	b.n	193a <io_write+0x12>
    1956:	46c0      	nop			; (mov r8, r8)
    1958:	0000aa0c 	.word	0x0000aa0c
    195c:	000026a1 	.word	0x000026a1

00001960 <io_read>:
    1960:	b570      	push	{r4, r5, r6, lr}
    1962:	0004      	movs	r4, r0
    1964:	000d      	movs	r5, r1
    1966:	0016      	movs	r6, r2
    1968:	2800      	cmp	r0, #0
    196a:	d00e      	beq.n	198a <io_read+0x2a>
    196c:	2900      	cmp	r1, #0
    196e:	d00a      	beq.n	1986 <io_read+0x26>
    1970:	2001      	movs	r0, #1
    1972:	223d      	movs	r2, #61	; 0x3d
    1974:	4906      	ldr	r1, [pc, #24]	; (1990 <io_read+0x30>)
    1976:	4b07      	ldr	r3, [pc, #28]	; (1994 <io_read+0x34>)
    1978:	4798      	blx	r3
    197a:	6863      	ldr	r3, [r4, #4]
    197c:	0032      	movs	r2, r6
    197e:	0029      	movs	r1, r5
    1980:	0020      	movs	r0, r4
    1982:	4798      	blx	r3
    1984:	bd70      	pop	{r4, r5, r6, pc}
    1986:	2000      	movs	r0, #0
    1988:	e7f3      	b.n	1972 <io_read+0x12>
    198a:	2000      	movs	r0, #0
    198c:	e7f1      	b.n	1972 <io_read+0x12>
    198e:	46c0      	nop			; (mov r8, r8)
    1990:	0000aa0c 	.word	0x0000aa0c
    1994:	000026a1 	.word	0x000026a1

00001998 <spi_m_sync_init>:
    1998:	b570      	push	{r4, r5, r6, lr}
    199a:	0004      	movs	r4, r0
    199c:	000d      	movs	r5, r1
    199e:	2800      	cmp	r0, #0
    19a0:	d017      	beq.n	19d2 <spi_m_sync_init+0x3a>
    19a2:	2900      	cmp	r1, #0
    19a4:	d013      	beq.n	19ce <spi_m_sync_init+0x36>
    19a6:	2001      	movs	r0, #1
    19a8:	2240      	movs	r2, #64	; 0x40
    19aa:	490b      	ldr	r1, [pc, #44]	; (19d8 <spi_m_sync_init+0x40>)
    19ac:	4b0b      	ldr	r3, [pc, #44]	; (19dc <spi_m_sync_init+0x44>)
    19ae:	4798      	blx	r3
    19b0:	6065      	str	r5, [r4, #4]
    19b2:	1d20      	adds	r0, r4, #4
    19b4:	0029      	movs	r1, r5
    19b6:	4b0a      	ldr	r3, [pc, #40]	; (19e0 <spi_m_sync_init+0x48>)
    19b8:	4798      	blx	r3
    19ba:	2800      	cmp	r0, #0
    19bc:	db06      	blt.n	19cc <spi_m_sync_init+0x34>
    19be:	4b09      	ldr	r3, [pc, #36]	; (19e4 <spi_m_sync_init+0x4c>)
    19c0:	82a3      	strh	r3, [r4, #20]
    19c2:	4b09      	ldr	r3, [pc, #36]	; (19e8 <spi_m_sync_init+0x50>)
    19c4:	6123      	str	r3, [r4, #16]
    19c6:	4b09      	ldr	r3, [pc, #36]	; (19ec <spi_m_sync_init+0x54>)
    19c8:	60e3      	str	r3, [r4, #12]
    19ca:	2000      	movs	r0, #0
    19cc:	bd70      	pop	{r4, r5, r6, pc}
    19ce:	2000      	movs	r0, #0
    19d0:	e7ea      	b.n	19a8 <spi_m_sync_init+0x10>
    19d2:	2000      	movs	r0, #0
    19d4:	e7e8      	b.n	19a8 <spi_m_sync_init+0x10>
    19d6:	46c0      	nop			; (mov r8, r8)
    19d8:	0000aa20 	.word	0x0000aa20
    19dc:	000026a1 	.word	0x000026a1
    19e0:	00003cd9 	.word	0x00003cd9
    19e4:	ffff8000 	.word	0xffff8000
    19e8:	00001a75 	.word	0x00001a75
    19ec:	00001a39 	.word	0x00001a39

000019f0 <spi_m_sync_transfer>:
    19f0:	b530      	push	{r4, r5, lr}
    19f2:	b087      	sub	sp, #28
    19f4:	0004      	movs	r4, r0
    19f6:	000d      	movs	r5, r1
    19f8:	2800      	cmp	r0, #0
    19fa:	d015      	beq.n	1a28 <spi_m_sync_transfer+0x38>
    19fc:	2900      	cmp	r1, #0
    19fe:	d011      	beq.n	1a24 <spi_m_sync_transfer+0x34>
    1a00:	2001      	movs	r0, #1
    1a02:	22b3      	movs	r2, #179	; 0xb3
    1a04:	4909      	ldr	r1, [pc, #36]	; (1a2c <spi_m_sync_transfer+0x3c>)
    1a06:	4b0a      	ldr	r3, [pc, #40]	; (1a30 <spi_m_sync_transfer+0x40>)
    1a08:	4798      	blx	r3
    1a0a:	682b      	ldr	r3, [r5, #0]
    1a0c:	9303      	str	r3, [sp, #12]
    1a0e:	686b      	ldr	r3, [r5, #4]
    1a10:	9304      	str	r3, [sp, #16]
    1a12:	68ab      	ldr	r3, [r5, #8]
    1a14:	9301      	str	r3, [sp, #4]
    1a16:	9305      	str	r3, [sp, #20]
    1a18:	1d20      	adds	r0, r4, #4
    1a1a:	a903      	add	r1, sp, #12
    1a1c:	4b05      	ldr	r3, [pc, #20]	; (1a34 <spi_m_sync_transfer+0x44>)
    1a1e:	4798      	blx	r3
    1a20:	b007      	add	sp, #28
    1a22:	bd30      	pop	{r4, r5, pc}
    1a24:	2000      	movs	r0, #0
    1a26:	e7ec      	b.n	1a02 <spi_m_sync_transfer+0x12>
    1a28:	2000      	movs	r0, #0
    1a2a:	e7ea      	b.n	1a02 <spi_m_sync_transfer+0x12>
    1a2c:	0000aa20 	.word	0x0000aa20
    1a30:	000026a1 	.word	0x000026a1
    1a34:	00003ed5 	.word	0x00003ed5

00001a38 <_spi_m_sync_io_write>:
    1a38:	b570      	push	{r4, r5, r6, lr}
    1a3a:	b084      	sub	sp, #16
    1a3c:	0004      	movs	r4, r0
    1a3e:	000e      	movs	r6, r1
    1a40:	0015      	movs	r5, r2
    1a42:	1e43      	subs	r3, r0, #1
    1a44:	4198      	sbcs	r0, r3
    1a46:	b2c0      	uxtb	r0, r0
    1a48:	22a3      	movs	r2, #163	; 0xa3
    1a4a:	4907      	ldr	r1, [pc, #28]	; (1a68 <_spi_m_sync_io_write+0x30>)
    1a4c:	4b07      	ldr	r3, [pc, #28]	; (1a6c <_spi_m_sync_io_write+0x34>)
    1a4e:	4798      	blx	r3
    1a50:	0020      	movs	r0, r4
    1a52:	380c      	subs	r0, #12
    1a54:	2300      	movs	r3, #0
    1a56:	9302      	str	r3, [sp, #8]
    1a58:	9601      	str	r6, [sp, #4]
    1a5a:	9503      	str	r5, [sp, #12]
    1a5c:	a901      	add	r1, sp, #4
    1a5e:	4b04      	ldr	r3, [pc, #16]	; (1a70 <_spi_m_sync_io_write+0x38>)
    1a60:	4798      	blx	r3
    1a62:	b004      	add	sp, #16
    1a64:	bd70      	pop	{r4, r5, r6, pc}
    1a66:	46c0      	nop			; (mov r8, r8)
    1a68:	0000aa20 	.word	0x0000aa20
    1a6c:	000026a1 	.word	0x000026a1
    1a70:	000019f1 	.word	0x000019f1

00001a74 <_spi_m_sync_io_read>:
    1a74:	b570      	push	{r4, r5, r6, lr}
    1a76:	b084      	sub	sp, #16
    1a78:	0004      	movs	r4, r0
    1a7a:	000e      	movs	r6, r1
    1a7c:	0015      	movs	r5, r2
    1a7e:	1e43      	subs	r3, r0, #1
    1a80:	4198      	sbcs	r0, r3
    1a82:	b2c0      	uxtb	r0, r0
    1a84:	2287      	movs	r2, #135	; 0x87
    1a86:	4907      	ldr	r1, [pc, #28]	; (1aa4 <_spi_m_sync_io_read+0x30>)
    1a88:	4b07      	ldr	r3, [pc, #28]	; (1aa8 <_spi_m_sync_io_read+0x34>)
    1a8a:	4798      	blx	r3
    1a8c:	0020      	movs	r0, r4
    1a8e:	380c      	subs	r0, #12
    1a90:	9602      	str	r6, [sp, #8]
    1a92:	2300      	movs	r3, #0
    1a94:	9301      	str	r3, [sp, #4]
    1a96:	9503      	str	r5, [sp, #12]
    1a98:	a901      	add	r1, sp, #4
    1a9a:	4b04      	ldr	r3, [pc, #16]	; (1aac <_spi_m_sync_io_read+0x38>)
    1a9c:	4798      	blx	r3
    1a9e:	b004      	add	sp, #16
    1aa0:	bd70      	pop	{r4, r5, r6, pc}
    1aa2:	46c0      	nop			; (mov r8, r8)
    1aa4:	0000aa20 	.word	0x0000aa20
    1aa8:	000026a1 	.word	0x000026a1
    1aac:	000019f1 	.word	0x000019f1

00001ab0 <timer_add_timer_task>:
    1ab0:	b5f8      	push	{r3, r4, r5, r6, r7, lr}
    1ab2:	6806      	ldr	r6, [r0, #0]
    1ab4:	2e00      	cmp	r6, #0
    1ab6:	d002      	beq.n	1abe <timer_add_timer_task+0xe>
    1ab8:	0033      	movs	r3, r6
    1aba:	2500      	movs	r5, #0
    1abc:	e00c      	b.n	1ad8 <timer_add_timer_task+0x28>
    1abe:	4b10      	ldr	r3, [pc, #64]	; (1b00 <timer_add_timer_task+0x50>)
    1ac0:	4798      	blx	r3
    1ac2:	e018      	b.n	1af6 <timer_add_timer_task+0x46>
    1ac4:	689f      	ldr	r7, [r3, #8]
    1ac6:	46bc      	mov	ip, r7
    1ac8:	4464      	add	r4, ip
    1aca:	1aa4      	subs	r4, r4, r2
    1acc:	3401      	adds	r4, #1
    1ace:	688f      	ldr	r7, [r1, #8]
    1ad0:	42bc      	cmp	r4, r7
    1ad2:	d20b      	bcs.n	1aec <timer_add_timer_task+0x3c>
    1ad4:	001d      	movs	r5, r3
    1ad6:	681b      	ldr	r3, [r3, #0]
    1ad8:	2b00      	cmp	r3, #0
    1ada:	d007      	beq.n	1aec <timer_add_timer_task+0x3c>
    1adc:	685c      	ldr	r4, [r3, #4]
    1ade:	4294      	cmp	r4, r2
    1ae0:	d8f0      	bhi.n	1ac4 <timer_add_timer_task+0x14>
    1ae2:	1aa4      	subs	r4, r4, r2
    1ae4:	689f      	ldr	r7, [r3, #8]
    1ae6:	46bc      	mov	ip, r7
    1ae8:	4464      	add	r4, ip
    1aea:	e7f0      	b.n	1ace <timer_add_timer_task+0x1e>
    1aec:	42b3      	cmp	r3, r6
    1aee:	d003      	beq.n	1af8 <timer_add_timer_task+0x48>
    1af0:	0028      	movs	r0, r5
    1af2:	4b04      	ldr	r3, [pc, #16]	; (1b04 <timer_add_timer_task+0x54>)
    1af4:	4798      	blx	r3
    1af6:	bdf8      	pop	{r3, r4, r5, r6, r7, pc}
    1af8:	4b01      	ldr	r3, [pc, #4]	; (1b00 <timer_add_timer_task+0x50>)
    1afa:	4798      	blx	r3
    1afc:	e7fb      	b.n	1af6 <timer_add_timer_task+0x46>
    1afe:	46c0      	nop			; (mov r8, r8)
    1b00:	000026c1 	.word	0x000026c1
    1b04:	000026ed 	.word	0x000026ed

00001b08 <timer_process_counted>:
    1b08:	b5f8      	push	{r3, r4, r5, r6, r7, lr}
    1b0a:	0005      	movs	r5, r0
    1b0c:	6944      	ldr	r4, [r0, #20]
    1b0e:	6903      	ldr	r3, [r0, #16]
    1b10:	1c5e      	adds	r6, r3, #1
    1b12:	6106      	str	r6, [r0, #16]
    1b14:	7e03      	ldrb	r3, [r0, #24]
    1b16:	07db      	lsls	r3, r3, #31
    1b18:	d402      	bmi.n	1b20 <timer_process_counted+0x18>
    1b1a:	7e03      	ldrb	r3, [r0, #24]
    1b1c:	079b      	lsls	r3, r3, #30
    1b1e:	d50a      	bpl.n	1b36 <timer_process_counted+0x2e>
    1b20:	7e2b      	ldrb	r3, [r5, #24]
    1b22:	2202      	movs	r2, #2
    1b24:	4313      	orrs	r3, r2
    1b26:	b2db      	uxtb	r3, r3
    1b28:	762b      	strb	r3, [r5, #24]
    1b2a:	bdf8      	pop	{r3, r4, r5, r6, r7, pc}
    1b2c:	696f      	ldr	r7, [r5, #20]
    1b2e:	68e3      	ldr	r3, [r4, #12]
    1b30:	0020      	movs	r0, r4
    1b32:	4798      	blx	r3
    1b34:	003c      	movs	r4, r7
    1b36:	2c00      	cmp	r4, #0
    1b38:	d0f7      	beq.n	1b2a <timer_process_counted+0x22>
    1b3a:	6863      	ldr	r3, [r4, #4]
    1b3c:	1af3      	subs	r3, r6, r3
    1b3e:	68a2      	ldr	r2, [r4, #8]
    1b40:	4293      	cmp	r3, r2
    1b42:	d3f2      	bcc.n	1b2a <timer_process_counted+0x22>
    1b44:	002f      	movs	r7, r5
    1b46:	3714      	adds	r7, #20
    1b48:	0038      	movs	r0, r7
    1b4a:	4b06      	ldr	r3, [pc, #24]	; (1b64 <timer_process_counted+0x5c>)
    1b4c:	4798      	blx	r3
    1b4e:	7c23      	ldrb	r3, [r4, #16]
    1b50:	2b01      	cmp	r3, #1
    1b52:	d1eb      	bne.n	1b2c <timer_process_counted+0x24>
    1b54:	6066      	str	r6, [r4, #4]
    1b56:	0032      	movs	r2, r6
    1b58:	0021      	movs	r1, r4
    1b5a:	0038      	movs	r0, r7
    1b5c:	4b02      	ldr	r3, [pc, #8]	; (1b68 <timer_process_counted+0x60>)
    1b5e:	4798      	blx	r3
    1b60:	e7e4      	b.n	1b2c <timer_process_counted+0x24>
    1b62:	46c0      	nop			; (mov r8, r8)
    1b64:	00002735 	.word	0x00002735
    1b68:	00001ab1 	.word	0x00001ab1

00001b6c <timer_init>:
    1b6c:	b570      	push	{r4, r5, r6, lr}
    1b6e:	0004      	movs	r4, r0
    1b70:	000d      	movs	r5, r1
    1b72:	2800      	cmp	r0, #0
    1b74:	d012      	beq.n	1b9c <timer_init+0x30>
    1b76:	2900      	cmp	r1, #0
    1b78:	d00e      	beq.n	1b98 <timer_init+0x2c>
    1b7a:	2001      	movs	r0, #1
    1b7c:	223b      	movs	r2, #59	; 0x3b
    1b7e:	4908      	ldr	r1, [pc, #32]	; (1ba0 <timer_init+0x34>)
    1b80:	4b08      	ldr	r3, [pc, #32]	; (1ba4 <timer_init+0x38>)
    1b82:	4798      	blx	r3
    1b84:	0029      	movs	r1, r5
    1b86:	0020      	movs	r0, r4
    1b88:	4b07      	ldr	r3, [pc, #28]	; (1ba8 <timer_init+0x3c>)
    1b8a:	4798      	blx	r3
    1b8c:	2300      	movs	r3, #0
    1b8e:	6123      	str	r3, [r4, #16]
    1b90:	4b06      	ldr	r3, [pc, #24]	; (1bac <timer_init+0x40>)
    1b92:	6023      	str	r3, [r4, #0]
    1b94:	2000      	movs	r0, #0
    1b96:	bd70      	pop	{r4, r5, r6, pc}
    1b98:	2000      	movs	r0, #0
    1b9a:	e7ef      	b.n	1b7c <timer_init+0x10>
    1b9c:	2000      	movs	r0, #0
    1b9e:	e7ed      	b.n	1b7c <timer_init+0x10>
    1ba0:	0000aa3c 	.word	0x0000aa3c
    1ba4:	000026a1 	.word	0x000026a1
    1ba8:	00003235 	.word	0x00003235
    1bac:	00001b09 	.word	0x00001b09

00001bb0 <timer_start>:
    1bb0:	b510      	push	{r4, lr}
    1bb2:	0004      	movs	r4, r0
    1bb4:	1e43      	subs	r3, r0, #1
    1bb6:	4198      	sbcs	r0, r3
    1bb8:	b2c0      	uxtb	r0, r0
    1bba:	2253      	movs	r2, #83	; 0x53
    1bbc:	4907      	ldr	r1, [pc, #28]	; (1bdc <timer_start+0x2c>)
    1bbe:	4b08      	ldr	r3, [pc, #32]	; (1be0 <timer_start+0x30>)
    1bc0:	4798      	blx	r3
    1bc2:	0020      	movs	r0, r4
    1bc4:	4b07      	ldr	r3, [pc, #28]	; (1be4 <timer_start+0x34>)
    1bc6:	4798      	blx	r3
    1bc8:	2800      	cmp	r0, #0
    1bca:	d104      	bne.n	1bd6 <timer_start+0x26>
    1bcc:	0020      	movs	r0, r4
    1bce:	4b06      	ldr	r3, [pc, #24]	; (1be8 <timer_start+0x38>)
    1bd0:	4798      	blx	r3
    1bd2:	2000      	movs	r0, #0
    1bd4:	bd10      	pop	{r4, pc}
    1bd6:	2011      	movs	r0, #17
    1bd8:	4240      	negs	r0, r0
    1bda:	e7fb      	b.n	1bd4 <timer_start+0x24>
    1bdc:	0000aa3c 	.word	0x0000aa3c
    1be0:	000026a1 	.word	0x000026a1
    1be4:	000032e9 	.word	0x000032e9
    1be8:	00003291 	.word	0x00003291

00001bec <timer_add_task>:
    1bec:	b570      	push	{r4, r5, r6, lr}
    1bee:	b082      	sub	sp, #8
    1bf0:	0004      	movs	r4, r0
    1bf2:	000d      	movs	r5, r1
    1bf4:	2800      	cmp	r0, #0
    1bf6:	d026      	beq.n	1c46 <timer_add_task+0x5a>
    1bf8:	2900      	cmp	r1, #0
    1bfa:	d022      	beq.n	1c42 <timer_add_task+0x56>
    1bfc:	2001      	movs	r0, #1
    1bfe:	227a      	movs	r2, #122	; 0x7a
    1c00:	491f      	ldr	r1, [pc, #124]	; (1c80 <timer_add_task+0x94>)
    1c02:	4b20      	ldr	r3, [pc, #128]	; (1c84 <timer_add_task+0x98>)
    1c04:	4798      	blx	r3
    1c06:	7e23      	ldrb	r3, [r4, #24]
    1c08:	2201      	movs	r2, #1
    1c0a:	4313      	orrs	r3, r2
    1c0c:	b2db      	uxtb	r3, r3
    1c0e:	7623      	strb	r3, [r4, #24]
    1c10:	0026      	movs	r6, r4
    1c12:	3614      	adds	r6, #20
    1c14:	0029      	movs	r1, r5
    1c16:	0030      	movs	r0, r6
    1c18:	4b1b      	ldr	r3, [pc, #108]	; (1c88 <timer_add_task+0x9c>)
    1c1a:	4798      	blx	r3
    1c1c:	2800      	cmp	r0, #0
    1c1e:	d114      	bne.n	1c4a <timer_add_task+0x5e>
    1c20:	6923      	ldr	r3, [r4, #16]
    1c22:	606b      	str	r3, [r5, #4]
    1c24:	6922      	ldr	r2, [r4, #16]
    1c26:	0029      	movs	r1, r5
    1c28:	0030      	movs	r0, r6
    1c2a:	4b18      	ldr	r3, [pc, #96]	; (1c8c <timer_add_task+0xa0>)
    1c2c:	4798      	blx	r3
    1c2e:	7e23      	ldrb	r3, [r4, #24]
    1c30:	2201      	movs	r2, #1
    1c32:	4393      	bics	r3, r2
    1c34:	7623      	strb	r3, [r4, #24]
    1c36:	7e23      	ldrb	r3, [r4, #24]
    1c38:	079b      	lsls	r3, r3, #30
    1c3a:	d412      	bmi.n	1c62 <timer_add_task+0x76>
    1c3c:	2000      	movs	r0, #0
    1c3e:	b002      	add	sp, #8
    1c40:	bd70      	pop	{r4, r5, r6, pc}
    1c42:	2000      	movs	r0, #0
    1c44:	e7db      	b.n	1bfe <timer_add_task+0x12>
    1c46:	2000      	movs	r0, #0
    1c48:	e7d9      	b.n	1bfe <timer_add_task+0x12>
    1c4a:	7e23      	ldrb	r3, [r4, #24]
    1c4c:	2201      	movs	r2, #1
    1c4e:	4393      	bics	r3, r2
    1c50:	7623      	strb	r3, [r4, #24]
    1c52:	327e      	adds	r2, #126	; 0x7e
    1c54:	490a      	ldr	r1, [pc, #40]	; (1c80 <timer_add_task+0x94>)
    1c56:	2000      	movs	r0, #0
    1c58:	4b0a      	ldr	r3, [pc, #40]	; (1c84 <timer_add_task+0x98>)
    1c5a:	4798      	blx	r3
    1c5c:	2012      	movs	r0, #18
    1c5e:	4240      	negs	r0, r0
    1c60:	e7ed      	b.n	1c3e <timer_add_task+0x52>
    1c62:	a801      	add	r0, sp, #4
    1c64:	4b0a      	ldr	r3, [pc, #40]	; (1c90 <timer_add_task+0xa4>)
    1c66:	4798      	blx	r3
    1c68:	7e23      	ldrb	r3, [r4, #24]
    1c6a:	2202      	movs	r2, #2
    1c6c:	4393      	bics	r3, r2
    1c6e:	7623      	strb	r3, [r4, #24]
    1c70:	0020      	movs	r0, r4
    1c72:	4b08      	ldr	r3, [pc, #32]	; (1c94 <timer_add_task+0xa8>)
    1c74:	4798      	blx	r3
    1c76:	a801      	add	r0, sp, #4
    1c78:	4b07      	ldr	r3, [pc, #28]	; (1c98 <timer_add_task+0xac>)
    1c7a:	4798      	blx	r3
    1c7c:	2000      	movs	r0, #0
    1c7e:	e7de      	b.n	1c3e <timer_add_task+0x52>
    1c80:	0000aa3c 	.word	0x0000aa3c
    1c84:	000026a1 	.word	0x000026a1
    1c88:	000026a9 	.word	0x000026a9
    1c8c:	00001ab1 	.word	0x00001ab1
    1c90:	00001271 	.word	0x00001271
    1c94:	000032fb 	.word	0x000032fb
    1c98:	0000127f 	.word	0x0000127f

00001c9c <usart_transmission_complete>:
    1c9c:	b510      	push	{r4, lr}
    1c9e:	3808      	subs	r0, #8
    1ca0:	2300      	movs	r3, #0
    1ca2:	6303      	str	r3, [r0, #48]	; 0x30
    1ca4:	6a43      	ldr	r3, [r0, #36]	; 0x24
    1ca6:	2b00      	cmp	r3, #0
    1ca8:	d000      	beq.n	1cac <usart_transmission_complete+0x10>
    1caa:	4798      	blx	r3
    1cac:	bd10      	pop	{r4, pc}

00001cae <usart_error>:
    1cae:	b510      	push	{r4, lr}
    1cb0:	3808      	subs	r0, #8
    1cb2:	2300      	movs	r3, #0
    1cb4:	6303      	str	r3, [r0, #48]	; 0x30
    1cb6:	6ac3      	ldr	r3, [r0, #44]	; 0x2c
    1cb8:	2b00      	cmp	r3, #0
    1cba:	d000      	beq.n	1cbe <usart_error+0x10>
    1cbc:	4798      	blx	r3
    1cbe:	bd10      	pop	{r4, pc}

00001cc0 <usart_fill_rx_buffer>:
    1cc0:	b510      	push	{r4, lr}
    1cc2:	0004      	movs	r4, r0
    1cc4:	302c      	adds	r0, #44	; 0x2c
    1cc6:	4b04      	ldr	r3, [pc, #16]	; (1cd8 <usart_fill_rx_buffer+0x18>)
    1cc8:	4798      	blx	r3
    1cca:	6a23      	ldr	r3, [r4, #32]
    1ccc:	3c08      	subs	r4, #8
    1cce:	2b00      	cmp	r3, #0
    1cd0:	d001      	beq.n	1cd6 <usart_fill_rx_buffer+0x16>
    1cd2:	0020      	movs	r0, r4
    1cd4:	4798      	blx	r3
    1cd6:	bd10      	pop	{r4, pc}
    1cd8:	000027e1 	.word	0x000027e1

00001cdc <usart_async_write>:
    1cdc:	b570      	push	{r4, r5, r6, lr}
    1cde:	0004      	movs	r4, r0
    1ce0:	000e      	movs	r6, r1
    1ce2:	0015      	movs	r5, r2
    1ce4:	2800      	cmp	r0, #0
    1ce6:	d01d      	beq.n	1d24 <usart_async_write+0x48>
    1ce8:	2900      	cmp	r1, #0
    1cea:	d01d      	beq.n	1d28 <usart_async_write+0x4c>
    1cec:	2a00      	cmp	r2, #0
    1cee:	d11d      	bne.n	1d2c <usart_async_write+0x50>
    1cf0:	2000      	movs	r0, #0
    1cf2:	223c      	movs	r2, #60	; 0x3c
    1cf4:	32ff      	adds	r2, #255	; 0xff
    1cf6:	4910      	ldr	r1, [pc, #64]	; (1d38 <usart_async_write+0x5c>)
    1cf8:	4b10      	ldr	r3, [pc, #64]	; (1d3c <usart_async_write+0x60>)
    1cfa:	4798      	blx	r3
    1cfc:	2344      	movs	r3, #68	; 0x44
    1cfe:	5ae2      	ldrh	r2, [r4, r3]
    1d00:	3308      	adds	r3, #8
    1d02:	5ae3      	ldrh	r3, [r4, r3]
    1d04:	429a      	cmp	r2, r3
    1d06:	d113      	bne.n	1d30 <usart_async_write+0x54>
    1d08:	64a6      	str	r6, [r4, #72]	; 0x48
    1d0a:	234c      	movs	r3, #76	; 0x4c
    1d0c:	52e5      	strh	r5, [r4, r3]
    1d0e:	2200      	movs	r2, #0
    1d10:	3b08      	subs	r3, #8
    1d12:	52e2      	strh	r2, [r4, r3]
    1d14:	3b43      	subs	r3, #67	; 0x43
    1d16:	6323      	str	r3, [r4, #48]	; 0x30
    1d18:	0020      	movs	r0, r4
    1d1a:	3008      	adds	r0, #8
    1d1c:	4b08      	ldr	r3, [pc, #32]	; (1d40 <usart_async_write+0x64>)
    1d1e:	4798      	blx	r3
    1d20:	0028      	movs	r0, r5
    1d22:	bd70      	pop	{r4, r5, r6, pc}
    1d24:	2000      	movs	r0, #0
    1d26:	e7e4      	b.n	1cf2 <usart_async_write+0x16>
    1d28:	2000      	movs	r0, #0
    1d2a:	e7e2      	b.n	1cf2 <usart_async_write+0x16>
    1d2c:	2001      	movs	r0, #1
    1d2e:	e7e0      	b.n	1cf2 <usart_async_write+0x16>
    1d30:	201c      	movs	r0, #28
    1d32:	4240      	negs	r0, r0
    1d34:	e7f5      	b.n	1d22 <usart_async_write+0x46>
    1d36:	46c0      	nop			; (mov r8, r8)
    1d38:	0000aa54 	.word	0x0000aa54
    1d3c:	000026a1 	.word	0x000026a1
    1d40:	00003991 	.word	0x00003991

00001d44 <usart_process_byte_sent>:
    1d44:	b570      	push	{r4, r5, r6, lr}
    1d46:	0004      	movs	r4, r0
    1d48:	0002      	movs	r2, r0
    1d4a:	3a08      	subs	r2, #8
    1d4c:	2344      	movs	r3, #68	; 0x44
    1d4e:	5ad3      	ldrh	r3, [r2, r3]
    1d50:	214c      	movs	r1, #76	; 0x4c
    1d52:	5a52      	ldrh	r2, [r2, r1]
    1d54:	4293      	cmp	r3, r2
    1d56:	d00d      	beq.n	1d74 <usart_process_byte_sent+0x30>
    1d58:	0002      	movs	r2, r0
    1d5a:	6c01      	ldr	r1, [r0, #64]	; 0x40
    1d5c:	3a08      	subs	r2, #8
    1d5e:	1c5d      	adds	r5, r3, #1
    1d60:	2044      	movs	r0, #68	; 0x44
    1d62:	5215      	strh	r5, [r2, r0]
    1d64:	5cc9      	ldrb	r1, [r1, r3]
    1d66:	0020      	movs	r0, r4
    1d68:	4b04      	ldr	r3, [pc, #16]	; (1d7c <usart_process_byte_sent+0x38>)
    1d6a:	4798      	blx	r3
    1d6c:	0020      	movs	r0, r4
    1d6e:	4b04      	ldr	r3, [pc, #16]	; (1d80 <usart_process_byte_sent+0x3c>)
    1d70:	4798      	blx	r3
    1d72:	bd70      	pop	{r4, r5, r6, pc}
    1d74:	4b03      	ldr	r3, [pc, #12]	; (1d84 <usart_process_byte_sent+0x40>)
    1d76:	4798      	blx	r3
    1d78:	e7fb      	b.n	1d72 <usart_process_byte_sent+0x2e>
    1d7a:	46c0      	nop			; (mov r8, r8)
    1d7c:	00003955 	.word	0x00003955
    1d80:	00003991 	.word	0x00003991
    1d84:	00003999 	.word	0x00003999

00001d88 <usart_async_read>:
    1d88:	b5f0      	push	{r4, r5, r6, r7, lr}
    1d8a:	b085      	sub	sp, #20
    1d8c:	0004      	movs	r4, r0
    1d8e:	000d      	movs	r5, r1
    1d90:	0016      	movs	r6, r2
    1d92:	2800      	cmp	r0, #0
    1d94:	d017      	beq.n	1dc6 <usart_async_read+0x3e>
    1d96:	2900      	cmp	r1, #0
    1d98:	d017      	beq.n	1dca <usart_async_read+0x42>
    1d9a:	2a00      	cmp	r2, #0
    1d9c:	d117      	bne.n	1dce <usart_async_read+0x46>
    1d9e:	2000      	movs	r0, #0
    1da0:	22ac      	movs	r2, #172	; 0xac
    1da2:	0052      	lsls	r2, r2, #1
    1da4:	4912      	ldr	r1, [pc, #72]	; (1df0 <usart_async_read+0x68>)
    1da6:	4b13      	ldr	r3, [pc, #76]	; (1df4 <usart_async_read+0x6c>)
    1da8:	4798      	blx	r3
    1daa:	a803      	add	r0, sp, #12
    1dac:	4b12      	ldr	r3, [pc, #72]	; (1df8 <usart_async_read+0x70>)
    1dae:	4798      	blx	r3
    1db0:	3434      	adds	r4, #52	; 0x34
    1db2:	0020      	movs	r0, r4
    1db4:	9401      	str	r4, [sp, #4]
    1db6:	4b11      	ldr	r3, [pc, #68]	; (1dfc <usart_async_read+0x74>)
    1db8:	4798      	blx	r3
    1dba:	0007      	movs	r7, r0
    1dbc:	a803      	add	r0, sp, #12
    1dbe:	4b10      	ldr	r3, [pc, #64]	; (1e00 <usart_async_read+0x78>)
    1dc0:	4798      	blx	r3
    1dc2:	2400      	movs	r4, #0
    1dc4:	e00b      	b.n	1dde <usart_async_read+0x56>
    1dc6:	2000      	movs	r0, #0
    1dc8:	e7ea      	b.n	1da0 <usart_async_read+0x18>
    1dca:	2000      	movs	r0, #0
    1dcc:	e7e8      	b.n	1da0 <usart_async_read+0x18>
    1dce:	2001      	movs	r0, #1
    1dd0:	e7e6      	b.n	1da0 <usart_async_read+0x18>
    1dd2:	3401      	adds	r4, #1
    1dd4:	b2a4      	uxth	r4, r4
    1dd6:	1869      	adds	r1, r5, r1
    1dd8:	9801      	ldr	r0, [sp, #4]
    1dda:	4b0a      	ldr	r3, [pc, #40]	; (1e04 <usart_async_read+0x7c>)
    1ddc:	4798      	blx	r3
    1dde:	0021      	movs	r1, r4
    1de0:	42a7      	cmp	r7, r4
    1de2:	d901      	bls.n	1de8 <usart_async_read+0x60>
    1de4:	42b4      	cmp	r4, r6
    1de6:	d3f4      	bcc.n	1dd2 <usart_async_read+0x4a>
    1de8:	0020      	movs	r0, r4
    1dea:	b005      	add	sp, #20
    1dec:	bdf0      	pop	{r4, r5, r6, r7, pc}
    1dee:	46c0      	nop			; (mov r8, r8)
    1df0:	0000aa54 	.word	0x0000aa54
    1df4:	000026a1 	.word	0x000026a1
    1df8:	00001271 	.word	0x00001271
    1dfc:	00002821 	.word	0x00002821
    1e00:	0000127f 	.word	0x0000127f
    1e04:	00002795 	.word	0x00002795

00001e08 <usart_async_init>:
    1e08:	b5f8      	push	{r3, r4, r5, r6, r7, lr}
    1e0a:	0004      	movs	r4, r0
    1e0c:	000d      	movs	r5, r1
    1e0e:	0016      	movs	r6, r2
    1e10:	001f      	movs	r7, r3
    1e12:	2800      	cmp	r0, #0
    1e14:	d026      	beq.n	1e64 <usart_async_init+0x5c>
    1e16:	2900      	cmp	r1, #0
    1e18:	d026      	beq.n	1e68 <usart_async_init+0x60>
    1e1a:	2a00      	cmp	r2, #0
    1e1c:	d026      	beq.n	1e6c <usart_async_init+0x64>
    1e1e:	2b00      	cmp	r3, #0
    1e20:	d126      	bne.n	1e70 <usart_async_init+0x68>
    1e22:	2000      	movs	r0, #0
    1e24:	223a      	movs	r2, #58	; 0x3a
    1e26:	4915      	ldr	r1, [pc, #84]	; (1e7c <usart_async_init+0x74>)
    1e28:	4b15      	ldr	r3, [pc, #84]	; (1e80 <usart_async_init+0x78>)
    1e2a:	4798      	blx	r3
    1e2c:	0020      	movs	r0, r4
    1e2e:	3034      	adds	r0, #52	; 0x34
    1e30:	003a      	movs	r2, r7
    1e32:	0031      	movs	r1, r6
    1e34:	4b13      	ldr	r3, [pc, #76]	; (1e84 <usart_async_init+0x7c>)
    1e36:	4798      	blx	r3
    1e38:	2800      	cmp	r0, #0
    1e3a:	d11b      	bne.n	1e74 <usart_async_init+0x6c>
    1e3c:	0020      	movs	r0, r4
    1e3e:	3008      	adds	r0, #8
    1e40:	0029      	movs	r1, r5
    1e42:	4b11      	ldr	r3, [pc, #68]	; (1e88 <usart_async_init+0x80>)
    1e44:	4798      	blx	r3
    1e46:	2800      	cmp	r0, #0
    1e48:	d10b      	bne.n	1e62 <usart_async_init+0x5a>
    1e4a:	4b10      	ldr	r3, [pc, #64]	; (1e8c <usart_async_init+0x84>)
    1e4c:	6063      	str	r3, [r4, #4]
    1e4e:	4b10      	ldr	r3, [pc, #64]	; (1e90 <usart_async_init+0x88>)
    1e50:	6023      	str	r3, [r4, #0]
    1e52:	4b10      	ldr	r3, [pc, #64]	; (1e94 <usart_async_init+0x8c>)
    1e54:	60a3      	str	r3, [r4, #8]
    1e56:	4b10      	ldr	r3, [pc, #64]	; (1e98 <usart_async_init+0x90>)
    1e58:	60e3      	str	r3, [r4, #12]
    1e5a:	4b10      	ldr	r3, [pc, #64]	; (1e9c <usart_async_init+0x94>)
    1e5c:	6123      	str	r3, [r4, #16]
    1e5e:	4b10      	ldr	r3, [pc, #64]	; (1ea0 <usart_async_init+0x98>)
    1e60:	6163      	str	r3, [r4, #20]
    1e62:	bdf8      	pop	{r3, r4, r5, r6, r7, pc}
    1e64:	2000      	movs	r0, #0
    1e66:	e7dd      	b.n	1e24 <usart_async_init+0x1c>
    1e68:	2000      	movs	r0, #0
    1e6a:	e7db      	b.n	1e24 <usart_async_init+0x1c>
    1e6c:	2000      	movs	r0, #0
    1e6e:	e7d9      	b.n	1e24 <usart_async_init+0x1c>
    1e70:	2001      	movs	r0, #1
    1e72:	e7d7      	b.n	1e24 <usart_async_init+0x1c>
    1e74:	200d      	movs	r0, #13
    1e76:	4240      	negs	r0, r0
    1e78:	e7f3      	b.n	1e62 <usart_async_init+0x5a>
    1e7a:	46c0      	nop			; (mov r8, r8)
    1e7c:	0000aa54 	.word	0x0000aa54
    1e80:	000026a1 	.word	0x000026a1
    1e84:	00002749 	.word	0x00002749
    1e88:	0000389d 	.word	0x0000389d
    1e8c:	00001d89 	.word	0x00001d89
    1e90:	00001cdd 	.word	0x00001cdd
    1e94:	00001d45 	.word	0x00001d45
    1e98:	00001cc1 	.word	0x00001cc1
    1e9c:	00001c9d 	.word	0x00001c9d
    1ea0:	00001caf 	.word	0x00001caf

00001ea4 <usart_async_enable>:
    1ea4:	b510      	push	{r4, lr}
    1ea6:	0004      	movs	r4, r0
    1ea8:	1e43      	subs	r3, r0, #1
    1eaa:	4198      	sbcs	r0, r3
    1eac:	b2c0      	uxtb	r0, r0
    1eae:	2261      	movs	r2, #97	; 0x61
    1eb0:	4904      	ldr	r1, [pc, #16]	; (1ec4 <usart_async_enable+0x20>)
    1eb2:	4b05      	ldr	r3, [pc, #20]	; (1ec8 <usart_async_enable+0x24>)
    1eb4:	4798      	blx	r3
    1eb6:	0020      	movs	r0, r4
    1eb8:	3008      	adds	r0, #8
    1eba:	4b04      	ldr	r3, [pc, #16]	; (1ecc <usart_async_enable+0x28>)
    1ebc:	4798      	blx	r3
    1ebe:	2000      	movs	r0, #0
    1ec0:	bd10      	pop	{r4, pc}
    1ec2:	46c0      	nop			; (mov r8, r8)
    1ec4:	0000aa54 	.word	0x0000aa54
    1ec8:	000026a1 	.word	0x000026a1
    1ecc:	0000393b 	.word	0x0000393b

00001ed0 <usart_async_get_io_descriptor>:
    1ed0:	b570      	push	{r4, r5, r6, lr}
    1ed2:	0004      	movs	r4, r0
    1ed4:	000d      	movs	r5, r1
    1ed6:	2800      	cmp	r0, #0
    1ed8:	d00b      	beq.n	1ef2 <usart_async_get_io_descriptor+0x22>
    1eda:	2900      	cmp	r1, #0
    1edc:	d007      	beq.n	1eee <usart_async_get_io_descriptor+0x1e>
    1ede:	2001      	movs	r0, #1
    1ee0:	2277      	movs	r2, #119	; 0x77
    1ee2:	4905      	ldr	r1, [pc, #20]	; (1ef8 <usart_async_get_io_descriptor+0x28>)
    1ee4:	4b05      	ldr	r3, [pc, #20]	; (1efc <usart_async_get_io_descriptor+0x2c>)
    1ee6:	4798      	blx	r3
    1ee8:	602c      	str	r4, [r5, #0]
    1eea:	2000      	movs	r0, #0
    1eec:	bd70      	pop	{r4, r5, r6, pc}
    1eee:	2000      	movs	r0, #0
    1ef0:	e7f6      	b.n	1ee0 <usart_async_get_io_descriptor+0x10>
    1ef2:	2000      	movs	r0, #0
    1ef4:	e7f4      	b.n	1ee0 <usart_async_get_io_descriptor+0x10>
    1ef6:	46c0      	nop			; (mov r8, r8)
    1ef8:	0000aa54 	.word	0x0000aa54
    1efc:	000026a1 	.word	0x000026a1

00001f00 <usart_async_register_callback>:
    1f00:	b570      	push	{r4, r5, r6, lr}
    1f02:	0005      	movs	r5, r0
    1f04:	000e      	movs	r6, r1
    1f06:	0014      	movs	r4, r2
    1f08:	1e43      	subs	r3, r0, #1
    1f0a:	4198      	sbcs	r0, r3
    1f0c:	b2c0      	uxtb	r0, r0
    1f0e:	2283      	movs	r2, #131	; 0x83
    1f10:	4916      	ldr	r1, [pc, #88]	; (1f6c <usart_async_register_callback+0x6c>)
    1f12:	4b17      	ldr	r3, [pc, #92]	; (1f70 <usart_async_register_callback+0x70>)
    1f14:	4798      	blx	r3
    1f16:	2e01      	cmp	r6, #1
    1f18:	d011      	beq.n	1f3e <usart_async_register_callback+0x3e>
    1f1a:	2e00      	cmp	r6, #0
    1f1c:	d004      	beq.n	1f28 <usart_async_register_callback+0x28>
    1f1e:	2e02      	cmp	r6, #2
    1f20:	d018      	beq.n	1f54 <usart_async_register_callback+0x54>
    1f22:	200d      	movs	r0, #13
    1f24:	4240      	negs	r0, r0
    1f26:	e009      	b.n	1f3c <usart_async_register_callback+0x3c>
    1f28:	62ac      	str	r4, [r5, #40]	; 0x28
    1f2a:	1e62      	subs	r2, r4, #1
    1f2c:	4194      	sbcs	r4, r2
    1f2e:	b2e2      	uxtb	r2, r4
    1f30:	0028      	movs	r0, r5
    1f32:	3008      	adds	r0, #8
    1f34:	2101      	movs	r1, #1
    1f36:	4b0f      	ldr	r3, [pc, #60]	; (1f74 <usart_async_register_callback+0x74>)
    1f38:	4798      	blx	r3
    1f3a:	2000      	movs	r0, #0
    1f3c:	bd70      	pop	{r4, r5, r6, pc}
    1f3e:	626c      	str	r4, [r5, #36]	; 0x24
    1f40:	1e62      	subs	r2, r4, #1
    1f42:	4194      	sbcs	r4, r2
    1f44:	b2e2      	uxtb	r2, r4
    1f46:	0028      	movs	r0, r5
    1f48:	3008      	adds	r0, #8
    1f4a:	2102      	movs	r1, #2
    1f4c:	4b09      	ldr	r3, [pc, #36]	; (1f74 <usart_async_register_callback+0x74>)
    1f4e:	4798      	blx	r3
    1f50:	2000      	movs	r0, #0
    1f52:	e7f3      	b.n	1f3c <usart_async_register_callback+0x3c>
    1f54:	62ec      	str	r4, [r5, #44]	; 0x2c
    1f56:	1e62      	subs	r2, r4, #1
    1f58:	4194      	sbcs	r4, r2
    1f5a:	b2e2      	uxtb	r2, r4
    1f5c:	0028      	movs	r0, r5
    1f5e:	3008      	adds	r0, #8
    1f60:	2103      	movs	r1, #3
    1f62:	4b04      	ldr	r3, [pc, #16]	; (1f74 <usart_async_register_callback+0x74>)
    1f64:	4798      	blx	r3
    1f66:	2000      	movs	r0, #0
    1f68:	e7e8      	b.n	1f3c <usart_async_register_callback+0x3c>
    1f6a:	46c0      	nop			; (mov r8, r8)
    1f6c:	0000aa54 	.word	0x0000aa54
    1f70:	000026a1 	.word	0x000026a1
    1f74:	000039a1 	.word	0x000039a1

00001f78 <usart_async_is_tx_empty>:
    1f78:	b510      	push	{r4, lr}
    1f7a:	0004      	movs	r4, r0
    1f7c:	1e43      	subs	r3, r0, #1
    1f7e:	4198      	sbcs	r0, r3
    1f80:	b2c0      	uxtb	r0, r0
    1f82:	22f8      	movs	r2, #248	; 0xf8
    1f84:	4903      	ldr	r1, [pc, #12]	; (1f94 <usart_async_is_tx_empty+0x1c>)
    1f86:	4b04      	ldr	r3, [pc, #16]	; (1f98 <usart_async_is_tx_empty+0x20>)
    1f88:	4798      	blx	r3
    1f8a:	0020      	movs	r0, r4
    1f8c:	3008      	adds	r0, #8
    1f8e:	4b03      	ldr	r3, [pc, #12]	; (1f9c <usart_async_is_tx_empty+0x24>)
    1f90:	4798      	blx	r3
    1f92:	bd10      	pop	{r4, pc}
    1f94:	0000aa54 	.word	0x0000aa54
    1f98:	000026a1 	.word	0x000026a1
    1f9c:	0000397b 	.word	0x0000397b

00001fa0 <usart_sync_write>:
    1fa0:	b5f8      	push	{r3, r4, r5, r6, r7, lr}
    1fa2:	0005      	movs	r5, r0
    1fa4:	000e      	movs	r6, r1
    1fa6:	0017      	movs	r7, r2
    1fa8:	2800      	cmp	r0, #0
    1faa:	d023      	beq.n	1ff4 <usart_sync_write+0x54>
    1fac:	2900      	cmp	r1, #0
    1fae:	d023      	beq.n	1ff8 <usart_sync_write+0x58>
    1fb0:	2a00      	cmp	r2, #0
    1fb2:	d123      	bne.n	1ffc <usart_sync_write+0x5c>
    1fb4:	2000      	movs	r0, #0
    1fb6:	22f1      	movs	r2, #241	; 0xf1
    1fb8:	4911      	ldr	r1, [pc, #68]	; (2000 <STACK_SIZE>)
    1fba:	4b12      	ldr	r3, [pc, #72]	; (2004 <STACK_SIZE+0x4>)
    1fbc:	4798      	blx	r3
    1fbe:	002c      	movs	r4, r5
    1fc0:	3408      	adds	r4, #8
    1fc2:	0020      	movs	r0, r4
    1fc4:	4b10      	ldr	r3, [pc, #64]	; (2008 <STACK_SIZE+0x8>)
    1fc6:	4798      	blx	r3
    1fc8:	2800      	cmp	r0, #0
    1fca:	d0f8      	beq.n	1fbe <usart_sync_write+0x1e>
    1fcc:	2500      	movs	r5, #0
    1fce:	5d71      	ldrb	r1, [r6, r5]
    1fd0:	0020      	movs	r0, r4
    1fd2:	4b0e      	ldr	r3, [pc, #56]	; (200c <STACK_SIZE+0xc>)
    1fd4:	4798      	blx	r3
    1fd6:	0020      	movs	r0, r4
    1fd8:	4b0b      	ldr	r3, [pc, #44]	; (2008 <STACK_SIZE+0x8>)
    1fda:	4798      	blx	r3
    1fdc:	2800      	cmp	r0, #0
    1fde:	d0fa      	beq.n	1fd6 <usart_sync_write+0x36>
    1fe0:	3501      	adds	r5, #1
    1fe2:	42bd      	cmp	r5, r7
    1fe4:	d3f3      	bcc.n	1fce <usart_sync_write+0x2e>
    1fe6:	0020      	movs	r0, r4
    1fe8:	4b09      	ldr	r3, [pc, #36]	; (2010 <STACK_SIZE+0x10>)
    1fea:	4798      	blx	r3
    1fec:	2800      	cmp	r0, #0
    1fee:	d0fa      	beq.n	1fe6 <usart_sync_write+0x46>
    1ff0:	0028      	movs	r0, r5
    1ff2:	bdf8      	pop	{r3, r4, r5, r6, r7, pc}
    1ff4:	2000      	movs	r0, #0
    1ff6:	e7de      	b.n	1fb6 <usart_sync_write+0x16>
    1ff8:	2000      	movs	r0, #0
    1ffa:	e7dc      	b.n	1fb6 <usart_sync_write+0x16>
    1ffc:	2001      	movs	r0, #1
    1ffe:	e7da      	b.n	1fb6 <usart_sync_write+0x16>
    2000:	0000aa74 	.word	0x0000aa74
    2004:	000026a1 	.word	0x000026a1
    2008:	00003965 	.word	0x00003965
    200c:	0000394d 	.word	0x0000394d
    2010:	0000396f 	.word	0x0000396f

00002014 <usart_sync_read>:
    2014:	b5f8      	push	{r3, r4, r5, r6, r7, lr}
    2016:	46ce      	mov	lr, r9
    2018:	4647      	mov	r7, r8
    201a:	b580      	push	{r7, lr}
    201c:	1e05      	subs	r5, r0, #0
    201e:	4688      	mov	r8, r1
    2020:	4691      	mov	r9, r2
    2022:	d01f      	beq.n	2064 <usart_sync_read+0x50>
    2024:	2900      	cmp	r1, #0
    2026:	d01f      	beq.n	2068 <usart_sync_read+0x54>
    2028:	2a00      	cmp	r2, #0
    202a:	d11f      	bne.n	206c <usart_sync_read+0x58>
    202c:	2000      	movs	r0, #0
    202e:	2286      	movs	r2, #134	; 0x86
    2030:	0052      	lsls	r2, r2, #1
    2032:	490f      	ldr	r1, [pc, #60]	; (2070 <usart_sync_read+0x5c>)
    2034:	4b0f      	ldr	r3, [pc, #60]	; (2074 <usart_sync_read+0x60>)
    2036:	4798      	blx	r3
    2038:	2600      	movs	r6, #0
    203a:	002c      	movs	r4, r5
    203c:	3408      	adds	r4, #8
    203e:	0020      	movs	r0, r4
    2040:	4b0d      	ldr	r3, [pc, #52]	; (2078 <usart_sync_read+0x64>)
    2042:	4798      	blx	r3
    2044:	2800      	cmp	r0, #0
    2046:	d0f8      	beq.n	203a <usart_sync_read+0x26>
    2048:	4643      	mov	r3, r8
    204a:	199f      	adds	r7, r3, r6
    204c:	0020      	movs	r0, r4
    204e:	4b0b      	ldr	r3, [pc, #44]	; (207c <usart_sync_read+0x68>)
    2050:	4798      	blx	r3
    2052:	7038      	strb	r0, [r7, #0]
    2054:	3601      	adds	r6, #1
    2056:	454e      	cmp	r6, r9
    2058:	d3ef      	bcc.n	203a <usart_sync_read+0x26>
    205a:	0030      	movs	r0, r6
    205c:	bc0c      	pop	{r2, r3}
    205e:	4690      	mov	r8, r2
    2060:	4699      	mov	r9, r3
    2062:	bdf8      	pop	{r3, r4, r5, r6, r7, pc}
    2064:	2000      	movs	r0, #0
    2066:	e7e2      	b.n	202e <usart_sync_read+0x1a>
    2068:	2000      	movs	r0, #0
    206a:	e7e0      	b.n	202e <usart_sync_read+0x1a>
    206c:	2001      	movs	r0, #1
    206e:	e7de      	b.n	202e <usart_sync_read+0x1a>
    2070:	0000aa74 	.word	0x0000aa74
    2074:	000026a1 	.word	0x000026a1
    2078:	00003985 	.word	0x00003985
    207c:	0000395d 	.word	0x0000395d

00002080 <usart_sync_init>:
    2080:	b570      	push	{r4, r5, r6, lr}
    2082:	0004      	movs	r4, r0
    2084:	000d      	movs	r5, r1
    2086:	2800      	cmp	r0, #0
    2088:	d014      	beq.n	20b4 <usart_sync_init+0x34>
    208a:	2900      	cmp	r1, #0
    208c:	d010      	beq.n	20b0 <usart_sync_init+0x30>
    208e:	2001      	movs	r0, #1
    2090:	2234      	movs	r2, #52	; 0x34
    2092:	4909      	ldr	r1, [pc, #36]	; (20b8 <usart_sync_init+0x38>)
    2094:	4b09      	ldr	r3, [pc, #36]	; (20bc <usart_sync_init+0x3c>)
    2096:	4798      	blx	r3
    2098:	0020      	movs	r0, r4
    209a:	3008      	adds	r0, #8
    209c:	0029      	movs	r1, r5
    209e:	4b08      	ldr	r3, [pc, #32]	; (20c0 <usart_sync_init+0x40>)
    20a0:	4798      	blx	r3
    20a2:	2800      	cmp	r0, #0
    20a4:	d103      	bne.n	20ae <usart_sync_init+0x2e>
    20a6:	4b07      	ldr	r3, [pc, #28]	; (20c4 <usart_sync_init+0x44>)
    20a8:	6063      	str	r3, [r4, #4]
    20aa:	4b07      	ldr	r3, [pc, #28]	; (20c8 <usart_sync_init+0x48>)
    20ac:	6023      	str	r3, [r4, #0]
    20ae:	bd70      	pop	{r4, r5, r6, pc}
    20b0:	2000      	movs	r0, #0
    20b2:	e7ed      	b.n	2090 <usart_sync_init+0x10>
    20b4:	2000      	movs	r0, #0
    20b6:	e7eb      	b.n	2090 <usart_sync_init+0x10>
    20b8:	0000aa74 	.word	0x0000aa74
    20bc:	000026a1 	.word	0x000026a1
    20c0:	00003871 	.word	0x00003871
    20c4:	00002015 	.word	0x00002015
    20c8:	00001fa1 	.word	0x00001fa1

000020cc <usart_sync_enable>:
    20cc:	b510      	push	{r4, lr}
    20ce:	0004      	movs	r4, r0
    20d0:	1e43      	subs	r3, r0, #1
    20d2:	4198      	sbcs	r0, r3
    20d4:	b2c0      	uxtb	r0, r0
    20d6:	2253      	movs	r2, #83	; 0x53
    20d8:	4904      	ldr	r1, [pc, #16]	; (20ec <usart_sync_enable+0x20>)
    20da:	4b05      	ldr	r3, [pc, #20]	; (20f0 <usart_sync_enable+0x24>)
    20dc:	4798      	blx	r3
    20de:	0020      	movs	r0, r4
    20e0:	3008      	adds	r0, #8
    20e2:	4b04      	ldr	r3, [pc, #16]	; (20f4 <usart_sync_enable+0x28>)
    20e4:	4798      	blx	r3
    20e6:	2000      	movs	r0, #0
    20e8:	bd10      	pop	{r4, pc}
    20ea:	46c0      	nop			; (mov r8, r8)
    20ec:	0000aa74 	.word	0x0000aa74
    20f0:	000026a1 	.word	0x000026a1
    20f4:	00003929 	.word	0x00003929

000020f8 <_usb_d_find_ep>:
    20f8:	b510      	push	{r4, lr}
    20fa:	0001      	movs	r1, r0
    20fc:	2000      	movs	r0, #0
    20fe:	e001      	b.n	2104 <_usb_d_find_ep+0xc>
    2100:	3001      	adds	r0, #1
    2102:	b240      	sxtb	r0, r0
    2104:	280c      	cmp	r0, #12
    2106:	dc0f      	bgt.n	2128 <_usb_d_find_ep+0x30>
    2108:	0142      	lsls	r2, r0, #5
    210a:	4b09      	ldr	r3, [pc, #36]	; (2130 <_usb_d_find_ep+0x38>)
    210c:	189b      	adds	r3, r3, r2
    210e:	785a      	ldrb	r2, [r3, #1]
    2110:	428a      	cmp	r2, r1
    2112:	d00b      	beq.n	212c <_usb_d_find_ep+0x34>
    2114:	0143      	lsls	r3, r0, #5
    2116:	4c06      	ldr	r4, [pc, #24]	; (2130 <_usb_d_find_ep+0x38>)
    2118:	5d1b      	ldrb	r3, [r3, r4]
    211a:	2b00      	cmp	r3, #0
    211c:	d1f0      	bne.n	2100 <_usb_d_find_ep+0x8>
    211e:	330f      	adds	r3, #15
    2120:	400b      	ands	r3, r1
    2122:	4293      	cmp	r3, r2
    2124:	d1ec      	bne.n	2100 <_usb_d_find_ep+0x8>
    2126:	e001      	b.n	212c <_usb_d_find_ep+0x34>
    2128:	2001      	movs	r0, #1
    212a:	4240      	negs	r0, r0
    212c:	bd10      	pop	{r4, pc}
    212e:	46c0      	nop			; (mov r8, r8)
    2130:	2000020c 	.word	0x2000020c

00002134 <usb_d_dummy_cb_false>:
    2134:	2000      	movs	r0, #0
    2136:	4770      	bx	lr

00002138 <usb_d_cb_trans_more>:
    2138:	b570      	push	{r4, r5, r6, lr}
    213a:	0004      	movs	r4, r0
    213c:	000d      	movs	r5, r1
    213e:	4b08      	ldr	r3, [pc, #32]	; (2160 <usb_d_cb_trans_more+0x28>)
    2140:	4798      	blx	r3
    2142:	0142      	lsls	r2, r0, #5
    2144:	4b07      	ldr	r3, [pc, #28]	; (2164 <usb_d_cb_trans_more+0x2c>)
    2146:	189b      	adds	r3, r3, r2
    2148:	789b      	ldrb	r3, [r3, #2]
    214a:	2b03      	cmp	r3, #3
    214c:	d001      	beq.n	2152 <usb_d_cb_trans_more+0x1a>
    214e:	2000      	movs	r0, #0
    2150:	bd70      	pop	{r4, r5, r6, pc}
    2152:	4b04      	ldr	r3, [pc, #16]	; (2164 <usb_d_cb_trans_more+0x2c>)
    2154:	1898      	adds	r0, r3, r2
    2156:	6983      	ldr	r3, [r0, #24]
    2158:	0029      	movs	r1, r5
    215a:	0020      	movs	r0, r4
    215c:	4798      	blx	r3
    215e:	e7f7      	b.n	2150 <usb_d_cb_trans_more+0x18>
    2160:	000020f9 	.word	0x000020f9
    2164:	2000020c 	.word	0x2000020c

00002168 <_usb_d_cb_trans_done>:
    2168:	b5f0      	push	{r4, r5, r6, r7, lr}
    216a:	b087      	sub	sp, #28
    216c:	0005      	movs	r5, r0
    216e:	000f      	movs	r7, r1
    2170:	9201      	str	r2, [sp, #4]
    2172:	4b4a      	ldr	r3, [pc, #296]	; (229c <_usb_d_cb_trans_done+0x134>)
    2174:	4798      	blx	r3
    2176:	0004      	movs	r4, r0
    2178:	0146      	lsls	r6, r0, #5
    217a:	4a49      	ldr	r2, [pc, #292]	; (22a0 <_usb_d_cb_trans_done+0x138>)
    217c:	1996      	adds	r6, r2, r6
    217e:	2f00      	cmp	r7, #0
    2180:	d151      	bne.n	2226 <_usb_d_cb_trans_done+0xbe>
    2182:	0013      	movs	r3, r2
    2184:	0142      	lsls	r2, r0, #5
    2186:	2000      	movs	r0, #0
    2188:	70f0      	strb	r0, [r6, #3]
    218a:	5cd3      	ldrb	r3, [r2, r3]
    218c:	2b00      	cmp	r3, #0
    218e:	d00e      	beq.n	21ae <_usb_d_cb_trans_done+0x46>
    2190:	0162      	lsls	r2, r4, #5
    2192:	4b43      	ldr	r3, [pc, #268]	; (22a0 <_usb_d_cb_trans_done+0x138>)
    2194:	189b      	adds	r3, r3, r2
    2196:	2201      	movs	r2, #1
    2198:	709a      	strb	r2, [r3, #2]
    219a:	0164      	lsls	r4, r4, #5
    219c:	4b40      	ldr	r3, [pc, #256]	; (22a0 <_usb_d_cb_trans_done+0x138>)
    219e:	191c      	adds	r4, r3, r4
    21a0:	69e3      	ldr	r3, [r4, #28]
    21a2:	78e1      	ldrb	r1, [r4, #3]
    21a4:	9a01      	ldr	r2, [sp, #4]
    21a6:	0028      	movs	r0, r5
    21a8:	4798      	blx	r3
    21aa:	b007      	add	sp, #28
    21ac:	bdf0      	pop	{r4, r5, r6, r7, pc}
    21ae:	78b3      	ldrb	r3, [r6, #2]
    21b0:	240c      	movs	r4, #12
    21b2:	5734      	ldrsb	r4, [r6, r4]
    21b4:	2b03      	cmp	r3, #3
    21b6:	d008      	beq.n	21ca <_usb_d_cb_trans_done+0x62>
    21b8:	0032      	movs	r2, r6
    21ba:	320c      	adds	r2, #12
    21bc:	7870      	ldrb	r0, [r6, #1]
    21be:	2100      	movs	r1, #0
    21c0:	69f3      	ldr	r3, [r6, #28]
    21c2:	4798      	blx	r3
    21c4:	2302      	movs	r3, #2
    21c6:	70b3      	strb	r3, [r6, #2]
    21c8:	e7ef      	b.n	21aa <_usb_d_cb_trans_done+0x42>
    21ca:	7870      	ldrb	r0, [r6, #1]
    21cc:	0032      	movs	r2, r6
    21ce:	320c      	adds	r2, #12
    21d0:	2101      	movs	r1, #1
    21d2:	69f3      	ldr	r3, [r6, #28]
    21d4:	4798      	blx	r3
    21d6:	2800      	cmp	r0, #0
    21d8:	d010      	beq.n	21fc <_usb_d_cb_trans_done+0x94>
    21da:	2305      	movs	r3, #5
    21dc:	70b3      	strb	r3, [r6, #2]
    21de:	3b03      	subs	r3, #3
    21e0:	70f3      	strb	r3, [r6, #3]
    21e2:	2c00      	cmp	r4, #0
    21e4:	db08      	blt.n	21f8 <_usb_d_cb_trans_done+0x90>
    21e6:	7873      	ldrb	r3, [r6, #1]
    21e8:	2080      	movs	r0, #128	; 0x80
    21ea:	4240      	negs	r0, r0
    21ec:	4318      	orrs	r0, r3
    21ee:	b2c0      	uxtb	r0, r0
    21f0:	2101      	movs	r1, #1
    21f2:	4b2c      	ldr	r3, [pc, #176]	; (22a4 <_usb_d_cb_trans_done+0x13c>)
    21f4:	4798      	blx	r3
    21f6:	e7d8      	b.n	21aa <_usb_d_cb_trans_done+0x42>
    21f8:	7870      	ldrb	r0, [r6, #1]
    21fa:	e7f9      	b.n	21f0 <_usb_d_cb_trans_done+0x88>
    21fc:	2304      	movs	r3, #4
    21fe:	70b3      	strb	r3, [r6, #2]
    2200:	7871      	ldrb	r1, [r6, #1]
    2202:	2200      	movs	r2, #0
    2204:	9203      	str	r2, [sp, #12]
    2206:	9204      	str	r2, [sp, #16]
    2208:	2c00      	cmp	r4, #0
    220a:	db09      	blt.n	2220 <_usb_d_cb_trans_done+0xb8>
    220c:	3b84      	subs	r3, #132	; 0x84
    220e:	430b      	orrs	r3, r1
    2210:	b2da      	uxtb	r2, r3
    2212:	a803      	add	r0, sp, #12
    2214:	7202      	strb	r2, [r0, #8]
    2216:	2301      	movs	r3, #1
    2218:	7243      	strb	r3, [r0, #9]
    221a:	4b23      	ldr	r3, [pc, #140]	; (22a8 <_usb_d_cb_trans_done+0x140>)
    221c:	4798      	blx	r3
    221e:	e7c4      	b.n	21aa <_usb_d_cb_trans_done+0x42>
    2220:	220f      	movs	r2, #15
    2222:	400a      	ands	r2, r1
    2224:	e7f5      	b.n	2212 <_usb_d_cb_trans_done+0xaa>
    2226:	2f01      	cmp	r7, #1
    2228:	d00a      	beq.n	2240 <_usb_d_cb_trans_done+0xd8>
    222a:	2f02      	cmp	r7, #2
    222c:	d01d      	beq.n	226a <_usb_d_cb_trans_done+0x102>
    222e:	2f03      	cmp	r7, #3
    2230:	d02c      	beq.n	228c <_usb_d_cb_trans_done+0x124>
    2232:	0142      	lsls	r2, r0, #5
    2234:	4b1a      	ldr	r3, [pc, #104]	; (22a0 <_usb_d_cb_trans_done+0x138>)
    2236:	189b      	adds	r3, r3, r2
    2238:	2206      	movs	r2, #6
    223a:	709a      	strb	r2, [r3, #2]
    223c:	70da      	strb	r2, [r3, #3]
    223e:	e7ac      	b.n	219a <_usb_d_cb_trans_done+0x32>
    2240:	4b17      	ldr	r3, [pc, #92]	; (22a0 <_usb_d_cb_trans_done+0x138>)
    2242:	0142      	lsls	r2, r0, #5
    2244:	1899      	adds	r1, r3, r2
    2246:	2002      	movs	r0, #2
    2248:	70c8      	strb	r0, [r1, #3]
    224a:	5cd3      	ldrb	r3, [r2, r3]
    224c:	2b00      	cmp	r3, #0
    224e:	d005      	beq.n	225c <_usb_d_cb_trans_done+0xf4>
    2250:	0162      	lsls	r2, r4, #5
    2252:	4b13      	ldr	r3, [pc, #76]	; (22a0 <_usb_d_cb_trans_done+0x138>)
    2254:	189b      	adds	r3, r3, r2
    2256:	2205      	movs	r2, #5
    2258:	709a      	strb	r2, [r3, #2]
    225a:	e79e      	b.n	219a <_usb_d_cb_trans_done+0x32>
    225c:	2202      	movs	r2, #2
    225e:	708a      	strb	r2, [r1, #2]
    2260:	2100      	movs	r1, #0
    2262:	0028      	movs	r0, r5
    2264:	4b0f      	ldr	r3, [pc, #60]	; (22a4 <_usb_d_cb_trans_done+0x13c>)
    2266:	4798      	blx	r3
    2268:	e797      	b.n	219a <_usb_d_cb_trans_done+0x32>
    226a:	4b0d      	ldr	r3, [pc, #52]	; (22a0 <_usb_d_cb_trans_done+0x138>)
    226c:	0142      	lsls	r2, r0, #5
    226e:	1899      	adds	r1, r3, r2
    2270:	2004      	movs	r0, #4
    2272:	70c8      	strb	r0, [r1, #3]
    2274:	5cd3      	ldrb	r3, [r2, r3]
    2276:	2b00      	cmp	r3, #0
    2278:	d005      	beq.n	2286 <_usb_d_cb_trans_done+0x11e>
    227a:	0162      	lsls	r2, r4, #5
    227c:	4b08      	ldr	r3, [pc, #32]	; (22a0 <_usb_d_cb_trans_done+0x138>)
    227e:	189b      	adds	r3, r3, r2
    2280:	2201      	movs	r2, #1
    2282:	709a      	strb	r2, [r3, #2]
    2284:	e789      	b.n	219a <_usb_d_cb_trans_done+0x32>
    2286:	2302      	movs	r3, #2
    2288:	708b      	strb	r3, [r1, #2]
    228a:	e78e      	b.n	21aa <_usb_d_cb_trans_done+0x42>
    228c:	0142      	lsls	r2, r0, #5
    228e:	4b04      	ldr	r3, [pc, #16]	; (22a0 <_usb_d_cb_trans_done+0x138>)
    2290:	189b      	adds	r3, r3, r2
    2292:	2200      	movs	r2, #0
    2294:	709a      	strb	r2, [r3, #2]
    2296:	3205      	adds	r2, #5
    2298:	70da      	strb	r2, [r3, #3]
    229a:	e77e      	b.n	219a <_usb_d_cb_trans_done+0x32>
    229c:	000020f9 	.word	0x000020f9
    22a0:	2000020c 	.word	0x2000020c
    22a4:	00004fe5 	.word	0x00004fe5
    22a8:	000051b5 	.word	0x000051b5

000022ac <usb_d_cb_trans_setup>:
    22ac:	b5f0      	push	{r4, r5, r6, r7, lr}
    22ae:	46c6      	mov	lr, r8
    22b0:	b500      	push	{lr}
    22b2:	0005      	movs	r5, r0
    22b4:	4b1f      	ldr	r3, [pc, #124]	; (2334 <usb_d_cb_trans_setup+0x88>)
    22b6:	4798      	blx	r3
    22b8:	0006      	movs	r6, r0
    22ba:	0143      	lsls	r3, r0, #5
    22bc:	3308      	adds	r3, #8
    22be:	4c1e      	ldr	r4, [pc, #120]	; (2338 <usb_d_cb_trans_setup+0x8c>)
    22c0:	18e4      	adds	r4, r4, r3
    22c2:	3404      	adds	r4, #4
    22c4:	0021      	movs	r1, r4
    22c6:	0028      	movs	r0, r5
    22c8:	4b1c      	ldr	r3, [pc, #112]	; (233c <usb_d_cb_trans_setup+0x90>)
    22ca:	4798      	blx	r3
    22cc:	b2c0      	uxtb	r0, r0
    22ce:	2808      	cmp	r0, #8
    22d0:	d00c      	beq.n	22ec <usb_d_cb_trans_setup+0x40>
    22d2:	2101      	movs	r1, #1
    22d4:	0028      	movs	r0, r5
    22d6:	4c1a      	ldr	r4, [pc, #104]	; (2340 <usb_d_cb_trans_setup+0x94>)
    22d8:	47a0      	blx	r4
    22da:	2080      	movs	r0, #128	; 0x80
    22dc:	4240      	negs	r0, r0
    22de:	4328      	orrs	r0, r5
    22e0:	b2c0      	uxtb	r0, r0
    22e2:	2101      	movs	r1, #1
    22e4:	47a0      	blx	r4
    22e6:	bc04      	pop	{r2}
    22e8:	4690      	mov	r8, r2
    22ea:	bdf0      	pop	{r4, r5, r6, r7, pc}
    22ec:	2100      	movs	r1, #0
    22ee:	0028      	movs	r0, r5
    22f0:	4b13      	ldr	r3, [pc, #76]	; (2340 <usb_d_cb_trans_setup+0x94>)
    22f2:	4698      	mov	r8, r3
    22f4:	4798      	blx	r3
    22f6:	2780      	movs	r7, #128	; 0x80
    22f8:	427f      	negs	r7, r7
    22fa:	432f      	orrs	r7, r5
    22fc:	b2ff      	uxtb	r7, r7
    22fe:	2100      	movs	r1, #0
    2300:	0038      	movs	r0, r7
    2302:	47c0      	blx	r8
    2304:	0172      	lsls	r2, r6, #5
    2306:	4b0c      	ldr	r3, [pc, #48]	; (2338 <usb_d_cb_trans_setup+0x8c>)
    2308:	189b      	adds	r3, r3, r2
    230a:	2201      	movs	r2, #1
    230c:	709a      	strb	r2, [r3, #2]
    230e:	695b      	ldr	r3, [r3, #20]
    2310:	0021      	movs	r1, r4
    2312:	0028      	movs	r0, r5
    2314:	4798      	blx	r3
    2316:	2800      	cmp	r0, #0
    2318:	d1e5      	bne.n	22e6 <usb_d_cb_trans_setup+0x3a>
    231a:	0176      	lsls	r6, r6, #5
    231c:	4b06      	ldr	r3, [pc, #24]	; (2338 <usb_d_cb_trans_setup+0x8c>)
    231e:	199e      	adds	r6, r3, r6
    2320:	2305      	movs	r3, #5
    2322:	70b3      	strb	r3, [r6, #2]
    2324:	2101      	movs	r1, #1
    2326:	0028      	movs	r0, r5
    2328:	4c05      	ldr	r4, [pc, #20]	; (2340 <usb_d_cb_trans_setup+0x94>)
    232a:	47a0      	blx	r4
    232c:	2101      	movs	r1, #1
    232e:	0038      	movs	r0, r7
    2330:	47a0      	blx	r4
    2332:	e7d8      	b.n	22e6 <usb_d_cb_trans_setup+0x3a>
    2334:	000020f9 	.word	0x000020f9
    2338:	2000020c 	.word	0x2000020c
    233c:	0000513d 	.word	0x0000513d
    2340:	00004fe5 	.word	0x00004fe5

00002344 <usb_d_init>:
    2344:	b510      	push	{r4, lr}
    2346:	4b12      	ldr	r3, [pc, #72]	; (2390 <usb_d_init+0x4c>)
    2348:	4798      	blx	r3
    234a:	2800      	cmp	r0, #0
    234c:	db1f      	blt.n	238e <usb_d_init+0x4a>
    234e:	22d0      	movs	r2, #208	; 0xd0
    2350:	0052      	lsls	r2, r2, #1
    2352:	2100      	movs	r1, #0
    2354:	480f      	ldr	r0, [pc, #60]	; (2394 <usb_d_init+0x50>)
    2356:	4b10      	ldr	r3, [pc, #64]	; (2398 <usb_d_init+0x54>)
    2358:	4798      	blx	r3
    235a:	2200      	movs	r2, #0
    235c:	e00a      	b.n	2374 <usb_d_init+0x30>
    235e:	0151      	lsls	r1, r2, #5
    2360:	4b0c      	ldr	r3, [pc, #48]	; (2394 <usb_d_init+0x50>)
    2362:	185b      	adds	r3, r3, r1
    2364:	21ff      	movs	r1, #255	; 0xff
    2366:	7059      	strb	r1, [r3, #1]
    2368:	490c      	ldr	r1, [pc, #48]	; (239c <usb_d_init+0x58>)
    236a:	6159      	str	r1, [r3, #20]
    236c:	6199      	str	r1, [r3, #24]
    236e:	61d9      	str	r1, [r3, #28]
    2370:	3201      	adds	r2, #1
    2372:	b2d2      	uxtb	r2, r2
    2374:	2a0c      	cmp	r2, #12
    2376:	d9f2      	bls.n	235e <usb_d_init+0x1a>
    2378:	4909      	ldr	r1, [pc, #36]	; (23a0 <usb_d_init+0x5c>)
    237a:	2000      	movs	r0, #0
    237c:	4c09      	ldr	r4, [pc, #36]	; (23a4 <usb_d_init+0x60>)
    237e:	47a0      	blx	r4
    2380:	4909      	ldr	r1, [pc, #36]	; (23a8 <usb_d_init+0x64>)
    2382:	2001      	movs	r0, #1
    2384:	47a0      	blx	r4
    2386:	4909      	ldr	r1, [pc, #36]	; (23ac <usb_d_init+0x68>)
    2388:	2002      	movs	r0, #2
    238a:	47a0      	blx	r4
    238c:	2000      	movs	r0, #0
    238e:	bd10      	pop	{r4, pc}
    2390:	000049b1 	.word	0x000049b1
    2394:	2000020c 	.word	0x2000020c
    2398:	000094f5 	.word	0x000094f5
    239c:	00002135 	.word	0x00002135
    23a0:	000022ad 	.word	0x000022ad
    23a4:	000053ad 	.word	0x000053ad
    23a8:	00002139 	.word	0x00002139
    23ac:	00002169 	.word	0x00002169

000023b0 <usb_d_register_callback>:
    23b0:	b510      	push	{r4, lr}
    23b2:	4b01      	ldr	r3, [pc, #4]	; (23b8 <usb_d_register_callback+0x8>)
    23b4:	4798      	blx	r3
    23b6:	bd10      	pop	{r4, pc}
    23b8:	00005389 	.word	0x00005389

000023bc <usb_d_enable>:
    23bc:	b510      	push	{r4, lr}
    23be:	4b01      	ldr	r3, [pc, #4]	; (23c4 <usb_d_enable+0x8>)
    23c0:	4798      	blx	r3
    23c2:	bd10      	pop	{r4, pc}
    23c4:	00004a59 	.word	0x00004a59

000023c8 <usb_d_attach>:
    23c8:	b510      	push	{r4, lr}
    23ca:	4b01      	ldr	r3, [pc, #4]	; (23d0 <usb_d_attach+0x8>)
    23cc:	4798      	blx	r3
    23ce:	bd10      	pop	{r4, pc}
    23d0:	00004aa9 	.word	0x00004aa9

000023d4 <usb_d_set_address>:
    23d4:	b510      	push	{r4, lr}
    23d6:	4b01      	ldr	r3, [pc, #4]	; (23dc <usb_d_set_address+0x8>)
    23d8:	4798      	blx	r3
    23da:	bd10      	pop	{r4, pc}
    23dc:	00004ab9 	.word	0x00004ab9

000023e0 <usb_d_ep_init>:
    23e0:	b5f8      	push	{r3, r4, r5, r6, r7, lr}
    23e2:	0005      	movs	r5, r0
    23e4:	000e      	movs	r6, r1
    23e6:	0017      	movs	r7, r2
    23e8:	4b0f      	ldr	r3, [pc, #60]	; (2428 <usb_d_ep_init+0x48>)
    23ea:	4798      	blx	r3
    23ec:	2800      	cmp	r0, #0
    23ee:	da14      	bge.n	241a <usb_d_ep_init+0x3a>
    23f0:	20ff      	movs	r0, #255	; 0xff
    23f2:	4b0d      	ldr	r3, [pc, #52]	; (2428 <usb_d_ep_init+0x48>)
    23f4:	4798      	blx	r3
    23f6:	1e04      	subs	r4, r0, #0
    23f8:	db12      	blt.n	2420 <usb_d_ep_init+0x40>
    23fa:	003a      	movs	r2, r7
    23fc:	0031      	movs	r1, r6
    23fe:	0028      	movs	r0, r5
    2400:	4b0a      	ldr	r3, [pc, #40]	; (242c <usb_d_ep_init+0x4c>)
    2402:	4798      	blx	r3
    2404:	2800      	cmp	r0, #0
    2406:	db07      	blt.n	2418 <usb_d_ep_init+0x38>
    2408:	4a09      	ldr	r2, [pc, #36]	; (2430 <usb_d_ep_init+0x50>)
    240a:	0164      	lsls	r4, r4, #5
    240c:	1913      	adds	r3, r2, r4
    240e:	705d      	strb	r5, [r3, #1]
    2410:	2303      	movs	r3, #3
    2412:	401e      	ands	r6, r3
    2414:	54a6      	strb	r6, [r4, r2]
    2416:	2000      	movs	r0, #0
    2418:	bdf8      	pop	{r3, r4, r5, r6, r7, pc}
    241a:	2014      	movs	r0, #20
    241c:	4240      	negs	r0, r0
    241e:	e7fb      	b.n	2418 <usb_d_ep_init+0x38>
    2420:	2015      	movs	r0, #21
    2422:	4240      	negs	r0, r0
    2424:	e7f8      	b.n	2418 <usb_d_ep_init+0x38>
    2426:	46c0      	nop			; (mov r8, r8)
    2428:	000020f9 	.word	0x000020f9
    242c:	00004acd 	.word	0x00004acd
    2430:	2000020c 	.word	0x2000020c

00002434 <usb_d_ep0_init>:
    2434:	b510      	push	{r4, lr}
    2436:	b282      	uxth	r2, r0
    2438:	2100      	movs	r1, #0
    243a:	2000      	movs	r0, #0
    243c:	4b01      	ldr	r3, [pc, #4]	; (2444 <usb_d_ep0_init+0x10>)
    243e:	4798      	blx	r3
    2440:	bd10      	pop	{r4, pc}
    2442:	46c0      	nop			; (mov r8, r8)
    2444:	000023e1 	.word	0x000023e1

00002448 <usb_d_ep_deinit>:
    2448:	b570      	push	{r4, r5, r6, lr}
    244a:	0005      	movs	r5, r0
    244c:	4b06      	ldr	r3, [pc, #24]	; (2468 <usb_d_ep_deinit+0x20>)
    244e:	4798      	blx	r3
    2450:	1e04      	subs	r4, r0, #0
    2452:	db07      	blt.n	2464 <usb_d_ep_deinit+0x1c>
    2454:	0028      	movs	r0, r5
    2456:	4b05      	ldr	r3, [pc, #20]	; (246c <usb_d_ep_deinit+0x24>)
    2458:	4798      	blx	r3
    245a:	0164      	lsls	r4, r4, #5
    245c:	4b04      	ldr	r3, [pc, #16]	; (2470 <usb_d_ep_deinit+0x28>)
    245e:	191c      	adds	r4, r3, r4
    2460:	23ff      	movs	r3, #255	; 0xff
    2462:	7063      	strb	r3, [r4, #1]
    2464:	bd70      	pop	{r4, r5, r6, pc}
    2466:	46c0      	nop			; (mov r8, r8)
    2468:	000020f9 	.word	0x000020f9
    246c:	00004c15 	.word	0x00004c15
    2470:	2000020c 	.word	0x2000020c

00002474 <usb_d_ep_enable>:
    2474:	b570      	push	{r4, r5, r6, lr}
    2476:	0005      	movs	r5, r0
    2478:	4b0f      	ldr	r3, [pc, #60]	; (24b8 <usb_d_ep_enable+0x44>)
    247a:	4798      	blx	r3
    247c:	1e04      	subs	r4, r0, #0
    247e:	db17      	blt.n	24b0 <usb_d_ep_enable+0x3c>
    2480:	0143      	lsls	r3, r0, #5
    2482:	4a0e      	ldr	r2, [pc, #56]	; (24bc <usb_d_ep_enable+0x48>)
    2484:	5c9b      	ldrb	r3, [r3, r2]
    2486:	2b00      	cmp	r3, #0
    2488:	d10a      	bne.n	24a0 <usb_d_ep_enable+0x2c>
    248a:	2102      	movs	r1, #2
    248c:	0162      	lsls	r2, r4, #5
    248e:	4b0b      	ldr	r3, [pc, #44]	; (24bc <usb_d_ep_enable+0x48>)
    2490:	189b      	adds	r3, r3, r2
    2492:	7099      	strb	r1, [r3, #2]
    2494:	0028      	movs	r0, r5
    2496:	4b0a      	ldr	r3, [pc, #40]	; (24c0 <usb_d_ep_enable+0x4c>)
    2498:	4798      	blx	r3
    249a:	2800      	cmp	r0, #0
    249c:	db02      	blt.n	24a4 <usb_d_ep_enable+0x30>
    249e:	bd70      	pop	{r4, r5, r6, pc}
    24a0:	2101      	movs	r1, #1
    24a2:	e7f3      	b.n	248c <usb_d_ep_enable+0x18>
    24a4:	0164      	lsls	r4, r4, #5
    24a6:	4b05      	ldr	r3, [pc, #20]	; (24bc <usb_d_ep_enable+0x48>)
    24a8:	191c      	adds	r4, r3, r4
    24aa:	2300      	movs	r3, #0
    24ac:	70a3      	strb	r3, [r4, #2]
    24ae:	e7f6      	b.n	249e <usb_d_ep_enable+0x2a>
    24b0:	2012      	movs	r0, #18
    24b2:	4240      	negs	r0, r0
    24b4:	e7f3      	b.n	249e <usb_d_ep_enable+0x2a>
    24b6:	46c0      	nop			; (mov r8, r8)
    24b8:	000020f9 	.word	0x000020f9
    24bc:	2000020c 	.word	0x2000020c
    24c0:	00004cd9 	.word	0x00004cd9

000024c4 <usb_d_ep_transfer>:
    24c4:	b5f0      	push	{r4, r5, r6, r7, lr}
    24c6:	46d6      	mov	lr, sl
    24c8:	464f      	mov	r7, r9
    24ca:	4646      	mov	r6, r8
    24cc:	b5c0      	push	{r6, r7, lr}
    24ce:	b086      	sub	sp, #24
    24d0:	0005      	movs	r5, r0
    24d2:	7a06      	ldrb	r6, [r0, #8]
    24d4:	0030      	movs	r0, r6
    24d6:	4b3f      	ldr	r3, [pc, #252]	; (25d4 <usb_d_ep_transfer+0x110>)
    24d8:	4798      	blx	r3
    24da:	0007      	movs	r7, r0
    24dc:	09f6      	lsrs	r6, r6, #7
    24de:	7a6b      	ldrb	r3, [r5, #9]
    24e0:	1e5a      	subs	r2, r3, #1
    24e2:	4193      	sbcs	r3, r2
    24e4:	b2dc      	uxtb	r4, r3
    24e6:	686b      	ldr	r3, [r5, #4]
    24e8:	4698      	mov	r8, r3
    24ea:	2800      	cmp	r0, #0
    24ec:	db6b      	blt.n	25c6 <usb_d_ep_transfer+0x102>
    24ee:	a804      	add	r0, sp, #16
    24f0:	4b39      	ldr	r3, [pc, #228]	; (25d8 <usb_d_ep_transfer+0x114>)
    24f2:	4798      	blx	r3
    24f4:	017a      	lsls	r2, r7, #5
    24f6:	4b39      	ldr	r3, [pc, #228]	; (25dc <usb_d_ep_transfer+0x118>)
    24f8:	189b      	adds	r3, r3, r2
    24fa:	789a      	ldrb	r2, [r3, #2]
    24fc:	2317      	movs	r3, #23
    24fe:	446b      	add	r3, sp
    2500:	701a      	strb	r2, [r3, #0]
    2502:	781b      	ldrb	r3, [r3, #0]
    2504:	2b01      	cmp	r3, #1
    2506:	d00e      	beq.n	2526 <usb_d_ep_transfer+0x62>
    2508:	a804      	add	r0, sp, #16
    250a:	4b35      	ldr	r3, [pc, #212]	; (25e0 <usb_d_ep_transfer+0x11c>)
    250c:	4798      	blx	r3
    250e:	2317      	movs	r3, #23
    2510:	446b      	add	r3, sp
    2512:	781b      	ldrb	r3, [r3, #0]
    2514:	b2db      	uxtb	r3, r3
    2516:	2b05      	cmp	r3, #5
    2518:	d02b      	beq.n	2572 <usb_d_ep_transfer+0xae>
    251a:	2b06      	cmp	r3, #6
    251c:	d056      	beq.n	25cc <usb_d_ep_transfer+0x108>
    251e:	2b00      	cmp	r3, #0
    2520:	d029      	beq.n	2576 <usb_d_ep_transfer+0xb2>
    2522:	2001      	movs	r0, #1
    2524:	e01f      	b.n	2566 <usb_d_ep_transfer+0xa2>
    2526:	4b2d      	ldr	r3, [pc, #180]	; (25dc <usb_d_ep_transfer+0x118>)
    2528:	4699      	mov	r9, r3
    252a:	017b      	lsls	r3, r7, #5
    252c:	469a      	mov	sl, r3
    252e:	464b      	mov	r3, r9
    2530:	4453      	add	r3, sl
    2532:	2203      	movs	r2, #3
    2534:	709a      	strb	r2, [r3, #2]
    2536:	a804      	add	r0, sp, #16
    2538:	4b29      	ldr	r3, [pc, #164]	; (25e0 <usb_d_ep_transfer+0x11c>)
    253a:	4798      	blx	r3
    253c:	464b      	mov	r3, r9
    253e:	4652      	mov	r2, sl
    2540:	5cd3      	ldrb	r3, [r2, r3]
    2542:	2b00      	cmp	r3, #0
    2544:	d01a      	beq.n	257c <usb_d_ep_transfer+0xb8>
    2546:	7a29      	ldrb	r1, [r5, #8]
    2548:	682b      	ldr	r3, [r5, #0]
    254a:	9301      	str	r3, [sp, #4]
    254c:	4643      	mov	r3, r8
    254e:	9302      	str	r3, [sp, #8]
    2550:	2e00      	cmp	r6, #0
    2552:	d035      	beq.n	25c0 <usb_d_ep_transfer+0xfc>
    2554:	2280      	movs	r2, #128	; 0x80
    2556:	4252      	negs	r2, r2
    2558:	430a      	orrs	r2, r1
    255a:	b2d2      	uxtb	r2, r2
    255c:	a801      	add	r0, sp, #4
    255e:	7202      	strb	r2, [r0, #8]
    2560:	7244      	strb	r4, [r0, #9]
    2562:	4b20      	ldr	r3, [pc, #128]	; (25e4 <usb_d_ep_transfer+0x120>)
    2564:	4798      	blx	r3
    2566:	b006      	add	sp, #24
    2568:	bc1c      	pop	{r2, r3, r4}
    256a:	4690      	mov	r8, r2
    256c:	4699      	mov	r9, r3
    256e:	46a2      	mov	sl, r4
    2570:	bdf0      	pop	{r4, r5, r6, r7, pc}
    2572:	2002      	movs	r0, #2
    2574:	e7f7      	b.n	2566 <usb_d_ep_transfer+0xa2>
    2576:	2013      	movs	r0, #19
    2578:	4240      	negs	r0, r0
    257a:	e7f4      	b.n	2566 <usb_d_ep_transfer+0xa2>
    257c:	017b      	lsls	r3, r7, #5
    257e:	4a17      	ldr	r2, [pc, #92]	; (25dc <usb_d_ep_transfer+0x118>)
    2580:	18d2      	adds	r2, r2, r3
    2582:	7c93      	ldrb	r3, [r2, #18]
    2584:	7cd4      	ldrb	r4, [r2, #19]
    2586:	0224      	lsls	r4, r4, #8
    2588:	191b      	adds	r3, r3, r4
    258a:	b29b      	uxth	r3, r3
    258c:	2b00      	cmp	r3, #0
    258e:	d106      	bne.n	259e <usb_d_ep_transfer+0xda>
    2590:	2304      	movs	r3, #4
    2592:	7093      	strb	r3, [r2, #2]
    2594:	2300      	movs	r3, #0
    2596:	4698      	mov	r8, r3
    2598:	2401      	movs	r4, #1
    259a:	2601      	movs	r6, #1
    259c:	e7d3      	b.n	2546 <usb_d_ep_transfer+0x82>
    259e:	017f      	lsls	r7, r7, #5
    25a0:	4a0e      	ldr	r2, [pc, #56]	; (25dc <usb_d_ep_transfer+0x118>)
    25a2:	19d7      	adds	r7, r2, r7
    25a4:	220c      	movs	r2, #12
    25a6:	56ba      	ldrsb	r2, [r7, r2]
    25a8:	0fd6      	lsrs	r6, r2, #31
    25aa:	4598      	cmp	r8, r3
    25ac:	d900      	bls.n	25b0 <usb_d_ep_transfer+0xec>
    25ae:	4698      	mov	r8, r3
    25b0:	2a00      	cmp	r2, #0
    25b2:	db01      	blt.n	25b8 <usb_d_ep_transfer+0xf4>
    25b4:	2400      	movs	r4, #0
    25b6:	e7c6      	b.n	2546 <usb_d_ep_transfer+0x82>
    25b8:	4598      	cmp	r8, r3
    25ba:	419b      	sbcs	r3, r3
    25bc:	425c      	negs	r4, r3
    25be:	e7c2      	b.n	2546 <usb_d_ep_transfer+0x82>
    25c0:	220f      	movs	r2, #15
    25c2:	400a      	ands	r2, r1
    25c4:	e7ca      	b.n	255c <usb_d_ep_transfer+0x98>
    25c6:	2012      	movs	r0, #18
    25c8:	4240      	negs	r0, r0
    25ca:	e7cc      	b.n	2566 <usb_d_ep_transfer+0xa2>
    25cc:	2010      	movs	r0, #16
    25ce:	4240      	negs	r0, r0
    25d0:	e7c9      	b.n	2566 <usb_d_ep_transfer+0xa2>
    25d2:	46c0      	nop			; (mov r8, r8)
    25d4:	000020f9 	.word	0x000020f9
    25d8:	00001271 	.word	0x00001271
    25dc:	2000020c 	.word	0x2000020c
    25e0:	0000127f 	.word	0x0000127f
    25e4:	000051b5 	.word	0x000051b5

000025e8 <usb_d_ep_halt>:
    25e8:	b570      	push	{r4, r5, r6, lr}
    25ea:	0004      	movs	r4, r0
    25ec:	2900      	cmp	r1, #0
    25ee:	d005      	beq.n	25fc <usb_d_ep_halt+0x14>
    25f0:	2901      	cmp	r1, #1
    25f2:	d024      	beq.n	263e <usb_d_ep_halt+0x56>
    25f4:	2102      	movs	r1, #2
    25f6:	4b13      	ldr	r3, [pc, #76]	; (2644 <usb_d_ep_halt+0x5c>)
    25f8:	4798      	blx	r3
    25fa:	bd70      	pop	{r4, r5, r6, pc}
    25fc:	4b12      	ldr	r3, [pc, #72]	; (2648 <usb_d_ep_halt+0x60>)
    25fe:	4798      	blx	r3
    2600:	1e05      	subs	r5, r0, #0
    2602:	db19      	blt.n	2638 <usb_d_ep_halt+0x50>
    2604:	2102      	movs	r1, #2
    2606:	0020      	movs	r0, r4
    2608:	4b0e      	ldr	r3, [pc, #56]	; (2644 <usb_d_ep_halt+0x5c>)
    260a:	4798      	blx	r3
    260c:	2800      	cmp	r0, #0
    260e:	d0f4      	beq.n	25fa <usb_d_ep_halt+0x12>
    2610:	2100      	movs	r1, #0
    2612:	0020      	movs	r0, r4
    2614:	4b0b      	ldr	r3, [pc, #44]	; (2644 <usb_d_ep_halt+0x5c>)
    2616:	4798      	blx	r3
    2618:	2800      	cmp	r0, #0
    261a:	dbee      	blt.n	25fa <usb_d_ep_halt+0x12>
    261c:	016d      	lsls	r5, r5, #5
    261e:	4b0b      	ldr	r3, [pc, #44]	; (264c <usb_d_ep_halt+0x64>)
    2620:	195d      	adds	r5, r3, r5
    2622:	2301      	movs	r3, #1
    2624:	70ab      	strb	r3, [r5, #2]
    2626:	3302      	adds	r3, #2
    2628:	70eb      	strb	r3, [r5, #3]
    262a:	69eb      	ldr	r3, [r5, #28]
    262c:	2200      	movs	r2, #0
    262e:	2103      	movs	r1, #3
    2630:	0020      	movs	r0, r4
    2632:	4798      	blx	r3
    2634:	2000      	movs	r0, #0
    2636:	e7e0      	b.n	25fa <usb_d_ep_halt+0x12>
    2638:	2012      	movs	r0, #18
    263a:	4240      	negs	r0, r0
    263c:	e7dd      	b.n	25fa <usb_d_ep_halt+0x12>
    263e:	4b01      	ldr	r3, [pc, #4]	; (2644 <usb_d_ep_halt+0x5c>)
    2640:	4798      	blx	r3
    2642:	e7da      	b.n	25fa <usb_d_ep_halt+0x12>
    2644:	00004fe5 	.word	0x00004fe5
    2648:	000020f9 	.word	0x000020f9
    264c:	2000020c 	.word	0x2000020c

00002650 <usb_d_ep_register_callback>:
    2650:	b570      	push	{r4, r5, r6, lr}
    2652:	000d      	movs	r5, r1
    2654:	0014      	movs	r4, r2
    2656:	4b0f      	ldr	r3, [pc, #60]	; (2694 <usb_d_ep_register_callback+0x44>)
    2658:	4798      	blx	r3
    265a:	0003      	movs	r3, r0
    265c:	2c00      	cmp	r4, #0
    265e:	d008      	beq.n	2672 <usb_d_ep_register_callback+0x22>
    2660:	2b00      	cmp	r3, #0
    2662:	db05      	blt.n	2670 <usb_d_ep_register_callback+0x20>
    2664:	2d01      	cmp	r5, #1
    2666:	d00b      	beq.n	2680 <usb_d_ep_register_callback+0x30>
    2668:	2d00      	cmp	r5, #0
    266a:	d004      	beq.n	2676 <usb_d_ep_register_callback+0x26>
    266c:	2d02      	cmp	r5, #2
    266e:	d00c      	beq.n	268a <usb_d_ep_register_callback+0x3a>
    2670:	bd70      	pop	{r4, r5, r6, pc}
    2672:	4c09      	ldr	r4, [pc, #36]	; (2698 <usb_d_ep_register_callback+0x48>)
    2674:	e7f4      	b.n	2660 <usb_d_ep_register_callback+0x10>
    2676:	0140      	lsls	r0, r0, #5
    2678:	4b08      	ldr	r3, [pc, #32]	; (269c <usb_d_ep_register_callback+0x4c>)
    267a:	1818      	adds	r0, r3, r0
    267c:	6144      	str	r4, [r0, #20]
    267e:	e7f7      	b.n	2670 <usb_d_ep_register_callback+0x20>
    2680:	0140      	lsls	r0, r0, #5
    2682:	4b06      	ldr	r3, [pc, #24]	; (269c <usb_d_ep_register_callback+0x4c>)
    2684:	1818      	adds	r0, r3, r0
    2686:	6184      	str	r4, [r0, #24]
    2688:	e7f2      	b.n	2670 <usb_d_ep_register_callback+0x20>
    268a:	0140      	lsls	r0, r0, #5
    268c:	4b03      	ldr	r3, [pc, #12]	; (269c <usb_d_ep_register_callback+0x4c>)
    268e:	1818      	adds	r0, r3, r0
    2690:	61c4      	str	r4, [r0, #28]
    2692:	e7ed      	b.n	2670 <usb_d_ep_register_callback+0x20>
    2694:	000020f9 	.word	0x000020f9
    2698:	00002135 	.word	0x00002135
    269c:	2000020c 	.word	0x2000020c

000026a0 <assert>:
    26a0:	2800      	cmp	r0, #0
    26a2:	d100      	bne.n	26a6 <assert+0x6>
    26a4:	be00      	bkpt	0x0000
    26a6:	4770      	bx	lr

000026a8 <is_list_element>:
    26a8:	6803      	ldr	r3, [r0, #0]
    26aa:	2b00      	cmp	r3, #0
    26ac:	d003      	beq.n	26b6 <is_list_element+0xe>
    26ae:	428b      	cmp	r3, r1
    26b0:	d003      	beq.n	26ba <is_list_element+0x12>
    26b2:	681b      	ldr	r3, [r3, #0]
    26b4:	e7f9      	b.n	26aa <is_list_element+0x2>
    26b6:	2000      	movs	r0, #0
    26b8:	4770      	bx	lr
    26ba:	2001      	movs	r0, #1
    26bc:	e7fc      	b.n	26b8 <is_list_element+0x10>
	...

000026c0 <list_insert_as_head>:
    26c0:	b570      	push	{r4, r5, r6, lr}
    26c2:	0004      	movs	r4, r0
    26c4:	000d      	movs	r5, r1
    26c6:	4b06      	ldr	r3, [pc, #24]	; (26e0 <list_insert_as_head+0x20>)
    26c8:	4798      	blx	r3
    26ca:	2301      	movs	r3, #1
    26cc:	4058      	eors	r0, r3
    26ce:	b2c0      	uxtb	r0, r0
    26d0:	2239      	movs	r2, #57	; 0x39
    26d2:	4904      	ldr	r1, [pc, #16]	; (26e4 <list_insert_as_head+0x24>)
    26d4:	4b04      	ldr	r3, [pc, #16]	; (26e8 <list_insert_as_head+0x28>)
    26d6:	4798      	blx	r3
    26d8:	6823      	ldr	r3, [r4, #0]
    26da:	602b      	str	r3, [r5, #0]
    26dc:	6025      	str	r5, [r4, #0]
    26de:	bd70      	pop	{r4, r5, r6, pc}
    26e0:	000026a9 	.word	0x000026a9
    26e4:	0000aa90 	.word	0x0000aa90
    26e8:	000026a1 	.word	0x000026a1

000026ec <list_insert_after>:
    26ec:	6803      	ldr	r3, [r0, #0]
    26ee:	600b      	str	r3, [r1, #0]
    26f0:	6001      	str	r1, [r0, #0]
    26f2:	4770      	bx	lr

000026f4 <list_insert_at_end>:
    26f4:	b570      	push	{r4, r5, r6, lr}
    26f6:	0005      	movs	r5, r0
    26f8:	000e      	movs	r6, r1
    26fa:	6804      	ldr	r4, [r0, #0]
    26fc:	4b0a      	ldr	r3, [pc, #40]	; (2728 <list_insert_at_end+0x34>)
    26fe:	4798      	blx	r3
    2700:	2301      	movs	r3, #1
    2702:	4058      	eors	r0, r3
    2704:	b2c0      	uxtb	r0, r0
    2706:	224f      	movs	r2, #79	; 0x4f
    2708:	4908      	ldr	r1, [pc, #32]	; (272c <list_insert_at_end+0x38>)
    270a:	4b09      	ldr	r3, [pc, #36]	; (2730 <list_insert_at_end+0x3c>)
    270c:	4798      	blx	r3
    270e:	682b      	ldr	r3, [r5, #0]
    2710:	2b00      	cmp	r3, #0
    2712:	d103      	bne.n	271c <list_insert_at_end+0x28>
    2714:	602e      	str	r6, [r5, #0]
    2716:	6033      	str	r3, [r6, #0]
    2718:	e005      	b.n	2726 <list_insert_at_end+0x32>
    271a:	001c      	movs	r4, r3
    271c:	6823      	ldr	r3, [r4, #0]
    271e:	2b00      	cmp	r3, #0
    2720:	d1fb      	bne.n	271a <list_insert_at_end+0x26>
    2722:	6026      	str	r6, [r4, #0]
    2724:	6033      	str	r3, [r6, #0]
    2726:	bd70      	pop	{r4, r5, r6, pc}
    2728:	000026a9 	.word	0x000026a9
    272c:	0000aa90 	.word	0x0000aa90
    2730:	000026a1 	.word	0x000026a1

00002734 <list_remove_head>:
    2734:	6803      	ldr	r3, [r0, #0]
    2736:	2b00      	cmp	r3, #0
    2738:	d003      	beq.n	2742 <list_remove_head+0xe>
    273a:	681a      	ldr	r2, [r3, #0]
    273c:	6002      	str	r2, [r0, #0]
    273e:	0018      	movs	r0, r3
    2740:	4770      	bx	lr
    2742:	2000      	movs	r0, #0
    2744:	e7fc      	b.n	2740 <list_remove_head+0xc>
	...

00002748 <ringbuffer_init>:
    2748:	b570      	push	{r4, r5, r6, lr}
    274a:	0004      	movs	r4, r0
    274c:	000e      	movs	r6, r1
    274e:	0015      	movs	r5, r2
    2750:	2800      	cmp	r0, #0
    2752:	d012      	beq.n	277a <ringbuffer_init+0x32>
    2754:	2900      	cmp	r1, #0
    2756:	d012      	beq.n	277e <ringbuffer_init+0x36>
    2758:	2a00      	cmp	r2, #0
    275a:	d112      	bne.n	2782 <ringbuffer_init+0x3a>
    275c:	2000      	movs	r0, #0
    275e:	2228      	movs	r2, #40	; 0x28
    2760:	490a      	ldr	r1, [pc, #40]	; (278c <ringbuffer_init+0x44>)
    2762:	4b0b      	ldr	r3, [pc, #44]	; (2790 <ringbuffer_init+0x48>)
    2764:	4798      	blx	r3
    2766:	1e6b      	subs	r3, r5, #1
    2768:	422b      	tst	r3, r5
    276a:	d10c      	bne.n	2786 <ringbuffer_init+0x3e>
    276c:	6063      	str	r3, [r4, #4]
    276e:	2300      	movs	r3, #0
    2770:	60a3      	str	r3, [r4, #8]
    2772:	60e3      	str	r3, [r4, #12]
    2774:	6026      	str	r6, [r4, #0]
    2776:	2000      	movs	r0, #0
    2778:	bd70      	pop	{r4, r5, r6, pc}
    277a:	2000      	movs	r0, #0
    277c:	e7ef      	b.n	275e <ringbuffer_init+0x16>
    277e:	2000      	movs	r0, #0
    2780:	e7ed      	b.n	275e <ringbuffer_init+0x16>
    2782:	2001      	movs	r0, #1
    2784:	e7eb      	b.n	275e <ringbuffer_init+0x16>
    2786:	200d      	movs	r0, #13
    2788:	4240      	negs	r0, r0
    278a:	e7f5      	b.n	2778 <ringbuffer_init+0x30>
    278c:	0000aab0 	.word	0x0000aab0
    2790:	000026a1 	.word	0x000026a1

00002794 <ringbuffer_get>:
    2794:	b570      	push	{r4, r5, r6, lr}
    2796:	0004      	movs	r4, r0
    2798:	000d      	movs	r5, r1
    279a:	2800      	cmp	r0, #0
    279c:	d016      	beq.n	27cc <ringbuffer_get+0x38>
    279e:	2900      	cmp	r1, #0
    27a0:	d012      	beq.n	27c8 <ringbuffer_get+0x34>
    27a2:	2001      	movs	r0, #1
    27a4:	2240      	movs	r2, #64	; 0x40
    27a6:	490c      	ldr	r1, [pc, #48]	; (27d8 <ringbuffer_get+0x44>)
    27a8:	4b0c      	ldr	r3, [pc, #48]	; (27dc <ringbuffer_get+0x48>)
    27aa:	4798      	blx	r3
    27ac:	68a3      	ldr	r3, [r4, #8]
    27ae:	68e2      	ldr	r2, [r4, #12]
    27b0:	429a      	cmp	r2, r3
    27b2:	d00d      	beq.n	27d0 <ringbuffer_get+0x3c>
    27b4:	6862      	ldr	r2, [r4, #4]
    27b6:	4013      	ands	r3, r2
    27b8:	6822      	ldr	r2, [r4, #0]
    27ba:	5cd3      	ldrb	r3, [r2, r3]
    27bc:	702b      	strb	r3, [r5, #0]
    27be:	68a3      	ldr	r3, [r4, #8]
    27c0:	3301      	adds	r3, #1
    27c2:	60a3      	str	r3, [r4, #8]
    27c4:	2000      	movs	r0, #0
    27c6:	bd70      	pop	{r4, r5, r6, pc}
    27c8:	2000      	movs	r0, #0
    27ca:	e7eb      	b.n	27a4 <ringbuffer_get+0x10>
    27cc:	2000      	movs	r0, #0
    27ce:	e7e9      	b.n	27a4 <ringbuffer_get+0x10>
    27d0:	200a      	movs	r0, #10
    27d2:	4240      	negs	r0, r0
    27d4:	e7f7      	b.n	27c6 <ringbuffer_get+0x32>
    27d6:	46c0      	nop			; (mov r8, r8)
    27d8:	0000aab0 	.word	0x0000aab0
    27dc:	000026a1 	.word	0x000026a1

000027e0 <ringbuffer_put>:
    27e0:	b570      	push	{r4, r5, r6, lr}
    27e2:	0004      	movs	r4, r0
    27e4:	000d      	movs	r5, r1
    27e6:	1e43      	subs	r3, r0, #1
    27e8:	4198      	sbcs	r0, r3
    27ea:	b2c0      	uxtb	r0, r0
    27ec:	2251      	movs	r2, #81	; 0x51
    27ee:	490a      	ldr	r1, [pc, #40]	; (2818 <ringbuffer_put+0x38>)
    27f0:	4b0a      	ldr	r3, [pc, #40]	; (281c <ringbuffer_put+0x3c>)
    27f2:	4798      	blx	r3
    27f4:	6863      	ldr	r3, [r4, #4]
    27f6:	68e2      	ldr	r2, [r4, #12]
    27f8:	4013      	ands	r3, r2
    27fa:	6822      	ldr	r2, [r4, #0]
    27fc:	54d5      	strb	r5, [r2, r3]
    27fe:	68e3      	ldr	r3, [r4, #12]
    2800:	68a2      	ldr	r2, [r4, #8]
    2802:	1a9a      	subs	r2, r3, r2
    2804:	6861      	ldr	r1, [r4, #4]
    2806:	428a      	cmp	r2, r1
    2808:	d901      	bls.n	280e <ringbuffer_put+0x2e>
    280a:	1a59      	subs	r1, r3, r1
    280c:	60a1      	str	r1, [r4, #8]
    280e:	3301      	adds	r3, #1
    2810:	60e3      	str	r3, [r4, #12]
    2812:	2000      	movs	r0, #0
    2814:	bd70      	pop	{r4, r5, r6, pc}
    2816:	46c0      	nop			; (mov r8, r8)
    2818:	0000aab0 	.word	0x0000aab0
    281c:	000026a1 	.word	0x000026a1

00002820 <ringbuffer_num>:
    2820:	b510      	push	{r4, lr}
    2822:	0004      	movs	r4, r0
    2824:	1e43      	subs	r3, r0, #1
    2826:	4198      	sbcs	r0, r3
    2828:	b2c0      	uxtb	r0, r0
    282a:	2267      	movs	r2, #103	; 0x67
    282c:	4903      	ldr	r1, [pc, #12]	; (283c <ringbuffer_num+0x1c>)
    282e:	4b04      	ldr	r3, [pc, #16]	; (2840 <ringbuffer_num+0x20>)
    2830:	4798      	blx	r3
    2832:	68e0      	ldr	r0, [r4, #12]
    2834:	68a3      	ldr	r3, [r4, #8]
    2836:	1ac0      	subs	r0, r0, r3
    2838:	bd10      	pop	{r4, pc}
    283a:	46c0      	nop			; (mov r8, r8)
    283c:	0000aab0 	.word	0x0000aab0
    2840:	000026a1 	.word	0x000026a1

00002844 <_sbrk>:
    2844:	0003      	movs	r3, r0
    2846:	4a06      	ldr	r2, [pc, #24]	; (2860 <_sbrk+0x1c>)
    2848:	6812      	ldr	r2, [r2, #0]
    284a:	2a00      	cmp	r2, #0
    284c:	d004      	beq.n	2858 <_sbrk+0x14>
    284e:	4a04      	ldr	r2, [pc, #16]	; (2860 <_sbrk+0x1c>)
    2850:	6810      	ldr	r0, [r2, #0]
    2852:	18c3      	adds	r3, r0, r3
    2854:	6013      	str	r3, [r2, #0]
    2856:	4770      	bx	lr
    2858:	4902      	ldr	r1, [pc, #8]	; (2864 <_sbrk+0x20>)
    285a:	4a01      	ldr	r2, [pc, #4]	; (2860 <_sbrk+0x1c>)
    285c:	6011      	str	r1, [r2, #0]
    285e:	e7f6      	b.n	284e <_sbrk+0xa>
    2860:	200003ac 	.word	0x200003ac
    2864:	20002ad0 	.word	0x20002ad0

00002868 <_close>:
    2868:	2001      	movs	r0, #1
    286a:	4240      	negs	r0, r0
    286c:	4770      	bx	lr

0000286e <_fstat>:
    286e:	2380      	movs	r3, #128	; 0x80
    2870:	019b      	lsls	r3, r3, #6
    2872:	604b      	str	r3, [r1, #4]
    2874:	2000      	movs	r0, #0
    2876:	4770      	bx	lr

00002878 <_isatty>:
    2878:	2001      	movs	r0, #1
    287a:	4770      	bx	lr

0000287c <_lseek>:
    287c:	2000      	movs	r0, #0
    287e:	4770      	bx	lr

00002880 <_adc_get_hardware_index>:
    2880:	2000      	movs	r0, #0
    2882:	4770      	bx	lr

00002884 <_adc_get_regs>:
    2884:	b510      	push	{r4, lr}
    2886:	4b0b      	ldr	r3, [pc, #44]	; (28b4 <_adc_get_regs+0x30>)
    2888:	4798      	blx	r3
    288a:	0002      	movs	r2, r0
    288c:	2000      	movs	r0, #0
    288e:	2800      	cmp	r0, #0
    2890:	d006      	beq.n	28a0 <_adc_get_regs+0x1c>
    2892:	227f      	movs	r2, #127	; 0x7f
    2894:	4908      	ldr	r1, [pc, #32]	; (28b8 <_adc_get_regs+0x34>)
    2896:	2000      	movs	r0, #0
    2898:	4b08      	ldr	r3, [pc, #32]	; (28bc <_adc_get_regs+0x38>)
    289a:	4798      	blx	r3
    289c:	2000      	movs	r0, #0
    289e:	bd10      	pop	{r4, pc}
    28a0:	00c3      	lsls	r3, r0, #3
    28a2:	1a1b      	subs	r3, r3, r0
    28a4:	0099      	lsls	r1, r3, #2
    28a6:	4b06      	ldr	r3, [pc, #24]	; (28c0 <_adc_get_regs+0x3c>)
    28a8:	5ccb      	ldrb	r3, [r1, r3]
    28aa:	429a      	cmp	r2, r3
    28ac:	d0f7      	beq.n	289e <_adc_get_regs+0x1a>
    28ae:	3001      	adds	r0, #1
    28b0:	b2c0      	uxtb	r0, r0
    28b2:	e7ec      	b.n	288e <_adc_get_regs+0xa>
    28b4:	00002881 	.word	0x00002881
    28b8:	0000aaf0 	.word	0x0000aaf0
    28bc:	000026a1 	.word	0x000026a1
    28c0:	0000aad4 	.word	0x0000aad4

000028c4 <_adc_init>:
    28c4:	b570      	push	{r4, r5, r6, lr}
    28c6:	0004      	movs	r4, r0
    28c8:	000d      	movs	r5, r1
    28ca:	4b3a      	ldr	r3, [pc, #232]	; (29b4 <_adc_init+0xf0>)
    28cc:	18c0      	adds	r0, r0, r3
    28ce:	4243      	negs	r3, r0
    28d0:	4158      	adcs	r0, r3
    28d2:	b2c0      	uxtb	r0, r0
    28d4:	2294      	movs	r2, #148	; 0x94
    28d6:	4938      	ldr	r1, [pc, #224]	; (29b8 <_adc_init+0xf4>)
    28d8:	4b38      	ldr	r3, [pc, #224]	; (29bc <_adc_init+0xf8>)
    28da:	4798      	blx	r3
    28dc:	4b38      	ldr	r3, [pc, #224]	; (29c0 <_adc_init+0xfc>)
    28de:	681a      	ldr	r2, [r3, #0]
    28e0:	08d2      	lsrs	r2, r2, #3
    28e2:	0212      	lsls	r2, r2, #8
    28e4:	23e0      	movs	r3, #224	; 0xe0
    28e6:	00db      	lsls	r3, r3, #3
    28e8:	401a      	ands	r2, r3
    28ea:	4936      	ldr	r1, [pc, #216]	; (29c4 <_adc_init+0x100>)
    28ec:	680b      	ldr	r3, [r1, #0]
    28ee:	6849      	ldr	r1, [r1, #4]
    28f0:	0149      	lsls	r1, r1, #5
    28f2:	0edb      	lsrs	r3, r3, #27
    28f4:	430b      	orrs	r3, r1
    28f6:	21ff      	movs	r1, #255	; 0xff
    28f8:	400b      	ands	r3, r1
    28fa:	431a      	orrs	r2, r3
    28fc:	7e63      	ldrb	r3, [r4, #25]
    28fe:	09db      	lsrs	r3, r3, #7
    2900:	d1fc      	bne.n	28fc <_adc_init+0x38>
    2902:	7823      	ldrb	r3, [r4, #0]
    2904:	079b      	lsls	r3, r3, #30
    2906:	d504      	bpl.n	2912 <_adc_init+0x4e>
    2908:	2300      	movs	r3, #0
    290a:	7023      	strb	r3, [r4, #0]
    290c:	7e63      	ldrb	r3, [r4, #25]
    290e:	09db      	lsrs	r3, r3, #7
    2910:	d1fc      	bne.n	290c <_adc_init+0x48>
    2912:	2301      	movs	r3, #1
    2914:	7023      	strb	r3, [r4, #0]
    2916:	7e63      	ldrb	r3, [r4, #25]
    2918:	09db      	lsrs	r3, r3, #7
    291a:	d1fc      	bne.n	2916 <_adc_init+0x52>
    291c:	8522      	strh	r2, [r4, #40]	; 0x28
    291e:	00ea      	lsls	r2, r5, #3
    2920:	1b52      	subs	r2, r2, r5
    2922:	0091      	lsls	r1, r2, #2
    2924:	4b28      	ldr	r3, [pc, #160]	; (29c8 <_adc_init+0x104>)
    2926:	185b      	adds	r3, r3, r1
    2928:	789a      	ldrb	r2, [r3, #2]
    292a:	7062      	strb	r2, [r4, #1]
    292c:	78da      	ldrb	r2, [r3, #3]
    292e:	70a2      	strb	r2, [r4, #2]
    2930:	791a      	ldrb	r2, [r3, #4]
    2932:	70e2      	strb	r2, [r4, #3]
    2934:	7c1a      	ldrb	r2, [r3, #16]
    2936:	7522      	strb	r2, [r4, #20]
    2938:	8ada      	ldrh	r2, [r3, #22]
    293a:	84a2      	strh	r2, [r4, #36]	; 0x24
    293c:	8b1a      	ldrh	r2, [r3, #24]
    293e:	84e2      	strh	r2, [r4, #38]	; 0x26
    2940:	7e99      	ldrb	r1, [r3, #26]
    2942:	222a      	movs	r2, #42	; 0x2a
    2944:	54a1      	strb	r1, [r4, r2]
    2946:	88db      	ldrh	r3, [r3, #6]
    2948:	80a3      	strh	r3, [r4, #4]
    294a:	7e63      	ldrb	r3, [r4, #25]
    294c:	09db      	lsrs	r3, r3, #7
    294e:	d1fc      	bne.n	294a <_adc_init+0x86>
    2950:	00eb      	lsls	r3, r5, #3
    2952:	1b5b      	subs	r3, r3, r5
    2954:	009a      	lsls	r2, r3, #2
    2956:	4b1c      	ldr	r3, [pc, #112]	; (29c8 <_adc_init+0x104>)
    2958:	189b      	adds	r3, r3, r2
    295a:	68db      	ldr	r3, [r3, #12]
    295c:	6123      	str	r3, [r4, #16]
    295e:	7e63      	ldrb	r3, [r4, #25]
    2960:	09db      	lsrs	r3, r3, #7
    2962:	d1fc      	bne.n	295e <_adc_init+0x9a>
    2964:	00eb      	lsls	r3, r5, #3
    2966:	1b5b      	subs	r3, r3, r5
    2968:	009a      	lsls	r2, r3, #2
    296a:	4b17      	ldr	r3, [pc, #92]	; (29c8 <_adc_init+0x104>)
    296c:	189b      	adds	r3, r3, r2
    296e:	7a1b      	ldrb	r3, [r3, #8]
    2970:	7223      	strb	r3, [r4, #8]
    2972:	7e63      	ldrb	r3, [r4, #25]
    2974:	09db      	lsrs	r3, r3, #7
    2976:	d1fc      	bne.n	2972 <_adc_init+0xae>
    2978:	00eb      	lsls	r3, r5, #3
    297a:	1b5b      	subs	r3, r3, r5
    297c:	009a      	lsls	r2, r3, #2
    297e:	4b12      	ldr	r3, [pc, #72]	; (29c8 <_adc_init+0x104>)
    2980:	189b      	adds	r3, r3, r2
    2982:	8a5b      	ldrh	r3, [r3, #18]
    2984:	83a3      	strh	r3, [r4, #28]
    2986:	7e63      	ldrb	r3, [r4, #25]
    2988:	09db      	lsrs	r3, r3, #7
    298a:	d1fc      	bne.n	2986 <_adc_init+0xc2>
    298c:	00eb      	lsls	r3, r5, #3
    298e:	1b5b      	subs	r3, r3, r5
    2990:	009a      	lsls	r2, r3, #2
    2992:	4b0d      	ldr	r3, [pc, #52]	; (29c8 <_adc_init+0x104>)
    2994:	189b      	adds	r3, r3, r2
    2996:	8a9b      	ldrh	r3, [r3, #20]
    2998:	8423      	strh	r3, [r4, #32]
    299a:	7e63      	ldrb	r3, [r4, #25]
    299c:	09db      	lsrs	r3, r3, #7
    299e:	d1fc      	bne.n	299a <_adc_init+0xd6>
    29a0:	00eb      	lsls	r3, r5, #3
    29a2:	1b5d      	subs	r5, r3, r5
    29a4:	00aa      	lsls	r2, r5, #2
    29a6:	4b08      	ldr	r3, [pc, #32]	; (29c8 <_adc_init+0x104>)
    29a8:	189b      	adds	r3, r3, r2
    29aa:	785b      	ldrb	r3, [r3, #1]
    29ac:	7023      	strb	r3, [r4, #0]
    29ae:	2000      	movs	r0, #0
    29b0:	bd70      	pop	{r4, r5, r6, pc}
    29b2:	46c0      	nop			; (mov r8, r8)
    29b4:	bdffc000 	.word	0xbdffc000
    29b8:	0000aaf0 	.word	0x0000aaf0
    29bc:	000026a1 	.word	0x000026a1
    29c0:	00806024 	.word	0x00806024
    29c4:	00806020 	.word	0x00806020
    29c8:	0000aad4 	.word	0x0000aad4

000029cc <_adc_async_init>:
    29cc:	b570      	push	{r4, r5, r6, lr}
    29ce:	0005      	movs	r5, r0
    29d0:	000c      	movs	r4, r1
    29d2:	1e43      	subs	r3, r0, #1
    29d4:	4198      	sbcs	r0, r3
    29d6:	b2c0      	uxtb	r0, r0
    29d8:	22d3      	movs	r2, #211	; 0xd3
    29da:	490e      	ldr	r1, [pc, #56]	; (2a14 <_adc_async_init+0x48>)
    29dc:	4b0e      	ldr	r3, [pc, #56]	; (2a18 <_adc_async_init+0x4c>)
    29de:	4798      	blx	r3
    29e0:	0020      	movs	r0, r4
    29e2:	4b0e      	ldr	r3, [pc, #56]	; (2a1c <_adc_async_init+0x50>)
    29e4:	4798      	blx	r3
    29e6:	0001      	movs	r1, r0
    29e8:	0020      	movs	r0, r4
    29ea:	4b0d      	ldr	r3, [pc, #52]	; (2a20 <_adc_async_init+0x54>)
    29ec:	4798      	blx	r3
    29ee:	2800      	cmp	r0, #0
    29f0:	d10f      	bne.n	2a12 <_adc_async_init+0x46>
    29f2:	616c      	str	r4, [r5, #20]
    29f4:	4b0b      	ldr	r3, [pc, #44]	; (2a24 <_adc_async_init+0x58>)
    29f6:	601d      	str	r5, [r3, #0]
 */
__STATIC_INLINE void __NVIC_DisableIRQ(IRQn_Type IRQn)
{
  if ((int32_t)(IRQn) >= 0)
  {
    NVIC->ICER[0U] = (uint32_t)(1UL << (((uint32_t)IRQn) & 0x1FUL));
    29f8:	4b0b      	ldr	r3, [pc, #44]	; (2a28 <_adc_async_init+0x5c>)
    29fa:	2280      	movs	r2, #128	; 0x80
    29fc:	0412      	lsls	r2, r2, #16
    29fe:	2180      	movs	r1, #128	; 0x80
    2a00:	505a      	str	r2, [r3, r1]
  __ASM volatile ("dsb 0xF":::"memory");
    2a02:	f3bf 8f4f 	dsb	sy
  __ASM volatile ("isb 0xF":::"memory");
    2a06:	f3bf 8f6f 	isb	sy
 */
__STATIC_INLINE void __NVIC_ClearPendingIRQ(IRQn_Type IRQn)
{
  if ((int32_t)(IRQn) >= 0)
  {
    NVIC->ICPR[0U] = (uint32_t)(1UL << (((uint32_t)IRQn) & 0x1FUL));
    2a0a:	3101      	adds	r1, #1
    2a0c:	31ff      	adds	r1, #255	; 0xff
    2a0e:	505a      	str	r2, [r3, r1]
    NVIC->ISER[0U] = (uint32_t)(1UL << (((uint32_t)IRQn) & 0x1FUL));
    2a10:	601a      	str	r2, [r3, #0]
    2a12:	bd70      	pop	{r4, r5, r6, pc}
    2a14:	0000aaf0 	.word	0x0000aaf0
    2a18:	000026a1 	.word	0x000026a1
    2a1c:	00002885 	.word	0x00002885
    2a20:	000028c5 	.word	0x000028c5
    2a24:	200003b0 	.word	0x200003b0
    2a28:	e000e100 	.word	0xe000e100

00002a2c <_adc_async_enable_channel>:
    2a2c:	6942      	ldr	r2, [r0, #20]
    2a2e:	7813      	ldrb	r3, [r2, #0]
    2a30:	2102      	movs	r1, #2
    2a32:	430b      	orrs	r3, r1
    2a34:	b2db      	uxtb	r3, r3
    2a36:	7013      	strb	r3, [r2, #0]
    2a38:	4770      	bx	lr

00002a3a <_adc_async_get_data_size>:
    2a3a:	6942      	ldr	r2, [r0, #20]
    2a3c:	7e53      	ldrb	r3, [r2, #25]
    2a3e:	09db      	lsrs	r3, r3, #7
    2a40:	d1fc      	bne.n	2a3c <_adc_async_get_data_size+0x2>
    2a42:	8892      	ldrh	r2, [r2, #4]
    2a44:	0912      	lsrs	r2, r2, #4
    2a46:	3303      	adds	r3, #3
    2a48:	4013      	ands	r3, r2
    2a4a:	2b03      	cmp	r3, #3
    2a4c:	d001      	beq.n	2a52 <_adc_async_get_data_size+0x18>
    2a4e:	2002      	movs	r0, #2
    2a50:	4770      	bx	lr
    2a52:	2001      	movs	r0, #1
    2a54:	e7fc      	b.n	2a50 <_adc_async_get_data_size+0x16>

00002a56 <_adc_async_convert>:
    2a56:	6942      	ldr	r2, [r0, #20]
    2a58:	7b13      	ldrb	r3, [r2, #12]
    2a5a:	2102      	movs	r1, #2
    2a5c:	430b      	orrs	r3, r1
    2a5e:	b2db      	uxtb	r3, r3
    2a60:	7313      	strb	r3, [r2, #12]
    2a62:	7e53      	ldrb	r3, [r2, #25]
    2a64:	09db      	lsrs	r3, r3, #7
    2a66:	d1fc      	bne.n	2a62 <_adc_async_convert+0xc>
    2a68:	4770      	bx	lr

00002a6a <_adc_async_set_irq_state>:
    2a6a:	6941      	ldr	r1, [r0, #20]
    2a6c:	2a01      	cmp	r2, #1
    2a6e:	d008      	beq.n	2a82 <_adc_async_set_irq_state+0x18>
    2a70:	2a02      	cmp	r2, #2
    2a72:	d00e      	beq.n	2a92 <_adc_async_set_irq_state+0x28>
    2a74:	2a00      	cmp	r2, #0
    2a76:	d103      	bne.n	2a80 <_adc_async_set_irq_state+0x16>
    2a78:	2b00      	cmp	r3, #0
    2a7a:	d012      	beq.n	2aa2 <_adc_async_set_irq_state+0x38>
    2a7c:	2301      	movs	r3, #1
    2a7e:	75cb      	strb	r3, [r1, #23]
    2a80:	4770      	bx	lr
    2a82:	2b00      	cmp	r3, #0
    2a84:	d102      	bne.n	2a8c <_adc_async_set_irq_state+0x22>
    2a86:	3304      	adds	r3, #4
    2a88:	758b      	strb	r3, [r1, #22]
    2a8a:	e7f9      	b.n	2a80 <_adc_async_set_irq_state+0x16>
    2a8c:	2304      	movs	r3, #4
    2a8e:	75cb      	strb	r3, [r1, #23]
    2a90:	e7f6      	b.n	2a80 <_adc_async_set_irq_state+0x16>
    2a92:	2b00      	cmp	r3, #0
    2a94:	d102      	bne.n	2a9c <_adc_async_set_irq_state+0x32>
    2a96:	3302      	adds	r3, #2
    2a98:	758b      	strb	r3, [r1, #22]
    2a9a:	e7f1      	b.n	2a80 <_adc_async_set_irq_state+0x16>
    2a9c:	2302      	movs	r3, #2
    2a9e:	75cb      	strb	r3, [r1, #23]
    2aa0:	e7ee      	b.n	2a80 <_adc_async_set_irq_state+0x16>
    2aa2:	3301      	adds	r3, #1
    2aa4:	758b      	strb	r3, [r1, #22]
    2aa6:	e7eb      	b.n	2a80 <_adc_async_set_irq_state+0x16>

00002aa8 <ADC_Handler>:
    2aa8:	b510      	push	{r4, lr}
    2aaa:	4b11      	ldr	r3, [pc, #68]	; (2af0 <ADC_Handler+0x48>)
    2aac:	6818      	ldr	r0, [r3, #0]
    2aae:	6942      	ldr	r2, [r0, #20]
    2ab0:	7e11      	ldrb	r1, [r2, #24]
    2ab2:	7dd3      	ldrb	r3, [r2, #23]
    2ab4:	400b      	ands	r3, r1
    2ab6:	07d9      	lsls	r1, r3, #31
    2ab8:	d50a      	bpl.n	2ad0 <ADC_Handler+0x28>
    2aba:	2301      	movs	r3, #1
    2abc:	7613      	strb	r3, [r2, #24]
    2abe:	6884      	ldr	r4, [r0, #8]
    2ac0:	7e53      	ldrb	r3, [r2, #25]
    2ac2:	09db      	lsrs	r3, r3, #7
    2ac4:	d1fc      	bne.n	2ac0 <ADC_Handler+0x18>
    2ac6:	8b52      	ldrh	r2, [r2, #26]
    2ac8:	b292      	uxth	r2, r2
    2aca:	2100      	movs	r1, #0
    2acc:	47a0      	blx	r4
    2ace:	bd10      	pop	{r4, pc}
    2ad0:	0799      	lsls	r1, r3, #30
    2ad2:	d407      	bmi.n	2ae4 <ADC_Handler+0x3c>
    2ad4:	075b      	lsls	r3, r3, #29
    2ad6:	d5fa      	bpl.n	2ace <ADC_Handler+0x26>
    2ad8:	2304      	movs	r3, #4
    2ada:	7613      	strb	r3, [r2, #24]
    2adc:	6803      	ldr	r3, [r0, #0]
    2ade:	2100      	movs	r1, #0
    2ae0:	4798      	blx	r3
    2ae2:	e7f4      	b.n	2ace <ADC_Handler+0x26>
    2ae4:	2302      	movs	r3, #2
    2ae6:	7613      	strb	r3, [r2, #24]
    2ae8:	6843      	ldr	r3, [r0, #4]
    2aea:	2100      	movs	r1, #0
    2aec:	4798      	blx	r3
    2aee:	e7ee      	b.n	2ace <ADC_Handler+0x26>
    2af0:	200003b0 	.word	0x200003b0

00002af4 <_get_cycles_for_ms>:
    2af4:	b510      	push	{r4, lr}
    2af6:	0003      	movs	r3, r0
    2af8:	20c8      	movs	r0, #200	; 0xc8
    2afa:	0080      	lsls	r0, r0, #2
    2afc:	4358      	muls	r0, r3
    2afe:	3002      	adds	r0, #2
    2b00:	2103      	movs	r1, #3
    2b02:	4b03      	ldr	r3, [pc, #12]	; (2b10 <_get_cycles_for_ms+0x1c>)
    2b04:	4798      	blx	r3
    2b06:	0083      	lsls	r3, r0, #2
    2b08:	181b      	adds	r3, r3, r0
    2b0a:	0058      	lsls	r0, r3, #1
    2b0c:	bd10      	pop	{r4, pc}
    2b0e:	46c0      	nop			; (mov r8, r8)
    2b10:	0000913d 	.word	0x0000913d

00002b14 <_delay_cycles>:
    2b14:	3901      	subs	r1, #1
    2b16:	d8fd      	bhi.n	2b14 <_delay_cycles>
    2b18:	4770      	bx	lr
	...

00002b1c <_init_chip>:
    2b1c:	b510      	push	{r4, lr}
    2b1e:	4b06      	ldr	r3, [pc, #24]	; (2b38 <_init_chip+0x1c>)
    2b20:	685a      	ldr	r2, [r3, #4]
    2b22:	605a      	str	r2, [r3, #4]
    2b24:	4b05      	ldr	r3, [pc, #20]	; (2b3c <_init_chip+0x20>)
    2b26:	4798      	blx	r3
    2b28:	4b05      	ldr	r3, [pc, #20]	; (2b40 <_init_chip+0x24>)
    2b2a:	4798      	blx	r3
    2b2c:	4b05      	ldr	r3, [pc, #20]	; (2b44 <_init_chip+0x28>)
    2b2e:	4798      	blx	r3
    2b30:	20ff      	movs	r0, #255	; 0xff
    2b32:	4b05      	ldr	r3, [pc, #20]	; (2b48 <_init_chip+0x2c>)
    2b34:	4798      	blx	r3
    2b36:	bd10      	pop	{r4, pc}
    2b38:	41004000 	.word	0x41004000
    2b3c:	000031f9 	.word	0x000031f9
    2b40:	00003fe9 	.word	0x00003fe9
    2b44:	0000402d 	.word	0x0000402d
    2b48:	00002e05 	.word	0x00002e05

00002b4c <_dac_init>:
typedef uint8_t  hri_dac_intflag_reg_t;
typedef uint8_t  hri_dac_status_reg_t;

static inline void hri_dac_wait_for_sync(const void *const hw)
{
	while (((const Dac *)hw)->STATUS.bit.SYNCBUSY)
    2b4c:	79c3      	ldrb	r3, [r0, #7]
    2b4e:	09db      	lsrs	r3, r3, #7
    2b50:	d1fc      	bne.n	2b4c <_dac_init>
    2b52:	79c3      	ldrb	r3, [r0, #7]
    2b54:	09db      	lsrs	r3, r3, #7
    2b56:	d1fc      	bne.n	2b52 <_dac_init+0x6>

static inline hri_dac_ctrla_reg_t hri_dac_get_CTRLA_reg(const void *const hw, hri_dac_ctrla_reg_t mask)
{
	uint8_t tmp;
	hri_dac_wait_for_sync(hw);
	tmp = ((Dac *)hw)->CTRLA.reg;
    2b58:	7803      	ldrb	r3, [r0, #0]
 * param[in] hw The pointer to DAC hardware instance
 */
static int32_t _dac_init(void *const hw)
{
	hri_dac_wait_for_sync(hw);
	if (hri_dac_get_CTRLA_reg(hw, DAC_CTRLA_ENABLE)) {
    2b5a:	079b      	lsls	r3, r3, #30
    2b5c:	d507      	bpl.n	2b6e <_dac_init+0x22>
}

static inline void hri_dac_write_CTRLA_reg(const void *const hw, hri_dac_ctrla_reg_t data)
{
	DAC_CRITICAL_SECTION_ENTER();
	((Dac *)hw)->CTRLA.reg = data;
    2b5e:	2300      	movs	r3, #0
    2b60:	7003      	strb	r3, [r0, #0]
	while (((const Dac *)hw)->STATUS.bit.SYNCBUSY)
    2b62:	79c3      	ldrb	r3, [r0, #7]
    2b64:	09db      	lsrs	r3, r3, #7
    2b66:	d1fc      	bne.n	2b62 <_dac_init+0x16>
    2b68:	79c3      	ldrb	r3, [r0, #7]
    2b6a:	09db      	lsrs	r3, r3, #7
    2b6c:	d1fc      	bne.n	2b68 <_dac_init+0x1c>
	((Dac *)hw)->CTRLA.reg = data;
    2b6e:	2301      	movs	r3, #1
    2b70:	7003      	strb	r3, [r0, #0]
	while (((const Dac *)hw)->STATUS.bit.SYNCBUSY)
    2b72:	79c3      	ldrb	r3, [r0, #7]
    2b74:	09db      	lsrs	r3, r3, #7
    2b76:	d1fc      	bne.n	2b72 <_dac_init+0x26>
    2b78:	79c3      	ldrb	r3, [r0, #7]
    2b7a:	09db      	lsrs	r3, r3, #7
    2b7c:	d1fc      	bne.n	2b78 <_dac_init+0x2c>
}

static inline void hri_dac_write_EVCTRL_reg(const void *const hw, hri_dac_evctrl_reg_t data)
{
	DAC_CRITICAL_SECTION_ENTER();
	((Dac *)hw)->EVCTRL.reg = data;
    2b7e:	7083      	strb	r3, [r0, #2]
	((Dac *)hw)->CTRLB.reg = data;
    2b80:	2241      	movs	r2, #65	; 0x41
    2b82:	7042      	strb	r2, [r0, #1]
	((Dac *)hw)->CTRLA.reg = data;
    2b84:	7003      	strb	r3, [r0, #0]
	while (((const Dac *)hw)->STATUS.bit.SYNCBUSY)
    2b86:	79c3      	ldrb	r3, [r0, #7]
    2b88:	09db      	lsrs	r3, r3, #7
    2b8a:	d1fc      	bne.n	2b86 <_dac_init+0x3a>

	hri_dac_write_EVCTRL_reg(hw, _dac.ev_ctrl);
	hri_dac_write_CTRLB_reg(hw, _dac.ctrlb);
	hri_dac_write_CTRLA_reg(hw, _dac.ctrla);
	return ERR_NONE;
}
    2b8c:	2000      	movs	r0, #0
    2b8e:	4770      	bx	lr

00002b90 <DAC_Handler>:
{
    2b90:	b510      	push	{r4, lr}
	void *const hw = _dac_dev->hw;
    2b92:	4b0f      	ldr	r3, [pc, #60]	; (2bd0 <DAC_Handler+0x40>)
    2b94:	6818      	ldr	r0, [r3, #0]
    2b96:	6903      	ldr	r3, [r0, #16]
	return (((Dac *)hw)->INTFLAG.reg & DAC_INTFLAG_UNDERRUN) >> DAC_INTFLAG_UNDERRUN_Pos;
    2b98:	799a      	ldrb	r2, [r3, #6]
	if (hri_dac_get_interrupt_UNDERRUN_bit(hw)) {
    2b9a:	07d2      	lsls	r2, r2, #31
    2b9c:	d507      	bpl.n	2bae <DAC_Handler+0x1e>
	((Dac *)hw)->INTFLAG.reg = DAC_INTFLAG_UNDERRUN;
    2b9e:	2201      	movs	r2, #1
    2ba0:	719a      	strb	r2, [r3, #6]
		if (NULL != _dac_dev->dac_cb.tx_error_cb) {
    2ba2:	6843      	ldr	r3, [r0, #4]
    2ba4:	2b00      	cmp	r3, #0
    2ba6:	d001      	beq.n	2bac <DAC_Handler+0x1c>
			_dac_dev->dac_cb.tx_error_cb(_dac_dev, 0);
    2ba8:	2100      	movs	r1, #0
    2baa:	4798      	blx	r3
}
    2bac:	bd10      	pop	{r4, pc}
	return (((Dac *)hw)->INTFLAG.reg & DAC_INTFLAG_EMPTY) >> DAC_INTFLAG_EMPTY_Pos;
    2bae:	799a      	ldrb	r2, [r3, #6]
	} else if (hri_dac_get_interrupt_EMPTY_bit(hw)) {
    2bb0:	0792      	lsls	r2, r2, #30
    2bb2:	d507      	bpl.n	2bc4 <DAC_Handler+0x34>
	((Dac *)hw)->INTFLAG.reg = DAC_INTFLAG_EMPTY;
    2bb4:	2202      	movs	r2, #2
    2bb6:	719a      	strb	r2, [r3, #6]
		if (NULL != _dac_dev->dac_cb.tx_ready_cb) {
    2bb8:	6803      	ldr	r3, [r0, #0]
    2bba:	2b00      	cmp	r3, #0
    2bbc:	d0f6      	beq.n	2bac <DAC_Handler+0x1c>
			_dac_dev->dac_cb.tx_ready_cb(_dac_dev, 0);
    2bbe:	2100      	movs	r1, #0
    2bc0:	4798      	blx	r3
    2bc2:	e7f3      	b.n	2bac <DAC_Handler+0x1c>
	return (((Dac *)hw)->INTFLAG.reg & DAC_INTFLAG_SYNCRDY) >> DAC_INTFLAG_SYNCRDY_Pos;
    2bc4:	799a      	ldrb	r2, [r3, #6]
	} else if (hri_dac_get_interrupt_SYNCRDY_bit(hw)) {
    2bc6:	0752      	lsls	r2, r2, #29
    2bc8:	d5f0      	bpl.n	2bac <DAC_Handler+0x1c>
	((Dac *)hw)->INTFLAG.reg = DAC_INTFLAG_SYNCRDY;
    2bca:	2204      	movs	r2, #4
    2bcc:	719a      	strb	r2, [r3, #6]
}
    2bce:	e7ed      	b.n	2bac <DAC_Handler+0x1c>
    2bd0:	200003b4 	.word	0x200003b4

00002bd4 <_dac_async_init>:

/**
 * \brief Initialize DAC
 */
int32_t _dac_async_init(struct _dac_async_device *const device, void *const hw)
{
    2bd4:	b570      	push	{r4, r5, r6, lr}
    2bd6:	0004      	movs	r4, r0
    2bd8:	000d      	movs	r5, r1
	int32_t init_status;

	ASSERT(device);
    2bda:	1e43      	subs	r3, r0, #1
    2bdc:	4198      	sbcs	r0, r3
    2bde:	b2c0      	uxtb	r0, r0
    2be0:	228e      	movs	r2, #142	; 0x8e
    2be2:	490c      	ldr	r1, [pc, #48]	; (2c14 <_dac_async_init+0x40>)
    2be4:	4b0c      	ldr	r3, [pc, #48]	; (2c18 <_dac_async_init+0x44>)
    2be6:	4798      	blx	r3

	init_status = _dac_init(hw);
    2be8:	0028      	movs	r0, r5
    2bea:	4b0c      	ldr	r3, [pc, #48]	; (2c1c <_dac_async_init+0x48>)
    2bec:	4798      	blx	r3
	if (init_status) {
    2bee:	2800      	cmp	r0, #0
    2bf0:	d10f      	bne.n	2c12 <_dac_async_init+0x3e>
		return init_status;
	}
	device->hw = hw;
    2bf2:	6125      	str	r5, [r4, #16]

	_dac_dev = device;
    2bf4:	4b0a      	ldr	r3, [pc, #40]	; (2c20 <_dac_async_init+0x4c>)
    2bf6:	601c      	str	r4, [r3, #0]
    NVIC->ICER[0U] = (uint32_t)(1UL << (((uint32_t)IRQn) & 0x1FUL));
    2bf8:	4b0a      	ldr	r3, [pc, #40]	; (2c24 <_dac_async_init+0x50>)
    2bfa:	2280      	movs	r2, #128	; 0x80
    2bfc:	0492      	lsls	r2, r2, #18
    2bfe:	2180      	movs	r1, #128	; 0x80
    2c00:	505a      	str	r2, [r3, r1]
  __ASM volatile ("dsb 0xF":::"memory");
    2c02:	f3bf 8f4f 	dsb	sy
  __ASM volatile ("isb 0xF":::"memory");
    2c06:	f3bf 8f6f 	isb	sy
    NVIC->ICPR[0U] = (uint32_t)(1UL << (((uint32_t)IRQn) & 0x1FUL));
    2c0a:	3101      	adds	r1, #1
    2c0c:	31ff      	adds	r1, #255	; 0xff
    2c0e:	505a      	str	r2, [r3, r1]
    NVIC->ISER[0U] = (uint32_t)(1UL << (((uint32_t)IRQn) & 0x1FUL));
    2c10:	601a      	str	r2, [r3, #0]
	NVIC_DisableIRQ(DAC_IRQn);
	NVIC_ClearPendingIRQ(DAC_IRQn);
	NVIC_EnableIRQ(DAC_IRQn);

	return ERR_NONE;
}
    2c12:	bd70      	pop	{r4, r5, r6, pc}
    2c14:	0000ab08 	.word	0x0000ab08
    2c18:	000026a1 	.word	0x000026a1
    2c1c:	00002b4d 	.word	0x00002b4d
    2c20:	200003b4 	.word	0x200003b4
    2c24:	e000e100 	.word	0xe000e100

00002c28 <_dac_async_enable_channel>:
 * \brief Enable DAC Channel
 */
void _dac_async_enable_channel(struct _dac_async_device *const device, const uint8_t ch)
{
	(void)ch;
	hri_dac_set_CTRLA_ENABLE_bit(device->hw);
    2c28:	6902      	ldr	r2, [r0, #16]
	((Dac *)hw)->CTRLA.reg |= DAC_CTRLA_ENABLE;
    2c2a:	7813      	ldrb	r3, [r2, #0]
    2c2c:	2102      	movs	r1, #2
    2c2e:	430b      	orrs	r3, r1
    2c30:	b2db      	uxtb	r3, r3
    2c32:	7013      	strb	r3, [r2, #0]
	while (((const Dac *)hw)->STATUS.bit.SYNCBUSY)
    2c34:	79d3      	ldrb	r3, [r2, #7]
    2c36:	09db      	lsrs	r3, r3, #7
    2c38:	d1fc      	bne.n	2c34 <_dac_async_enable_channel+0xc>
}
    2c3a:	4770      	bx	lr

00002c3c <_dac_async_is_channel_enable>:
}

bool _dac_async_is_channel_enable(struct _dac_async_device *const device, const uint8_t ch)
{
	(void)ch;
	return hri_dac_get_CTRLA_ENABLE_bit(device->hw);
    2c3c:	6902      	ldr	r2, [r0, #16]
    2c3e:	79d3      	ldrb	r3, [r2, #7]
    2c40:	09db      	lsrs	r3, r3, #7
    2c42:	d1fc      	bne.n	2c3e <_dac_async_is_channel_enable+0x2>
	tmp = ((Dac *)hw)->CTRLA.reg;
    2c44:	7813      	ldrb	r3, [r2, #0]
	tmp = (tmp & DAC_CTRLA_ENABLE) >> DAC_CTRLA_ENABLE_Pos;
    2c46:	085b      	lsrs	r3, r3, #1
	return (bool)tmp;
    2c48:	2001      	movs	r0, #1
    2c4a:	4018      	ands	r0, r3
}
    2c4c:	4770      	bx	lr

00002c4e <_dac_async_write_data>:
 * \brief write DAC data for output
 */
void _dac_async_write_data(struct _dac_async_device *const device, const uint16_t data, const uint8_t ch)
{
	(void)ch;
	hri_dac_write_DATABUF_reg(device->hw, data);
    2c4e:	6902      	ldr	r2, [r0, #16]
}

static inline void hri_dac_write_DATABUF_reg(const void *const hw, hri_dac_databuf_reg_t data)
{
	DAC_CRITICAL_SECTION_ENTER();
	((Dac *)hw)->DATABUF.reg = data;
    2c50:	8191      	strh	r1, [r2, #12]
	while (((const Dac *)hw)->STATUS.bit.SYNCBUSY)
    2c52:	79d3      	ldrb	r3, [r2, #7]
    2c54:	09db      	lsrs	r3, r3, #7
    2c56:	d1fc      	bne.n	2c52 <_dac_async_write_data+0x4>
}
    2c58:	4770      	bx	lr
	...

00002c5c <_ext_irq_init>:
    2c5c:	4b21      	ldr	r3, [pc, #132]	; (2ce4 <_ext_irq_init+0x88>)
    2c5e:	785b      	ldrb	r3, [r3, #1]
    2c60:	09db      	lsrs	r3, r3, #7
    2c62:	d1fb      	bne.n	2c5c <_ext_irq_init>
    2c64:	4b1f      	ldr	r3, [pc, #124]	; (2ce4 <_ext_irq_init+0x88>)
    2c66:	785b      	ldrb	r3, [r3, #1]
    2c68:	09db      	lsrs	r3, r3, #7
    2c6a:	d1fb      	bne.n	2c64 <_ext_irq_init+0x8>
    2c6c:	4b1d      	ldr	r3, [pc, #116]	; (2ce4 <_ext_irq_init+0x88>)
    2c6e:	781b      	ldrb	r3, [r3, #0]
    2c70:	079b      	lsls	r3, r3, #30
    2c72:	d50a      	bpl.n	2c8a <_ext_irq_init+0x2e>
    2c74:	2200      	movs	r2, #0
    2c76:	4b1b      	ldr	r3, [pc, #108]	; (2ce4 <_ext_irq_init+0x88>)
    2c78:	701a      	strb	r2, [r3, #0]
    2c7a:	4b1a      	ldr	r3, [pc, #104]	; (2ce4 <_ext_irq_init+0x88>)
    2c7c:	785b      	ldrb	r3, [r3, #1]
    2c7e:	09db      	lsrs	r3, r3, #7
    2c80:	d1fb      	bne.n	2c7a <_ext_irq_init+0x1e>
    2c82:	4b18      	ldr	r3, [pc, #96]	; (2ce4 <_ext_irq_init+0x88>)
    2c84:	785b      	ldrb	r3, [r3, #1]
    2c86:	09db      	lsrs	r3, r3, #7
    2c88:	d1fb      	bne.n	2c82 <_ext_irq_init+0x26>
    2c8a:	2201      	movs	r2, #1
    2c8c:	4b15      	ldr	r3, [pc, #84]	; (2ce4 <_ext_irq_init+0x88>)
    2c8e:	701a      	strb	r2, [r3, #0]
    2c90:	4b14      	ldr	r3, [pc, #80]	; (2ce4 <_ext_irq_init+0x88>)
    2c92:	785b      	ldrb	r3, [r3, #1]
    2c94:	09db      	lsrs	r3, r3, #7
    2c96:	d1fb      	bne.n	2c90 <_ext_irq_init+0x34>
    2c98:	4b12      	ldr	r3, [pc, #72]	; (2ce4 <_ext_irq_init+0x88>)
    2c9a:	785b      	ldrb	r3, [r3, #1]
    2c9c:	09db      	lsrs	r3, r3, #7
    2c9e:	d1fb      	bne.n	2c98 <_ext_irq_init+0x3c>
    2ca0:	4b10      	ldr	r3, [pc, #64]	; (2ce4 <_ext_irq_init+0x88>)
    2ca2:	2200      	movs	r2, #0
    2ca4:	709a      	strb	r2, [r3, #2]
    2ca6:	605a      	str	r2, [r3, #4]
    2ca8:	615a      	str	r2, [r3, #20]
    2caa:	4a0f      	ldr	r2, [pc, #60]	; (2ce8 <_ext_irq_init+0x8c>)
    2cac:	619a      	str	r2, [r3, #24]
    2cae:	61da      	str	r2, [r3, #28]
    2cb0:	781a      	ldrb	r2, [r3, #0]
    2cb2:	2102      	movs	r1, #2
    2cb4:	430a      	orrs	r2, r1
    2cb6:	b2d2      	uxtb	r2, r2
    2cb8:	701a      	strb	r2, [r3, #0]
    2cba:	4b0a      	ldr	r3, [pc, #40]	; (2ce4 <_ext_irq_init+0x88>)
    2cbc:	785b      	ldrb	r3, [r3, #1]
    2cbe:	09db      	lsrs	r3, r3, #7
    2cc0:	d1fb      	bne.n	2cba <_ext_irq_init+0x5e>
    NVIC->ICER[0U] = (uint32_t)(1UL << (((uint32_t)IRQn) & 0x1FUL));
    2cc2:	4b0a      	ldr	r3, [pc, #40]	; (2cec <_ext_irq_init+0x90>)
    2cc4:	2210      	movs	r2, #16
    2cc6:	2180      	movs	r1, #128	; 0x80
    2cc8:	505a      	str	r2, [r3, r1]
  __ASM volatile ("dsb 0xF":::"memory");
    2cca:	f3bf 8f4f 	dsb	sy
  __ASM volatile ("isb 0xF":::"memory");
    2cce:	f3bf 8f6f 	isb	sy
    NVIC->ICPR[0U] = (uint32_t)(1UL << (((uint32_t)IRQn) & 0x1FUL));
    2cd2:	3101      	adds	r1, #1
    2cd4:	31ff      	adds	r1, #255	; 0xff
    2cd6:	505a      	str	r2, [r3, r1]
    NVIC->ISER[0U] = (uint32_t)(1UL << (((uint32_t)IRQn) & 0x1FUL));
    2cd8:	601a      	str	r2, [r3, #0]
    2cda:	4b05      	ldr	r3, [pc, #20]	; (2cf0 <_ext_irq_init+0x94>)
    2cdc:	6018      	str	r0, [r3, #0]
    2cde:	2000      	movs	r0, #0
    2ce0:	4770      	bx	lr
    2ce2:	46c0      	nop			; (mov r8, r8)
    2ce4:	40001800 	.word	0x40001800
    2ce8:	22222222 	.word	0x22222222
    2cec:	e000e100 	.word	0xe000e100
    2cf0:	200003b8 	.word	0x200003b8

00002cf4 <_ext_irq_enable>:
    2cf4:	b530      	push	{r4, r5, lr}
    2cf6:	2300      	movs	r3, #0
    2cf8:	2b0f      	cmp	r3, #15
    2cfa:	d80b      	bhi.n	2d14 <_ext_irq_enable+0x20>
    2cfc:	00dc      	lsls	r4, r3, #3
    2cfe:	4a10      	ldr	r2, [pc, #64]	; (2d40 <_ext_irq_enable+0x4c>)
    2d00:	1912      	adds	r2, r2, r4
    2d02:	6852      	ldr	r2, [r2, #4]
    2d04:	4282      	cmp	r2, r0
    2d06:	d002      	beq.n	2d0e <_ext_irq_enable+0x1a>
    2d08:	3301      	adds	r3, #1
    2d0a:	b2db      	uxtb	r3, r3
    2d0c:	e7f4      	b.n	2cf8 <_ext_irq_enable+0x4>
    2d0e:	4b0c      	ldr	r3, [pc, #48]	; (2d40 <_ext_irq_enable+0x4c>)
    2d10:	5ce2      	ldrb	r2, [r4, r3]
    2d12:	e000      	b.n	2d16 <_ext_irq_enable+0x22>
    2d14:	22ff      	movs	r2, #255	; 0xff
    2d16:	2aff      	cmp	r2, #255	; 0xff
    2d18:	d00e      	beq.n	2d38 <_ext_irq_enable+0x44>
    2d1a:	2900      	cmp	r1, #0
    2d1c:	d106      	bne.n	2d2c <_ext_irq_enable+0x38>
    2d1e:	2301      	movs	r3, #1
    2d20:	4093      	lsls	r3, r2
    2d22:	4a08      	ldr	r2, [pc, #32]	; (2d44 <_ext_irq_enable+0x50>)
    2d24:	6093      	str	r3, [r2, #8]
    2d26:	6113      	str	r3, [r2, #16]
    2d28:	2000      	movs	r0, #0
    2d2a:	bd30      	pop	{r4, r5, pc}
    2d2c:	2301      	movs	r3, #1
    2d2e:	4093      	lsls	r3, r2
    2d30:	4a04      	ldr	r2, [pc, #16]	; (2d44 <_ext_irq_enable+0x50>)
    2d32:	60d3      	str	r3, [r2, #12]
    2d34:	2000      	movs	r0, #0
    2d36:	e7f8      	b.n	2d2a <_ext_irq_enable+0x36>
    2d38:	200d      	movs	r0, #13
    2d3a:	4240      	negs	r0, r0
    2d3c:	e7f5      	b.n	2d2a <_ext_irq_enable+0x36>
    2d3e:	46c0      	nop			; (mov r8, r8)
    2d40:	0000ab20 	.word	0x0000ab20
    2d44:	40001800 	.word	0x40001800

00002d48 <EIC_Handler>:
    2d48:	b5f0      	push	{r4, r5, r6, r7, lr}
    2d4a:	b083      	sub	sp, #12
    2d4c:	4b27      	ldr	r3, [pc, #156]	; (2dec <EIC_Handler+0xa4>)
    2d4e:	691a      	ldr	r2, [r3, #16]
    2d50:	68d9      	ldr	r1, [r3, #12]
    2d52:	400a      	ands	r2, r1
    2d54:	9201      	str	r2, [sp, #4]
    2d56:	9a01      	ldr	r2, [sp, #4]
    2d58:	611a      	str	r2, [r3, #16]
    2d5a:	4b25      	ldr	r3, [pc, #148]	; (2df0 <EIC_Handler+0xa8>)
    2d5c:	6818      	ldr	r0, [r3, #0]
    2d5e:	1e43      	subs	r3, r0, #1
    2d60:	4198      	sbcs	r0, r3
    2d62:	b2c0      	uxtb	r0, r0
    2d64:	22d2      	movs	r2, #210	; 0xd2
    2d66:	4923      	ldr	r1, [pc, #140]	; (2df4 <EIC_Handler+0xac>)
    2d68:	4b23      	ldr	r3, [pc, #140]	; (2df8 <EIC_Handler+0xb0>)
    2d6a:	4798      	blx	r3
    2d6c:	2501      	movs	r5, #1
    2d6e:	426d      	negs	r5, r5
    2d70:	e031      	b.n	2dd6 <EIC_Handler+0x8e>
    2d72:	00db      	lsls	r3, r3, #3
    2d74:	4a21      	ldr	r2, [pc, #132]	; (2dfc <EIC_Handler+0xb4>)
    2d76:	18d3      	adds	r3, r2, r3
    2d78:	685d      	ldr	r5, [r3, #4]
    2d7a:	1c6b      	adds	r3, r5, #1
    2d7c:	d003      	beq.n	2d86 <EIC_Handler+0x3e>
    2d7e:	4b1c      	ldr	r3, [pc, #112]	; (2df0 <EIC_Handler+0xa8>)
    2d80:	681b      	ldr	r3, [r3, #0]
    2d82:	0028      	movs	r0, r5
    2d84:	4798      	blx	r3
    2d86:	2201      	movs	r2, #1
    2d88:	40a2      	lsls	r2, r4
    2d8a:	9b01      	ldr	r3, [sp, #4]
    2d8c:	4393      	bics	r3, r2
    2d8e:	9301      	str	r3, [sp, #4]
    2d90:	9801      	ldr	r0, [sp, #4]
    2d92:	4b1b      	ldr	r3, [pc, #108]	; (2e00 <EIC_Handler+0xb8>)
    2d94:	4798      	blx	r3
    2d96:	3801      	subs	r0, #1
    2d98:	b244      	sxtb	r4, r0
    2d9a:	1c63      	adds	r3, r4, #1
    2d9c:	d014      	beq.n	2dc8 <EIC_Handler+0x80>
    2d9e:	2610      	movs	r6, #16
    2da0:	2000      	movs	r0, #0
    2da2:	e001      	b.n	2da8 <EIC_Handler+0x60>
    2da4:	3901      	subs	r1, #1
    2da6:	b2ce      	uxtb	r6, r1
    2da8:	42b0      	cmp	r0, r6
    2daa:	d8e6      	bhi.n	2d7a <EIC_Handler+0x32>
    2dac:	1833      	adds	r3, r6, r0
    2dae:	105b      	asrs	r3, r3, #1
    2db0:	b2d9      	uxtb	r1, r3
    2db2:	22ff      	movs	r2, #255	; 0xff
    2db4:	4013      	ands	r3, r2
    2db6:	00df      	lsls	r7, r3, #3
    2db8:	4a10      	ldr	r2, [pc, #64]	; (2dfc <EIC_Handler+0xb4>)
    2dba:	5cba      	ldrb	r2, [r7, r2]
    2dbc:	42a2      	cmp	r2, r4
    2dbe:	d0d8      	beq.n	2d72 <EIC_Handler+0x2a>
    2dc0:	daf0      	bge.n	2da4 <EIC_Handler+0x5c>
    2dc2:	3101      	adds	r1, #1
    2dc4:	b2c8      	uxtb	r0, r1
    2dc6:	e7ef      	b.n	2da8 <EIC_Handler+0x60>
    2dc8:	4b08      	ldr	r3, [pc, #32]	; (2dec <EIC_Handler+0xa4>)
    2dca:	691a      	ldr	r2, [r3, #16]
    2dcc:	68d9      	ldr	r1, [r3, #12]
    2dce:	400a      	ands	r2, r1
    2dd0:	9201      	str	r2, [sp, #4]
    2dd2:	9a01      	ldr	r2, [sp, #4]
    2dd4:	611a      	str	r2, [r3, #16]
    2dd6:	9b01      	ldr	r3, [sp, #4]
    2dd8:	2b00      	cmp	r3, #0
    2dda:	d005      	beq.n	2de8 <EIC_Handler+0xa0>
    2ddc:	9801      	ldr	r0, [sp, #4]
    2dde:	4b08      	ldr	r3, [pc, #32]	; (2e00 <EIC_Handler+0xb8>)
    2de0:	4798      	blx	r3
    2de2:	3801      	subs	r0, #1
    2de4:	b244      	sxtb	r4, r0
    2de6:	e7d8      	b.n	2d9a <EIC_Handler+0x52>
    2de8:	b003      	add	sp, #12
    2dea:	bdf0      	pop	{r4, r5, r6, r7, pc}
    2dec:	40001800 	.word	0x40001800
    2df0:	200003b8 	.word	0x200003b8
    2df4:	0000aba0 	.word	0x0000aba0
    2df8:	000026a1 	.word	0x000026a1
    2dfc:	0000ab20 	.word	0x0000ab20
    2e00:	00009429 	.word	0x00009429

00002e04 <_gclk_init_generators_by_fref>:
    2e04:	07c3      	lsls	r3, r0, #31
    2e06:	d50a      	bpl.n	2e1e <_gclk_init_generators_by_fref+0x1a>
    2e08:	4b11      	ldr	r3, [pc, #68]	; (2e50 <_gclk_init_generators_by_fref+0x4c>)
    2e0a:	2280      	movs	r2, #128	; 0x80
    2e0c:	0052      	lsls	r2, r2, #1
    2e0e:	609a      	str	r2, [r3, #8]
    2e10:	2283      	movs	r2, #131	; 0x83
    2e12:	0252      	lsls	r2, r2, #9
    2e14:	605a      	str	r2, [r3, #4]
    2e16:	4b0e      	ldr	r3, [pc, #56]	; (2e50 <_gclk_init_generators_by_fref+0x4c>)
    2e18:	785b      	ldrb	r3, [r3, #1]
    2e1a:	09db      	lsrs	r3, r3, #7
    2e1c:	d1fb      	bne.n	2e16 <_gclk_init_generators_by_fref+0x12>
    2e1e:	0703      	lsls	r3, r0, #28
    2e20:	d509      	bpl.n	2e36 <_gclk_init_generators_by_fref+0x32>
    2e22:	4b0b      	ldr	r3, [pc, #44]	; (2e50 <_gclk_init_generators_by_fref+0x4c>)
    2e24:	2204      	movs	r2, #4
    2e26:	32ff      	adds	r2, #255	; 0xff
    2e28:	609a      	str	r2, [r3, #8]
    2e2a:	4a0a      	ldr	r2, [pc, #40]	; (2e54 <_gclk_init_generators_by_fref+0x50>)
    2e2c:	605a      	str	r2, [r3, #4]
    2e2e:	4b08      	ldr	r3, [pc, #32]	; (2e50 <_gclk_init_generators_by_fref+0x4c>)
    2e30:	785b      	ldrb	r3, [r3, #1]
    2e32:	09db      	lsrs	r3, r3, #7
    2e34:	d1fb      	bne.n	2e2e <_gclk_init_generators_by_fref+0x2a>
    2e36:	0603      	lsls	r3, r0, #24
    2e38:	d509      	bpl.n	2e4e <_gclk_init_generators_by_fref+0x4a>
    2e3a:	4b05      	ldr	r3, [pc, #20]	; (2e50 <_gclk_init_generators_by_fref+0x4c>)
    2e3c:	2208      	movs	r2, #8
    2e3e:	32ff      	adds	r2, #255	; 0xff
    2e40:	609a      	str	r2, [r3, #8]
    2e42:	4a05      	ldr	r2, [pc, #20]	; (2e58 <_gclk_init_generators_by_fref+0x54>)
    2e44:	605a      	str	r2, [r3, #4]
    2e46:	4b02      	ldr	r3, [pc, #8]	; (2e50 <_gclk_init_generators_by_fref+0x4c>)
    2e48:	785b      	ldrb	r3, [r3, #1]
    2e4a:	09db      	lsrs	r3, r3, #7
    2e4c:	d1fb      	bne.n	2e46 <_gclk_init_generators_by_fref+0x42>
    2e4e:	4770      	bx	lr
    2e50:	40000c00 	.word	0x40000c00
    2e54:	00010303 	.word	0x00010303
    2e58:	00010707 	.word	0x00010707

00002e5c <_flash_erase_row>:
    2e5c:	7d03      	ldrb	r3, [r0, #20]
    2e5e:	07db      	lsls	r3, r3, #31
    2e60:	d5fc      	bpl.n	2e5c <_flash_erase_row>
    2e62:	2320      	movs	r3, #32
    2e64:	33ff      	adds	r3, #255	; 0xff
    2e66:	8303      	strh	r3, [r0, #24]
    2e68:	0849      	lsrs	r1, r1, #1
    2e6a:	61c1      	str	r1, [r0, #28]
    2e6c:	4b02      	ldr	r3, [pc, #8]	; (2e78 <_flash_erase_row+0x1c>)
    2e6e:	431a      	orrs	r2, r3
    2e70:	b292      	uxth	r2, r2
    2e72:	8002      	strh	r2, [r0, #0]
    2e74:	4770      	bx	lr
    2e76:	46c0      	nop			; (mov r8, r8)
    2e78:	ffffa500 	.word	0xffffa500

00002e7c <_flash_program>:
    2e7c:	b5f8      	push	{r3, r4, r5, r6, r7, lr}
    2e7e:	0004      	movs	r4, r0
    2e80:	000f      	movs	r7, r1
    2e82:	0016      	movs	r6, r2
    2e84:	001d      	movs	r5, r3
    2e86:	2001      	movs	r0, #1
    2e88:	4008      	ands	r0, r1
    2e8a:	4243      	negs	r3, r0
    2e8c:	4158      	adcs	r0, r3
    2e8e:	b2c0      	uxtb	r0, r0
    2e90:	22c5      	movs	r2, #197	; 0xc5
    2e92:	0052      	lsls	r2, r2, #1
    2e94:	4915      	ldr	r1, [pc, #84]	; (2eec <_flash_program+0x70>)
    2e96:	4b16      	ldr	r3, [pc, #88]	; (2ef0 <_flash_program+0x74>)
    2e98:	4798      	blx	r3
    2e9a:	0879      	lsrs	r1, r7, #1
    2e9c:	7d23      	ldrb	r3, [r4, #20]
    2e9e:	07db      	lsls	r3, r3, #31
    2ea0:	d5fc      	bpl.n	2e9c <_flash_program+0x20>
    2ea2:	4b14      	ldr	r3, [pc, #80]	; (2ef4 <_flash_program+0x78>)
    2ea4:	8023      	strh	r3, [r4, #0]
    2ea6:	7d23      	ldrb	r3, [r4, #20]
    2ea8:	07db      	lsls	r3, r3, #31
    2eaa:	d5fc      	bpl.n	2ea6 <_flash_program+0x2a>
    2eac:	2320      	movs	r3, #32
    2eae:	33ff      	adds	r3, #255	; 0xff
    2eb0:	8323      	strh	r3, [r4, #24]
    2eb2:	000a      	movs	r2, r1
    2eb4:	2300      	movs	r3, #0
    2eb6:	e004      	b.n	2ec2 <_flash_program+0x46>
    2eb8:	0057      	lsls	r7, r2, #1
    2eba:	8038      	strh	r0, [r7, #0]
    2ebc:	3302      	adds	r3, #2
    2ebe:	b29b      	uxth	r3, r3
    2ec0:	3201      	adds	r2, #1
    2ec2:	42ab      	cmp	r3, r5
    2ec4:	d208      	bcs.n	2ed8 <_flash_program+0x5c>
    2ec6:	5cf7      	ldrb	r7, [r6, r3]
    2ec8:	b2b8      	uxth	r0, r7
    2eca:	2b3e      	cmp	r3, #62	; 0x3e
    2ecc:	d8f4      	bhi.n	2eb8 <_flash_program+0x3c>
    2ece:	18f0      	adds	r0, r6, r3
    2ed0:	7840      	ldrb	r0, [r0, #1]
    2ed2:	0200      	lsls	r0, r0, #8
    2ed4:	4338      	orrs	r0, r7
    2ed6:	e7ef      	b.n	2eb8 <_flash_program+0x3c>
    2ed8:	7d23      	ldrb	r3, [r4, #20]
    2eda:	07db      	lsls	r3, r3, #31
    2edc:	d5fc      	bpl.n	2ed8 <_flash_program+0x5c>
    2ede:	61e1      	str	r1, [r4, #28]
    2ee0:	4b05      	ldr	r3, [pc, #20]	; (2ef8 <_flash_program+0x7c>)
    2ee2:	9a06      	ldr	r2, [sp, #24]
    2ee4:	4313      	orrs	r3, r2
    2ee6:	b29b      	uxth	r3, r3
    2ee8:	8023      	strh	r3, [r4, #0]
    2eea:	bdf8      	pop	{r3, r4, r5, r6, r7, pc}
    2eec:	0000abb8 	.word	0x0000abb8
    2ef0:	000026a1 	.word	0x000026a1
    2ef4:	ffffa544 	.word	0xffffa544
    2ef8:	ffffa500 	.word	0xffffa500

00002efc <_flash_init>:
    2efc:	b570      	push	{r4, r5, r6, lr}
    2efe:	0005      	movs	r5, r0
    2f00:	000c      	movs	r4, r1
    2f02:	2800      	cmp	r0, #0
    2f04:	d01c      	beq.n	2f40 <_flash_init+0x44>
    2f06:	4b10      	ldr	r3, [pc, #64]	; (2f48 <_flash_init+0x4c>)
    2f08:	4299      	cmp	r1, r3
    2f0a:	d01b      	beq.n	2f44 <_flash_init+0x48>
    2f0c:	2000      	movs	r0, #0
    2f0e:	2246      	movs	r2, #70	; 0x46
    2f10:	490e      	ldr	r1, [pc, #56]	; (2f4c <_flash_init+0x50>)
    2f12:	4b0f      	ldr	r3, [pc, #60]	; (2f50 <_flash_init+0x54>)
    2f14:	4798      	blx	r3
    2f16:	612c      	str	r4, [r5, #16]
    2f18:	6862      	ldr	r2, [r4, #4]
    2f1a:	239e      	movs	r3, #158	; 0x9e
    2f1c:	4013      	ands	r3, r2
    2f1e:	6063      	str	r3, [r4, #4]
    2f20:	4b0c      	ldr	r3, [pc, #48]	; (2f54 <_flash_init+0x58>)
    2f22:	601d      	str	r5, [r3, #0]
    NVIC->ICER[0U] = (uint32_t)(1UL << (((uint32_t)IRQn) & 0x1FUL));
    2f24:	4b0c      	ldr	r3, [pc, #48]	; (2f58 <_flash_init+0x5c>)
    2f26:	2220      	movs	r2, #32
    2f28:	2180      	movs	r1, #128	; 0x80
    2f2a:	505a      	str	r2, [r3, r1]
  __ASM volatile ("dsb 0xF":::"memory");
    2f2c:	f3bf 8f4f 	dsb	sy
  __ASM volatile ("isb 0xF":::"memory");
    2f30:	f3bf 8f6f 	isb	sy
    NVIC->ICPR[0U] = (uint32_t)(1UL << (((uint32_t)IRQn) & 0x1FUL));
    2f34:	3101      	adds	r1, #1
    2f36:	31ff      	adds	r1, #255	; 0xff
    2f38:	505a      	str	r2, [r3, r1]
    NVIC->ISER[0U] = (uint32_t)(1UL << (((uint32_t)IRQn) & 0x1FUL));
    2f3a:	601a      	str	r2, [r3, #0]
    2f3c:	2000      	movs	r0, #0
    2f3e:	bd70      	pop	{r4, r5, r6, pc}
    2f40:	2000      	movs	r0, #0
    2f42:	e7e4      	b.n	2f0e <_flash_init+0x12>
    2f44:	2001      	movs	r0, #1
    2f46:	e7e2      	b.n	2f0e <_flash_init+0x12>
    2f48:	41004000 	.word	0x41004000
    2f4c:	0000abb8 	.word	0x0000abb8
    2f50:	000026a1 	.word	0x000026a1
    2f54:	200003bc 	.word	0x200003bc
    2f58:	e000e100 	.word	0xe000e100

00002f5c <_flash_get_page_size>:
    2f5c:	2040      	movs	r0, #64	; 0x40
    2f5e:	4770      	bx	lr

00002f60 <_flash_get_total_pages>:
    2f60:	2080      	movs	r0, #128	; 0x80
    2f62:	0140      	lsls	r0, r0, #5
    2f64:	4770      	bx	lr

00002f66 <_flash_read>:
    2f66:	b570      	push	{r4, r5, r6, lr}
    2f68:	084c      	lsrs	r4, r1, #1
    2f6a:	6905      	ldr	r5, [r0, #16]
    2f6c:	7d2e      	ldrb	r6, [r5, #20]
    2f6e:	07f6      	lsls	r6, r6, #31
    2f70:	d5fb      	bpl.n	2f6a <_flash_read+0x4>
    2f72:	2020      	movs	r0, #32
    2f74:	30ff      	adds	r0, #255	; 0xff
    2f76:	8328      	strh	r0, [r5, #24]
    2f78:	07c8      	lsls	r0, r1, #31
    2f7a:	d507      	bpl.n	2f8c <_flash_read+0x26>
    2f7c:	3401      	adds	r4, #1
    2f7e:	2001      	movs	r0, #1
    2f80:	4381      	bics	r1, r0
    2f82:	8809      	ldrh	r1, [r1, #0]
    2f84:	0a09      	lsrs	r1, r1, #8
    2f86:	7011      	strb	r1, [r2, #0]
    2f88:	2101      	movs	r1, #1
    2f8a:	e003      	b.n	2f94 <_flash_read+0x2e>
    2f8c:	2100      	movs	r1, #0
    2f8e:	e001      	b.n	2f94 <_flash_read+0x2e>
    2f90:	3102      	adds	r1, #2
    2f92:	002c      	movs	r4, r5
    2f94:	4299      	cmp	r1, r3
    2f96:	d20b      	bcs.n	2fb0 <_flash_read+0x4a>
    2f98:	1c65      	adds	r5, r4, #1
    2f9a:	0064      	lsls	r4, r4, #1
    2f9c:	8820      	ldrh	r0, [r4, #0]
    2f9e:	b280      	uxth	r0, r0
    2fa0:	5450      	strb	r0, [r2, r1]
    2fa2:	1e5c      	subs	r4, r3, #1
    2fa4:	42a1      	cmp	r1, r4
    2fa6:	d2f3      	bcs.n	2f90 <_flash_read+0x2a>
    2fa8:	1c4c      	adds	r4, r1, #1
    2faa:	0a00      	lsrs	r0, r0, #8
    2fac:	5510      	strb	r0, [r2, r4]
    2fae:	e7ef      	b.n	2f90 <_flash_read+0x2a>
    2fb0:	bd70      	pop	{r4, r5, r6, pc}
	...

00002fb4 <_flash_write>:
    2fb4:	b5f0      	push	{r4, r5, r6, r7, lr}
    2fb6:	46de      	mov	lr, fp
    2fb8:	4657      	mov	r7, sl
    2fba:	464e      	mov	r6, r9
    2fbc:	4645      	mov	r5, r8
    2fbe:	b5e0      	push	{r5, r6, r7, lr}
    2fc0:	b0c5      	sub	sp, #276	; 0x114
    2fc2:	4681      	mov	r9, r0
    2fc4:	0016      	movs	r6, r2
    2fc6:	001d      	movs	r5, r3
    2fc8:	000c      	movs	r4, r1
    2fca:	e048      	b.n	305e <_flash_write+0xaa>
    2fcc:	4653      	mov	r3, sl
    2fce:	0199      	lsls	r1, r3, #6
    2fd0:	ab04      	add	r3, sp, #16
    2fd2:	185a      	adds	r2, r3, r1
    2fd4:	4441      	add	r1, r8
    2fd6:	2340      	movs	r3, #64	; 0x40
    2fd8:	4648      	mov	r0, r9
    2fda:	4f29      	ldr	r7, [pc, #164]	; (3080 <_flash_write+0xcc>)
    2fdc:	47b8      	blx	r7
    2fde:	2301      	movs	r3, #1
    2fe0:	469c      	mov	ip, r3
    2fe2:	44e2      	add	sl, ip
    2fe4:	4653      	mov	r3, sl
    2fe6:	2b03      	cmp	r3, #3
    2fe8:	d9f0      	bls.n	2fcc <_flash_write+0x18>
    2fea:	4643      	mov	r3, r8
    2fec:	1ae3      	subs	r3, r4, r3
    2fee:	0999      	lsrs	r1, r3, #6
    2ff0:	223f      	movs	r2, #63	; 0x3f
    2ff2:	4013      	ands	r3, r2
    2ff4:	e002      	b.n	2ffc <_flash_write+0x48>
    2ff6:	3401      	adds	r4, #1
    2ff8:	3601      	adds	r6, #1
    2ffa:	3d01      	subs	r5, #1
    2ffc:	9a03      	ldr	r2, [sp, #12]
    2ffe:	4294      	cmp	r4, r2
    3000:	d80d      	bhi.n	301e <_flash_write+0x6a>
    3002:	2d00      	cmp	r5, #0
    3004:	d00b      	beq.n	301e <_flash_write+0x6a>
    3006:	7830      	ldrb	r0, [r6, #0]
    3008:	018a      	lsls	r2, r1, #6
    300a:	af04      	add	r7, sp, #16
    300c:	46bc      	mov	ip, r7
    300e:	4462      	add	r2, ip
    3010:	54d0      	strb	r0, [r2, r3]
    3012:	3301      	adds	r3, #1
    3014:	223f      	movs	r2, #63	; 0x3f
    3016:	4013      	ands	r3, r2
    3018:	d1ed      	bne.n	2ff6 <_flash_write+0x42>
    301a:	3101      	adds	r1, #1
    301c:	e7eb      	b.n	2ff6 <_flash_write+0x42>
    301e:	2202      	movs	r2, #2
    3020:	4641      	mov	r1, r8
    3022:	464b      	mov	r3, r9
    3024:	6918      	ldr	r0, [r3, #16]
    3026:	4b17      	ldr	r3, [pc, #92]	; (3084 <_flash_write+0xd0>)
    3028:	4798      	blx	r3
    302a:	2300      	movs	r3, #0
    302c:	469a      	mov	sl, r3
    302e:	e00e      	b.n	304e <_flash_write+0x9a>
    3030:	4653      	mov	r3, sl
    3032:	0199      	lsls	r1, r3, #6
    3034:	ab04      	add	r3, sp, #16
    3036:	185a      	adds	r2, r3, r1
    3038:	4441      	add	r1, r8
    303a:	2304      	movs	r3, #4
    303c:	9300      	str	r3, [sp, #0]
    303e:	333c      	adds	r3, #60	; 0x3c
    3040:	4648      	mov	r0, r9
    3042:	6900      	ldr	r0, [r0, #16]
    3044:	4f10      	ldr	r7, [pc, #64]	; (3088 <_flash_write+0xd4>)
    3046:	47b8      	blx	r7
    3048:	2301      	movs	r3, #1
    304a:	469c      	mov	ip, r3
    304c:	44e2      	add	sl, ip
    304e:	4653      	mov	r3, sl
    3050:	2b03      	cmp	r3, #3
    3052:	d9ed      	bls.n	3030 <_flash_write+0x7c>
    3054:	192b      	adds	r3, r5, r4
    3056:	3b01      	subs	r3, #1
    3058:	9a03      	ldr	r2, [sp, #12]
    305a:	429a      	cmp	r2, r3
    305c:	d209      	bcs.n	3072 <_flash_write+0xbe>
    305e:	23ff      	movs	r3, #255	; 0xff
    3060:	0022      	movs	r2, r4
    3062:	439a      	bics	r2, r3
    3064:	4690      	mov	r8, r2
    3066:	0017      	movs	r7, r2
    3068:	37ff      	adds	r7, #255	; 0xff
    306a:	9703      	str	r7, [sp, #12]
    306c:	2300      	movs	r3, #0
    306e:	469a      	mov	sl, r3
    3070:	e7b8      	b.n	2fe4 <_flash_write+0x30>
    3072:	b045      	add	sp, #276	; 0x114
    3074:	bc3c      	pop	{r2, r3, r4, r5}
    3076:	4690      	mov	r8, r2
    3078:	4699      	mov	r9, r3
    307a:	46a2      	mov	sl, r4
    307c:	46ab      	mov	fp, r5
    307e:	bdf0      	pop	{r4, r5, r6, r7, pc}
    3080:	00002f67 	.word	0x00002f67
    3084:	00002e5d 	.word	0x00002e5d
    3088:	00002e7d 	.word	0x00002e7d

0000308c <_flash_append>:
    308c:	b5f0      	push	{r4, r5, r6, r7, lr}
    308e:	46de      	mov	lr, fp
    3090:	4657      	mov	r7, sl
    3092:	464e      	mov	r6, r9
    3094:	4645      	mov	r5, r8
    3096:	b5e0      	push	{r5, r6, r7, lr}
    3098:	b083      	sub	sp, #12
    309a:	4681      	mov	r9, r0
    309c:	4692      	mov	sl, r2
    309e:	469b      	mov	fp, r3
    30a0:	233f      	movs	r3, #63	; 0x3f
    30a2:	000e      	movs	r6, r1
    30a4:	439e      	bics	r6, r3
    30a6:	42b1      	cmp	r1, r6
    30a8:	d00e      	beq.n	30c8 <_flash_append+0x3c>
    30aa:	1a74      	subs	r4, r6, r1
    30ac:	3440      	adds	r4, #64	; 0x40
    30ae:	455c      	cmp	r4, fp
    30b0:	d900      	bls.n	30b4 <_flash_append+0x28>
    30b2:	465c      	mov	r4, fp
    30b4:	b2a3      	uxth	r3, r4
    30b6:	2204      	movs	r2, #4
    30b8:	9200      	str	r2, [sp, #0]
    30ba:	4652      	mov	r2, sl
    30bc:	4648      	mov	r0, r9
    30be:	6900      	ldr	r0, [r0, #16]
    30c0:	4d10      	ldr	r5, [pc, #64]	; (3104 <_flash_append+0x78>)
    30c2:	47a8      	blx	r5
    30c4:	3640      	adds	r6, #64	; 0x40
    30c6:	e00d      	b.n	30e4 <_flash_append+0x58>
    30c8:	2400      	movs	r4, #0
    30ca:	e00b      	b.n	30e4 <_flash_append+0x58>
    30cc:	4653      	mov	r3, sl
    30ce:	191a      	adds	r2, r3, r4
    30d0:	b2ab      	uxth	r3, r5
    30d2:	2104      	movs	r1, #4
    30d4:	9100      	str	r1, [sp, #0]
    30d6:	0031      	movs	r1, r6
    30d8:	4648      	mov	r0, r9
    30da:	6900      	ldr	r0, [r0, #16]
    30dc:	4f09      	ldr	r7, [pc, #36]	; (3104 <_flash_append+0x78>)
    30de:	47b8      	blx	r7
    30e0:	3640      	adds	r6, #64	; 0x40
    30e2:	1964      	adds	r4, r4, r5
    30e4:	455c      	cmp	r4, fp
    30e6:	d205      	bcs.n	30f4 <_flash_append+0x68>
    30e8:	465b      	mov	r3, fp
    30ea:	1b1d      	subs	r5, r3, r4
    30ec:	2d40      	cmp	r5, #64	; 0x40
    30ee:	d9ed      	bls.n	30cc <_flash_append+0x40>
    30f0:	2540      	movs	r5, #64	; 0x40
    30f2:	e7eb      	b.n	30cc <_flash_append+0x40>
    30f4:	b003      	add	sp, #12
    30f6:	bc3c      	pop	{r2, r3, r4, r5}
    30f8:	4690      	mov	r8, r2
    30fa:	4699      	mov	r9, r3
    30fc:	46a2      	mov	sl, r4
    30fe:	46ab      	mov	fp, r5
    3100:	bdf0      	pop	{r4, r5, r6, r7, pc}
    3102:	46c0      	nop			; (mov r8, r8)
    3104:	00002e7d 	.word	0x00002e7d

00003108 <_flash_erase>:
    3108:	b5f0      	push	{r4, r5, r6, r7, lr}
    310a:	46d6      	mov	lr, sl
    310c:	464f      	mov	r7, r9
    310e:	4646      	mov	r6, r8
    3110:	b5c0      	push	{r6, r7, lr}
    3112:	b090      	sub	sp, #64	; 0x40
    3114:	0007      	movs	r7, r0
    3116:	468a      	mov	sl, r1
    3118:	0015      	movs	r5, r2
    311a:	23ff      	movs	r3, #255	; 0xff
    311c:	000c      	movs	r4, r1
    311e:	439c      	bics	r4, r3
    3120:	2240      	movs	r2, #64	; 0x40
    3122:	21ff      	movs	r1, #255	; 0xff
    3124:	4668      	mov	r0, sp
    3126:	4b1f      	ldr	r3, [pc, #124]	; (31a4 <_flash_erase+0x9c>)
    3128:	4798      	blx	r3
    312a:	45a2      	cmp	sl, r4
    312c:	d020      	beq.n	3170 <_flash_erase+0x68>
    312e:	3401      	adds	r4, #1
    3130:	34ff      	adds	r4, #255	; 0xff
    3132:	2300      	movs	r3, #0
    3134:	4698      	mov	r8, r3
    3136:	4643      	mov	r3, r8
    3138:	2b02      	cmp	r3, #2
    313a:	d819      	bhi.n	3170 <_flash_erase+0x68>
    313c:	2340      	movs	r3, #64	; 0x40
    313e:	466a      	mov	r2, sp
    3140:	4651      	mov	r1, sl
    3142:	0038      	movs	r0, r7
    3144:	4e18      	ldr	r6, [pc, #96]	; (31a8 <_flash_erase+0xa0>)
    3146:	47b0      	blx	r6
    3148:	3d01      	subs	r5, #1
    314a:	2d00      	cmp	r5, #0
    314c:	d023      	beq.n	3196 <_flash_erase+0x8e>
    314e:	2340      	movs	r3, #64	; 0x40
    3150:	469c      	mov	ip, r3
    3152:	44e2      	add	sl, ip
    3154:	4554      	cmp	r4, sl
    3156:	d00b      	beq.n	3170 <_flash_erase+0x68>
    3158:	3b3f      	subs	r3, #63	; 0x3f
    315a:	469c      	mov	ip, r3
    315c:	44e0      	add	r8, ip
    315e:	e7ea      	b.n	3136 <_flash_erase+0x2e>
    3160:	2202      	movs	r2, #2
    3162:	0021      	movs	r1, r4
    3164:	6938      	ldr	r0, [r7, #16]
    3166:	4b11      	ldr	r3, [pc, #68]	; (31ac <_flash_erase+0xa4>)
    3168:	4798      	blx	r3
    316a:	3401      	adds	r4, #1
    316c:	34ff      	adds	r4, #255	; 0xff
    316e:	3d04      	subs	r5, #4
    3170:	2d03      	cmp	r5, #3
    3172:	d8f5      	bhi.n	3160 <_flash_erase+0x58>
    3174:	2d00      	cmp	r5, #0
    3176:	d00e      	beq.n	3196 <_flash_erase+0x8e>
    3178:	2300      	movs	r3, #0
    317a:	4699      	mov	r9, r3
    317c:	e009      	b.n	3192 <_flash_erase+0x8a>
    317e:	2340      	movs	r3, #64	; 0x40
    3180:	466a      	mov	r2, sp
    3182:	0021      	movs	r1, r4
    3184:	0038      	movs	r0, r7
    3186:	4e08      	ldr	r6, [pc, #32]	; (31a8 <_flash_erase+0xa0>)
    3188:	47b0      	blx	r6
    318a:	3440      	adds	r4, #64	; 0x40
    318c:	2301      	movs	r3, #1
    318e:	469c      	mov	ip, r3
    3190:	44e1      	add	r9, ip
    3192:	454d      	cmp	r5, r9
    3194:	d8f3      	bhi.n	317e <_flash_erase+0x76>
    3196:	b010      	add	sp, #64	; 0x40
    3198:	bc1c      	pop	{r2, r3, r4}
    319a:	4690      	mov	r8, r2
    319c:	4699      	mov	r9, r3
    319e:	46a2      	mov	sl, r4
    31a0:	bdf0      	pop	{r4, r5, r6, r7, pc}
    31a2:	46c0      	nop			; (mov r8, r8)
    31a4:	000094f5 	.word	0x000094f5
    31a8:	00002fb5 	.word	0x00002fb5
    31ac:	00002e5d 	.word	0x00002e5d

000031b0 <_flash_is_locked>:
    31b0:	0b89      	lsrs	r1, r1, #14
    31b2:	6902      	ldr	r2, [r0, #16]
    31b4:	0409      	lsls	r1, r1, #16
    31b6:	0c09      	lsrs	r1, r1, #16
    31b8:	2301      	movs	r3, #1
    31ba:	408b      	lsls	r3, r1
    31bc:	8c10      	ldrh	r0, [r2, #32]
    31be:	4018      	ands	r0, r3
    31c0:	4243      	negs	r3, r0
    31c2:	4158      	adcs	r0, r3
    31c4:	b2c0      	uxtb	r0, r0
    31c6:	4770      	bx	lr

000031c8 <NVMCTRL_Handler>:
    31c8:	b510      	push	{r4, lr}
    31ca:	4b0a      	ldr	r3, [pc, #40]	; (31f4 <NVMCTRL_Handler+0x2c>)
    31cc:	6818      	ldr	r0, [r3, #0]
    31ce:	6903      	ldr	r3, [r0, #16]
    31d0:	7d1a      	ldrb	r2, [r3, #20]
    31d2:	07d2      	lsls	r2, r2, #31
    31d4:	d504      	bpl.n	31e0 <NVMCTRL_Handler+0x18>
    31d6:	6803      	ldr	r3, [r0, #0]
    31d8:	2b00      	cmp	r3, #0
    31da:	d000      	beq.n	31de <NVMCTRL_Handler+0x16>
    31dc:	4798      	blx	r3
    31de:	bd10      	pop	{r4, pc}
    31e0:	7d1a      	ldrb	r2, [r3, #20]
    31e2:	0792      	lsls	r2, r2, #30
    31e4:	d5fb      	bpl.n	31de <NVMCTRL_Handler+0x16>
    31e6:	2202      	movs	r2, #2
    31e8:	751a      	strb	r2, [r3, #20]
    31ea:	6843      	ldr	r3, [r0, #4]
    31ec:	2b00      	cmp	r3, #0
    31ee:	d0f6      	beq.n	31de <NVMCTRL_Handler+0x16>
    31f0:	4798      	blx	r3
    31f2:	e7f4      	b.n	31de <NVMCTRL_Handler+0x16>
    31f4:	200003bc 	.word	0x200003bc

000031f8 <_pm_init>:
    31f8:	4b06      	ldr	r3, [pc, #24]	; (3214 <_pm_init+0x1c>)
    31fa:	7a1a      	ldrb	r2, [r3, #8]
    31fc:	b2d2      	uxtb	r2, r2
    31fe:	721a      	strb	r2, [r3, #8]
    3200:	7a5a      	ldrb	r2, [r3, #9]
    3202:	b2d2      	uxtb	r2, r2
    3204:	725a      	strb	r2, [r3, #9]
    3206:	7a9a      	ldrb	r2, [r3, #10]
    3208:	b2d2      	uxtb	r2, r2
    320a:	729a      	strb	r2, [r3, #10]
    320c:	7ada      	ldrb	r2, [r3, #11]
    320e:	b2d2      	uxtb	r2, r2
    3210:	72da      	strb	r2, [r3, #11]
    3212:	4770      	bx	lr
    3214:	40000400 	.word	0x40000400

00003218 <_rtc_timer_interrupt_handler>:
 * \brief RTC Timer interrupt handler
 *
 * \param[in] p The pointer to calendar device struct
 */
static void _rtc_timer_interrupt_handler(struct _timer_device *dev)
{
    3218:	b510      	push	{r4, lr}
    321a:	0004      	movs	r4, r0
	return tmp;
}

static inline hri_rtcmode0_intflag_reg_t hri_rtcmode0_read_INTFLAG_reg(const void *const hw)
{
	return ((Rtc *)hw)->MODE0.INTFLAG.reg;
    321c:	68c3      	ldr	r3, [r0, #12]
    321e:	7a1b      	ldrb	r3, [r3, #8]
	/* Read and mask interrupt flag register */
	uint16_t flag = hri_rtcmode0_read_INTFLAG_reg(dev->hw);

	if (flag & RTC_MODE0_INTFLAG_CMP0) {
    3220:	07db      	lsls	r3, r3, #31
    3222:	d506      	bpl.n	3232 <_rtc_timer_interrupt_handler+0x1a>
		if (dev->timer_cb.period_expired) {
    3224:	6803      	ldr	r3, [r0, #0]
    3226:	2b00      	cmp	r3, #0
    3228:	d000      	beq.n	322c <_rtc_timer_interrupt_handler+0x14>
			dev->timer_cb.period_expired(dev);
    322a:	4798      	blx	r3
		}

		/* Clear interrupt flag */
		hri_rtcmode0_clear_interrupt_CMP0_bit(dev->hw);
    322c:	68e3      	ldr	r3, [r4, #12]
	((Rtc *)hw)->MODE0.INTFLAG.reg = RTC_MODE0_INTFLAG_CMP0;
    322e:	2201      	movs	r2, #1
    3230:	721a      	strb	r2, [r3, #8]
	}
}
    3232:	bd10      	pop	{r4, pc}

00003234 <_timer_init>:
{
    3234:	b570      	push	{r4, r5, r6, lr}
    3236:	0004      	movs	r4, r0
    3238:	000d      	movs	r5, r1
	ASSERT(dev);
    323a:	1e43      	subs	r3, r0, #1
    323c:	4198      	sbcs	r0, r3
    323e:	b2c0      	uxtb	r0, r0
    3240:	2233      	movs	r2, #51	; 0x33
    3242:	4910      	ldr	r1, [pc, #64]	; (3284 <_timer_init+0x50>)
    3244:	4b10      	ldr	r3, [pc, #64]	; (3288 <_timer_init+0x54>)
    3246:	4798      	blx	r3
	dev->hw = hw;
    3248:	60e5      	str	r5, [r4, #12]
}

static inline void hri_rtcmode0_write_CTRL_reg(const void *const hw, hri_rtcmode0_ctrl_reg_t data)
{
	RTC_CRITICAL_SECTION_ENTER();
	((Rtc *)hw)->MODE0.CTRL.reg = data;
    324a:	2301      	movs	r3, #1
    324c:	802b      	strh	r3, [r5, #0]
	while (((const Rtc *)hw)->MODE0.STATUS.bit.SYNCBUSY)
    324e:	7aab      	ldrb	r3, [r5, #10]
    3250:	09db      	lsrs	r3, r3, #7
    3252:	d1fc      	bne.n	324e <_timer_init+0x1a>
	hri_rtcmode0_wait_for_sync(dev->hw);
    3254:	68e2      	ldr	r2, [r4, #12]
    3256:	7a93      	ldrb	r3, [r2, #10]
    3258:	09db      	lsrs	r3, r3, #7
    325a:	d1fc      	bne.n	3256 <_timer_init+0x22>
	((Rtc *)hw)->MODE0.CTRL.reg = data;
    325c:	3380      	adds	r3, #128	; 0x80
    325e:	8013      	strh	r3, [r2, #0]
	while (((const Rtc *)hw)->MODE0.STATUS.bit.SYNCBUSY)
    3260:	7a93      	ldrb	r3, [r2, #10]
    3262:	09db      	lsrs	r3, r3, #7
    3264:	d1fc      	bne.n	3260 <_timer_init+0x2c>
	hri_rtcmode0_write_COMP_COMP_bf(dev->hw, 0, CONF_RTC_COMP_VAL);
    3266:	68e2      	ldr	r2, [r4, #12]

static inline void hri_rtcmode0_write_COMP_COMP_bf(const void *const hw, uint8_t index, hri_rtcmode0_comp_reg_t data)
{
	uint32_t tmp;
	RTC_CRITICAL_SECTION_ENTER();
	tmp = ((Rtc *)hw)->MODE0.COMP[index].reg;
    3268:	6993      	ldr	r3, [r2, #24]
	tmp &= ~RTC_MODE0_COMP_COMP_Msk;
	tmp |= RTC_MODE0_COMP_COMP(data);
	((Rtc *)hw)->MODE0.COMP[index].reg = tmp;
    326a:	23fa      	movs	r3, #250	; 0xfa
    326c:	009b      	lsls	r3, r3, #2
    326e:	6193      	str	r3, [r2, #24]
	while (((const Rtc *)hw)->MODE0.STATUS.bit.SYNCBUSY)
    3270:	7a93      	ldrb	r3, [r2, #10]
    3272:	09db      	lsrs	r3, r3, #7
    3274:	d1fc      	bne.n	3270 <_timer_init+0x3c>
	((Rtc *)hw)->MODE0.INTENSET.reg = RTC_MODE0_INTENSET_CMP0;
    3276:	3301      	adds	r3, #1
    3278:	68e2      	ldr	r2, [r4, #12]
    327a:	71d3      	strb	r3, [r2, #7]
	_rtc_dev = dev;
    327c:	4b03      	ldr	r3, [pc, #12]	; (328c <_timer_init+0x58>)
    327e:	601c      	str	r4, [r3, #0]
}
    3280:	2000      	movs	r0, #0
    3282:	bd70      	pop	{r4, r5, r6, pc}
    3284:	0000abd8 	.word	0x0000abd8
    3288:	000026a1 	.word	0x000026a1
    328c:	200003c0 	.word	0x200003c0

00003290 <_timer_start>:
{
    3290:	b510      	push	{r4, lr}
    3292:	1e04      	subs	r4, r0, #0
	ASSERT(dev && dev->hw);
    3294:	d020      	beq.n	32d8 <_timer_start+0x48>
    3296:	68c3      	ldr	r3, [r0, #12]
    3298:	2b00      	cmp	r3, #0
    329a:	d01b      	beq.n	32d4 <_timer_start+0x44>
    329c:	2001      	movs	r0, #1
    329e:	226a      	movs	r2, #106	; 0x6a
    32a0:	490e      	ldr	r1, [pc, #56]	; (32dc <_timer_start+0x4c>)
    32a2:	4b0f      	ldr	r3, [pc, #60]	; (32e0 <_timer_start+0x50>)
    32a4:	4798      	blx	r3
    32a6:	2208      	movs	r2, #8
    32a8:	4b0e      	ldr	r3, [pc, #56]	; (32e4 <_timer_start+0x54>)
    32aa:	601a      	str	r2, [r3, #0]
	hri_rtcmode0_write_COUNT_COUNT_bf(dev->hw, 0);
    32ac:	68e2      	ldr	r2, [r4, #12]
	tmp = ((Rtc *)hw)->MODE0.COUNT.reg;
    32ae:	6913      	ldr	r3, [r2, #16]
	((Rtc *)hw)->MODE0.COUNT.reg = tmp;
    32b0:	2300      	movs	r3, #0
    32b2:	6113      	str	r3, [r2, #16]
	while (((const Rtc *)hw)->MODE0.STATUS.bit.SYNCBUSY)
    32b4:	7a93      	ldrb	r3, [r2, #10]
    32b6:	09db      	lsrs	r3, r3, #7
    32b8:	d1fc      	bne.n	32b4 <_timer_start+0x24>
	hri_rtcmode0_wait_for_sync(dev->hw);
    32ba:	68e2      	ldr	r2, [r4, #12]
    32bc:	7a93      	ldrb	r3, [r2, #10]
    32be:	09db      	lsrs	r3, r3, #7
    32c0:	d1fc      	bne.n	32bc <_timer_start+0x2c>
	((Rtc *)hw)->MODE0.CTRL.reg |= RTC_MODE0_CTRL_ENABLE;
    32c2:	8813      	ldrh	r3, [r2, #0]
    32c4:	2102      	movs	r1, #2
    32c6:	430b      	orrs	r3, r1
    32c8:	b29b      	uxth	r3, r3
    32ca:	8013      	strh	r3, [r2, #0]
	while (((const Rtc *)hw)->MODE0.STATUS.bit.SYNCBUSY)
    32cc:	7a93      	ldrb	r3, [r2, #10]
    32ce:	09db      	lsrs	r3, r3, #7
    32d0:	d1fc      	bne.n	32cc <_timer_start+0x3c>
}
    32d2:	bd10      	pop	{r4, pc}
	ASSERT(dev && dev->hw);
    32d4:	2000      	movs	r0, #0
    32d6:	e7e2      	b.n	329e <_timer_start+0xe>
    32d8:	2000      	movs	r0, #0
    32da:	e7e0      	b.n	329e <_timer_start+0xe>
    32dc:	0000abd8 	.word	0x0000abd8
    32e0:	000026a1 	.word	0x000026a1
    32e4:	e000e100 	.word	0xe000e100

000032e8 <_timer_is_started>:
	return hri_rtcmode0_get_CTRL_ENABLE_bit(dev->hw);
    32e8:	68c2      	ldr	r2, [r0, #12]
    32ea:	7a93      	ldrb	r3, [r2, #10]
    32ec:	09db      	lsrs	r3, r3, #7
    32ee:	d1fc      	bne.n	32ea <_timer_is_started+0x2>
	tmp = ((Rtc *)hw)->MODE0.CTRL.reg;
    32f0:	8813      	ldrh	r3, [r2, #0]
	tmp = (tmp & RTC_MODE0_CTRL_ENABLE) >> RTC_MODE0_CTRL_ENABLE_Pos;
    32f2:	085b      	lsrs	r3, r3, #1
	return (bool)tmp;
    32f4:	2001      	movs	r0, #1
    32f6:	4018      	ands	r0, r3
}
    32f8:	4770      	bx	lr

000032fa <_timer_set_irq>:
}
    32fa:	4770      	bx	lr

000032fc <_rtc_get_timer>:
 * \brief Retrieve timer helper functions
 */
struct _timer_hpl_interface *_rtc_get_timer(void)
{
	return NULL;
}
    32fc:	2000      	movs	r0, #0
    32fe:	4770      	bx	lr

00003300 <RTC_Handler>:

/**
 * \brief Rtc interrupt handler
 */
void RTC_Handler(void)
{
    3300:	b510      	push	{r4, lr}
	_rtc_timer_interrupt_handler(_rtc_dev);
    3302:	4b02      	ldr	r3, [pc, #8]	; (330c <RTC_Handler+0xc>)
    3304:	6818      	ldr	r0, [r3, #0]
    3306:	4b02      	ldr	r3, [pc, #8]	; (3310 <RTC_Handler+0x10>)
    3308:	4798      	blx	r3
}
    330a:	bd10      	pop	{r4, pc}
    330c:	200003c0 	.word	0x200003c0
    3310:	00003219 	.word	0x00003219

00003314 <_sercom_get_hardware_index>:
    3314:	4b02      	ldr	r3, [pc, #8]	; (3320 <_sercom_get_hardware_index+0xc>)
    3316:	469c      	mov	ip, r3
    3318:	4460      	add	r0, ip
    331a:	0a80      	lsrs	r0, r0, #10
    331c:	b2c0      	uxtb	r0, r0
    331e:	4770      	bx	lr
    3320:	bdfff800 	.word	0xbdfff800

00003324 <_sercom_usart_interrupt_handler>:
    3324:	b510      	push	{r4, lr}
    3326:	6984      	ldr	r4, [r0, #24]
    3328:	7e23      	ldrb	r3, [r4, #24]
    332a:	07db      	lsls	r3, r3, #31
    332c:	d502      	bpl.n	3334 <_sercom_usart_interrupt_handler+0x10>
    332e:	7da3      	ldrb	r3, [r4, #22]
    3330:	07db      	lsls	r3, r3, #31
    3332:	d40f      	bmi.n	3354 <_sercom_usart_interrupt_handler+0x30>
    3334:	7e23      	ldrb	r3, [r4, #24]
    3336:	079b      	lsls	r3, r3, #30
    3338:	d502      	bpl.n	3340 <_sercom_usart_interrupt_handler+0x1c>
    333a:	7da3      	ldrb	r3, [r4, #22]
    333c:	079b      	lsls	r3, r3, #30
    333e:	d40e      	bmi.n	335e <_sercom_usart_interrupt_handler+0x3a>
    3340:	7e23      	ldrb	r3, [r4, #24]
    3342:	075b      	lsls	r3, r3, #29
    3344:	d515      	bpl.n	3372 <_sercom_usart_interrupt_handler+0x4e>
    3346:	8b62      	ldrh	r2, [r4, #26]
    3348:	2337      	movs	r3, #55	; 0x37
    334a:	421a      	tst	r2, r3
    334c:	d00c      	beq.n	3368 <_sercom_usart_interrupt_handler+0x44>
    334e:	3308      	adds	r3, #8
    3350:	8363      	strh	r3, [r4, #26]
    3352:	bd10      	pop	{r4, pc}
    3354:	2301      	movs	r3, #1
    3356:	7523      	strb	r3, [r4, #20]
    3358:	6803      	ldr	r3, [r0, #0]
    335a:	4798      	blx	r3
    335c:	e7f9      	b.n	3352 <_sercom_usart_interrupt_handler+0x2e>
    335e:	2302      	movs	r3, #2
    3360:	7523      	strb	r3, [r4, #20]
    3362:	6883      	ldr	r3, [r0, #8]
    3364:	4798      	blx	r3
    3366:	e7f4      	b.n	3352 <_sercom_usart_interrupt_handler+0x2e>
    3368:	6843      	ldr	r3, [r0, #4]
    336a:	8d21      	ldrh	r1, [r4, #40]	; 0x28
    336c:	b2c9      	uxtb	r1, r1
    336e:	4798      	blx	r3
    3370:	e7ef      	b.n	3352 <_sercom_usart_interrupt_handler+0x2e>
    3372:	7e23      	ldrb	r3, [r4, #24]
    3374:	09db      	lsrs	r3, r3, #7
    3376:	d0ec      	beq.n	3352 <_sercom_usart_interrupt_handler+0x2e>
    3378:	2380      	movs	r3, #128	; 0x80
    337a:	7623      	strb	r3, [r4, #24]
    337c:	68c3      	ldr	r3, [r0, #12]
    337e:	4798      	blx	r3
    3380:	8b63      	ldrh	r3, [r4, #26]
    3382:	b29b      	uxth	r3, r3
    3384:	8363      	strh	r3, [r4, #26]
    3386:	e7e4      	b.n	3352 <_sercom_usart_interrupt_handler+0x2e>

00003388 <_sercom_init_irq_param>:
    3388:	4b03      	ldr	r3, [pc, #12]	; (3398 <_sercom_init_irq_param+0x10>)
    338a:	4298      	cmp	r0, r3
    338c:	d000      	beq.n	3390 <_sercom_init_irq_param+0x8>
    338e:	4770      	bx	lr
    3390:	4b02      	ldr	r3, [pc, #8]	; (339c <_sercom_init_irq_param+0x14>)
    3392:	6019      	str	r1, [r3, #0]
    3394:	e7fb      	b.n	338e <_sercom_init_irq_param+0x6>
    3396:	46c0      	nop			; (mov r8, r8)
    3398:	42000c00 	.word	0x42000c00
    339c:	200003c4 	.word	0x200003c4

000033a0 <_sercom_get_irq_num>:
    33a0:	b510      	push	{r4, lr}
    33a2:	4b02      	ldr	r3, [pc, #8]	; (33ac <_sercom_get_irq_num+0xc>)
    33a4:	4798      	blx	r3
    33a6:	3009      	adds	r0, #9
    33a8:	b2c0      	uxtb	r0, r0
    33aa:	bd10      	pop	{r4, pc}
    33ac:	00003315 	.word	0x00003315

000033b0 <_get_sercom_index>:
    33b0:	b510      	push	{r4, lr}
    33b2:	4b0b      	ldr	r3, [pc, #44]	; (33e0 <_get_sercom_index+0x30>)
    33b4:	4798      	blx	r3
    33b6:	0001      	movs	r1, r0
    33b8:	2000      	movs	r0, #0
    33ba:	2801      	cmp	r0, #1
    33bc:	d809      	bhi.n	33d2 <_get_sercom_index+0x22>
    33be:	0083      	lsls	r3, r0, #2
    33c0:	181b      	adds	r3, r3, r0
    33c2:	009a      	lsls	r2, r3, #2
    33c4:	4b07      	ldr	r3, [pc, #28]	; (33e4 <_get_sercom_index+0x34>)
    33c6:	5cd3      	ldrb	r3, [r2, r3]
    33c8:	4299      	cmp	r1, r3
    33ca:	d008      	beq.n	33de <_get_sercom_index+0x2e>
    33cc:	3001      	adds	r0, #1
    33ce:	b2c0      	uxtb	r0, r0
    33d0:	e7f3      	b.n	33ba <_get_sercom_index+0xa>
    33d2:	4a05      	ldr	r2, [pc, #20]	; (33e8 <_get_sercom_index+0x38>)
    33d4:	4905      	ldr	r1, [pc, #20]	; (33ec <_get_sercom_index+0x3c>)
    33d6:	2000      	movs	r0, #0
    33d8:	4b05      	ldr	r3, [pc, #20]	; (33f0 <_get_sercom_index+0x40>)
    33da:	4798      	blx	r3
    33dc:	2000      	movs	r0, #0
    33de:	bd10      	pop	{r4, pc}
    33e0:	00003315 	.word	0x00003315
    33e4:	0000abf0 	.word	0x0000abf0
    33e8:	0000025e 	.word	0x0000025e
    33ec:	0000ac54 	.word	0x0000ac54
    33f0:	000026a1 	.word	0x000026a1

000033f4 <_usart_init>:
    33f4:	b570      	push	{r4, r5, r6, lr}
    33f6:	0004      	movs	r4, r0
    33f8:	4b38      	ldr	r3, [pc, #224]	; (34dc <_usart_init+0xe8>)
    33fa:	4798      	blx	r3
    33fc:	69e3      	ldr	r3, [r4, #28]
    33fe:	07db      	lsls	r3, r3, #31
    3400:	d41d      	bmi.n	343e <_usart_init+0x4a>
    3402:	0083      	lsls	r3, r0, #2
    3404:	181b      	adds	r3, r3, r0
    3406:	009a      	lsls	r2, r3, #2
    3408:	4b35      	ldr	r3, [pc, #212]	; (34e0 <_usart_init+0xec>)
    340a:	189b      	adds	r3, r3, r2
    340c:	685a      	ldr	r2, [r3, #4]
    340e:	231c      	movs	r3, #28
    3410:	401a      	ands	r2, r3
    3412:	69e3      	ldr	r3, [r4, #28]
    3414:	079b      	lsls	r3, r3, #30
    3416:	d1fc      	bne.n	3412 <_usart_init+0x1e>
    3418:	6823      	ldr	r3, [r4, #0]
    341a:	079b      	lsls	r3, r3, #30
    341c:	d509      	bpl.n	3432 <_usart_init+0x3e>
    341e:	6823      	ldr	r3, [r4, #0]
    3420:	2102      	movs	r1, #2
    3422:	438b      	bics	r3, r1
    3424:	6023      	str	r3, [r4, #0]
    3426:	69e3      	ldr	r3, [r4, #28]
    3428:	079b      	lsls	r3, r3, #30
    342a:	d1fc      	bne.n	3426 <_usart_init+0x32>
    342c:	69e3      	ldr	r3, [r4, #28]
    342e:	079b      	lsls	r3, r3, #30
    3430:	d4fc      	bmi.n	342c <_usart_init+0x38>
    3432:	2301      	movs	r3, #1
    3434:	4313      	orrs	r3, r2
    3436:	6023      	str	r3, [r4, #0]
    3438:	69e3      	ldr	r3, [r4, #28]
    343a:	079b      	lsls	r3, r3, #30
    343c:	d1fc      	bne.n	3438 <_usart_init+0x44>
    343e:	69e3      	ldr	r3, [r4, #28]
    3440:	07db      	lsls	r3, r3, #31
    3442:	d4fc      	bmi.n	343e <_usart_init+0x4a>
    3444:	0083      	lsls	r3, r0, #2
    3446:	181b      	adds	r3, r3, r0
    3448:	009a      	lsls	r2, r3, #2
    344a:	4b25      	ldr	r3, [pc, #148]	; (34e0 <_usart_init+0xec>)
    344c:	189b      	adds	r3, r3, r2
    344e:	685b      	ldr	r3, [r3, #4]
    3450:	6023      	str	r3, [r4, #0]
    3452:	69e3      	ldr	r3, [r4, #28]
    3454:	079b      	lsls	r3, r3, #30
    3456:	d1fc      	bne.n	3452 <_usart_init+0x5e>
    3458:	0083      	lsls	r3, r0, #2
    345a:	181b      	adds	r3, r3, r0
    345c:	009a      	lsls	r2, r3, #2
    345e:	4b20      	ldr	r3, [pc, #128]	; (34e0 <_usart_init+0xec>)
    3460:	189b      	adds	r3, r3, r2
    3462:	689b      	ldr	r3, [r3, #8]
    3464:	6063      	str	r3, [r4, #4]
    3466:	69e3      	ldr	r3, [r4, #28]
    3468:	075b      	lsls	r3, r3, #29
    346a:	d1fc      	bne.n	3466 <_usart_init+0x72>
    346c:	0083      	lsls	r3, r0, #2
    346e:	181b      	adds	r3, r3, r0
    3470:	009a      	lsls	r2, r3, #2
    3472:	4b1b      	ldr	r3, [pc, #108]	; (34e0 <_usart_init+0xec>)
    3474:	189b      	adds	r3, r3, r2
    3476:	685b      	ldr	r3, [r3, #4]
    3478:	049a      	lsls	r2, r3, #18
    347a:	d40b      	bmi.n	3494 <_usart_init+0xa0>
    347c:	22c0      	movs	r2, #192	; 0xc0
    347e:	01d2      	lsls	r2, r2, #7
    3480:	4213      	tst	r3, r2
    3482:	d107      	bne.n	3494 <_usart_init+0xa0>
    3484:	0083      	lsls	r3, r0, #2
    3486:	181b      	adds	r3, r3, r0
    3488:	009a      	lsls	r2, r3, #2
    348a:	4b15      	ldr	r3, [pc, #84]	; (34e0 <_usart_init+0xec>)
    348c:	189b      	adds	r3, r3, r2
    348e:	899b      	ldrh	r3, [r3, #12]
    3490:	81a3      	strh	r3, [r4, #12]
    3492:	e015      	b.n	34c0 <_usart_init+0xcc>
    3494:	0083      	lsls	r3, r0, #2
    3496:	181b      	adds	r3, r3, r0
    3498:	009a      	lsls	r2, r3, #2
    349a:	4911      	ldr	r1, [pc, #68]	; (34e0 <_usart_init+0xec>)
    349c:	1889      	adds	r1, r1, r2
    349e:	898a      	ldrh	r2, [r1, #12]
    34a0:	89a3      	ldrh	r3, [r4, #12]
    34a2:	04d2      	lsls	r2, r2, #19
    34a4:	0cd2      	lsrs	r2, r2, #19
    34a6:	0b5b      	lsrs	r3, r3, #13
    34a8:	035b      	lsls	r3, r3, #13
    34aa:	4313      	orrs	r3, r2
    34ac:	81a3      	strh	r3, [r4, #12]
    34ae:	7b8b      	ldrb	r3, [r1, #14]
    34b0:	2207      	movs	r2, #7
    34b2:	401a      	ands	r2, r3
    34b4:	89a3      	ldrh	r3, [r4, #12]
    34b6:	0352      	lsls	r2, r2, #13
    34b8:	04db      	lsls	r3, r3, #19
    34ba:	0cdb      	lsrs	r3, r3, #19
    34bc:	4313      	orrs	r3, r2
    34be:	81a3      	strh	r3, [r4, #12]
    34c0:	4a07      	ldr	r2, [pc, #28]	; (34e0 <_usart_init+0xec>)
    34c2:	0083      	lsls	r3, r0, #2
    34c4:	181d      	adds	r5, r3, r0
    34c6:	00a9      	lsls	r1, r5, #2
    34c8:	000d      	movs	r5, r1
    34ca:	1851      	adds	r1, r2, r1
    34cc:	7bc9      	ldrb	r1, [r1, #15]
    34ce:	73a1      	strb	r1, [r4, #14]
    34d0:	1952      	adds	r2, r2, r5
    34d2:	7c12      	ldrb	r2, [r2, #16]
    34d4:	2330      	movs	r3, #48	; 0x30
    34d6:	54e2      	strb	r2, [r4, r3]
    34d8:	2000      	movs	r0, #0
    34da:	bd70      	pop	{r4, r5, r6, pc}
    34dc:	000033b1 	.word	0x000033b1
    34e0:	0000abf0 	.word	0x0000abf0

000034e4 <_get_i2cm_index>:
    34e4:	b510      	push	{r4, lr}
    34e6:	4b0e      	ldr	r3, [pc, #56]	; (3520 <_get_i2cm_index+0x3c>)
    34e8:	4798      	blx	r3
    34ea:	2300      	movs	r3, #0
    34ec:	2b00      	cmp	r3, #0
    34ee:	d008      	beq.n	3502 <_get_i2cm_index+0x1e>
    34f0:	22f0      	movs	r2, #240	; 0xf0
    34f2:	0092      	lsls	r2, r2, #2
    34f4:	490b      	ldr	r1, [pc, #44]	; (3524 <_get_i2cm_index+0x40>)
    34f6:	2000      	movs	r0, #0
    34f8:	4b0b      	ldr	r3, [pc, #44]	; (3528 <_get_i2cm_index+0x44>)
    34fa:	4798      	blx	r3
    34fc:	2001      	movs	r0, #1
    34fe:	4240      	negs	r0, r0
    3500:	bd10      	pop	{r4, pc}
    3502:	005a      	lsls	r2, r3, #1
    3504:	18d2      	adds	r2, r2, r3
    3506:	00d1      	lsls	r1, r2, #3
    3508:	4a08      	ldr	r2, [pc, #32]	; (352c <_get_i2cm_index+0x48>)
    350a:	1852      	adds	r2, r2, r1
    350c:	2128      	movs	r1, #40	; 0x28
    350e:	5c52      	ldrb	r2, [r2, r1]
    3510:	4290      	cmp	r0, r2
    3512:	d002      	beq.n	351a <_get_i2cm_index+0x36>
    3514:	3301      	adds	r3, #1
    3516:	b2db      	uxtb	r3, r3
    3518:	e7e8      	b.n	34ec <_get_i2cm_index+0x8>
    351a:	b258      	sxtb	r0, r3
    351c:	e7f0      	b.n	3500 <_get_i2cm_index+0x1c>
    351e:	46c0      	nop			; (mov r8, r8)
    3520:	00003315 	.word	0x00003315
    3524:	0000ac54 	.word	0x0000ac54
    3528:	000026a1 	.word	0x000026a1
    352c:	0000abf0 	.word	0x0000abf0

00003530 <_i2c_m_sync_init_impl>:
    3530:	b570      	push	{r4, r5, r6, lr}
    3532:	0005      	movs	r5, r0
    3534:	000c      	movs	r4, r1
    3536:	0008      	movs	r0, r1
    3538:	4b2e      	ldr	r3, [pc, #184]	; (35f4 <_i2c_m_sync_init_impl+0xc4>)
    353a:	4798      	blx	r3
    353c:	b2c0      	uxtb	r0, r0
    353e:	69e3      	ldr	r3, [r4, #28]
    3540:	07db      	lsls	r3, r3, #31
    3542:	d41d      	bmi.n	3580 <_i2c_m_sync_init_impl+0x50>
    3544:	0043      	lsls	r3, r0, #1
    3546:	181b      	adds	r3, r3, r0
    3548:	00da      	lsls	r2, r3, #3
    354a:	4b2b      	ldr	r3, [pc, #172]	; (35f8 <_i2c_m_sync_init_impl+0xc8>)
    354c:	189b      	adds	r3, r3, r2
    354e:	6ada      	ldr	r2, [r3, #44]	; 0x2c
    3550:	231c      	movs	r3, #28
    3552:	401a      	ands	r2, r3
    3554:	69e3      	ldr	r3, [r4, #28]
    3556:	079b      	lsls	r3, r3, #30
    3558:	d1fc      	bne.n	3554 <_i2c_m_sync_init_impl+0x24>
    355a:	6823      	ldr	r3, [r4, #0]
    355c:	079b      	lsls	r3, r3, #30
    355e:	d509      	bpl.n	3574 <_i2c_m_sync_init_impl+0x44>
    3560:	6823      	ldr	r3, [r4, #0]
    3562:	2102      	movs	r1, #2
    3564:	438b      	bics	r3, r1
    3566:	6023      	str	r3, [r4, #0]
    3568:	69e3      	ldr	r3, [r4, #28]
    356a:	079b      	lsls	r3, r3, #30
    356c:	d1fc      	bne.n	3568 <_i2c_m_sync_init_impl+0x38>
    356e:	69e3      	ldr	r3, [r4, #28]
    3570:	079b      	lsls	r3, r3, #30
    3572:	d4fc      	bmi.n	356e <_i2c_m_sync_init_impl+0x3e>
    3574:	2301      	movs	r3, #1
    3576:	4313      	orrs	r3, r2
    3578:	6023      	str	r3, [r4, #0]
    357a:	69e3      	ldr	r3, [r4, #28]
    357c:	079b      	lsls	r3, r3, #30
    357e:	d1fc      	bne.n	357a <_i2c_m_sync_init_impl+0x4a>
    3580:	69e3      	ldr	r3, [r4, #28]
    3582:	07db      	lsls	r3, r3, #31
    3584:	d4fc      	bmi.n	3580 <_i2c_m_sync_init_impl+0x50>
    3586:	0043      	lsls	r3, r0, #1
    3588:	181b      	adds	r3, r3, r0
    358a:	00da      	lsls	r2, r3, #3
    358c:	4b1a      	ldr	r3, [pc, #104]	; (35f8 <_i2c_m_sync_init_impl+0xc8>)
    358e:	189b      	adds	r3, r3, r2
    3590:	6adb      	ldr	r3, [r3, #44]	; 0x2c
    3592:	6023      	str	r3, [r4, #0]
    3594:	69e3      	ldr	r3, [r4, #28]
    3596:	079b      	lsls	r3, r3, #30
    3598:	d1fc      	bne.n	3594 <_i2c_m_sync_init_impl+0x64>
    359a:	0043      	lsls	r3, r0, #1
    359c:	181b      	adds	r3, r3, r0
    359e:	00da      	lsls	r2, r3, #3
    35a0:	4b15      	ldr	r3, [pc, #84]	; (35f8 <_i2c_m_sync_init_impl+0xc8>)
    35a2:	189b      	adds	r3, r3, r2
    35a4:	6b1b      	ldr	r3, [r3, #48]	; 0x30
    35a6:	6063      	str	r3, [r4, #4]
    35a8:	69e3      	ldr	r3, [r4, #28]
    35aa:	075b      	lsls	r3, r3, #29
    35ac:	d4fc      	bmi.n	35a8 <_i2c_m_sync_init_impl+0x78>
    35ae:	0042      	lsls	r2, r0, #1
    35b0:	1812      	adds	r2, r2, r0
    35b2:	00d1      	lsls	r1, r2, #3
    35b4:	4b10      	ldr	r3, [pc, #64]	; (35f8 <_i2c_m_sync_init_impl+0xc8>)
    35b6:	185b      	adds	r3, r3, r1
    35b8:	6b5a      	ldr	r2, [r3, #52]	; 0x34
    35ba:	60e2      	str	r2, [r4, #12]
    35bc:	6ada      	ldr	r2, [r3, #44]	; 0x2c
    35be:	0e12      	lsrs	r2, r2, #24
    35c0:	2303      	movs	r3, #3
    35c2:	401a      	ands	r2, r3
    35c4:	81aa      	strh	r2, [r5, #12]
    35c6:	3b02      	subs	r3, #2
    35c8:	4293      	cmp	r3, r2
    35ca:	419b      	sbcs	r3, r3
    35cc:	425b      	negs	r3, r3
    35ce:	6a62      	ldr	r2, [r4, #36]	; 0x24
    35d0:	490a      	ldr	r1, [pc, #40]	; (35fc <_i2c_m_sync_init_impl+0xcc>)
    35d2:	400a      	ands	r2, r1
    35d4:	039b      	lsls	r3, r3, #14
    35d6:	4313      	orrs	r3, r2
    35d8:	6263      	str	r3, [r4, #36]	; 0x24
    35da:	69e3      	ldr	r3, [r4, #28]
    35dc:	075b      	lsls	r3, r3, #29
    35de:	d4fc      	bmi.n	35da <_i2c_m_sync_init_impl+0xaa>
    35e0:	0043      	lsls	r3, r0, #1
    35e2:	1818      	adds	r0, r3, r0
    35e4:	00c2      	lsls	r2, r0, #3
    35e6:	4b04      	ldr	r3, [pc, #16]	; (35f8 <_i2c_m_sync_init_impl+0xc8>)
    35e8:	189b      	adds	r3, r3, r2
    35ea:	8f5b      	ldrh	r3, [r3, #58]	; 0x3a
    35ec:	81eb      	strh	r3, [r5, #14]
    35ee:	2000      	movs	r0, #0
    35f0:	bd70      	pop	{r4, r5, r6, pc}
    35f2:	46c0      	nop			; (mov r8, r8)
    35f4:	000034e5 	.word	0x000034e5
    35f8:	0000abf0 	.word	0x0000abf0
    35fc:	ffffbfff 	.word	0xffffbfff

00003600 <_sercom_i2c_sync_send_address>:
    3600:	b570      	push	{r4, r5, r6, lr}
    3602:	0005      	movs	r5, r0
    3604:	6904      	ldr	r4, [r0, #16]
    3606:	6823      	ldr	r3, [r4, #0]
    3608:	0edb      	lsrs	r3, r3, #27
    360a:	2601      	movs	r6, #1
    360c:	401e      	ands	r6, r3
    360e:	1e43      	subs	r3, r0, #1
    3610:	4198      	sbcs	r0, r3
    3612:	b2c0      	uxtb	r0, r0
    3614:	4a8e      	ldr	r2, [pc, #568]	; (3850 <_sercom_i2c_sync_send_address+0x250>)
    3616:	498f      	ldr	r1, [pc, #572]	; (3854 <_sercom_i2c_sync_send_address+0x254>)
    3618:	4b8f      	ldr	r3, [pc, #572]	; (3858 <_sercom_i2c_sync_send_address+0x258>)
    361a:	4798      	blx	r3
    361c:	686b      	ldr	r3, [r5, #4]
    361e:	2b01      	cmp	r3, #1
    3620:	d04d      	beq.n	36be <_sercom_i2c_sync_send_address+0xbe>
    3622:	6863      	ldr	r3, [r4, #4]
    3624:	4a8d      	ldr	r2, [pc, #564]	; (385c <_sercom_i2c_sync_send_address+0x25c>)
    3626:	4013      	ands	r3, r2
    3628:	6063      	str	r3, [r4, #4]
    362a:	69e3      	ldr	r3, [r4, #28]
    362c:	075b      	lsls	r3, r3, #29
    362e:	d4fc      	bmi.n	362a <_sercom_i2c_sync_send_address+0x2a>
    3630:	882b      	ldrh	r3, [r5, #0]
    3632:	055a      	lsls	r2, r3, #21
    3634:	d54e      	bpl.n	36d4 <_sercom_i2c_sync_send_address+0xd4>
    3636:	886a      	ldrh	r2, [r5, #2]
    3638:	07d2      	lsls	r2, r2, #31
    363a:	d504      	bpl.n	3646 <_sercom_i2c_sync_send_address+0x46>
    363c:	886a      	ldrh	r2, [r5, #2]
    363e:	2180      	movs	r1, #128	; 0x80
    3640:	00c9      	lsls	r1, r1, #3
    3642:	430a      	orrs	r2, r1
    3644:	806a      	strh	r2, [r5, #2]
    3646:	005b      	lsls	r3, r3, #1
    3648:	4a85      	ldr	r2, [pc, #532]	; (3860 <_sercom_i2c_sync_send_address+0x260>)
    364a:	401a      	ands	r2, r3
    364c:	69e3      	ldr	r3, [r4, #28]
    364e:	075b      	lsls	r3, r3, #29
    3650:	d4fc      	bmi.n	364c <_sercom_i2c_sync_send_address+0x4c>
    3652:	6a63      	ldr	r3, [r4, #36]	; 0x24
    3654:	2180      	movs	r1, #128	; 0x80
    3656:	01c9      	lsls	r1, r1, #7
    3658:	400b      	ands	r3, r1
    365a:	4313      	orrs	r3, r2
    365c:	2280      	movs	r2, #128	; 0x80
    365e:	0212      	lsls	r2, r2, #8
    3660:	4313      	orrs	r3, r2
    3662:	6263      	str	r3, [r4, #36]	; 0x24
    3664:	69e3      	ldr	r3, [r4, #28]
    3666:	075b      	lsls	r3, r3, #29
    3668:	d4fc      	bmi.n	3664 <_sercom_i2c_sync_send_address+0x64>
    366a:	692e      	ldr	r6, [r5, #16]
    366c:	4a7d      	ldr	r2, [pc, #500]	; (3864 <_sercom_i2c_sync_send_address+0x264>)
    366e:	7e33      	ldrb	r3, [r6, #24]
    3670:	b2db      	uxtb	r3, r3
    3672:	0018      	movs	r0, r3
    3674:	1e51      	subs	r1, r2, #1
    3676:	2a00      	cmp	r2, #0
    3678:	d002      	beq.n	3680 <_sercom_i2c_sync_send_address+0x80>
    367a:	000a      	movs	r2, r1
    367c:	079b      	lsls	r3, r3, #30
    367e:	d0f6      	beq.n	366e <_sercom_i2c_sync_send_address+0x6e>
    3680:	6823      	ldr	r3, [r4, #0]
    3682:	0edb      	lsrs	r3, r3, #27
    3684:	2201      	movs	r2, #1
    3686:	401a      	ands	r2, r3
    3688:	69e3      	ldr	r3, [r4, #28]
    368a:	075b      	lsls	r3, r3, #29
    368c:	d4fc      	bmi.n	3688 <_sercom_i2c_sync_send_address+0x88>
    368e:	8b63      	ldrh	r3, [r4, #26]
    3690:	b29b      	uxth	r3, r3
    3692:	07c1      	lsls	r1, r0, #31
    3694:	d400      	bmi.n	3698 <_sercom_i2c_sync_send_address+0x98>
    3696:	e08f      	b.n	37b8 <_sercom_i2c_sync_send_address+0x1b8>
    3698:	079a      	lsls	r2, r3, #30
    369a:	d52f      	bpl.n	36fc <_sercom_i2c_sync_send_address+0xfc>
    369c:	2201      	movs	r2, #1
    369e:	7622      	strb	r2, [r4, #24]
    36a0:	886a      	ldrh	r2, [r5, #2]
    36a2:	2180      	movs	r1, #128	; 0x80
    36a4:	0149      	lsls	r1, r1, #5
    36a6:	430a      	orrs	r2, r1
    36a8:	806a      	strh	r2, [r5, #2]
    36aa:	886a      	ldrh	r2, [r5, #2]
    36ac:	496e      	ldr	r1, [pc, #440]	; (3868 <_sercom_i2c_sync_send_address+0x268>)
    36ae:	400a      	ands	r2, r1
    36b0:	806a      	strh	r2, [r5, #2]
    36b2:	07db      	lsls	r3, r3, #31
    36b4:	d400      	bmi.n	36b8 <_sercom_i2c_sync_send_address+0xb8>
    36b6:	e0c6      	b.n	3846 <_sercom_i2c_sync_send_address+0x246>
    36b8:	2005      	movs	r0, #5
    36ba:	4240      	negs	r0, r0
    36bc:	e0a2      	b.n	3804 <_sercom_i2c_sync_send_address+0x204>
    36be:	2e00      	cmp	r6, #0
    36c0:	d0af      	beq.n	3622 <_sercom_i2c_sync_send_address+0x22>
    36c2:	6862      	ldr	r2, [r4, #4]
    36c4:	2380      	movs	r3, #128	; 0x80
    36c6:	02db      	lsls	r3, r3, #11
    36c8:	4313      	orrs	r3, r2
    36ca:	6063      	str	r3, [r4, #4]
    36cc:	69e3      	ldr	r3, [r4, #28]
    36ce:	075b      	lsls	r3, r3, #29
    36d0:	d4fc      	bmi.n	36cc <_sercom_i2c_sync_send_address+0xcc>
    36d2:	e7ad      	b.n	3630 <_sercom_i2c_sync_send_address+0x30>
    36d4:	005b      	lsls	r3, r3, #1
    36d6:	22ff      	movs	r2, #255	; 0xff
    36d8:	4013      	ands	r3, r2
    36da:	886a      	ldrh	r2, [r5, #2]
    36dc:	2101      	movs	r1, #1
    36de:	400a      	ands	r2, r1
    36e0:	431a      	orrs	r2, r3
    36e2:	69e3      	ldr	r3, [r4, #28]
    36e4:	075b      	lsls	r3, r3, #29
    36e6:	d4fc      	bmi.n	36e2 <_sercom_i2c_sync_send_address+0xe2>
    36e8:	6a63      	ldr	r3, [r4, #36]	; 0x24
    36ea:	2180      	movs	r1, #128	; 0x80
    36ec:	01c9      	lsls	r1, r1, #7
    36ee:	400b      	ands	r3, r1
    36f0:	4313      	orrs	r3, r2
    36f2:	6263      	str	r3, [r4, #36]	; 0x24
    36f4:	69e3      	ldr	r3, [r4, #28]
    36f6:	075b      	lsls	r3, r3, #29
    36f8:	d4fc      	bmi.n	36f4 <_sercom_i2c_sync_send_address+0xf4>
    36fa:	e7b6      	b.n	366a <_sercom_i2c_sync_send_address+0x6a>
    36fc:	075b      	lsls	r3, r3, #29
    36fe:	d41b      	bmi.n	3738 <_sercom_i2c_sync_send_address+0x138>
    3700:	886b      	ldrh	r3, [r5, #2]
    3702:	055b      	lsls	r3, r3, #21
    3704:	d534      	bpl.n	3770 <_sercom_i2c_sync_send_address+0x170>
    3706:	882a      	ldrh	r2, [r5, #0]
    3708:	1212      	asrs	r2, r2, #8
    370a:	0052      	lsls	r2, r2, #1
    370c:	2306      	movs	r3, #6
    370e:	401a      	ands	r2, r3
    3710:	69e3      	ldr	r3, [r4, #28]
    3712:	075b      	lsls	r3, r3, #29
    3714:	d4fc      	bmi.n	3710 <_sercom_i2c_sync_send_address+0x110>
    3716:	6a63      	ldr	r3, [r4, #36]	; 0x24
    3718:	2180      	movs	r1, #128	; 0x80
    371a:	01c9      	lsls	r1, r1, #7
    371c:	400b      	ands	r3, r1
    371e:	4313      	orrs	r3, r2
    3720:	22f1      	movs	r2, #241	; 0xf1
    3722:	4313      	orrs	r3, r2
    3724:	6263      	str	r3, [r4, #36]	; 0x24
    3726:	69e3      	ldr	r3, [r4, #28]
    3728:	075b      	lsls	r3, r3, #29
    372a:	d4fc      	bmi.n	3726 <_sercom_i2c_sync_send_address+0x126>
    372c:	886b      	ldrh	r3, [r5, #2]
    372e:	4a4f      	ldr	r2, [pc, #316]	; (386c <_sercom_i2c_sync_send_address+0x26c>)
    3730:	4013      	ands	r3, r2
    3732:	806b      	strh	r3, [r5, #2]
    3734:	2000      	movs	r0, #0
    3736:	e065      	b.n	3804 <_sercom_i2c_sync_send_address+0x204>
    3738:	686b      	ldr	r3, [r5, #4]
    373a:	2b00      	cmp	r3, #0
    373c:	dd04      	ble.n	3748 <_sercom_i2c_sync_send_address+0x148>
    373e:	886b      	ldrh	r3, [r5, #2]
    3740:	2280      	movs	r2, #128	; 0x80
    3742:	0152      	lsls	r2, r2, #5
    3744:	4313      	orrs	r3, r2
    3746:	806b      	strh	r3, [r5, #2]
    3748:	886b      	ldrh	r3, [r5, #2]
    374a:	b21b      	sxth	r3, r3
    374c:	2b00      	cmp	r3, #0
    374e:	db06      	blt.n	375e <_sercom_i2c_sync_send_address+0x15e>
    3750:	886b      	ldrh	r3, [r5, #2]
    3752:	4a45      	ldr	r2, [pc, #276]	; (3868 <_sercom_i2c_sync_send_address+0x268>)
    3754:	4013      	ands	r3, r2
    3756:	806b      	strh	r3, [r5, #2]
    3758:	2002      	movs	r0, #2
    375a:	4240      	negs	r0, r0
    375c:	e052      	b.n	3804 <_sercom_i2c_sync_send_address+0x204>
    375e:	6862      	ldr	r2, [r4, #4]
    3760:	23c0      	movs	r3, #192	; 0xc0
    3762:	029b      	lsls	r3, r3, #10
    3764:	4313      	orrs	r3, r2
    3766:	6063      	str	r3, [r4, #4]
    3768:	69e3      	ldr	r3, [r4, #28]
    376a:	075b      	lsls	r3, r3, #29
    376c:	d4fc      	bmi.n	3768 <_sercom_i2c_sync_send_address+0x168>
    376e:	e7ef      	b.n	3750 <_sercom_i2c_sync_send_address+0x150>
    3770:	6868      	ldr	r0, [r5, #4]
    3772:	2800      	cmp	r0, #0
    3774:	d111      	bne.n	379a <_sercom_i2c_sync_send_address+0x19a>
    3776:	886b      	ldrh	r3, [r5, #2]
    3778:	b21b      	sxth	r3, r3
    377a:	2b00      	cmp	r3, #0
    377c:	db04      	blt.n	3788 <_sercom_i2c_sync_send_address+0x188>
    377e:	886b      	ldrh	r3, [r5, #2]
    3780:	4a39      	ldr	r2, [pc, #228]	; (3868 <_sercom_i2c_sync_send_address+0x268>)
    3782:	4013      	ands	r3, r2
    3784:	806b      	strh	r3, [r5, #2]
    3786:	e03d      	b.n	3804 <_sercom_i2c_sync_send_address+0x204>
    3788:	6862      	ldr	r2, [r4, #4]
    378a:	23c0      	movs	r3, #192	; 0xc0
    378c:	029b      	lsls	r3, r3, #10
    378e:	4313      	orrs	r3, r2
    3790:	6063      	str	r3, [r4, #4]
    3792:	69e3      	ldr	r3, [r4, #28]
    3794:	075b      	lsls	r3, r3, #29
    3796:	d4fc      	bmi.n	3792 <_sercom_i2c_sync_send_address+0x192>
    3798:	e7f1      	b.n	377e <_sercom_i2c_sync_send_address+0x17e>
    379a:	68ab      	ldr	r3, [r5, #8]
    379c:	781a      	ldrb	r2, [r3, #0]
    379e:	2328      	movs	r3, #40	; 0x28
    37a0:	54e2      	strb	r2, [r4, r3]
    37a2:	69e3      	ldr	r3, [r4, #28]
    37a4:	075b      	lsls	r3, r3, #29
    37a6:	d4fc      	bmi.n	37a2 <_sercom_i2c_sync_send_address+0x1a2>
    37a8:	68ab      	ldr	r3, [r5, #8]
    37aa:	3301      	adds	r3, #1
    37ac:	60ab      	str	r3, [r5, #8]
    37ae:	686b      	ldr	r3, [r5, #4]
    37b0:	3b01      	subs	r3, #1
    37b2:	606b      	str	r3, [r5, #4]
    37b4:	2000      	movs	r0, #0
    37b6:	e025      	b.n	3804 <_sercom_i2c_sync_send_address+0x204>
    37b8:	0781      	lsls	r1, r0, #30
    37ba:	d547      	bpl.n	384c <_sercom_i2c_sync_send_address+0x24c>
    37bc:	6869      	ldr	r1, [r5, #4]
    37be:	2900      	cmp	r1, #0
    37c0:	d03c      	beq.n	383c <_sercom_i2c_sync_send_address+0x23c>
    37c2:	075b      	lsls	r3, r3, #29
    37c4:	d43a      	bmi.n	383c <_sercom_i2c_sync_send_address+0x23c>
    37c6:	3901      	subs	r1, #1
    37c8:	6069      	str	r1, [r5, #4]
    37ca:	2900      	cmp	r1, #0
    37cc:	d101      	bne.n	37d2 <_sercom_i2c_sync_send_address+0x1d2>
    37ce:	2a00      	cmp	r2, #0
    37d0:	d01b      	beq.n	380a <_sercom_i2c_sync_send_address+0x20a>
    37d2:	2901      	cmp	r1, #1
    37d4:	d017      	beq.n	3806 <_sercom_i2c_sync_send_address+0x206>
    37d6:	686b      	ldr	r3, [r5, #4]
    37d8:	2b00      	cmp	r3, #0
    37da:	d107      	bne.n	37ec <_sercom_i2c_sync_send_address+0x1ec>
    37dc:	886b      	ldrh	r3, [r5, #2]
    37de:	b21b      	sxth	r3, r3
    37e0:	2b00      	cmp	r3, #0
    37e2:	db1b      	blt.n	381c <_sercom_i2c_sync_send_address+0x21c>
    37e4:	886b      	ldrh	r3, [r5, #2]
    37e6:	4a20      	ldr	r2, [pc, #128]	; (3868 <_sercom_i2c_sync_send_address+0x268>)
    37e8:	4013      	ands	r3, r2
    37ea:	806b      	strh	r3, [r5, #2]
    37ec:	68aa      	ldr	r2, [r5, #8]
    37ee:	1c53      	adds	r3, r2, #1
    37f0:	60ab      	str	r3, [r5, #8]
    37f2:	69e3      	ldr	r3, [r4, #28]
    37f4:	075b      	lsls	r3, r3, #29
    37f6:	d4fc      	bmi.n	37f2 <_sercom_i2c_sync_send_address+0x1f2>
    37f8:	2328      	movs	r3, #40	; 0x28
    37fa:	5ce3      	ldrb	r3, [r4, r3]
    37fc:	7013      	strb	r3, [r2, #0]
    37fe:	2302      	movs	r3, #2
    3800:	7623      	strb	r3, [r4, #24]
    3802:	2000      	movs	r0, #0
    3804:	bd70      	pop	{r4, r5, r6, pc}
    3806:	2a00      	cmp	r2, #0
    3808:	d0e5      	beq.n	37d6 <_sercom_i2c_sync_send_address+0x1d6>
    380a:	6862      	ldr	r2, [r4, #4]
    380c:	2380      	movs	r3, #128	; 0x80
    380e:	02db      	lsls	r3, r3, #11
    3810:	4313      	orrs	r3, r2
    3812:	6063      	str	r3, [r4, #4]
    3814:	69e3      	ldr	r3, [r4, #28]
    3816:	075b      	lsls	r3, r3, #29
    3818:	d4fc      	bmi.n	3814 <_sercom_i2c_sync_send_address+0x214>
    381a:	e7dc      	b.n	37d6 <_sercom_i2c_sync_send_address+0x1d6>
    381c:	6863      	ldr	r3, [r4, #4]
    381e:	4a12      	ldr	r2, [pc, #72]	; (3868 <_sercom_i2c_sync_send_address+0x268>)
    3820:	4013      	ands	r3, r2
    3822:	6063      	str	r3, [r4, #4]
    3824:	69e3      	ldr	r3, [r4, #28]
    3826:	075b      	lsls	r3, r3, #29
    3828:	d4fc      	bmi.n	3824 <_sercom_i2c_sync_send_address+0x224>
    382a:	6862      	ldr	r2, [r4, #4]
    382c:	23c0      	movs	r3, #192	; 0xc0
    382e:	029b      	lsls	r3, r3, #10
    3830:	4313      	orrs	r3, r2
    3832:	6063      	str	r3, [r4, #4]
    3834:	69e3      	ldr	r3, [r4, #28]
    3836:	075b      	lsls	r3, r3, #29
    3838:	d4fc      	bmi.n	3834 <_sercom_i2c_sync_send_address+0x234>
    383a:	e7d3      	b.n	37e4 <_sercom_i2c_sync_send_address+0x1e4>
    383c:	2302      	movs	r3, #2
    383e:	7623      	strb	r3, [r4, #24]
    3840:	2002      	movs	r0, #2
    3842:	4240      	negs	r0, r0
    3844:	e7de      	b.n	3804 <_sercom_i2c_sync_send_address+0x204>
    3846:	2004      	movs	r0, #4
    3848:	4240      	negs	r0, r0
    384a:	e7db      	b.n	3804 <_sercom_i2c_sync_send_address+0x204>
    384c:	2000      	movs	r0, #0
    384e:	e7d9      	b.n	3804 <_sercom_i2c_sync_send_address+0x204>
    3850:	000005bc 	.word	0x000005bc
    3854:	0000ac54 	.word	0x0000ac54
    3858:	000026a1 	.word	0x000026a1
    385c:	fffbffff 	.word	0xfffbffff
    3860:	000007fe 	.word	0x000007fe
    3864:	0000ffff 	.word	0x0000ffff
    3868:	fffffeff 	.word	0xfffffeff
    386c:	fffffbff 	.word	0xfffffbff

00003870 <_usart_sync_init>:
    3870:	b570      	push	{r4, r5, r6, lr}
    3872:	0005      	movs	r5, r0
    3874:	000c      	movs	r4, r1
    3876:	1e43      	subs	r3, r0, #1
    3878:	4198      	sbcs	r0, r3
    387a:	b2c0      	uxtb	r0, r0
    387c:	22b6      	movs	r2, #182	; 0xb6
    387e:	4904      	ldr	r1, [pc, #16]	; (3890 <_usart_sync_init+0x20>)
    3880:	4b04      	ldr	r3, [pc, #16]	; (3894 <_usart_sync_init+0x24>)
    3882:	4798      	blx	r3
    3884:	602c      	str	r4, [r5, #0]
    3886:	0020      	movs	r0, r4
    3888:	4b03      	ldr	r3, [pc, #12]	; (3898 <_usart_sync_init+0x28>)
    388a:	4798      	blx	r3
    388c:	bd70      	pop	{r4, r5, r6, pc}
    388e:	46c0      	nop			; (mov r8, r8)
    3890:	0000ac54 	.word	0x0000ac54
    3894:	000026a1 	.word	0x000026a1
    3898:	000033f5 	.word	0x000033f5

0000389c <_usart_async_init>:
    389c:	b570      	push	{r4, r5, r6, lr}
    389e:	0006      	movs	r6, r0
    38a0:	000c      	movs	r4, r1
    38a2:	1e43      	subs	r3, r0, #1
    38a4:	4198      	sbcs	r0, r3
    38a6:	b2c0      	uxtb	r0, r0
    38a8:	22c4      	movs	r2, #196	; 0xc4
    38aa:	4919      	ldr	r1, [pc, #100]	; (3910 <_usart_async_init+0x74>)
    38ac:	4b19      	ldr	r3, [pc, #100]	; (3914 <_usart_async_init+0x78>)
    38ae:	4798      	blx	r3
    38b0:	0020      	movs	r0, r4
    38b2:	4b19      	ldr	r3, [pc, #100]	; (3918 <_usart_async_init+0x7c>)
    38b4:	4798      	blx	r3
    38b6:	1e05      	subs	r5, r0, #0
    38b8:	d001      	beq.n	38be <_usart_async_init+0x22>
    38ba:	0028      	movs	r0, r5
    38bc:	bd70      	pop	{r4, r5, r6, pc}
    38be:	61b4      	str	r4, [r6, #24]
    38c0:	0031      	movs	r1, r6
    38c2:	0020      	movs	r0, r4
    38c4:	4b15      	ldr	r3, [pc, #84]	; (391c <_usart_async_init+0x80>)
    38c6:	4798      	blx	r3
    38c8:	0020      	movs	r0, r4
    38ca:	4b15      	ldr	r3, [pc, #84]	; (3920 <_usart_async_init+0x84>)
    38cc:	4798      	blx	r3
    38ce:	b243      	sxtb	r3, r0
  if ((int32_t)(IRQn) >= 0)
    38d0:	2b00      	cmp	r3, #0
    38d2:	db0a      	blt.n	38ea <_usart_async_init+0x4e>
    NVIC->ICER[0U] = (uint32_t)(1UL << (((uint32_t)IRQn) & 0x1FUL));
    38d4:	211f      	movs	r1, #31
    38d6:	4001      	ands	r1, r0
    38d8:	2201      	movs	r2, #1
    38da:	408a      	lsls	r2, r1
    38dc:	2180      	movs	r1, #128	; 0x80
    38de:	4c11      	ldr	r4, [pc, #68]	; (3924 <_usart_async_init+0x88>)
    38e0:	5062      	str	r2, [r4, r1]
  __ASM volatile ("dsb 0xF":::"memory");
    38e2:	f3bf 8f4f 	dsb	sy
  __ASM volatile ("isb 0xF":::"memory");
    38e6:	f3bf 8f6f 	isb	sy
  if ((int32_t)(IRQn) >= 0)
    38ea:	2b00      	cmp	r3, #0
    38ec:	db07      	blt.n	38fe <_usart_async_init+0x62>
    NVIC->ICPR[0U] = (uint32_t)(1UL << (((uint32_t)IRQn) & 0x1FUL));
    38ee:	211f      	movs	r1, #31
    38f0:	4001      	ands	r1, r0
    38f2:	2201      	movs	r2, #1
    38f4:	408a      	lsls	r2, r1
    38f6:	21c0      	movs	r1, #192	; 0xc0
    38f8:	0049      	lsls	r1, r1, #1
    38fa:	4c0a      	ldr	r4, [pc, #40]	; (3924 <_usart_async_init+0x88>)
    38fc:	5062      	str	r2, [r4, r1]
  if ((int32_t)(IRQn) >= 0)
    38fe:	2b00      	cmp	r3, #0
    3900:	dbdb      	blt.n	38ba <_usart_async_init+0x1e>
    NVIC->ISER[0U] = (uint32_t)(1UL << (((uint32_t)IRQn) & 0x1FUL));
    3902:	231f      	movs	r3, #31
    3904:	4018      	ands	r0, r3
    3906:	3b1e      	subs	r3, #30
    3908:	4083      	lsls	r3, r0
    390a:	4a06      	ldr	r2, [pc, #24]	; (3924 <_usart_async_init+0x88>)
    390c:	6013      	str	r3, [r2, #0]
    390e:	e7d4      	b.n	38ba <_usart_async_init+0x1e>
    3910:	0000ac54 	.word	0x0000ac54
    3914:	000026a1 	.word	0x000026a1
    3918:	000033f5 	.word	0x000033f5
    391c:	00003389 	.word	0x00003389
    3920:	000033a1 	.word	0x000033a1
    3924:	e000e100 	.word	0xe000e100

00003928 <_usart_sync_enable>:
    3928:	6802      	ldr	r2, [r0, #0]
    392a:	6813      	ldr	r3, [r2, #0]
    392c:	2102      	movs	r1, #2
    392e:	430b      	orrs	r3, r1
    3930:	6013      	str	r3, [r2, #0]
    3932:	69d3      	ldr	r3, [r2, #28]
    3934:	079b      	lsls	r3, r3, #30
    3936:	d1fc      	bne.n	3932 <_usart_sync_enable+0xa>
    3938:	4770      	bx	lr

0000393a <_usart_async_enable>:
    393a:	6982      	ldr	r2, [r0, #24]
    393c:	6813      	ldr	r3, [r2, #0]
    393e:	2102      	movs	r1, #2
    3940:	430b      	orrs	r3, r1
    3942:	6013      	str	r3, [r2, #0]
    3944:	69d3      	ldr	r3, [r2, #28]
    3946:	079b      	lsls	r3, r3, #30
    3948:	d1fc      	bne.n	3944 <_usart_async_enable+0xa>
    394a:	4770      	bx	lr

0000394c <_usart_sync_write_byte>:
    394c:	6803      	ldr	r3, [r0, #0]
    394e:	b289      	uxth	r1, r1
    3950:	8519      	strh	r1, [r3, #40]	; 0x28
    3952:	4770      	bx	lr

00003954 <_usart_async_write_byte>:
    3954:	6983      	ldr	r3, [r0, #24]
    3956:	b289      	uxth	r1, r1
    3958:	8519      	strh	r1, [r3, #40]	; 0x28
    395a:	4770      	bx	lr

0000395c <_usart_sync_read_byte>:
    395c:	6803      	ldr	r3, [r0, #0]
    395e:	8d18      	ldrh	r0, [r3, #40]	; 0x28
    3960:	b2c0      	uxtb	r0, r0
    3962:	4770      	bx	lr

00003964 <_usart_sync_is_ready_to_send>:
    3964:	6803      	ldr	r3, [r0, #0]
    3966:	7e18      	ldrb	r0, [r3, #24]
    3968:	2301      	movs	r3, #1
    396a:	4018      	ands	r0, r3
    396c:	4770      	bx	lr

0000396e <_usart_sync_is_transmit_done>:
    396e:	6803      	ldr	r3, [r0, #0]
    3970:	7e1b      	ldrb	r3, [r3, #24]
    3972:	085b      	lsrs	r3, r3, #1
    3974:	2001      	movs	r0, #1
    3976:	4018      	ands	r0, r3
    3978:	4770      	bx	lr

0000397a <_usart_async_is_byte_sent>:
    397a:	6983      	ldr	r3, [r0, #24]
    397c:	7e18      	ldrb	r0, [r3, #24]
    397e:	2301      	movs	r3, #1
    3980:	4018      	ands	r0, r3
    3982:	4770      	bx	lr

00003984 <_usart_sync_is_byte_received>:
    3984:	6803      	ldr	r3, [r0, #0]
    3986:	7e1b      	ldrb	r3, [r3, #24]
    3988:	089b      	lsrs	r3, r3, #2
    398a:	2001      	movs	r0, #1
    398c:	4018      	ands	r0, r3
    398e:	4770      	bx	lr

00003990 <_usart_async_enable_byte_sent_irq>:
    3990:	6983      	ldr	r3, [r0, #24]
    3992:	2201      	movs	r2, #1
    3994:	759a      	strb	r2, [r3, #22]
    3996:	4770      	bx	lr

00003998 <_usart_async_enable_tx_done_irq>:
    3998:	6983      	ldr	r3, [r0, #24]
    399a:	2202      	movs	r2, #2
    399c:	759a      	strb	r2, [r3, #22]
    399e:	4770      	bx	lr

000039a0 <_usart_async_set_irq_state>:
    39a0:	b570      	push	{r4, r5, r6, lr}
    39a2:	0004      	movs	r4, r0
    39a4:	000d      	movs	r5, r1
    39a6:	0016      	movs	r6, r2
    39a8:	1e43      	subs	r3, r0, #1
    39aa:	4198      	sbcs	r0, r3
    39ac:	b2c0      	uxtb	r0, r0
    39ae:	4a17      	ldr	r2, [pc, #92]	; (3a0c <_usart_async_set_irq_state+0x6c>)
    39b0:	4917      	ldr	r1, [pc, #92]	; (3a10 <_usart_async_set_irq_state+0x70>)
    39b2:	4b18      	ldr	r3, [pc, #96]	; (3a14 <_usart_async_set_irq_state+0x74>)
    39b4:	4798      	blx	r3
    39b6:	2d00      	cmp	r5, #0
    39b8:	d00b      	beq.n	39d2 <_usart_async_set_irq_state+0x32>
    39ba:	2d02      	cmp	r5, #2
    39bc:	d009      	beq.n	39d2 <_usart_async_set_irq_state+0x32>
    39be:	2d01      	cmp	r5, #1
    39c0:	d018      	beq.n	39f4 <_usart_async_set_irq_state+0x54>
    39c2:	2d03      	cmp	r5, #3
    39c4:	d10f      	bne.n	39e6 <_usart_async_set_irq_state+0x46>
    39c6:	69a3      	ldr	r3, [r4, #24]
    39c8:	2e00      	cmp	r6, #0
    39ca:	d01c      	beq.n	3a06 <_usart_async_set_irq_state+0x66>
    39cc:	2280      	movs	r2, #128	; 0x80
    39ce:	759a      	strb	r2, [r3, #22]
    39d0:	e009      	b.n	39e6 <_usart_async_set_irq_state+0x46>
    39d2:	69a3      	ldr	r3, [r4, #24]
    39d4:	2e00      	cmp	r6, #0
    39d6:	d107      	bne.n	39e8 <_usart_async_set_irq_state+0x48>
    39d8:	2201      	movs	r2, #1
    39da:	751a      	strb	r2, [r3, #20]
    39dc:	69a3      	ldr	r3, [r4, #24]
    39de:	2e00      	cmp	r6, #0
    39e0:	d105      	bne.n	39ee <_usart_async_set_irq_state+0x4e>
    39e2:	2202      	movs	r2, #2
    39e4:	751a      	strb	r2, [r3, #20]
    39e6:	bd70      	pop	{r4, r5, r6, pc}
    39e8:	2201      	movs	r2, #1
    39ea:	759a      	strb	r2, [r3, #22]
    39ec:	e7f6      	b.n	39dc <_usart_async_set_irq_state+0x3c>
    39ee:	2202      	movs	r2, #2
    39f0:	759a      	strb	r2, [r3, #22]
    39f2:	e7f8      	b.n	39e6 <_usart_async_set_irq_state+0x46>
    39f4:	69a3      	ldr	r3, [r4, #24]
    39f6:	2e00      	cmp	r6, #0
    39f8:	d102      	bne.n	3a00 <_usart_async_set_irq_state+0x60>
    39fa:	2204      	movs	r2, #4
    39fc:	751a      	strb	r2, [r3, #20]
    39fe:	e7f2      	b.n	39e6 <_usart_async_set_irq_state+0x46>
    3a00:	2204      	movs	r2, #4
    3a02:	759a      	strb	r2, [r3, #22]
    3a04:	e7ef      	b.n	39e6 <_usart_async_set_irq_state+0x46>
    3a06:	2280      	movs	r2, #128	; 0x80
    3a08:	751a      	strb	r2, [r3, #20]
    3a0a:	e7ec      	b.n	39e6 <_usart_async_set_irq_state+0x46>
    3a0c:	0000021e 	.word	0x0000021e
    3a10:	0000ac54 	.word	0x0000ac54
    3a14:	000026a1 	.word	0x000026a1

00003a18 <_i2c_m_sync_init>:
    3a18:	b570      	push	{r4, r5, r6, lr}
    3a1a:	0004      	movs	r4, r0
    3a1c:	000d      	movs	r5, r1
    3a1e:	1e43      	subs	r3, r0, #1
    3a20:	4198      	sbcs	r0, r3
    3a22:	b2c0      	uxtb	r0, r0
    3a24:	4a04      	ldr	r2, [pc, #16]	; (3a38 <_i2c_m_sync_init+0x20>)
    3a26:	4905      	ldr	r1, [pc, #20]	; (3a3c <_i2c_m_sync_init+0x24>)
    3a28:	4b05      	ldr	r3, [pc, #20]	; (3a40 <_i2c_m_sync_init+0x28>)
    3a2a:	4798      	blx	r3
    3a2c:	6125      	str	r5, [r4, #16]
    3a2e:	0029      	movs	r1, r5
    3a30:	0020      	movs	r0, r4
    3a32:	4b04      	ldr	r3, [pc, #16]	; (3a44 <_i2c_m_sync_init+0x2c>)
    3a34:	4798      	blx	r3
    3a36:	bd70      	pop	{r4, r5, r6, pc}
    3a38:	0000052f 	.word	0x0000052f
    3a3c:	0000ac54 	.word	0x0000ac54
    3a40:	000026a1 	.word	0x000026a1
    3a44:	00003531 	.word	0x00003531

00003a48 <_i2c_m_sync_transfer>:
    3a48:	b5f8      	push	{r3, r4, r5, r6, r7, lr}
    3a4a:	0005      	movs	r5, r0
    3a4c:	000e      	movs	r6, r1
    3a4e:	6904      	ldr	r4, [r0, #16]
    3a50:	1e43      	subs	r3, r0, #1
    3a52:	4198      	sbcs	r0, r3
    3a54:	b2c0      	uxtb	r0, r0
    3a56:	4a93      	ldr	r2, [pc, #588]	; (3ca4 <_i2c_m_sync_transfer+0x25c>)
    3a58:	4993      	ldr	r1, [pc, #588]	; (3ca8 <_i2c_m_sync_transfer+0x260>)
    3a5a:	4f94      	ldr	r7, [pc, #592]	; (3cac <_i2c_m_sync_transfer+0x264>)
    3a5c:	47b8      	blx	r7
    3a5e:	6928      	ldr	r0, [r5, #16]
    3a60:	1e43      	subs	r3, r0, #1
    3a62:	4198      	sbcs	r0, r3
    3a64:	b2c0      	uxtb	r0, r0
    3a66:	22bd      	movs	r2, #189	; 0xbd
    3a68:	00d2      	lsls	r2, r2, #3
    3a6a:	498f      	ldr	r1, [pc, #572]	; (3ca8 <_i2c_m_sync_transfer+0x260>)
    3a6c:	47b8      	blx	r7
    3a6e:	0030      	movs	r0, r6
    3a70:	1e43      	subs	r3, r0, #1
    3a72:	4198      	sbcs	r0, r3
    3a74:	b2c0      	uxtb	r0, r0
    3a76:	4a8e      	ldr	r2, [pc, #568]	; (3cb0 <_i2c_m_sync_transfer+0x268>)
    3a78:	498b      	ldr	r1, [pc, #556]	; (3ca8 <_i2c_m_sync_transfer+0x260>)
    3a7a:	47b8      	blx	r7
    3a7c:	886b      	ldrh	r3, [r5, #2]
    3a7e:	05db      	lsls	r3, r3, #23
    3a80:	d500      	bpl.n	3a84 <_i2c_m_sync_transfer+0x3c>
    3a82:	e10b      	b.n	3c9c <_i2c_m_sync_transfer+0x254>
    3a84:	8872      	ldrh	r2, [r6, #2]
    3a86:	2380      	movs	r3, #128	; 0x80
    3a88:	005b      	lsls	r3, r3, #1
    3a8a:	469c      	mov	ip, r3
    3a8c:	431a      	orrs	r2, r3
    3a8e:	8072      	strh	r2, [r6, #2]
    3a90:	002a      	movs	r2, r5
    3a92:	0031      	movs	r1, r6
    3a94:	c989      	ldmia	r1!, {r0, r3, r7}
    3a96:	c289      	stmia	r2!, {r0, r3, r7}
    3a98:	6862      	ldr	r2, [r4, #4]
    3a9a:	4663      	mov	r3, ip
    3a9c:	4313      	orrs	r3, r2
    3a9e:	6063      	str	r3, [r4, #4]
    3aa0:	69e3      	ldr	r3, [r4, #28]
    3aa2:	075b      	lsls	r3, r3, #29
    3aa4:	d4fc      	bmi.n	3aa0 <_i2c_m_sync_transfer+0x58>
    3aa6:	0028      	movs	r0, r5
    3aa8:	4b82      	ldr	r3, [pc, #520]	; (3cb4 <_i2c_m_sync_transfer+0x26c>)
    3aaa:	4798      	blx	r3
    3aac:	2800      	cmp	r0, #0
    3aae:	d100      	bne.n	3ab2 <_i2c_m_sync_transfer+0x6a>
    3ab0:	e09d      	b.n	3bee <_i2c_m_sync_transfer+0x1a6>
    3ab2:	886b      	ldrh	r3, [r5, #2]
    3ab4:	4a80      	ldr	r2, [pc, #512]	; (3cb8 <_i2c_m_sync_transfer+0x270>)
    3ab6:	4013      	ands	r3, r2
    3ab8:	806b      	strh	r3, [r5, #2]
    3aba:	bdf8      	pop	{r3, r4, r5, r6, r7, pc}
    3abc:	2005      	movs	r0, #5
    3abe:	4240      	negs	r0, r0
    3ac0:	e0a6      	b.n	3c10 <_i2c_m_sync_transfer+0x1c8>
    3ac2:	8873      	ldrh	r3, [r6, #2]
    3ac4:	b21b      	sxth	r3, r3
    3ac6:	2b00      	cmp	r3, #0
    3ac8:	db04      	blt.n	3ad4 <_i2c_m_sync_transfer+0x8c>
    3aca:	886b      	ldrh	r3, [r5, #2]
    3acc:	4a7a      	ldr	r2, [pc, #488]	; (3cb8 <_i2c_m_sync_transfer+0x270>)
    3ace:	4013      	ands	r3, r2
    3ad0:	806b      	strh	r3, [r5, #2]
    3ad2:	e7f2      	b.n	3aba <_i2c_m_sync_transfer+0x72>
    3ad4:	6862      	ldr	r2, [r4, #4]
    3ad6:	23c0      	movs	r3, #192	; 0xc0
    3ad8:	029b      	lsls	r3, r3, #10
    3ada:	4313      	orrs	r3, r2
    3adc:	6063      	str	r3, [r4, #4]
    3ade:	69e3      	ldr	r3, [r4, #28]
    3ae0:	075b      	lsls	r3, r3, #29
    3ae2:	d4fc      	bmi.n	3ade <_i2c_m_sync_transfer+0x96>
    3ae4:	e7f1      	b.n	3aca <_i2c_m_sync_transfer+0x82>
    3ae6:	0753      	lsls	r3, r2, #29
    3ae8:	d41b      	bmi.n	3b22 <_i2c_m_sync_transfer+0xda>
    3aea:	886b      	ldrh	r3, [r5, #2]
    3aec:	055b      	lsls	r3, r3, #21
    3aee:	d534      	bpl.n	3b5a <_i2c_m_sync_transfer+0x112>
    3af0:	882a      	ldrh	r2, [r5, #0]
    3af2:	1212      	asrs	r2, r2, #8
    3af4:	0052      	lsls	r2, r2, #1
    3af6:	2306      	movs	r3, #6
    3af8:	401a      	ands	r2, r3
    3afa:	69e3      	ldr	r3, [r4, #28]
    3afc:	075b      	lsls	r3, r3, #29
    3afe:	d4fc      	bmi.n	3afa <_i2c_m_sync_transfer+0xb2>
    3b00:	6a63      	ldr	r3, [r4, #36]	; 0x24
    3b02:	2180      	movs	r1, #128	; 0x80
    3b04:	01c9      	lsls	r1, r1, #7
    3b06:	400b      	ands	r3, r1
    3b08:	4313      	orrs	r3, r2
    3b0a:	22f1      	movs	r2, #241	; 0xf1
    3b0c:	4313      	orrs	r3, r2
    3b0e:	6263      	str	r3, [r4, #36]	; 0x24
    3b10:	69e3      	ldr	r3, [r4, #28]
    3b12:	075b      	lsls	r3, r3, #29
    3b14:	d4fc      	bmi.n	3b10 <_i2c_m_sync_transfer+0xc8>
    3b16:	886b      	ldrh	r3, [r5, #2]
    3b18:	4a68      	ldr	r2, [pc, #416]	; (3cbc <_i2c_m_sync_transfer+0x274>)
    3b1a:	4013      	ands	r3, r2
    3b1c:	806b      	strh	r3, [r5, #2]
    3b1e:	2000      	movs	r0, #0
    3b20:	e065      	b.n	3bee <_i2c_m_sync_transfer+0x1a6>
    3b22:	686b      	ldr	r3, [r5, #4]
    3b24:	2b00      	cmp	r3, #0
    3b26:	dd04      	ble.n	3b32 <_i2c_m_sync_transfer+0xea>
    3b28:	886b      	ldrh	r3, [r5, #2]
    3b2a:	2280      	movs	r2, #128	; 0x80
    3b2c:	0152      	lsls	r2, r2, #5
    3b2e:	4313      	orrs	r3, r2
    3b30:	806b      	strh	r3, [r5, #2]
    3b32:	886b      	ldrh	r3, [r5, #2]
    3b34:	b21b      	sxth	r3, r3
    3b36:	2b00      	cmp	r3, #0
    3b38:	db06      	blt.n	3b48 <_i2c_m_sync_transfer+0x100>
    3b3a:	886b      	ldrh	r3, [r5, #2]
    3b3c:	4a5e      	ldr	r2, [pc, #376]	; (3cb8 <_i2c_m_sync_transfer+0x270>)
    3b3e:	4013      	ands	r3, r2
    3b40:	806b      	strh	r3, [r5, #2]
    3b42:	2002      	movs	r0, #2
    3b44:	4240      	negs	r0, r0
    3b46:	e052      	b.n	3bee <_i2c_m_sync_transfer+0x1a6>
    3b48:	6862      	ldr	r2, [r4, #4]
    3b4a:	23c0      	movs	r3, #192	; 0xc0
    3b4c:	029b      	lsls	r3, r3, #10
    3b4e:	4313      	orrs	r3, r2
    3b50:	6063      	str	r3, [r4, #4]
    3b52:	69e3      	ldr	r3, [r4, #28]
    3b54:	075b      	lsls	r3, r3, #29
    3b56:	d4fc      	bmi.n	3b52 <_i2c_m_sync_transfer+0x10a>
    3b58:	e7ef      	b.n	3b3a <_i2c_m_sync_transfer+0xf2>
    3b5a:	6868      	ldr	r0, [r5, #4]
    3b5c:	2800      	cmp	r0, #0
    3b5e:	d111      	bne.n	3b84 <_i2c_m_sync_transfer+0x13c>
    3b60:	886b      	ldrh	r3, [r5, #2]
    3b62:	b21b      	sxth	r3, r3
    3b64:	2b00      	cmp	r3, #0
    3b66:	db04      	blt.n	3b72 <_i2c_m_sync_transfer+0x12a>
    3b68:	886b      	ldrh	r3, [r5, #2]
    3b6a:	4a53      	ldr	r2, [pc, #332]	; (3cb8 <_i2c_m_sync_transfer+0x270>)
    3b6c:	4013      	ands	r3, r2
    3b6e:	806b      	strh	r3, [r5, #2]
    3b70:	e03d      	b.n	3bee <_i2c_m_sync_transfer+0x1a6>
    3b72:	6862      	ldr	r2, [r4, #4]
    3b74:	23c0      	movs	r3, #192	; 0xc0
    3b76:	029b      	lsls	r3, r3, #10
    3b78:	4313      	orrs	r3, r2
    3b7a:	6063      	str	r3, [r4, #4]
    3b7c:	69e3      	ldr	r3, [r4, #28]
    3b7e:	075b      	lsls	r3, r3, #29
    3b80:	d4fc      	bmi.n	3b7c <_i2c_m_sync_transfer+0x134>
    3b82:	e7f1      	b.n	3b68 <_i2c_m_sync_transfer+0x120>
    3b84:	68ab      	ldr	r3, [r5, #8]
    3b86:	781a      	ldrb	r2, [r3, #0]
    3b88:	2328      	movs	r3, #40	; 0x28
    3b8a:	54e2      	strb	r2, [r4, r3]
    3b8c:	69e3      	ldr	r3, [r4, #28]
    3b8e:	075b      	lsls	r3, r3, #29
    3b90:	d4fc      	bmi.n	3b8c <_i2c_m_sync_transfer+0x144>
    3b92:	68ab      	ldr	r3, [r5, #8]
    3b94:	3301      	adds	r3, #1
    3b96:	60ab      	str	r3, [r5, #8]
    3b98:	686b      	ldr	r3, [r5, #4]
    3b9a:	3b01      	subs	r3, #1
    3b9c:	606b      	str	r3, [r5, #4]
    3b9e:	2000      	movs	r0, #0
    3ba0:	e025      	b.n	3bee <_i2c_m_sync_transfer+0x1a6>
    3ba2:	07bb      	lsls	r3, r7, #30
    3ba4:	d578      	bpl.n	3c98 <_i2c_m_sync_transfer+0x250>
    3ba6:	686b      	ldr	r3, [r5, #4]
    3ba8:	2b00      	cmp	r3, #0
    3baa:	d06d      	beq.n	3c88 <_i2c_m_sync_transfer+0x240>
    3bac:	0752      	lsls	r2, r2, #29
    3bae:	d46b      	bmi.n	3c88 <_i2c_m_sync_transfer+0x240>
    3bb0:	3b01      	subs	r3, #1
    3bb2:	606b      	str	r3, [r5, #4]
    3bb4:	2b00      	cmp	r3, #0
    3bb6:	d101      	bne.n	3bbc <_i2c_m_sync_transfer+0x174>
    3bb8:	2900      	cmp	r1, #0
    3bba:	d04c      	beq.n	3c56 <_i2c_m_sync_transfer+0x20e>
    3bbc:	2b01      	cmp	r3, #1
    3bbe:	d048      	beq.n	3c52 <_i2c_m_sync_transfer+0x20a>
    3bc0:	686b      	ldr	r3, [r5, #4]
    3bc2:	2b00      	cmp	r3, #0
    3bc4:	d107      	bne.n	3bd6 <_i2c_m_sync_transfer+0x18e>
    3bc6:	886b      	ldrh	r3, [r5, #2]
    3bc8:	b21b      	sxth	r3, r3
    3bca:	2b00      	cmp	r3, #0
    3bcc:	db4c      	blt.n	3c68 <_i2c_m_sync_transfer+0x220>
    3bce:	886b      	ldrh	r3, [r5, #2]
    3bd0:	4a39      	ldr	r2, [pc, #228]	; (3cb8 <_i2c_m_sync_transfer+0x270>)
    3bd2:	4013      	ands	r3, r2
    3bd4:	806b      	strh	r3, [r5, #2]
    3bd6:	68aa      	ldr	r2, [r5, #8]
    3bd8:	1c53      	adds	r3, r2, #1
    3bda:	60ab      	str	r3, [r5, #8]
    3bdc:	69e3      	ldr	r3, [r4, #28]
    3bde:	075b      	lsls	r3, r3, #29
    3be0:	d4fc      	bmi.n	3bdc <_i2c_m_sync_transfer+0x194>
    3be2:	2328      	movs	r3, #40	; 0x28
    3be4:	5ce3      	ldrb	r3, [r4, r3]
    3be6:	7013      	strb	r3, [r2, #0]
    3be8:	2302      	movs	r3, #2
    3bea:	7623      	strb	r3, [r4, #24]
    3bec:	2000      	movs	r0, #0
    3bee:	886b      	ldrh	r3, [r5, #2]
    3bf0:	05db      	lsls	r3, r3, #23
    3bf2:	d400      	bmi.n	3bf6 <_i2c_m_sync_transfer+0x1ae>
    3bf4:	e761      	b.n	3aba <_i2c_m_sync_transfer+0x72>
    3bf6:	6928      	ldr	r0, [r5, #16]
    3bf8:	4a31      	ldr	r2, [pc, #196]	; (3cc0 <_i2c_m_sync_transfer+0x278>)
    3bfa:	7e03      	ldrb	r3, [r0, #24]
    3bfc:	b2db      	uxtb	r3, r3
    3bfe:	001f      	movs	r7, r3
    3c00:	1e51      	subs	r1, r2, #1
    3c02:	2a00      	cmp	r2, #0
    3c04:	d100      	bne.n	3c08 <_i2c_m_sync_transfer+0x1c0>
    3c06:	e759      	b.n	3abc <_i2c_m_sync_transfer+0x74>
    3c08:	000a      	movs	r2, r1
    3c0a:	079b      	lsls	r3, r3, #30
    3c0c:	d0f5      	beq.n	3bfa <_i2c_m_sync_transfer+0x1b2>
    3c0e:	2000      	movs	r0, #0
    3c10:	2800      	cmp	r0, #0
    3c12:	d000      	beq.n	3c16 <_i2c_m_sync_transfer+0x1ce>
    3c14:	e755      	b.n	3ac2 <_i2c_m_sync_transfer+0x7a>
    3c16:	6823      	ldr	r3, [r4, #0]
    3c18:	0edb      	lsrs	r3, r3, #27
    3c1a:	2101      	movs	r1, #1
    3c1c:	4019      	ands	r1, r3
    3c1e:	69e3      	ldr	r3, [r4, #28]
    3c20:	075b      	lsls	r3, r3, #29
    3c22:	d4fc      	bmi.n	3c1e <_i2c_m_sync_transfer+0x1d6>
    3c24:	8b62      	ldrh	r2, [r4, #26]
    3c26:	b292      	uxth	r2, r2
    3c28:	07fb      	lsls	r3, r7, #31
    3c2a:	d5ba      	bpl.n	3ba2 <_i2c_m_sync_transfer+0x15a>
    3c2c:	0793      	lsls	r3, r2, #30
    3c2e:	d400      	bmi.n	3c32 <_i2c_m_sync_transfer+0x1ea>
    3c30:	e759      	b.n	3ae6 <_i2c_m_sync_transfer+0x9e>
    3c32:	2301      	movs	r3, #1
    3c34:	7623      	strb	r3, [r4, #24]
    3c36:	886b      	ldrh	r3, [r5, #2]
    3c38:	2180      	movs	r1, #128	; 0x80
    3c3a:	0149      	lsls	r1, r1, #5
    3c3c:	430b      	orrs	r3, r1
    3c3e:	806b      	strh	r3, [r5, #2]
    3c40:	886b      	ldrh	r3, [r5, #2]
    3c42:	491d      	ldr	r1, [pc, #116]	; (3cb8 <_i2c_m_sync_transfer+0x270>)
    3c44:	400b      	ands	r3, r1
    3c46:	806b      	strh	r3, [r5, #2]
    3c48:	07d3      	lsls	r3, r2, #31
    3c4a:	d522      	bpl.n	3c92 <_i2c_m_sync_transfer+0x24a>
    3c4c:	2005      	movs	r0, #5
    3c4e:	4240      	negs	r0, r0
    3c50:	e7cd      	b.n	3bee <_i2c_m_sync_transfer+0x1a6>
    3c52:	2900      	cmp	r1, #0
    3c54:	d0b4      	beq.n	3bc0 <_i2c_m_sync_transfer+0x178>
    3c56:	6862      	ldr	r2, [r4, #4]
    3c58:	2380      	movs	r3, #128	; 0x80
    3c5a:	02db      	lsls	r3, r3, #11
    3c5c:	4313      	orrs	r3, r2
    3c5e:	6063      	str	r3, [r4, #4]
    3c60:	69e3      	ldr	r3, [r4, #28]
    3c62:	075b      	lsls	r3, r3, #29
    3c64:	d4fc      	bmi.n	3c60 <_i2c_m_sync_transfer+0x218>
    3c66:	e7ab      	b.n	3bc0 <_i2c_m_sync_transfer+0x178>
    3c68:	6863      	ldr	r3, [r4, #4]
    3c6a:	4a13      	ldr	r2, [pc, #76]	; (3cb8 <_i2c_m_sync_transfer+0x270>)
    3c6c:	4013      	ands	r3, r2
    3c6e:	6063      	str	r3, [r4, #4]
    3c70:	69e3      	ldr	r3, [r4, #28]
    3c72:	075b      	lsls	r3, r3, #29
    3c74:	d4fc      	bmi.n	3c70 <_i2c_m_sync_transfer+0x228>
    3c76:	6862      	ldr	r2, [r4, #4]
    3c78:	23c0      	movs	r3, #192	; 0xc0
    3c7a:	029b      	lsls	r3, r3, #10
    3c7c:	4313      	orrs	r3, r2
    3c7e:	6063      	str	r3, [r4, #4]
    3c80:	69e3      	ldr	r3, [r4, #28]
    3c82:	075b      	lsls	r3, r3, #29
    3c84:	d4fc      	bmi.n	3c80 <_i2c_m_sync_transfer+0x238>
    3c86:	e7a2      	b.n	3bce <_i2c_m_sync_transfer+0x186>
    3c88:	2302      	movs	r3, #2
    3c8a:	7623      	strb	r3, [r4, #24]
    3c8c:	2002      	movs	r0, #2
    3c8e:	4240      	negs	r0, r0
    3c90:	e7ad      	b.n	3bee <_i2c_m_sync_transfer+0x1a6>
    3c92:	2004      	movs	r0, #4
    3c94:	4240      	negs	r0, r0
    3c96:	e7aa      	b.n	3bee <_i2c_m_sync_transfer+0x1a6>
    3c98:	2000      	movs	r0, #0
    3c9a:	e7a8      	b.n	3bee <_i2c_m_sync_transfer+0x1a6>
    3c9c:	2006      	movs	r0, #6
    3c9e:	4240      	negs	r0, r0
    3ca0:	e70b      	b.n	3aba <_i2c_m_sync_transfer+0x72>
    3ca2:	46c0      	nop			; (mov r8, r8)
    3ca4:	000005e7 	.word	0x000005e7
    3ca8:	0000ac54 	.word	0x0000ac54
    3cac:	000026a1 	.word	0x000026a1
    3cb0:	000005e9 	.word	0x000005e9
    3cb4:	00003601 	.word	0x00003601
    3cb8:	fffffeff 	.word	0xfffffeff
    3cbc:	fffffbff 	.word	0xfffffbff
    3cc0:	0000ffff 	.word	0x0000ffff

00003cc4 <SERCOM1_Handler>:
    3cc4:	b510      	push	{r4, lr}
    3cc6:	4b02      	ldr	r3, [pc, #8]	; (3cd0 <SERCOM1_Handler+0xc>)
    3cc8:	6818      	ldr	r0, [r3, #0]
    3cca:	4b02      	ldr	r3, [pc, #8]	; (3cd4 <SERCOM1_Handler+0x10>)
    3ccc:	4798      	blx	r3
    3cce:	bd10      	pop	{r4, pc}
    3cd0:	200003c4 	.word	0x200003c4
    3cd4:	00003325 	.word	0x00003325

00003cd8 <_spi_m_sync_init>:
    3cd8:	b570      	push	{r4, r5, r6, lr}
    3cda:	0006      	movs	r6, r0
    3cdc:	000c      	movs	r4, r1
    3cde:	0008      	movs	r0, r1
    3ce0:	4b71      	ldr	r3, [pc, #452]	; (3ea8 <_spi_m_sync_init+0x1d0>)
    3ce2:	4798      	blx	r3
    3ce4:	2300      	movs	r3, #0
    3ce6:	2b00      	cmp	r3, #0
    3ce8:	d100      	bne.n	3cec <_spi_m_sync_init+0x14>
    3cea:	e084      	b.n	3df6 <_spi_m_sync_init+0x11e>
    3cec:	2500      	movs	r5, #0
    3cee:	2e00      	cmp	r6, #0
    3cf0:	d100      	bne.n	3cf4 <_spi_m_sync_init+0x1c>
    3cf2:	e08d      	b.n	3e10 <_spi_m_sync_init+0x138>
    3cf4:	2c00      	cmp	r4, #0
    3cf6:	d100      	bne.n	3cfa <_spi_m_sync_init+0x22>
    3cf8:	e088      	b.n	3e0c <_spi_m_sync_init+0x134>
    3cfa:	2001      	movs	r0, #1
    3cfc:	4a6b      	ldr	r2, [pc, #428]	; (3eac <_spi_m_sync_init+0x1d4>)
    3cfe:	496c      	ldr	r1, [pc, #432]	; (3eb0 <_spi_m_sync_init+0x1d8>)
    3d00:	4b6c      	ldr	r3, [pc, #432]	; (3eb4 <_spi_m_sync_init+0x1dc>)
    3d02:	4798      	blx	r3
    3d04:	2d00      	cmp	r5, #0
    3d06:	d100      	bne.n	3d0a <_spi_m_sync_init+0x32>
    3d08:	e0cb      	b.n	3ea2 <_spi_m_sync_init+0x1ca>
    3d0a:	69e3      	ldr	r3, [r4, #28]
    3d0c:	07db      	lsls	r3, r3, #31
    3d0e:	d421      	bmi.n	3d54 <_spi_m_sync_init+0x7c>
    3d10:	782a      	ldrb	r2, [r5, #0]
    3d12:	786b      	ldrb	r3, [r5, #1]
    3d14:	021b      	lsls	r3, r3, #8
    3d16:	4313      	orrs	r3, r2
    3d18:	78aa      	ldrb	r2, [r5, #2]
    3d1a:	0412      	lsls	r2, r2, #16
    3d1c:	4313      	orrs	r3, r2
    3d1e:	78ea      	ldrb	r2, [r5, #3]
    3d20:	0612      	lsls	r2, r2, #24
    3d22:	431a      	orrs	r2, r3
    3d24:	231c      	movs	r3, #28
    3d26:	401a      	ands	r2, r3
    3d28:	69e3      	ldr	r3, [r4, #28]
    3d2a:	079b      	lsls	r3, r3, #30
    3d2c:	d1fc      	bne.n	3d28 <_spi_m_sync_init+0x50>
    3d2e:	6823      	ldr	r3, [r4, #0]
    3d30:	079b      	lsls	r3, r3, #30
    3d32:	d509      	bpl.n	3d48 <_spi_m_sync_init+0x70>
    3d34:	6823      	ldr	r3, [r4, #0]
    3d36:	2102      	movs	r1, #2
    3d38:	438b      	bics	r3, r1
    3d3a:	6023      	str	r3, [r4, #0]
    3d3c:	69e3      	ldr	r3, [r4, #28]
    3d3e:	079b      	lsls	r3, r3, #30
    3d40:	d1fc      	bne.n	3d3c <_spi_m_sync_init+0x64>
    3d42:	69e3      	ldr	r3, [r4, #28]
    3d44:	079b      	lsls	r3, r3, #30
    3d46:	d4fc      	bmi.n	3d42 <_spi_m_sync_init+0x6a>
    3d48:	2301      	movs	r3, #1
    3d4a:	4313      	orrs	r3, r2
    3d4c:	6023      	str	r3, [r4, #0]
    3d4e:	69e3      	ldr	r3, [r4, #28]
    3d50:	079b      	lsls	r3, r3, #30
    3d52:	d1fc      	bne.n	3d4e <_spi_m_sync_init+0x76>
    3d54:	69e3      	ldr	r3, [r4, #28]
    3d56:	07db      	lsls	r3, r3, #31
    3d58:	d4fc      	bmi.n	3d54 <_spi_m_sync_init+0x7c>
    3d5a:	6034      	str	r4, [r6, #0]
    3d5c:	782b      	ldrb	r3, [r5, #0]
    3d5e:	786a      	ldrb	r2, [r5, #1]
    3d60:	0212      	lsls	r2, r2, #8
    3d62:	431a      	orrs	r2, r3
    3d64:	78ab      	ldrb	r3, [r5, #2]
    3d66:	041b      	lsls	r3, r3, #16
    3d68:	431a      	orrs	r2, r3
    3d6a:	78eb      	ldrb	r3, [r5, #3]
    3d6c:	061b      	lsls	r3, r3, #24
    3d6e:	4313      	orrs	r3, r2
    3d70:	221c      	movs	r2, #28
    3d72:	4013      	ands	r3, r2
    3d74:	2b08      	cmp	r3, #8
    3d76:	d04d      	beq.n	3e14 <_spi_m_sync_init+0x13c>
    3d78:	2c00      	cmp	r4, #0
    3d7a:	d100      	bne.n	3d7e <_spi_m_sync_init+0xa6>
    3d7c:	e08d      	b.n	3e9a <_spi_m_sync_init+0x1c2>
    3d7e:	2d00      	cmp	r5, #0
    3d80:	d100      	bne.n	3d84 <_spi_m_sync_init+0xac>
    3d82:	e088      	b.n	3e96 <_spi_m_sync_init+0x1be>
    3d84:	2001      	movs	r0, #1
    3d86:	4a4c      	ldr	r2, [pc, #304]	; (3eb8 <_spi_m_sync_init+0x1e0>)
    3d88:	4949      	ldr	r1, [pc, #292]	; (3eb0 <_spi_m_sync_init+0x1d8>)
    3d8a:	4b4a      	ldr	r3, [pc, #296]	; (3eb4 <_spi_m_sync_init+0x1dc>)
    3d8c:	4798      	blx	r3
    3d8e:	782b      	ldrb	r3, [r5, #0]
    3d90:	786a      	ldrb	r2, [r5, #1]
    3d92:	0212      	lsls	r2, r2, #8
    3d94:	431a      	orrs	r2, r3
    3d96:	78ab      	ldrb	r3, [r5, #2]
    3d98:	041b      	lsls	r3, r3, #16
    3d9a:	431a      	orrs	r2, r3
    3d9c:	78eb      	ldrb	r3, [r5, #3]
    3d9e:	061b      	lsls	r3, r3, #24
    3da0:	4313      	orrs	r3, r2
    3da2:	4a46      	ldr	r2, [pc, #280]	; (3ebc <_spi_m_sync_init+0x1e4>)
    3da4:	4013      	ands	r3, r2
    3da6:	6023      	str	r3, [r4, #0]
    3da8:	69e3      	ldr	r3, [r4, #28]
    3daa:	079b      	lsls	r3, r3, #30
    3dac:	d1fc      	bne.n	3da8 <_spi_m_sync_init+0xd0>
    3dae:	792b      	ldrb	r3, [r5, #4]
    3db0:	796a      	ldrb	r2, [r5, #5]
    3db2:	0212      	lsls	r2, r2, #8
    3db4:	431a      	orrs	r2, r3
    3db6:	79ab      	ldrb	r3, [r5, #6]
    3db8:	041b      	lsls	r3, r3, #16
    3dba:	431a      	orrs	r2, r3
    3dbc:	79eb      	ldrb	r3, [r5, #7]
    3dbe:	061b      	lsls	r3, r3, #24
    3dc0:	4313      	orrs	r3, r2
    3dc2:	4a3f      	ldr	r2, [pc, #252]	; (3ec0 <_spi_m_sync_init+0x1e8>)
    3dc4:	4013      	ands	r3, r2
    3dc6:	2280      	movs	r2, #128	; 0x80
    3dc8:	0292      	lsls	r2, r2, #10
    3dca:	4313      	orrs	r3, r2
    3dcc:	6063      	str	r3, [r4, #4]
    3dce:	69e3      	ldr	r3, [r4, #28]
    3dd0:	075b      	lsls	r3, r3, #29
    3dd2:	d1fc      	bne.n	3dce <_spi_m_sync_init+0xf6>
    3dd4:	7b2b      	ldrb	r3, [r5, #12]
    3dd6:	7323      	strb	r3, [r4, #12]
    3dd8:	7b6a      	ldrb	r2, [r5, #13]
    3dda:	2330      	movs	r3, #48	; 0x30
    3ddc:	54e2      	strb	r2, [r4, r3]
    3dde:	792b      	ldrb	r3, [r5, #4]
    3de0:	075b      	lsls	r3, r3, #29
    3de2:	d15c      	bne.n	3e9e <_spi_m_sync_init+0x1c6>
    3de4:	2301      	movs	r3, #1
    3de6:	7133      	strb	r3, [r6, #4]
    3de8:	7baa      	ldrb	r2, [r5, #14]
    3dea:	7beb      	ldrb	r3, [r5, #15]
    3dec:	021b      	lsls	r3, r3, #8
    3dee:	4313      	orrs	r3, r2
    3df0:	80f3      	strh	r3, [r6, #6]
    3df2:	2000      	movs	r0, #0
    3df4:	bd70      	pop	{r4, r5, r6, pc}
    3df6:	2800      	cmp	r0, #0
    3df8:	d002      	beq.n	3e00 <_spi_m_sync_init+0x128>
    3dfa:	3301      	adds	r3, #1
    3dfc:	b2db      	uxtb	r3, r3
    3dfe:	e772      	b.n	3ce6 <_spi_m_sync_init+0xe>
    3e00:	011d      	lsls	r5, r3, #4
    3e02:	18ea      	adds	r2, r5, r3
    3e04:	4d2f      	ldr	r5, [pc, #188]	; (3ec4 <_spi_m_sync_init+0x1ec>)
    3e06:	3550      	adds	r5, #80	; 0x50
    3e08:	18ad      	adds	r5, r5, r2
    3e0a:	e770      	b.n	3cee <_spi_m_sync_init+0x16>
    3e0c:	2000      	movs	r0, #0
    3e0e:	e775      	b.n	3cfc <_spi_m_sync_init+0x24>
    3e10:	2000      	movs	r0, #0
    3e12:	e773      	b.n	3cfc <_spi_m_sync_init+0x24>
    3e14:	2c00      	cmp	r4, #0
    3e16:	d03c      	beq.n	3e92 <_spi_m_sync_init+0x1ba>
    3e18:	2d00      	cmp	r5, #0
    3e1a:	d038      	beq.n	3e8e <_spi_m_sync_init+0x1b6>
    3e1c:	2001      	movs	r0, #1
    3e1e:	4a2a      	ldr	r2, [pc, #168]	; (3ec8 <_spi_m_sync_init+0x1f0>)
    3e20:	4923      	ldr	r1, [pc, #140]	; (3eb0 <_spi_m_sync_init+0x1d8>)
    3e22:	4b24      	ldr	r3, [pc, #144]	; (3eb4 <_spi_m_sync_init+0x1dc>)
    3e24:	4798      	blx	r3
    3e26:	782b      	ldrb	r3, [r5, #0]
    3e28:	786a      	ldrb	r2, [r5, #1]
    3e2a:	0212      	lsls	r2, r2, #8
    3e2c:	431a      	orrs	r2, r3
    3e2e:	78ab      	ldrb	r3, [r5, #2]
    3e30:	041b      	lsls	r3, r3, #16
    3e32:	431a      	orrs	r2, r3
    3e34:	78eb      	ldrb	r3, [r5, #3]
    3e36:	061b      	lsls	r3, r3, #24
    3e38:	4313      	orrs	r3, r2
    3e3a:	4a20      	ldr	r2, [pc, #128]	; (3ebc <_spi_m_sync_init+0x1e4>)
    3e3c:	4013      	ands	r3, r2
    3e3e:	6023      	str	r3, [r4, #0]
    3e40:	69e3      	ldr	r3, [r4, #28]
    3e42:	079b      	lsls	r3, r3, #30
    3e44:	d1fc      	bne.n	3e40 <_spi_m_sync_init+0x168>
    3e46:	792b      	ldrb	r3, [r5, #4]
    3e48:	796a      	ldrb	r2, [r5, #5]
    3e4a:	0212      	lsls	r2, r2, #8
    3e4c:	431a      	orrs	r2, r3
    3e4e:	79ab      	ldrb	r3, [r5, #6]
    3e50:	041b      	lsls	r3, r3, #16
    3e52:	431a      	orrs	r2, r3
    3e54:	79eb      	ldrb	r3, [r5, #7]
    3e56:	061b      	lsls	r3, r3, #24
    3e58:	4313      	orrs	r3, r2
    3e5a:	4a1c      	ldr	r2, [pc, #112]	; (3ecc <_spi_m_sync_init+0x1f4>)
    3e5c:	4013      	ands	r3, r2
    3e5e:	4a1c      	ldr	r2, [pc, #112]	; (3ed0 <_spi_m_sync_init+0x1f8>)
    3e60:	4313      	orrs	r3, r2
    3e62:	6063      	str	r3, [r4, #4]
    3e64:	69e3      	ldr	r3, [r4, #28]
    3e66:	075b      	lsls	r3, r3, #29
    3e68:	d1fc      	bne.n	3e64 <_spi_m_sync_init+0x18c>
    3e6a:	7a2b      	ldrb	r3, [r5, #8]
    3e6c:	7a6a      	ldrb	r2, [r5, #9]
    3e6e:	0212      	lsls	r2, r2, #8
    3e70:	431a      	orrs	r2, r3
    3e72:	7aab      	ldrb	r3, [r5, #10]
    3e74:	041b      	lsls	r3, r3, #16
    3e76:	431a      	orrs	r2, r3
    3e78:	7aeb      	ldrb	r3, [r5, #11]
    3e7a:	061b      	lsls	r3, r3, #24
    3e7c:	4313      	orrs	r3, r2
    3e7e:	6263      	str	r3, [r4, #36]	; 0x24
    3e80:	7b6a      	ldrb	r2, [r5, #13]
    3e82:	2330      	movs	r3, #48	; 0x30
    3e84:	54e2      	strb	r2, [r4, r3]
    3e86:	69e3      	ldr	r3, [r4, #28]
    3e88:	2b00      	cmp	r3, #0
    3e8a:	d1fc      	bne.n	3e86 <_spi_m_sync_init+0x1ae>
    3e8c:	e7a7      	b.n	3dde <_spi_m_sync_init+0x106>
    3e8e:	2000      	movs	r0, #0
    3e90:	e7c5      	b.n	3e1e <_spi_m_sync_init+0x146>
    3e92:	2000      	movs	r0, #0
    3e94:	e7c3      	b.n	3e1e <_spi_m_sync_init+0x146>
    3e96:	2000      	movs	r0, #0
    3e98:	e775      	b.n	3d86 <_spi_m_sync_init+0xae>
    3e9a:	2000      	movs	r0, #0
    3e9c:	e773      	b.n	3d86 <_spi_m_sync_init+0xae>
    3e9e:	2302      	movs	r3, #2
    3ea0:	e7a1      	b.n	3de6 <_spi_m_sync_init+0x10e>
    3ea2:	200d      	movs	r0, #13
    3ea4:	4240      	negs	r0, r0
    3ea6:	e7a5      	b.n	3df4 <_spi_m_sync_init+0x11c>
    3ea8:	00003315 	.word	0x00003315
    3eac:	00000952 	.word	0x00000952
    3eb0:	0000ac54 	.word	0x0000ac54
    3eb4:	000026a1 	.word	0x000026a1
    3eb8:	00000917 	.word	0x00000917
    3ebc:	fffffefc 	.word	0xfffffefc
    3ec0:	fffd1dbf 	.word	0xfffd1dbf
    3ec4:	0000abf0 	.word	0x0000abf0
    3ec8:	0000092b 	.word	0x0000092b
    3ecc:	fffdddbf 	.word	0xfffdddbf
    3ed0:	00020240 	.word	0x00020240

00003ed4 <_spi_m_sync_trans>:
    3ed4:	b5f0      	push	{r4, r5, r6, r7, lr}
    3ed6:	46ce      	mov	lr, r9
    3ed8:	4647      	mov	r7, r8
    3eda:	b580      	push	{r7, lr}
    3edc:	b089      	sub	sp, #36	; 0x24
    3ede:	4681      	mov	r9, r0
    3ee0:	000d      	movs	r5, r1
    3ee2:	6804      	ldr	r4, [r0, #0]
    3ee4:	680b      	ldr	r3, [r1, #0]
    3ee6:	9303      	str	r3, [sp, #12]
    3ee8:	684b      	ldr	r3, [r1, #4]
    3eea:	9304      	str	r3, [sp, #16]
    3eec:	2300      	movs	r3, #0
    3eee:	9305      	str	r3, [sp, #20]
    3ef0:	9306      	str	r3, [sp, #24]
    3ef2:	7906      	ldrb	r6, [r0, #4]
    3ef4:	2800      	cmp	r0, #0
    3ef6:	d014      	beq.n	3f22 <_spi_m_sync_trans+0x4e>
    3ef8:	2c00      	cmp	r4, #0
    3efa:	d010      	beq.n	3f1e <_spi_m_sync_trans+0x4a>
    3efc:	2001      	movs	r0, #1
    3efe:	4a37      	ldr	r2, [pc, #220]	; (3fdc <_spi_m_sync_trans+0x108>)
    3f00:	4937      	ldr	r1, [pc, #220]	; (3fe0 <_spi_m_sync_trans+0x10c>)
    3f02:	4b38      	ldr	r3, [pc, #224]	; (3fe4 <_spi_m_sync_trans+0x110>)
    3f04:	4798      	blx	r3
    3f06:	69e3      	ldr	r3, [r4, #28]
    3f08:	075b      	lsls	r3, r3, #29
    3f0a:	d164      	bne.n	3fd6 <_spi_m_sync_trans+0x102>
    3f0c:	69e3      	ldr	r3, [r4, #28]
    3f0e:	079b      	lsls	r3, r3, #30
    3f10:	d1fc      	bne.n	3f0c <_spi_m_sync_trans+0x38>
    3f12:	6823      	ldr	r3, [r4, #0]
    3f14:	079b      	lsls	r3, r3, #30
    3f16:	d420      	bmi.n	3f5a <_spi_m_sync_trans+0x86>
    3f18:	2014      	movs	r0, #20
    3f1a:	4240      	negs	r0, r0
    3f1c:	e056      	b.n	3fcc <_spi_m_sync_trans+0xf8>
    3f1e:	2000      	movs	r0, #0
    3f20:	e7ed      	b.n	3efe <_spi_m_sync_trans+0x2a>
    3f22:	2000      	movs	r0, #0
    3f24:	e7eb      	b.n	3efe <_spi_m_sync_trans+0x2a>
    3f26:	2200      	movs	r2, #0
    3f28:	e02d      	b.n	3f86 <_spi_m_sync_trans+0xb2>
    3f2a:	7848      	ldrb	r0, [r1, #1]
    3f2c:	0200      	lsls	r0, r0, #8
    3f2e:	4647      	mov	r7, r8
    3f30:	4307      	orrs	r7, r0
    3f32:	46b8      	mov	r8, r7
    3f34:	3102      	adds	r1, #2
    3f36:	9103      	str	r1, [sp, #12]
    3f38:	3201      	adds	r2, #1
    3f3a:	9205      	str	r2, [sp, #20]
    3f3c:	4642      	mov	r2, r8
    3f3e:	62a2      	str	r2, [r4, #40]	; 0x28
    3f40:	b25b      	sxtb	r3, r3
    3f42:	2b00      	cmp	r3, #0
    3f44:	db35      	blt.n	3fb2 <_spi_m_sync_trans+0xde>
    3f46:	2000      	movs	r0, #0
    3f48:	2800      	cmp	r0, #0
    3f4a:	db3a      	blt.n	3fc2 <_spi_m_sync_trans+0xee>
    3f4c:	9805      	ldr	r0, [sp, #20]
    3f4e:	68ab      	ldr	r3, [r5, #8]
    3f50:	4298      	cmp	r0, r3
    3f52:	d302      	bcc.n	3f5a <_spi_m_sync_trans+0x86>
    3f54:	9a06      	ldr	r2, [sp, #24]
    3f56:	4293      	cmp	r3, r2
    3f58:	d933      	bls.n	3fc2 <_spi_m_sync_trans+0xee>
    3f5a:	7e23      	ldrb	r3, [r4, #24]
    3f5c:	b2db      	uxtb	r3, r3
    3f5e:	075a      	lsls	r2, r3, #29
    3f60:	d5e1      	bpl.n	3f26 <_spi_m_sync_trans+0x52>
    3f62:	6aa1      	ldr	r1, [r4, #40]	; 0x28
    3f64:	9a04      	ldr	r2, [sp, #16]
    3f66:	2a00      	cmp	r2, #0
    3f68:	d008      	beq.n	3f7c <_spi_m_sync_trans+0xa8>
    3f6a:	1c50      	adds	r0, r2, #1
    3f6c:	9004      	str	r0, [sp, #16]
    3f6e:	7011      	strb	r1, [r2, #0]
    3f70:	2e01      	cmp	r6, #1
    3f72:	d903      	bls.n	3f7c <_spi_m_sync_trans+0xa8>
    3f74:	1c90      	adds	r0, r2, #2
    3f76:	9004      	str	r0, [sp, #16]
    3f78:	0a09      	lsrs	r1, r1, #8
    3f7a:	7051      	strb	r1, [r2, #1]
    3f7c:	9a06      	ldr	r2, [sp, #24]
    3f7e:	9201      	str	r2, [sp, #4]
    3f80:	3201      	adds	r2, #1
    3f82:	9206      	str	r2, [sp, #24]
    3f84:	2201      	movs	r2, #1
    3f86:	2a00      	cmp	r2, #0
    3f88:	d1da      	bne.n	3f40 <_spi_m_sync_trans+0x6c>
    3f8a:	9906      	ldr	r1, [sp, #24]
    3f8c:	9a05      	ldr	r2, [sp, #20]
    3f8e:	4291      	cmp	r1, r2
    3f90:	d3d6      	bcc.n	3f40 <_spi_m_sync_trans+0x6c>
    3f92:	4649      	mov	r1, r9
    3f94:	88c8      	ldrh	r0, [r1, #6]
    3f96:	07d9      	lsls	r1, r3, #31
    3f98:	d5d2      	bpl.n	3f40 <_spi_m_sync_trans+0x6c>
    3f9a:	9903      	ldr	r1, [sp, #12]
    3f9c:	2900      	cmp	r1, #0
    3f9e:	d006      	beq.n	3fae <_spi_m_sync_trans+0xda>
    3fa0:	1c48      	adds	r0, r1, #1
    3fa2:	9003      	str	r0, [sp, #12]
    3fa4:	7808      	ldrb	r0, [r1, #0]
    3fa6:	4680      	mov	r8, r0
    3fa8:	2e01      	cmp	r6, #1
    3faa:	d8be      	bhi.n	3f2a <_spi_m_sync_trans+0x56>
    3fac:	e7c4      	b.n	3f38 <_spi_m_sync_trans+0x64>
    3fae:	4680      	mov	r8, r0
    3fb0:	e7c2      	b.n	3f38 <_spi_m_sync_trans+0x64>
    3fb2:	2301      	movs	r3, #1
    3fb4:	425b      	negs	r3, r3
    3fb6:	8363      	strh	r3, [r4, #26]
    3fb8:	3381      	adds	r3, #129	; 0x81
    3fba:	7623      	strb	r3, [r4, #24]
    3fbc:	2013      	movs	r0, #19
    3fbe:	4240      	negs	r0, r0
    3fc0:	e7c2      	b.n	3f48 <_spi_m_sync_trans+0x74>
    3fc2:	7e23      	ldrb	r3, [r4, #24]
    3fc4:	079b      	lsls	r3, r3, #30
    3fc6:	d0fc      	beq.n	3fc2 <_spi_m_sync_trans+0xee>
    3fc8:	2303      	movs	r3, #3
    3fca:	7623      	strb	r3, [r4, #24]
    3fcc:	b009      	add	sp, #36	; 0x24
    3fce:	bc0c      	pop	{r2, r3}
    3fd0:	4690      	mov	r8, r2
    3fd2:	4699      	mov	r9, r3
    3fd4:	bdf0      	pop	{r4, r5, r6, r7, pc}
    3fd6:	2004      	movs	r0, #4
    3fd8:	4240      	negs	r0, r0
    3fda:	e7f7      	b.n	3fcc <_spi_m_sync_trans+0xf8>
    3fdc:	00000ab2 	.word	0x00000ab2
    3fe0:	0000ac54 	.word	0x0000ac54
    3fe4:	000026a1 	.word	0x000026a1

00003fe8 <_sysctrl_init_sources>:
    3fe8:	4a0e      	ldr	r2, [pc, #56]	; (4024 <_sysctrl_init_sources+0x3c>)
    3fea:	6a11      	ldr	r1, [r2, #32]
    3fec:	0c09      	lsrs	r1, r1, #16
    3fee:	6a13      	ldr	r3, [r2, #32]
    3ff0:	0f9b      	lsrs	r3, r3, #30
    3ff2:	079b      	lsls	r3, r3, #30
    3ff4:	0409      	lsls	r1, r1, #16
    3ff6:	480c      	ldr	r0, [pc, #48]	; (4028 <_sysctrl_init_sources+0x40>)
    3ff8:	4001      	ands	r1, r0
    3ffa:	430b      	orrs	r3, r1
    3ffc:	2102      	movs	r1, #2
    3ffe:	430b      	orrs	r3, r1
    4000:	6213      	str	r3, [r2, #32]
    4002:	6993      	ldr	r3, [r2, #24]
    4004:	430b      	orrs	r3, r1
    4006:	6193      	str	r3, [r2, #24]
    4008:	7f13      	ldrb	r3, [r2, #28]
    400a:	311d      	adds	r1, #29
    400c:	400b      	ands	r3, r1
    400e:	7713      	strb	r3, [r2, #28]
    4010:	4b04      	ldr	r3, [pc, #16]	; (4024 <_sysctrl_init_sources+0x3c>)
    4012:	68db      	ldr	r3, [r3, #12]
    4014:	071b      	lsls	r3, r3, #28
    4016:	d5fb      	bpl.n	4010 <_sysctrl_init_sources+0x28>
    4018:	4a02      	ldr	r2, [pc, #8]	; (4024 <_sysctrl_init_sources+0x3c>)
    401a:	6a13      	ldr	r3, [r2, #32]
    401c:	2180      	movs	r1, #128	; 0x80
    401e:	430b      	orrs	r3, r1
    4020:	6213      	str	r3, [r2, #32]
    4022:	4770      	bx	lr
    4024:	40000800 	.word	0x40000800
    4028:	0fff0000 	.word	0x0fff0000

0000402c <_sysctrl_init_referenced_generators>:
    402c:	2202      	movs	r2, #2
    402e:	4b17      	ldr	r3, [pc, #92]	; (408c <_sysctrl_init_referenced_generators+0x60>)
    4030:	849a      	strh	r2, [r3, #36]	; 0x24
    4032:	4b16      	ldr	r3, [pc, #88]	; (408c <_sysctrl_init_referenced_generators+0x60>)
    4034:	68db      	ldr	r3, [r3, #12]
    4036:	06db      	lsls	r3, r3, #27
    4038:	d5fb      	bpl.n	4032 <_sysctrl_init_referenced_generators+0x6>
    403a:	4a15      	ldr	r2, [pc, #84]	; (4090 <_sysctrl_init_referenced_generators+0x64>)
    403c:	4b13      	ldr	r3, [pc, #76]	; (408c <_sysctrl_init_referenced_generators+0x60>)
    403e:	62da      	str	r2, [r3, #44]	; 0x2c
    4040:	4b14      	ldr	r3, [pc, #80]	; (4094 <_sysctrl_init_referenced_generators+0x68>)
    4042:	681b      	ldr	r3, [r3, #0]
    4044:	0e9b      	lsrs	r3, r3, #26
    4046:	2b3f      	cmp	r3, #63	; 0x3f
    4048:	d018      	beq.n	407c <_sysctrl_init_referenced_generators+0x50>
    404a:	029b      	lsls	r3, r3, #10
    404c:	2280      	movs	r2, #128	; 0x80
    404e:	0092      	lsls	r2, r2, #2
    4050:	4313      	orrs	r3, r2
    4052:	4a0e      	ldr	r2, [pc, #56]	; (408c <_sysctrl_init_referenced_generators+0x60>)
    4054:	6293      	str	r3, [r2, #40]	; 0x28
    4056:	4b10      	ldr	r3, [pc, #64]	; (4098 <_sysctrl_init_referenced_generators+0x6c>)
    4058:	8493      	strh	r3, [r2, #36]	; 0x24
    405a:	8c93      	ldrh	r3, [r2, #36]	; 0x24
    405c:	075b      	lsls	r3, r3, #29
    405e:	d510      	bpl.n	4082 <_sysctrl_init_referenced_generators+0x56>
    4060:	4b0a      	ldr	r3, [pc, #40]	; (408c <_sysctrl_init_referenced_generators+0x60>)
    4062:	68db      	ldr	r3, [r3, #12]
    4064:	06db      	lsls	r3, r3, #27
    4066:	d5fb      	bpl.n	4060 <_sysctrl_init_referenced_generators+0x34>
    4068:	4b0c      	ldr	r3, [pc, #48]	; (409c <_sysctrl_init_referenced_generators+0x70>)
    406a:	785b      	ldrb	r3, [r3, #1]
    406c:	09db      	lsrs	r3, r3, #7
    406e:	d1fb      	bne.n	4068 <_sysctrl_init_referenced_generators+0x3c>
    4070:	4a06      	ldr	r2, [pc, #24]	; (408c <_sysctrl_init_referenced_generators+0x60>)
    4072:	6993      	ldr	r3, [r2, #24]
    4074:	2102      	movs	r1, #2
    4076:	438b      	bics	r3, r1
    4078:	6193      	str	r3, [r2, #24]
    407a:	4770      	bx	lr
    407c:	23fc      	movs	r3, #252	; 0xfc
    407e:	01db      	lsls	r3, r3, #7
    4080:	e7e7      	b.n	4052 <_sysctrl_init_referenced_generators+0x26>
    4082:	4b02      	ldr	r3, [pc, #8]	; (408c <_sysctrl_init_referenced_generators+0x60>)
    4084:	68db      	ldr	r3, [r3, #12]
    4086:	06db      	lsls	r3, r3, #27
    4088:	d5fb      	bpl.n	4082 <_sysctrl_init_referenced_generators+0x56>
    408a:	e7ed      	b.n	4068 <_sysctrl_init_referenced_generators+0x3c>
    408c:	40000800 	.word	0x40000800
    4090:	0401bb80 	.word	0x0401bb80
    4094:	00806024 	.word	0x00806024
    4098:	00000526 	.word	0x00000526
    409c:	40000c00 	.word	0x40000c00

000040a0 <_dummy_func_no_return>:
    40a0:	2000      	movs	r0, #0
    40a2:	4770      	bx	lr

000040a4 <_usb_load_calib>:
    40a4:	4b12      	ldr	r3, [pc, #72]	; (40f0 <_usb_load_calib+0x4c>)
    40a6:	681a      	ldr	r2, [r3, #0]
    40a8:	0b53      	lsrs	r3, r2, #13
    40aa:	211f      	movs	r1, #31
    40ac:	400b      	ands	r3, r1
    40ae:	0c90      	lsrs	r0, r2, #18
    40b0:	4001      	ands	r1, r0
    40b2:	0dd0      	lsrs	r0, r2, #23
    40b4:	2207      	movs	r2, #7
    40b6:	4002      	ands	r2, r0
    40b8:	2b1f      	cmp	r3, #31
    40ba:	d012      	beq.n	40e2 <_usb_load_calib+0x3e>
    40bc:	291f      	cmp	r1, #31
    40be:	d012      	beq.n	40e6 <_usb_load_calib+0x42>
    40c0:	2a07      	cmp	r2, #7
    40c2:	d012      	beq.n	40ea <_usb_load_calib+0x46>
    40c4:	019b      	lsls	r3, r3, #6
    40c6:	430b      	orrs	r3, r1
    40c8:	0312      	lsls	r2, r2, #12
    40ca:	4313      	orrs	r3, r2
    40cc:	4a09      	ldr	r2, [pc, #36]	; (40f4 <_usb_load_calib+0x50>)
    40ce:	8513      	strh	r3, [r2, #40]	; 0x28
    40d0:	78d3      	ldrb	r3, [r2, #3]
    40d2:	2103      	movs	r1, #3
    40d4:	430b      	orrs	r3, r1
    40d6:	70d3      	strb	r3, [r2, #3]
    40d8:	78d3      	ldrb	r3, [r2, #3]
    40da:	210c      	movs	r1, #12
    40dc:	430b      	orrs	r3, r1
    40de:	70d3      	strb	r3, [r2, #3]
    40e0:	4770      	bx	lr
    40e2:	3b1a      	subs	r3, #26
    40e4:	e7ea      	b.n	40bc <_usb_load_calib+0x18>
    40e6:	3902      	subs	r1, #2
    40e8:	e7ea      	b.n	40c0 <_usb_load_calib+0x1c>
    40ea:	3a02      	subs	r2, #2
    40ec:	e7ea      	b.n	40c4 <_usb_load_calib+0x20>
    40ee:	46c0      	nop			; (mov r8, r8)
    40f0:	00806024 	.word	0x00806024
    40f4:	41005000 	.word	0x41005000

000040f8 <_usb_d_dev_handle_setup>:
    40f8:	b510      	push	{r4, lr}
    40fa:	7c83      	ldrb	r3, [r0, #18]
    40fc:	220f      	movs	r2, #15
    40fe:	4013      	ands	r3, r2
    4100:	7cc1      	ldrb	r1, [r0, #19]
    4102:	3a08      	subs	r2, #8
    4104:	400a      	ands	r2, r1
    4106:	2a01      	cmp	r2, #1
    4108:	d00d      	beq.n	4126 <_usb_d_dev_handle_setup+0x2e>
    410a:	001a      	movs	r2, r3
    410c:	3208      	adds	r2, #8
    410e:	0152      	lsls	r2, r2, #5
    4110:	4919      	ldr	r1, [pc, #100]	; (4178 <_usb_d_dev_handle_setup+0x80>)
    4112:	468c      	mov	ip, r1
    4114:	4462      	add	r2, ip
    4116:	2110      	movs	r1, #16
    4118:	71d1      	strb	r1, [r2, #7]
    411a:	015b      	lsls	r3, r3, #5
    411c:	4a17      	ldr	r2, [pc, #92]	; (417c <_usb_d_dev_handle_setup+0x84>)
    411e:	4694      	mov	ip, r2
    4120:	4463      	add	r3, ip
    4122:	7019      	strb	r1, [r3, #0]
    4124:	bd10      	pop	{r4, pc}
    4126:	064a      	lsls	r2, r1, #25
    4128:	d50c      	bpl.n	4144 <_usb_d_dev_handle_setup+0x4c>
    412a:	7cc2      	ldrb	r2, [r0, #19]
    412c:	2140      	movs	r1, #64	; 0x40
    412e:	438a      	bics	r2, r1
    4130:	74c2      	strb	r2, [r0, #19]
    4132:	001a      	movs	r2, r3
    4134:	3208      	adds	r2, #8
    4136:	0152      	lsls	r2, r2, #5
    4138:	4c0f      	ldr	r4, [pc, #60]	; (4178 <_usb_d_dev_handle_setup+0x80>)
    413a:	46a4      	mov	ip, r4
    413c:	4462      	add	r2, ip
    413e:	2480      	movs	r4, #128	; 0x80
    4140:	7114      	strb	r4, [r2, #4]
    4142:	7151      	strb	r1, [r2, #5]
    4144:	7cc2      	ldrb	r2, [r0, #19]
    4146:	2108      	movs	r1, #8
    4148:	438a      	bics	r2, r1
    414a:	74c2      	strb	r2, [r0, #19]
    414c:	015a      	lsls	r2, r3, #5
    414e:	490c      	ldr	r1, [pc, #48]	; (4180 <_usb_d_dev_handle_setup+0x88>)
    4150:	1889      	adds	r1, r1, r2
    4152:	2400      	movs	r4, #0
    4154:	728c      	strb	r4, [r1, #10]
    4156:	768c      	strb	r4, [r1, #26]
    4158:	3308      	adds	r3, #8
    415a:	015b      	lsls	r3, r3, #5
    415c:	4906      	ldr	r1, [pc, #24]	; (4178 <_usb_d_dev_handle_setup+0x80>)
    415e:	468c      	mov	ip, r1
    4160:	4463      	add	r3, ip
    4162:	216f      	movs	r1, #111	; 0x6f
    4164:	71d9      	strb	r1, [r3, #7]
    4166:	4b05      	ldr	r3, [pc, #20]	; (417c <_usb_d_dev_handle_setup+0x84>)
    4168:	469c      	mov	ip, r3
    416a:	4462      	add	r2, ip
    416c:	7011      	strb	r1, [r2, #0]
    416e:	4b05      	ldr	r3, [pc, #20]	; (4184 <_usb_d_dev_handle_setup+0x8c>)
    4170:	6c9b      	ldr	r3, [r3, #72]	; 0x48
    4172:	7c80      	ldrb	r0, [r0, #18]
    4174:	4798      	blx	r3
    4176:	e7d5      	b.n	4124 <_usb_d_dev_handle_setup+0x2c>
    4178:	41005000 	.word	0x41005000
    417c:	41005108 	.word	0x41005108
    4180:	200003c8 	.word	0x200003c8
    4184:	20000448 	.word	0x20000448

00004188 <_usb_d_dev_handle_stall>:
    4188:	b510      	push	{r4, lr}
    418a:	7c82      	ldrb	r2, [r0, #18]
    418c:	230f      	movs	r3, #15
    418e:	4013      	ands	r3, r2
    4190:	2220      	movs	r2, #32
    4192:	408a      	lsls	r2, r1
    4194:	b2d2      	uxtb	r2, r2
    4196:	015b      	lsls	r3, r3, #5
    4198:	4905      	ldr	r1, [pc, #20]	; (41b0 <_usb_d_dev_handle_stall+0x28>)
    419a:	468c      	mov	ip, r1
    419c:	4463      	add	r3, ip
    419e:	701a      	strb	r2, [r3, #0]
    41a0:	4b04      	ldr	r3, [pc, #16]	; (41b4 <_usb_d_dev_handle_stall+0x2c>)
    41a2:	6d1b      	ldr	r3, [r3, #80]	; 0x50
    41a4:	6882      	ldr	r2, [r0, #8]
    41a6:	7c80      	ldrb	r0, [r0, #18]
    41a8:	2101      	movs	r1, #1
    41aa:	4798      	blx	r3
    41ac:	bd10      	pop	{r4, pc}
    41ae:	46c0      	nop			; (mov r8, r8)
    41b0:	41005108 	.word	0x41005108
    41b4:	20000448 	.word	0x20000448

000041b8 <_usb_d_dev_trans_done>:
    41b8:	b510      	push	{r4, lr}
    41ba:	7c83      	ldrb	r3, [r0, #18]
    41bc:	2bff      	cmp	r3, #255	; 0xff
    41be:	d002      	beq.n	41c6 <_usb_d_dev_trans_done+0xe>
    41c0:	7cc2      	ldrb	r2, [r0, #19]
    41c2:	0652      	lsls	r2, r2, #25
    41c4:	d400      	bmi.n	41c8 <_usb_d_dev_trans_done+0x10>
    41c6:	bd10      	pop	{r4, pc}
    41c8:	7cc2      	ldrb	r2, [r0, #19]
    41ca:	2440      	movs	r4, #64	; 0x40
    41cc:	43a2      	bics	r2, r4
    41ce:	74c2      	strb	r2, [r0, #19]
    41d0:	4a02      	ldr	r2, [pc, #8]	; (41dc <_usb_d_dev_trans_done+0x24>)
    41d2:	6d14      	ldr	r4, [r2, #80]	; 0x50
    41d4:	6882      	ldr	r2, [r0, #8]
    41d6:	0018      	movs	r0, r3
    41d8:	47a0      	blx	r4
    41da:	e7f4      	b.n	41c6 <_usb_d_dev_trans_done+0xe>
    41dc:	20000448 	.word	0x20000448

000041e0 <_usb_d_dev_trans_stop>:
    41e0:	b5f0      	push	{r4, r5, r6, r7, lr}
    41e2:	b083      	sub	sp, #12
    41e4:	7c84      	ldrb	r4, [r0, #18]
    41e6:	230f      	movs	r3, #15
    41e8:	4023      	ands	r3, r4
    41ea:	4d18      	ldr	r5, [pc, #96]	; (424c <_usb_d_dev_trans_stop+0x6c>)
    41ec:	882e      	ldrh	r6, [r5, #0]
    41ee:	ad01      	add	r5, sp, #4
    41f0:	802e      	strh	r6, [r5, #0]
    41f2:	2cff      	cmp	r4, #255	; 0xff
    41f4:	d01e      	beq.n	4234 <_usb_d_dev_trans_stop+0x54>
    41f6:	7cc4      	ldrb	r4, [r0, #19]
    41f8:	0664      	lsls	r4, r4, #25
    41fa:	d51b      	bpl.n	4234 <_usb_d_dev_trans_stop+0x54>
    41fc:	2900      	cmp	r1, #0
    41fe:	d01b      	beq.n	4238 <_usb_d_dev_trans_stop+0x58>
    4200:	001c      	movs	r4, r3
    4202:	3408      	adds	r4, #8
    4204:	0164      	lsls	r4, r4, #5
    4206:	4d12      	ldr	r5, [pc, #72]	; (4250 <_usb_d_dev_trans_stop+0x70>)
    4208:	46ac      	mov	ip, r5
    420a:	4464      	add	r4, ip
    420c:	2580      	movs	r5, #128	; 0x80
    420e:	7125      	strb	r5, [r4, #4]
    4210:	ad01      	add	r5, sp, #4
    4212:	5c6e      	ldrb	r6, [r5, r1]
    4214:	001c      	movs	r4, r3
    4216:	3408      	adds	r4, #8
    4218:	0164      	lsls	r4, r4, #5
    421a:	4f0d      	ldr	r7, [pc, #52]	; (4250 <_usb_d_dev_trans_stop+0x70>)
    421c:	46bc      	mov	ip, r7
    421e:	4464      	add	r4, ip
    4220:	71e6      	strb	r6, [r4, #7]
    4222:	5c69      	ldrb	r1, [r5, r1]
    4224:	015b      	lsls	r3, r3, #5
    4226:	4c0b      	ldr	r4, [pc, #44]	; (4254 <_usb_d_dev_trans_stop+0x74>)
    4228:	46a4      	mov	ip, r4
    422a:	4463      	add	r3, ip
    422c:	7019      	strb	r1, [r3, #0]
    422e:	0011      	movs	r1, r2
    4230:	4b09      	ldr	r3, [pc, #36]	; (4258 <_usb_d_dev_trans_stop+0x78>)
    4232:	4798      	blx	r3
    4234:	b003      	add	sp, #12
    4236:	bdf0      	pop	{r4, r5, r6, r7, pc}
    4238:	001c      	movs	r4, r3
    423a:	3408      	adds	r4, #8
    423c:	0164      	lsls	r4, r4, #5
    423e:	4d04      	ldr	r5, [pc, #16]	; (4250 <_usb_d_dev_trans_stop+0x70>)
    4240:	46ac      	mov	ip, r5
    4242:	4464      	add	r4, ip
    4244:	2540      	movs	r5, #64	; 0x40
    4246:	7165      	strb	r5, [r4, #5]
    4248:	e7e2      	b.n	4210 <_usb_d_dev_trans_stop+0x30>
    424a:	46c0      	nop			; (mov r8, r8)
    424c:	0000ac70 	.word	0x0000ac70
    4250:	41005000 	.word	0x41005000
    4254:	41005108 	.word	0x41005108
    4258:	000041b9 	.word	0x000041b9

0000425c <_usb_d_dev_handle_trfail>:
    425c:	b5f0      	push	{r4, r5, r6, r7, lr}
    425e:	b083      	sub	sp, #12
    4260:	7c83      	ldrb	r3, [r0, #18]
    4262:	220f      	movs	r2, #15
    4264:	4013      	ands	r3, r2
    4266:	4a3c      	ldr	r2, [pc, #240]	; (4358 <_usb_d_dev_handle_trfail+0xfc>)
    4268:	8894      	ldrh	r4, [r2, #4]
    426a:	aa01      	add	r2, sp, #4
    426c:	8014      	strh	r4, [r2, #0]
    426e:	015a      	lsls	r2, r3, #5
    4270:	4c3a      	ldr	r4, [pc, #232]	; (435c <_usb_d_dev_handle_trfail+0x100>)
    4272:	18a4      	adds	r4, r4, r2
    4274:	2900      	cmp	r1, #0
    4276:	d033      	beq.n	42e0 <_usb_d_dev_handle_trfail+0x84>
    4278:	001a      	movs	r2, r3
    427a:	3208      	adds	r2, #8
    427c:	0152      	lsls	r2, r2, #5
    427e:	4d38      	ldr	r5, [pc, #224]	; (4360 <_usb_d_dev_handle_trfail+0x104>)
    4280:	5d52      	ldrb	r2, [r2, r5]
    4282:	0912      	lsrs	r2, r2, #4
    4284:	2507      	movs	r5, #7
    4286:	4015      	ands	r5, r2
    4288:	7cc2      	ldrb	r2, [r0, #19]
    428a:	2607      	movs	r6, #7
    428c:	4016      	ands	r6, r2
    428e:	010a      	lsls	r2, r1, #4
    4290:	18a2      	adds	r2, r4, r2
    4292:	7a94      	ldrb	r4, [r2, #10]
    4294:	b2e4      	uxtb	r4, r4
    4296:	2d02      	cmp	r5, #2
    4298:	d02a      	beq.n	42f0 <_usb_d_dev_handle_trfail+0x94>
    429a:	07a4      	lsls	r4, r4, #30
    429c:	d544      	bpl.n	4328 <_usb_d_dev_handle_trfail+0xcc>
    429e:	7a94      	ldrb	r4, [r2, #10]
    42a0:	2502      	movs	r5, #2
    42a2:	43ac      	bics	r4, r5
    42a4:	7294      	strb	r4, [r2, #10]
    42a6:	ac01      	add	r4, sp, #4
    42a8:	5c65      	ldrb	r5, [r4, r1]
    42aa:	001a      	movs	r2, r3
    42ac:	3208      	adds	r2, #8
    42ae:	0152      	lsls	r2, r2, #5
    42b0:	4f2b      	ldr	r7, [pc, #172]	; (4360 <_usb_d_dev_handle_trfail+0x104>)
    42b2:	46bc      	mov	ip, r7
    42b4:	4462      	add	r2, ip
    42b6:	71d5      	strb	r5, [r2, #7]
    42b8:	5c62      	ldrb	r2, [r4, r1]
    42ba:	015b      	lsls	r3, r3, #5
    42bc:	4c29      	ldr	r4, [pc, #164]	; (4364 <_usb_d_dev_handle_trfail+0x108>)
    42be:	46a4      	mov	ip, r4
    42c0:	4463      	add	r3, ip
    42c2:	701a      	strb	r2, [r3, #0]
    42c4:	2e01      	cmp	r6, #1
    42c6:	d145      	bne.n	4354 <_usb_d_dev_handle_trfail+0xf8>
    42c8:	7cc3      	ldrb	r3, [r0, #19]
    42ca:	065b      	lsls	r3, r3, #25
    42cc:	d542      	bpl.n	4354 <_usb_d_dev_handle_trfail+0xf8>
    42ce:	7cc3      	ldrb	r3, [r0, #19]
    42d0:	09db      	lsrs	r3, r3, #7
    42d2:	4299      	cmp	r1, r3
    42d4:	d03e      	beq.n	4354 <_usb_d_dev_handle_trfail+0xf8>
    42d6:	2200      	movs	r2, #0
    42d8:	0019      	movs	r1, r3
    42da:	4b23      	ldr	r3, [pc, #140]	; (4368 <_usb_d_dev_handle_trfail+0x10c>)
    42dc:	4798      	blx	r3
    42de:	e039      	b.n	4354 <_usb_d_dev_handle_trfail+0xf8>
    42e0:	001a      	movs	r2, r3
    42e2:	3208      	adds	r2, #8
    42e4:	0152      	lsls	r2, r2, #5
    42e6:	4d1e      	ldr	r5, [pc, #120]	; (4360 <_usb_d_dev_handle_trfail+0x104>)
    42e8:	5d55      	ldrb	r5, [r2, r5]
    42ea:	2207      	movs	r2, #7
    42ec:	4015      	ands	r5, r2
    42ee:	e7cb      	b.n	4288 <_usb_d_dev_handle_trfail+0x2c>
    42f0:	07e5      	lsls	r5, r4, #31
    42f2:	d5d2      	bpl.n	429a <_usb_d_dev_handle_trfail+0x3e>
    42f4:	7a94      	ldrb	r4, [r2, #10]
    42f6:	2501      	movs	r5, #1
    42f8:	43ac      	bics	r4, r5
    42fa:	7294      	strb	r4, [r2, #10]
    42fc:	ac01      	add	r4, sp, #4
    42fe:	5c65      	ldrb	r5, [r4, r1]
    4300:	001a      	movs	r2, r3
    4302:	3208      	adds	r2, #8
    4304:	0152      	lsls	r2, r2, #5
    4306:	4e16      	ldr	r6, [pc, #88]	; (4360 <_usb_d_dev_handle_trfail+0x104>)
    4308:	46b4      	mov	ip, r6
    430a:	4462      	add	r2, ip
    430c:	71d5      	strb	r5, [r2, #7]
    430e:	5c62      	ldrb	r2, [r4, r1]
    4310:	015b      	lsls	r3, r3, #5
    4312:	4c14      	ldr	r4, [pc, #80]	; (4364 <_usb_d_dev_handle_trfail+0x108>)
    4314:	46a4      	mov	ip, r4
    4316:	4463      	add	r3, ip
    4318:	701a      	strb	r2, [r3, #0]
    431a:	1e4b      	subs	r3, r1, #1
    431c:	4199      	sbcs	r1, r3
    431e:	b2c9      	uxtb	r1, r1
    4320:	2204      	movs	r2, #4
    4322:	4b11      	ldr	r3, [pc, #68]	; (4368 <_usb_d_dev_handle_trfail+0x10c>)
    4324:	4798      	blx	r3
    4326:	e015      	b.n	4354 <_usb_d_dev_handle_trfail+0xf8>
    4328:	005a      	lsls	r2, r3, #1
    432a:	1852      	adds	r2, r2, r1
    432c:	0112      	lsls	r2, r2, #4
    432e:	480b      	ldr	r0, [pc, #44]	; (435c <_usb_d_dev_handle_trfail+0x100>)
    4330:	1882      	adds	r2, r0, r2
    4332:	2000      	movs	r0, #0
    4334:	7290      	strb	r0, [r2, #10]
    4336:	a801      	add	r0, sp, #4
    4338:	5c44      	ldrb	r4, [r0, r1]
    433a:	001a      	movs	r2, r3
    433c:	3208      	adds	r2, #8
    433e:	0152      	lsls	r2, r2, #5
    4340:	4d07      	ldr	r5, [pc, #28]	; (4360 <_usb_d_dev_handle_trfail+0x104>)
    4342:	46ac      	mov	ip, r5
    4344:	4462      	add	r2, ip
    4346:	71d4      	strb	r4, [r2, #7]
    4348:	5c42      	ldrb	r2, [r0, r1]
    434a:	015b      	lsls	r3, r3, #5
    434c:	4905      	ldr	r1, [pc, #20]	; (4364 <_usb_d_dev_handle_trfail+0x108>)
    434e:	468c      	mov	ip, r1
    4350:	4463      	add	r3, ip
    4352:	701a      	strb	r2, [r3, #0]
    4354:	b003      	add	sp, #12
    4356:	bdf0      	pop	{r4, r5, r6, r7, pc}
    4358:	0000ac70 	.word	0x0000ac70
    435c:	200003c8 	.word	0x200003c8
    4360:	41005000 	.word	0x41005000
    4364:	41005108 	.word	0x41005108
    4368:	000041e1 	.word	0x000041e1

0000436c <_usb_d_dev_reset_epts>:
    436c:	b570      	push	{r4, r5, r6, lr}
    436e:	2500      	movs	r5, #0
    4370:	e018      	b.n	43a4 <_usb_d_dev_reset_epts+0x38>
    4372:	4c10      	ldr	r4, [pc, #64]	; (43b4 <_usb_d_dev_reset_epts+0x48>)
    4374:	3440      	adds	r4, #64	; 0x40
    4376:	00ae      	lsls	r6, r5, #2
    4378:	1973      	adds	r3, r6, r5
    437a:	0098      	lsls	r0, r3, #2
    437c:	3010      	adds	r0, #16
    437e:	1820      	adds	r0, r4, r0
    4380:	3004      	adds	r0, #4
    4382:	2103      	movs	r1, #3
    4384:	4b0c      	ldr	r3, [pc, #48]	; (43b8 <_usb_d_dev_reset_epts+0x4c>)
    4386:	4798      	blx	r3
    4388:	1972      	adds	r2, r6, r5
    438a:	0093      	lsls	r3, r2, #2
    438c:	18e3      	adds	r3, r4, r3
    438e:	3326      	adds	r3, #38	; 0x26
    4390:	22ff      	movs	r2, #255	; 0xff
    4392:	701a      	strb	r2, [r3, #0]
    4394:	1976      	adds	r6, r6, r5
    4396:	00b3      	lsls	r3, r6, #2
    4398:	18e4      	adds	r4, r4, r3
    439a:	3427      	adds	r4, #39	; 0x27
    439c:	2300      	movs	r3, #0
    439e:	7023      	strb	r3, [r4, #0]
    43a0:	3501      	adds	r5, #1
    43a2:	b2ed      	uxtb	r5, r5
    43a4:	2d1a      	cmp	r5, #26
    43a6:	d9e4      	bls.n	4372 <_usb_d_dev_reset_epts+0x6>
    43a8:	22c0      	movs	r2, #192	; 0xc0
    43aa:	2100      	movs	r1, #0
    43ac:	4803      	ldr	r0, [pc, #12]	; (43bc <_usb_d_dev_reset_epts+0x50>)
    43ae:	4b04      	ldr	r3, [pc, #16]	; (43c0 <_usb_d_dev_reset_epts+0x54>)
    43b0:	4798      	blx	r3
    43b2:	bd70      	pop	{r4, r5, r6, pc}
    43b4:	20000448 	.word	0x20000448
    43b8:	000041b9 	.word	0x000041b9
    43bc:	200003c8 	.word	0x200003c8
    43c0:	000094f5 	.word	0x000094f5

000043c4 <_usb_d_dev_in_next>:
    43c4:	b5f0      	push	{r4, r5, r6, r7, lr}
    43c6:	46c6      	mov	lr, r8
    43c8:	b500      	push	{lr}
    43ca:	0005      	movs	r5, r0
    43cc:	000e      	movs	r6, r1
    43ce:	7c83      	ldrb	r3, [r0, #18]
    43d0:	240f      	movs	r4, #15
    43d2:	401c      	ands	r4, r3
    43d4:	0162      	lsls	r2, r4, #5
    43d6:	4b56      	ldr	r3, [pc, #344]	; (4530 <_usb_d_dev_in_next+0x16c>)
    43d8:	189b      	adds	r3, r3, r2
    43da:	2900      	cmp	r1, #0
    43dc:	d058      	beq.n	4490 <_usb_d_dev_in_next+0xcc>
    43de:	6959      	ldr	r1, [r3, #20]
    43e0:	0489      	lsls	r1, r1, #18
    43e2:	0c89      	lsrs	r1, r1, #18
    43e4:	8a2b      	ldrh	r3, [r5, #16]
    43e6:	4a53      	ldr	r2, [pc, #332]	; (4534 <_usb_d_dev_in_next+0x170>)
    43e8:	4293      	cmp	r3, r2
    43ea:	d053      	beq.n	4494 <_usb_d_dev_in_next+0xd0>
    43ec:	3b01      	subs	r3, #1
    43ee:	b21b      	sxth	r3, r3
    43f0:	400b      	ands	r3, r1
    43f2:	7cea      	ldrb	r2, [r5, #19]
    43f4:	2707      	movs	r7, #7
    43f6:	4017      	ands	r7, r2
    43f8:	2e00      	cmp	r6, #0
    43fa:	d007      	beq.n	440c <_usb_d_dev_in_next+0x48>
    43fc:	0022      	movs	r2, r4
    43fe:	3208      	adds	r2, #8
    4400:	0152      	lsls	r2, r2, #5
    4402:	484d      	ldr	r0, [pc, #308]	; (4538 <_usb_d_dev_in_next+0x174>)
    4404:	4684      	mov	ip, r0
    4406:	4462      	add	r2, ip
    4408:	2002      	movs	r0, #2
    440a:	71d0      	strb	r0, [r2, #7]
    440c:	68aa      	ldr	r2, [r5, #8]
    440e:	4694      	mov	ip, r2
    4410:	4461      	add	r1, ip
    4412:	60a9      	str	r1, [r5, #8]
    4414:	686a      	ldr	r2, [r5, #4]
    4416:	4291      	cmp	r1, r2
    4418:	d24e      	bcs.n	44b8 <_usb_d_dev_in_next+0xf4>
    441a:	b292      	uxth	r2, r2
    441c:	b28b      	uxth	r3, r1
    441e:	1ad2      	subs	r2, r2, r3
    4420:	b292      	uxth	r2, r2
    4422:	7ceb      	ldrb	r3, [r5, #19]
    4424:	069b      	lsls	r3, r3, #26
    4426:	d537      	bpl.n	4498 <_usb_d_dev_in_next+0xd4>
    4428:	8a2b      	ldrh	r3, [r5, #16]
    442a:	4698      	mov	r8, r3
    442c:	429a      	cmp	r2, r3
    442e:	d800      	bhi.n	4432 <_usb_d_dev_in_next+0x6e>
    4430:	4690      	mov	r8, r2
    4432:	682b      	ldr	r3, [r5, #0]
    4434:	469c      	mov	ip, r3
    4436:	4461      	add	r1, ip
    4438:	4642      	mov	r2, r8
    443a:	68e8      	ldr	r0, [r5, #12]
    443c:	4b3f      	ldr	r3, [pc, #252]	; (453c <_usb_d_dev_in_next+0x178>)
    443e:	4798      	blx	r3
    4440:	68e9      	ldr	r1, [r5, #12]
    4442:	0162      	lsls	r2, r4, #5
    4444:	4b3a      	ldr	r3, [pc, #232]	; (4530 <_usb_d_dev_in_next+0x16c>)
    4446:	189b      	adds	r3, r3, r2
    4448:	6119      	str	r1, [r3, #16]
    444a:	0163      	lsls	r3, r4, #5
    444c:	4a38      	ldr	r2, [pc, #224]	; (4530 <_usb_d_dev_in_next+0x16c>)
    444e:	18d2      	adds	r2, r2, r3
    4450:	6951      	ldr	r1, [r2, #20]
    4452:	4643      	mov	r3, r8
    4454:	049b      	lsls	r3, r3, #18
    4456:	0c9b      	lsrs	r3, r3, #18
    4458:	0b89      	lsrs	r1, r1, #14
    445a:	0389      	lsls	r1, r1, #14
    445c:	430b      	orrs	r3, r1
    445e:	6153      	str	r3, [r2, #20]
    4460:	6951      	ldr	r1, [r2, #20]
    4462:	4b37      	ldr	r3, [pc, #220]	; (4540 <_usb_d_dev_in_next+0x17c>)
    4464:	400b      	ands	r3, r1
    4466:	6153      	str	r3, [r2, #20]
    4468:	2e00      	cmp	r6, #0
    446a:	d107      	bne.n	447c <_usb_d_dev_in_next+0xb8>
    446c:	2f01      	cmp	r7, #1
    446e:	d05d      	beq.n	452c <_usb_d_dev_in_next+0x168>
    4470:	224a      	movs	r2, #74	; 0x4a
    4472:	0163      	lsls	r3, r4, #5
    4474:	4933      	ldr	r1, [pc, #204]	; (4544 <_usb_d_dev_in_next+0x180>)
    4476:	468c      	mov	ip, r1
    4478:	4463      	add	r3, ip
    447a:	701a      	strb	r2, [r3, #0]
    447c:	3408      	adds	r4, #8
    447e:	0164      	lsls	r4, r4, #5
    4480:	4b2d      	ldr	r3, [pc, #180]	; (4538 <_usb_d_dev_in_next+0x174>)
    4482:	469c      	mov	ip, r3
    4484:	4464      	add	r4, ip
    4486:	2380      	movs	r3, #128	; 0x80
    4488:	7163      	strb	r3, [r4, #5]
    448a:	bc04      	pop	{r2}
    448c:	4690      	mov	r8, r2
    448e:	bdf0      	pop	{r4, r5, r6, r7, pc}
    4490:	2100      	movs	r1, #0
    4492:	e7a7      	b.n	43e4 <_usb_d_dev_in_next+0x20>
    4494:	b21b      	sxth	r3, r3
    4496:	e7ab      	b.n	43f0 <_usb_d_dev_in_next+0x2c>
    4498:	2380      	movs	r3, #128	; 0x80
    449a:	019b      	lsls	r3, r3, #6
    449c:	429a      	cmp	r2, r3
    449e:	d807      	bhi.n	44b0 <_usb_d_dev_in_next+0xec>
    44a0:	4690      	mov	r8, r2
    44a2:	682b      	ldr	r3, [r5, #0]
    44a4:	1859      	adds	r1, r3, r1
    44a6:	0162      	lsls	r2, r4, #5
    44a8:	4b21      	ldr	r3, [pc, #132]	; (4530 <_usb_d_dev_in_next+0x16c>)
    44aa:	189b      	adds	r3, r3, r2
    44ac:	6119      	str	r1, [r3, #16]
    44ae:	e7cc      	b.n	444a <_usb_d_dev_in_next+0x86>
    44b0:	2380      	movs	r3, #128	; 0x80
    44b2:	019b      	lsls	r3, r3, #6
    44b4:	4698      	mov	r8, r3
    44b6:	e7f4      	b.n	44a2 <_usb_d_dev_in_next+0xde>
    44b8:	7cea      	ldrb	r2, [r5, #19]
    44ba:	06d2      	lsls	r2, r2, #27
    44bc:	d50f      	bpl.n	44de <_usb_d_dev_in_next+0x11a>
    44be:	7ceb      	ldrb	r3, [r5, #19]
    44c0:	2210      	movs	r2, #16
    44c2:	4393      	bics	r3, r2
    44c4:	74eb      	strb	r3, [r5, #19]
    44c6:	0162      	lsls	r2, r4, #5
    44c8:	4b19      	ldr	r3, [pc, #100]	; (4530 <_usb_d_dev_in_next+0x16c>)
    44ca:	189b      	adds	r3, r3, r2
    44cc:	695a      	ldr	r2, [r3, #20]
    44ce:	0b92      	lsrs	r2, r2, #14
    44d0:	0391      	lsls	r1, r2, #14
    44d2:	6159      	str	r1, [r3, #20]
    44d4:	6959      	ldr	r1, [r3, #20]
    44d6:	4a1a      	ldr	r2, [pc, #104]	; (4540 <_usb_d_dev_in_next+0x17c>)
    44d8:	400a      	ands	r2, r1
    44da:	615a      	str	r2, [r3, #20]
    44dc:	e7c4      	b.n	4468 <_usb_d_dev_in_next+0xa4>
    44de:	2f01      	cmp	r7, #1
    44e0:	d00d      	beq.n	44fe <_usb_d_dev_in_next+0x13a>
    44e2:	0164      	lsls	r4, r4, #5
    44e4:	4a18      	ldr	r2, [pc, #96]	; (4548 <_usb_d_dev_in_next+0x184>)
    44e6:	4694      	mov	ip, r2
    44e8:	4464      	add	r4, ip
    44ea:	224a      	movs	r2, #74	; 0x4a
    44ec:	7022      	strb	r2, [r4, #0]
    44ee:	8a2a      	ldrh	r2, [r5, #16]
    44f0:	4293      	cmp	r3, r2
    44f2:	d00b      	beq.n	450c <_usb_d_dev_in_next+0x148>
    44f4:	2100      	movs	r1, #0
    44f6:	0028      	movs	r0, r5
    44f8:	4b14      	ldr	r3, [pc, #80]	; (454c <_usb_d_dev_in_next+0x188>)
    44fa:	4798      	blx	r3
    44fc:	e7c5      	b.n	448a <_usb_d_dev_in_next+0xc6>
    44fe:	0164      	lsls	r4, r4, #5
    4500:	4a11      	ldr	r2, [pc, #68]	; (4548 <_usb_d_dev_in_next+0x184>)
    4502:	4694      	mov	ip, r2
    4504:	4464      	add	r4, ip
    4506:	224b      	movs	r2, #75	; 0x4b
    4508:	7022      	strb	r2, [r4, #0]
    450a:	e7f0      	b.n	44ee <_usb_d_dev_in_next+0x12a>
    450c:	7ceb      	ldrb	r3, [r5, #19]
    450e:	2240      	movs	r2, #64	; 0x40
    4510:	4393      	bics	r3, r2
    4512:	74eb      	strb	r3, [r5, #19]
    4514:	4b0e      	ldr	r3, [pc, #56]	; (4550 <_usb_d_dev_in_next+0x18c>)
    4516:	6cdb      	ldr	r3, [r3, #76]	; 0x4c
    4518:	7ca8      	ldrb	r0, [r5, #18]
    451a:	68a9      	ldr	r1, [r5, #8]
    451c:	4798      	blx	r3
    451e:	2800      	cmp	r0, #0
    4520:	d1b3      	bne.n	448a <_usb_d_dev_in_next+0xc6>
    4522:	7ceb      	ldrb	r3, [r5, #19]
    4524:	2240      	movs	r2, #64	; 0x40
    4526:	4313      	orrs	r3, r2
    4528:	74eb      	strb	r3, [r5, #19]
    452a:	e7e3      	b.n	44f4 <_usb_d_dev_in_next+0x130>
    452c:	224e      	movs	r2, #78	; 0x4e
    452e:	e7a0      	b.n	4472 <_usb_d_dev_in_next+0xae>
    4530:	200003c8 	.word	0x200003c8
    4534:	000003ff 	.word	0x000003ff
    4538:	41005000 	.word	0x41005000
    453c:	000094e3 	.word	0x000094e3
    4540:	f0003fff 	.word	0xf0003fff
    4544:	41005109 	.word	0x41005109
    4548:	41005108 	.word	0x41005108
    454c:	000041b9 	.word	0x000041b9
    4550:	20000448 	.word	0x20000448

00004554 <_usb_d_dev_out_next>:
    4554:	b5f8      	push	{r3, r4, r5, r6, r7, lr}
    4556:	46de      	mov	lr, fp
    4558:	4657      	mov	r7, sl
    455a:	464e      	mov	r6, r9
    455c:	4645      	mov	r5, r8
    455e:	b5e0      	push	{r5, r6, r7, lr}
    4560:	0004      	movs	r4, r0
    4562:	000f      	movs	r7, r1
    4564:	7c83      	ldrb	r3, [r0, #18]
    4566:	250f      	movs	r5, #15
    4568:	401d      	ands	r5, r3
    456a:	2900      	cmp	r1, #0
    456c:	d059      	beq.n	4622 <_usb_d_dev_out_next+0xce>
    456e:	016a      	lsls	r2, r5, #5
    4570:	4b71      	ldr	r3, [pc, #452]	; (4738 <_usb_d_dev_out_next+0x1e4>)
    4572:	189b      	adds	r3, r3, r2
    4574:	685b      	ldr	r3, [r3, #4]
    4576:	011b      	lsls	r3, r3, #4
    4578:	0c9b      	lsrs	r3, r3, #18
    457a:	469a      	mov	sl, r3
    457c:	2f00      	cmp	r7, #0
    457e:	d053      	beq.n	4628 <_usb_d_dev_out_next+0xd4>
    4580:	016a      	lsls	r2, r5, #5
    4582:	4b6d      	ldr	r3, [pc, #436]	; (4738 <_usb_d_dev_out_next+0x1e4>)
    4584:	189b      	adds	r3, r3, r2
    4586:	685b      	ldr	r3, [r3, #4]
    4588:	049b      	lsls	r3, r3, #18
    458a:	0c9b      	lsrs	r3, r3, #18
    458c:	4698      	mov	r8, r3
    458e:	8a26      	ldrh	r6, [r4, #16]
    4590:	4b6a      	ldr	r3, [pc, #424]	; (473c <_usb_d_dev_out_next+0x1e8>)
    4592:	429e      	cmp	r6, r3
    4594:	d001      	beq.n	459a <_usb_d_dev_out_next+0x46>
    4596:	3e01      	subs	r6, #1
    4598:	b2b6      	uxth	r6, r6
    459a:	4643      	mov	r3, r8
    459c:	4033      	ands	r3, r6
    459e:	469b      	mov	fp, r3
    45a0:	7ce3      	ldrb	r3, [r4, #19]
    45a2:	2207      	movs	r2, #7
    45a4:	401a      	ands	r2, r3
    45a6:	4691      	mov	r9, r2
    45a8:	2f00      	cmp	r7, #0
    45aa:	d007      	beq.n	45bc <_usb_d_dev_out_next+0x68>
    45ac:	002b      	movs	r3, r5
    45ae:	3308      	adds	r3, #8
    45b0:	015b      	lsls	r3, r3, #5
    45b2:	4a63      	ldr	r2, [pc, #396]	; (4740 <_usb_d_dev_out_next+0x1ec>)
    45b4:	4694      	mov	ip, r2
    45b6:	4463      	add	r3, ip
    45b8:	2201      	movs	r2, #1
    45ba:	71da      	strb	r2, [r3, #7]
    45bc:	7ce3      	ldrb	r3, [r4, #19]
    45be:	069b      	lsls	r3, r3, #26
    45c0:	d511      	bpl.n	45e6 <_usb_d_dev_out_next+0x92>
    45c2:	6862      	ldr	r2, [r4, #4]
    45c4:	2a00      	cmp	r2, #0
    45c6:	d00e      	beq.n	45e6 <_usb_d_dev_out_next+0x92>
    45c8:	b292      	uxth	r2, r2
    45ca:	8923      	ldrh	r3, [r4, #8]
    45cc:	1ad2      	subs	r2, r2, r3
    45ce:	b292      	uxth	r2, r2
    45d0:	6823      	ldr	r3, [r4, #0]
    45d2:	68a1      	ldr	r1, [r4, #8]
    45d4:	468c      	mov	ip, r1
    45d6:	4463      	add	r3, ip
    45d8:	0018      	movs	r0, r3
    45da:	68e1      	ldr	r1, [r4, #12]
    45dc:	4593      	cmp	fp, r2
    45de:	d200      	bcs.n	45e2 <_usb_d_dev_out_next+0x8e>
    45e0:	465a      	mov	r2, fp
    45e2:	4b58      	ldr	r3, [pc, #352]	; (4744 <_usb_d_dev_out_next+0x1f0>)
    45e4:	4798      	blx	r3
    45e6:	6863      	ldr	r3, [r4, #4]
    45e8:	2b00      	cmp	r3, #0
    45ea:	d120      	bne.n	462e <_usb_d_dev_out_next+0xda>
    45ec:	7ce2      	ldrb	r2, [r4, #19]
    45ee:	06d2      	lsls	r2, r2, #27
    45f0:	d51d      	bpl.n	462e <_usb_d_dev_out_next+0xda>
    45f2:	7ce3      	ldrb	r3, [r4, #19]
    45f4:	2210      	movs	r2, #16
    45f6:	4393      	bics	r3, r2
    45f8:	2220      	movs	r2, #32
    45fa:	4313      	orrs	r3, r2
    45fc:	74e3      	strb	r3, [r4, #19]
    45fe:	494e      	ldr	r1, [pc, #312]	; (4738 <_usb_d_dev_out_next+0x1e4>)
    4600:	016a      	lsls	r2, r5, #5
    4602:	68e3      	ldr	r3, [r4, #12]
    4604:	5053      	str	r3, [r2, r1]
    4606:	8a23      	ldrh	r3, [r4, #16]
    4608:	188a      	adds	r2, r1, r2
    460a:	6851      	ldr	r1, [r2, #4]
    460c:	049b      	lsls	r3, r3, #18
    460e:	091b      	lsrs	r3, r3, #4
    4610:	484d      	ldr	r0, [pc, #308]	; (4748 <_usb_d_dev_out_next+0x1f4>)
    4612:	4001      	ands	r1, r0
    4614:	430b      	orrs	r3, r1
    4616:	6053      	str	r3, [r2, #4]
    4618:	6853      	ldr	r3, [r2, #4]
    461a:	0b9b      	lsrs	r3, r3, #14
    461c:	0399      	lsls	r1, r3, #14
    461e:	6051      	str	r1, [r2, #4]
    4620:	e047      	b.n	46b2 <_usb_d_dev_out_next+0x15e>
    4622:	2300      	movs	r3, #0
    4624:	469a      	mov	sl, r3
    4626:	e7a9      	b.n	457c <_usb_d_dev_out_next+0x28>
    4628:	2300      	movs	r3, #0
    462a:	4698      	mov	r8, r3
    462c:	e7af      	b.n	458e <_usb_d_dev_out_next+0x3a>
    462e:	2f00      	cmp	r7, #0
    4630:	d01d      	beq.n	466e <_usb_d_dev_out_next+0x11a>
    4632:	8a22      	ldrh	r2, [r4, #16]
    4634:	4593      	cmp	fp, r2
    4636:	d21a      	bcs.n	466e <_usb_d_dev_out_next+0x11a>
    4638:	7ce3      	ldrb	r3, [r4, #19]
    463a:	2210      	movs	r2, #16
    463c:	4393      	bics	r3, r2
    463e:	74e3      	strb	r3, [r4, #19]
    4640:	68a3      	ldr	r3, [r4, #8]
    4642:	4443      	add	r3, r8
    4644:	60a3      	str	r3, [r4, #8]
    4646:	464b      	mov	r3, r9
    4648:	2b01      	cmp	r3, #1
    464a:	d066      	beq.n	471a <_usb_d_dev_out_next+0x1c6>
    464c:	016b      	lsls	r3, r5, #5
    464e:	4a3f      	ldr	r2, [pc, #252]	; (474c <_usb_d_dev_out_next+0x1f8>)
    4650:	4694      	mov	ip, r2
    4652:	4463      	add	r3, ip
    4654:	2225      	movs	r2, #37	; 0x25
    4656:	701a      	strb	r2, [r3, #0]
    4658:	2d00      	cmp	r5, #0
    465a:	d103      	bne.n	4664 <_usb_d_dev_out_next+0x110>
    465c:	016d      	lsls	r5, r5, #5
    465e:	4b36      	ldr	r3, [pc, #216]	; (4738 <_usb_d_dev_out_next+0x1e4>)
    4660:	68e2      	ldr	r2, [r4, #12]
    4662:	50ea      	str	r2, [r5, r3]
    4664:	2100      	movs	r1, #0
    4666:	0020      	movs	r0, r4
    4668:	4b39      	ldr	r3, [pc, #228]	; (4750 <_usb_d_dev_out_next+0x1fc>)
    466a:	4798      	blx	r3
    466c:	e033      	b.n	46d6 <_usb_d_dev_out_next+0x182>
    466e:	68a2      	ldr	r2, [r4, #8]
    4670:	4452      	add	r2, sl
    4672:	60a2      	str	r2, [r4, #8]
    4674:	4293      	cmp	r3, r2
    4676:	d9e6      	bls.n	4646 <_usb_d_dev_out_next+0xf2>
    4678:	b29b      	uxth	r3, r3
    467a:	b291      	uxth	r1, r2
    467c:	1a5b      	subs	r3, r3, r1
    467e:	b29b      	uxth	r3, r3
    4680:	7ce1      	ldrb	r1, [r4, #19]
    4682:	0689      	lsls	r1, r1, #26
    4684:	d52d      	bpl.n	46e2 <_usb_d_dev_out_next+0x18e>
    4686:	8a21      	ldrh	r1, [r4, #16]
    4688:	428b      	cmp	r3, r1
    468a:	d800      	bhi.n	468e <_usb_d_dev_out_next+0x13a>
    468c:	0019      	movs	r1, r3
    468e:	68e0      	ldr	r0, [r4, #12]
    4690:	016b      	lsls	r3, r5, #5
    4692:	4a29      	ldr	r2, [pc, #164]	; (4738 <_usb_d_dev_out_next+0x1e4>)
    4694:	5098      	str	r0, [r3, r2]
    4696:	016b      	lsls	r3, r5, #5
    4698:	4827      	ldr	r0, [pc, #156]	; (4738 <_usb_d_dev_out_next+0x1e4>)
    469a:	18c0      	adds	r0, r0, r3
    469c:	6842      	ldr	r2, [r0, #4]
    469e:	048b      	lsls	r3, r1, #18
    46a0:	091b      	lsrs	r3, r3, #4
    46a2:	4929      	ldr	r1, [pc, #164]	; (4748 <_usb_d_dev_out_next+0x1f4>)
    46a4:	400a      	ands	r2, r1
    46a6:	4313      	orrs	r3, r2
    46a8:	6043      	str	r3, [r0, #4]
    46aa:	6843      	ldr	r3, [r0, #4]
    46ac:	0b9b      	lsrs	r3, r3, #14
    46ae:	039a      	lsls	r2, r3, #14
    46b0:	6042      	str	r2, [r0, #4]
    46b2:	2f00      	cmp	r7, #0
    46b4:	d108      	bne.n	46c8 <_usb_d_dev_out_next+0x174>
    46b6:	464b      	mov	r3, r9
    46b8:	2b01      	cmp	r3, #1
    46ba:	d035      	beq.n	4728 <_usb_d_dev_out_next+0x1d4>
    46bc:	2225      	movs	r2, #37	; 0x25
    46be:	016b      	lsls	r3, r5, #5
    46c0:	4924      	ldr	r1, [pc, #144]	; (4754 <_usb_d_dev_out_next+0x200>)
    46c2:	468c      	mov	ip, r1
    46c4:	4463      	add	r3, ip
    46c6:	701a      	strb	r2, [r3, #0]
    46c8:	3508      	adds	r5, #8
    46ca:	016d      	lsls	r5, r5, #5
    46cc:	4b1c      	ldr	r3, [pc, #112]	; (4740 <_usb_d_dev_out_next+0x1ec>)
    46ce:	469c      	mov	ip, r3
    46d0:	4465      	add	r5, ip
    46d2:	2340      	movs	r3, #64	; 0x40
    46d4:	712b      	strb	r3, [r5, #4]
    46d6:	bc3c      	pop	{r2, r3, r4, r5}
    46d8:	4690      	mov	r8, r2
    46da:	4699      	mov	r9, r3
    46dc:	46a2      	mov	sl, r4
    46de:	46ab      	mov	fp, r5
    46e0:	bdf8      	pop	{r3, r4, r5, r6, r7, pc}
    46e2:	8a21      	ldrh	r1, [r4, #16]
    46e4:	428b      	cmp	r3, r1
    46e6:	d90b      	bls.n	4700 <_usb_d_dev_out_next+0x1ac>
    46e8:	2180      	movs	r1, #128	; 0x80
    46ea:	0189      	lsls	r1, r1, #6
    46ec:	428b      	cmp	r3, r1
    46ee:	d80f      	bhi.n	4710 <_usb_d_dev_out_next+0x1bc>
    46f0:	43b3      	bics	r3, r6
    46f2:	0019      	movs	r1, r3
    46f4:	6823      	ldr	r3, [r4, #0]
    46f6:	189a      	adds	r2, r3, r2
    46f8:	016b      	lsls	r3, r5, #5
    46fa:	480f      	ldr	r0, [pc, #60]	; (4738 <_usb_d_dev_out_next+0x1e4>)
    46fc:	501a      	str	r2, [r3, r0]
    46fe:	e7ca      	b.n	4696 <_usb_d_dev_out_next+0x142>
    4700:	428b      	cmp	r3, r1
    4702:	d208      	bcs.n	4716 <_usb_d_dev_out_next+0x1c2>
    4704:	7ce1      	ldrb	r1, [r4, #19]
    4706:	2020      	movs	r0, #32
    4708:	4301      	orrs	r1, r0
    470a:	74e1      	strb	r1, [r4, #19]
    470c:	0019      	movs	r1, r3
    470e:	e7f1      	b.n	46f4 <_usb_d_dev_out_next+0x1a0>
    4710:	2180      	movs	r1, #128	; 0x80
    4712:	0189      	lsls	r1, r1, #6
    4714:	e7ee      	b.n	46f4 <_usb_d_dev_out_next+0x1a0>
    4716:	0019      	movs	r1, r3
    4718:	e7ec      	b.n	46f4 <_usb_d_dev_out_next+0x1a0>
    471a:	016b      	lsls	r3, r5, #5
    471c:	4a0b      	ldr	r2, [pc, #44]	; (474c <_usb_d_dev_out_next+0x1f8>)
    471e:	4694      	mov	ip, r2
    4720:	4463      	add	r3, ip
    4722:	222d      	movs	r2, #45	; 0x2d
    4724:	701a      	strb	r2, [r3, #0]
    4726:	e797      	b.n	4658 <_usb_d_dev_out_next+0x104>
    4728:	016a      	lsls	r2, r5, #5
    472a:	4b03      	ldr	r3, [pc, #12]	; (4738 <_usb_d_dev_out_next+0x1e4>)
    472c:	189b      	adds	r3, r3, r2
    472e:	2200      	movs	r2, #0
    4730:	769a      	strb	r2, [r3, #26]
    4732:	322d      	adds	r2, #45	; 0x2d
    4734:	e7c3      	b.n	46be <_usb_d_dev_out_next+0x16a>
    4736:	46c0      	nop			; (mov r8, r8)
    4738:	200003c8 	.word	0x200003c8
    473c:	000003ff 	.word	0x000003ff
    4740:	41005000 	.word	0x41005000
    4744:	000094e3 	.word	0x000094e3
    4748:	f0003fff 	.word	0xf0003fff
    474c:	41005108 	.word	0x41005108
    4750:	000041b9 	.word	0x000041b9
    4754:	41005109 	.word	0x41005109

00004758 <_usb_d_dev_handler>:
    4758:	b570      	push	{r4, r5, r6, lr}
    475a:	4b89      	ldr	r3, [pc, #548]	; (4980 <_usb_d_dev_handler+0x228>)
    475c:	8c1d      	ldrh	r5, [r3, #32]
    475e:	b2ad      	uxth	r5, r5
    4760:	2d00      	cmp	r5, #0
    4762:	d001      	beq.n	4768 <_usb_d_dev_handler+0x10>
    4764:	2400      	movs	r4, #0
    4766:	e0bf      	b.n	48e8 <_usb_d_dev_handler+0x190>
    4768:	8b99      	ldrh	r1, [r3, #28]
    476a:	8b1b      	ldrh	r3, [r3, #24]
    476c:	400b      	ands	r3, r1
    476e:	075a      	lsls	r2, r3, #29
    4770:	d40d      	bmi.n	478e <_usb_d_dev_handler+0x36>
    4772:	059a      	lsls	r2, r3, #22
    4774:	d415      	bmi.n	47a2 <_usb_d_dev_handler+0x4a>
    4776:	061a      	lsls	r2, r3, #24
    4778:	d437      	bmi.n	47ea <_usb_d_dev_handler+0x92>
    477a:	2270      	movs	r2, #112	; 0x70
    477c:	421a      	tst	r2, r3
    477e:	d13e      	bne.n	47fe <_usb_d_dev_handler+0xa6>
    4780:	071a      	lsls	r2, r3, #28
    4782:	d457      	bmi.n	4834 <_usb_d_dev_handler+0xdc>
    4784:	07db      	lsls	r3, r3, #31
    4786:	d500      	bpl.n	478a <_usb_d_dev_handler+0x32>
    4788:	e068      	b.n	485c <_usb_d_dev_handler+0x104>
    478a:	2300      	movs	r3, #0
    478c:	e006      	b.n	479c <_usb_d_dev_handler+0x44>
    478e:	2204      	movs	r2, #4
    4790:	4b7b      	ldr	r3, [pc, #492]	; (4980 <_usb_d_dev_handler+0x228>)
    4792:	839a      	strh	r2, [r3, #28]
    4794:	4b7b      	ldr	r3, [pc, #492]	; (4984 <_usb_d_dev_handler+0x22c>)
    4796:	6c1b      	ldr	r3, [r3, #64]	; 0x40
    4798:	4798      	blx	r3
    479a:	2301      	movs	r3, #1
    479c:	2b00      	cmp	r3, #0
    479e:	d0e1      	beq.n	4764 <_usb_d_dev_handler+0xc>
    47a0:	bd70      	pop	{r4, r5, r6, pc}
    47a2:	4b77      	ldr	r3, [pc, #476]	; (4980 <_usb_d_dev_handler+0x228>)
    47a4:	4a78      	ldr	r2, [pc, #480]	; (4988 <_usb_d_dev_handler+0x230>)
    47a6:	839a      	strh	r2, [r3, #28]
    47a8:	829a      	strh	r2, [r3, #20]
    47aa:	3a92      	subs	r2, #146	; 0x92
    47ac:	3aff      	subs	r2, #255	; 0xff
    47ae:	831a      	strh	r2, [r3, #24]
    47b0:	2300      	movs	r3, #0
    47b2:	e001      	b.n	47b8 <_usb_d_dev_handler+0x60>
    47b4:	3301      	adds	r3, #1
    47b6:	b2db      	uxtb	r3, r3
    47b8:	2b04      	cmp	r3, #4
    47ba:	d80f      	bhi.n	47dc <_usb_d_dev_handler+0x84>
    47bc:	0158      	lsls	r0, r3, #5
    47be:	4a73      	ldr	r2, [pc, #460]	; (498c <_usb_d_dev_handler+0x234>)
    47c0:	1812      	adds	r2, r2, r0
    47c2:	8912      	ldrh	r2, [r2, #8]
    47c4:	0712      	lsls	r2, r2, #28
    47c6:	0f12      	lsrs	r2, r2, #28
    47c8:	2a03      	cmp	r2, #3
    47ca:	d1f3      	bne.n	47b4 <_usb_d_dev_handler+0x5c>
    47cc:	4b6f      	ldr	r3, [pc, #444]	; (498c <_usb_d_dev_handler+0x234>)
    47ce:	181b      	adds	r3, r3, r0
    47d0:	8919      	ldrh	r1, [r3, #8]
    47d2:	0449      	lsls	r1, r1, #17
    47d4:	0d49      	lsrs	r1, r1, #21
    47d6:	2200      	movs	r2, #0
    47d8:	811a      	strh	r2, [r3, #8]
    47da:	e000      	b.n	47de <_usb_d_dev_handler+0x86>
    47dc:	2100      	movs	r1, #0
    47de:	4b69      	ldr	r3, [pc, #420]	; (4984 <_usb_d_dev_handler+0x22c>)
    47e0:	6c5b      	ldr	r3, [r3, #68]	; 0x44
    47e2:	2003      	movs	r0, #3
    47e4:	4798      	blx	r3
    47e6:	2301      	movs	r3, #1
    47e8:	e7d8      	b.n	479c <_usb_d_dev_handler+0x44>
    47ea:	2280      	movs	r2, #128	; 0x80
    47ec:	4b64      	ldr	r3, [pc, #400]	; (4980 <_usb_d_dev_handler+0x228>)
    47ee:	839a      	strh	r2, [r3, #28]
    47f0:	4b64      	ldr	r3, [pc, #400]	; (4984 <_usb_d_dev_handler+0x22c>)
    47f2:	6c5b      	ldr	r3, [r3, #68]	; 0x44
    47f4:	2100      	movs	r1, #0
    47f6:	2005      	movs	r0, #5
    47f8:	4798      	blx	r3
    47fa:	2301      	movs	r3, #1
    47fc:	e7ce      	b.n	479c <_usb_d_dev_handler+0x44>
    47fe:	4b60      	ldr	r3, [pc, #384]	; (4980 <_usb_d_dev_handler+0x228>)
    4800:	839a      	strh	r2, [r3, #28]
    4802:	829a      	strh	r2, [r3, #20]
    4804:	4a60      	ldr	r2, [pc, #384]	; (4988 <_usb_d_dev_handler+0x230>)
    4806:	831a      	strh	r2, [r3, #24]
    4808:	4b61      	ldr	r3, [pc, #388]	; (4990 <_usb_d_dev_handler+0x238>)
    480a:	8c9b      	ldrh	r3, [r3, #36]	; 0x24
    480c:	069b      	lsls	r3, r3, #26
    480e:	d40c      	bmi.n	482a <_usb_d_dev_handler+0xd2>
    4810:	4b5f      	ldr	r3, [pc, #380]	; (4990 <_usb_d_dev_handler+0x238>)
    4812:	68da      	ldr	r2, [r3, #12]
    4814:	23d0      	movs	r3, #208	; 0xd0
    4816:	4013      	ands	r3, r2
    4818:	2bd0      	cmp	r3, #208	; 0xd0
    481a:	d1f9      	bne.n	4810 <_usb_d_dev_handler+0xb8>
    481c:	4b59      	ldr	r3, [pc, #356]	; (4984 <_usb_d_dev_handler+0x22c>)
    481e:	6c5b      	ldr	r3, [r3, #68]	; 0x44
    4820:	2100      	movs	r1, #0
    4822:	2002      	movs	r0, #2
    4824:	4798      	blx	r3
    4826:	2301      	movs	r3, #1
    4828:	e7b8      	b.n	479c <_usb_d_dev_handler+0x44>
    482a:	4b59      	ldr	r3, [pc, #356]	; (4990 <_usb_d_dev_handler+0x238>)
    482c:	68db      	ldr	r3, [r3, #12]
    482e:	06db      	lsls	r3, r3, #27
    4830:	d5fb      	bpl.n	482a <_usb_d_dev_handler+0xd2>
    4832:	e7f3      	b.n	481c <_usb_d_dev_handler+0xc4>
    4834:	4b52      	ldr	r3, [pc, #328]	; (4980 <_usb_d_dev_handler+0x228>)
    4836:	2100      	movs	r1, #0
    4838:	2280      	movs	r2, #128	; 0x80
    483a:	0052      	lsls	r2, r2, #1
    483c:	5499      	strb	r1, [r3, r2]
    483e:	3af8      	subs	r2, #248	; 0xf8
    4840:	839a      	strh	r2, [r3, #28]
    4842:	3268      	adds	r2, #104	; 0x68
    4844:	829a      	strh	r2, [r3, #20]
    4846:	4a50      	ldr	r2, [pc, #320]	; (4988 <_usb_d_dev_handler+0x230>)
    4848:	831a      	strh	r2, [r3, #24]
    484a:	4b52      	ldr	r3, [pc, #328]	; (4994 <_usb_d_dev_handler+0x23c>)
    484c:	4798      	blx	r3
    484e:	4b4d      	ldr	r3, [pc, #308]	; (4984 <_usb_d_dev_handler+0x22c>)
    4850:	6c5b      	ldr	r3, [r3, #68]	; 0x44
    4852:	2100      	movs	r1, #0
    4854:	2001      	movs	r0, #1
    4856:	4798      	blx	r3
    4858:	2301      	movs	r3, #1
    485a:	e79f      	b.n	479c <_usb_d_dev_handler+0x44>
    485c:	4b48      	ldr	r3, [pc, #288]	; (4980 <_usb_d_dev_handler+0x228>)
    485e:	4a4a      	ldr	r2, [pc, #296]	; (4988 <_usb_d_dev_handler+0x230>)
    4860:	839a      	strh	r2, [r3, #28]
    4862:	829a      	strh	r2, [r3, #20]
    4864:	3a92      	subs	r2, #146	; 0x92
    4866:	3aff      	subs	r2, #255	; 0xff
    4868:	831a      	strh	r2, [r3, #24]
    486a:	4b46      	ldr	r3, [pc, #280]	; (4984 <_usb_d_dev_handler+0x22c>)
    486c:	6c5b      	ldr	r3, [r3, #68]	; 0x44
    486e:	2100      	movs	r1, #0
    4870:	2004      	movs	r0, #4
    4872:	4798      	blx	r3
    4874:	2301      	movs	r3, #1
    4876:	e791      	b.n	479c <_usb_d_dev_handler+0x44>
    4878:	06da      	lsls	r2, r3, #27
    487a:	d407      	bmi.n	488c <_usb_d_dev_handler+0x134>
    487c:	065a      	lsls	r2, r3, #25
    487e:	d408      	bmi.n	4892 <_usb_d_dev_handler+0x13a>
    4880:	069b      	lsls	r3, r3, #26
    4882:	d52f      	bpl.n	48e4 <_usb_d_dev_handler+0x18c>
    4884:	2100      	movs	r1, #0
    4886:	4b44      	ldr	r3, [pc, #272]	; (4998 <_usb_d_dev_handler+0x240>)
    4888:	4798      	blx	r3
    488a:	e02b      	b.n	48e4 <_usb_d_dev_handler+0x18c>
    488c:	4b43      	ldr	r3, [pc, #268]	; (499c <_usb_d_dev_handler+0x244>)
    488e:	4798      	blx	r3
    4890:	e028      	b.n	48e4 <_usb_d_dev_handler+0x18c>
    4892:	2101      	movs	r1, #1
    4894:	4b40      	ldr	r3, [pc, #256]	; (4998 <_usb_d_dev_handler+0x240>)
    4896:	4798      	blx	r3
    4898:	e024      	b.n	48e4 <_usb_d_dev_handler+0x18c>
    489a:	065a      	lsls	r2, r3, #25
    489c:	d40f      	bmi.n	48be <_usb_d_dev_handler+0x166>
    489e:	071a      	lsls	r2, r3, #28
    48a0:	d411      	bmi.n	48c6 <_usb_d_dev_handler+0x16e>
    48a2:	079a      	lsls	r2, r3, #30
    48a4:	d413      	bmi.n	48ce <_usb_d_dev_handler+0x176>
    48a6:	7cc1      	ldrb	r1, [r0, #19]
    48a8:	2207      	movs	r2, #7
    48aa:	400a      	ands	r2, r1
    48ac:	2a01      	cmp	r2, #1
    48ae:	d119      	bne.n	48e4 <_usb_d_dev_handler+0x18c>
    48b0:	075a      	lsls	r2, r3, #29
    48b2:	d410      	bmi.n	48d6 <_usb_d_dev_handler+0x17e>
    48b4:	06db      	lsls	r3, r3, #27
    48b6:	d515      	bpl.n	48e4 <_usb_d_dev_handler+0x18c>
    48b8:	4b38      	ldr	r3, [pc, #224]	; (499c <_usb_d_dev_handler+0x244>)
    48ba:	4798      	blx	r3
    48bc:	e012      	b.n	48e4 <_usb_d_dev_handler+0x18c>
    48be:	2101      	movs	r1, #1
    48c0:	4b35      	ldr	r3, [pc, #212]	; (4998 <_usb_d_dev_handler+0x240>)
    48c2:	4798      	blx	r3
    48c4:	e00e      	b.n	48e4 <_usb_d_dev_handler+0x18c>
    48c6:	2101      	movs	r1, #1
    48c8:	4b35      	ldr	r3, [pc, #212]	; (49a0 <_usb_d_dev_handler+0x248>)
    48ca:	4798      	blx	r3
    48cc:	e00a      	b.n	48e4 <_usb_d_dev_handler+0x18c>
    48ce:	2101      	movs	r1, #1
    48d0:	4b34      	ldr	r3, [pc, #208]	; (49a4 <_usb_d_dev_handler+0x24c>)
    48d2:	4798      	blx	r3
    48d4:	e006      	b.n	48e4 <_usb_d_dev_handler+0x18c>
    48d6:	2100      	movs	r1, #0
    48d8:	4b31      	ldr	r3, [pc, #196]	; (49a0 <_usb_d_dev_handler+0x248>)
    48da:	4798      	blx	r3
    48dc:	e002      	b.n	48e4 <_usb_d_dev_handler+0x18c>
    48de:	2100      	movs	r1, #0
    48e0:	4b2d      	ldr	r3, [pc, #180]	; (4998 <_usb_d_dev_handler+0x240>)
    48e2:	4798      	blx	r3
    48e4:	3401      	adds	r4, #1
    48e6:	b2e4      	uxtb	r4, r4
    48e8:	2c1a      	cmp	r4, #26
    48ea:	d900      	bls.n	48ee <_usb_d_dev_handler+0x196>
    48ec:	e758      	b.n	47a0 <_usb_d_dev_handler+0x48>
    48ee:	4b25      	ldr	r3, [pc, #148]	; (4984 <_usb_d_dev_handler+0x22c>)
    48f0:	3340      	adds	r3, #64	; 0x40
    48f2:	00a2      	lsls	r2, r4, #2
    48f4:	1911      	adds	r1, r2, r4
    48f6:	0088      	lsls	r0, r1, #2
    48f8:	0001      	movs	r1, r0
    48fa:	3010      	adds	r0, #16
    48fc:	1818      	adds	r0, r3, r0
    48fe:	3004      	adds	r0, #4
    4900:	185b      	adds	r3, r3, r1
    4902:	3326      	adds	r3, #38	; 0x26
    4904:	781b      	ldrb	r3, [r3, #0]
    4906:	2bff      	cmp	r3, #255	; 0xff
    4908:	d0ec      	beq.n	48e4 <_usb_d_dev_handler+0x18c>
    490a:	7c82      	ldrb	r2, [r0, #18]
    490c:	230f      	movs	r3, #15
    490e:	4013      	ands	r3, r2
    4910:	2201      	movs	r2, #1
    4912:	409a      	lsls	r2, r3
    4914:	422a      	tst	r2, r5
    4916:	d0e5      	beq.n	48e4 <_usb_d_dev_handler+0x18c>
    4918:	001a      	movs	r2, r3
    491a:	3208      	adds	r2, #8
    491c:	0152      	lsls	r2, r2, #5
    491e:	4918      	ldr	r1, [pc, #96]	; (4980 <_usb_d_dev_handler+0x228>)
    4920:	468c      	mov	ip, r1
    4922:	4462      	add	r2, ip
    4924:	79d2      	ldrb	r2, [r2, #7]
    4926:	015b      	lsls	r3, r3, #5
    4928:	491f      	ldr	r1, [pc, #124]	; (49a8 <_usb_d_dev_handler+0x250>)
    492a:	468c      	mov	ip, r1
    492c:	4463      	add	r3, ip
    492e:	781b      	ldrb	r3, [r3, #0]
    4930:	4013      	ands	r3, r2
    4932:	d0d7      	beq.n	48e4 <_usb_d_dev_handler+0x18c>
    4934:	7cc2      	ldrb	r2, [r0, #19]
    4936:	2147      	movs	r1, #71	; 0x47
    4938:	4011      	ands	r1, r2
    493a:	2901      	cmp	r1, #1
    493c:	d09c      	beq.n	4878 <_usb_d_dev_handler+0x120>
    493e:	b252      	sxtb	r2, r2
    4940:	2a00      	cmp	r2, #0
    4942:	dbaa      	blt.n	489a <_usb_d_dev_handler+0x142>
    4944:	069a      	lsls	r2, r3, #26
    4946:	d4ca      	bmi.n	48de <_usb_d_dev_handler+0x186>
    4948:	075a      	lsls	r2, r3, #29
    494a:	d40d      	bmi.n	4968 <_usb_d_dev_handler+0x210>
    494c:	07da      	lsls	r2, r3, #31
    494e:	d40f      	bmi.n	4970 <_usb_d_dev_handler+0x218>
    4950:	7cc1      	ldrb	r1, [r0, #19]
    4952:	2207      	movs	r2, #7
    4954:	400a      	ands	r2, r1
    4956:	2a01      	cmp	r2, #1
    4958:	d1c4      	bne.n	48e4 <_usb_d_dev_handler+0x18c>
    495a:	071a      	lsls	r2, r3, #28
    495c:	d40c      	bmi.n	4978 <_usb_d_dev_handler+0x220>
    495e:	06db      	lsls	r3, r3, #27
    4960:	d5c0      	bpl.n	48e4 <_usb_d_dev_handler+0x18c>
    4962:	4b0e      	ldr	r3, [pc, #56]	; (499c <_usb_d_dev_handler+0x244>)
    4964:	4798      	blx	r3
    4966:	e7bd      	b.n	48e4 <_usb_d_dev_handler+0x18c>
    4968:	2100      	movs	r1, #0
    496a:	4b0d      	ldr	r3, [pc, #52]	; (49a0 <_usb_d_dev_handler+0x248>)
    496c:	4798      	blx	r3
    496e:	e7b9      	b.n	48e4 <_usb_d_dev_handler+0x18c>
    4970:	2101      	movs	r1, #1
    4972:	4b0e      	ldr	r3, [pc, #56]	; (49ac <_usb_d_dev_handler+0x254>)
    4974:	4798      	blx	r3
    4976:	e7b5      	b.n	48e4 <_usb_d_dev_handler+0x18c>
    4978:	2101      	movs	r1, #1
    497a:	4b09      	ldr	r3, [pc, #36]	; (49a0 <_usb_d_dev_handler+0x248>)
    497c:	4798      	blx	r3
    497e:	e7b1      	b.n	48e4 <_usb_d_dev_handler+0x18c>
    4980:	41005000 	.word	0x41005000
    4984:	20000448 	.word	0x20000448
    4988:	00000201 	.word	0x00000201
    498c:	200003c8 	.word	0x200003c8
    4990:	40000800 	.word	0x40000800
    4994:	0000436d 	.word	0x0000436d
    4998:	00004189 	.word	0x00004189
    499c:	000040f9 	.word	0x000040f9
    49a0:	0000425d 	.word	0x0000425d
    49a4:	000043c5 	.word	0x000043c5
    49a8:	41005109 	.word	0x41005109
    49ac:	00004555 	.word	0x00004555

000049b0 <_usb_d_dev_init>:
    49b0:	b500      	push	{lr}
    49b2:	b083      	sub	sp, #12
    49b4:	2200      	movs	r2, #0
    49b6:	ab01      	add	r3, sp, #4
    49b8:	705a      	strb	r2, [r3, #1]
    49ba:	4b21      	ldr	r3, [pc, #132]	; (4a40 <_usb_d_dev_init+0x90>)
    49bc:	789b      	ldrb	r3, [r3, #2]
    49be:	07db      	lsls	r3, r3, #31
    49c0:	d41b      	bmi.n	49fa <_usb_d_dev_init+0x4a>
    49c2:	4b1f      	ldr	r3, [pc, #124]	; (4a40 <_usb_d_dev_init+0x90>)
    49c4:	789b      	ldrb	r3, [r3, #2]
    49c6:	079b      	lsls	r3, r3, #30
    49c8:	d1fb      	bne.n	49c2 <_usb_d_dev_init+0x12>
    49ca:	4b1d      	ldr	r3, [pc, #116]	; (4a40 <_usb_d_dev_init+0x90>)
    49cc:	781b      	ldrb	r3, [r3, #0]
    49ce:	079b      	lsls	r3, r3, #30
    49d0:	d50c      	bpl.n	49ec <_usb_d_dev_init+0x3c>
    49d2:	4a1b      	ldr	r2, [pc, #108]	; (4a40 <_usb_d_dev_init+0x90>)
    49d4:	7813      	ldrb	r3, [r2, #0]
    49d6:	2102      	movs	r1, #2
    49d8:	438b      	bics	r3, r1
    49da:	7013      	strb	r3, [r2, #0]
    49dc:	4b18      	ldr	r3, [pc, #96]	; (4a40 <_usb_d_dev_init+0x90>)
    49de:	789b      	ldrb	r3, [r3, #2]
    49e0:	079b      	lsls	r3, r3, #30
    49e2:	d1fb      	bne.n	49dc <_usb_d_dev_init+0x2c>
    49e4:	4b16      	ldr	r3, [pc, #88]	; (4a40 <_usb_d_dev_init+0x90>)
    49e6:	789b      	ldrb	r3, [r3, #2]
    49e8:	079b      	lsls	r3, r3, #30
    49ea:	d4fb      	bmi.n	49e4 <_usb_d_dev_init+0x34>
    49ec:	2201      	movs	r2, #1
    49ee:	4b14      	ldr	r3, [pc, #80]	; (4a40 <_usb_d_dev_init+0x90>)
    49f0:	701a      	strb	r2, [r3, #0]
    49f2:	4b13      	ldr	r3, [pc, #76]	; (4a40 <_usb_d_dev_init+0x90>)
    49f4:	789b      	ldrb	r3, [r3, #2]
    49f6:	079b      	lsls	r3, r3, #30
    49f8:	d1fb      	bne.n	49f2 <_usb_d_dev_init+0x42>
    49fa:	4b11      	ldr	r3, [pc, #68]	; (4a40 <_usb_d_dev_init+0x90>)
    49fc:	789b      	ldrb	r3, [r3, #2]
    49fe:	07db      	lsls	r3, r3, #31
    4a00:	d4fb      	bmi.n	49fa <_usb_d_dev_init+0x4a>
    4a02:	4b10      	ldr	r3, [pc, #64]	; (4a44 <_usb_d_dev_init+0x94>)
    4a04:	4a10      	ldr	r2, [pc, #64]	; (4a48 <_usb_d_dev_init+0x98>)
    4a06:	641a      	str	r2, [r3, #64]	; 0x40
    4a08:	645a      	str	r2, [r3, #68]	; 0x44
    4a0a:	649a      	str	r2, [r3, #72]	; 0x48
    4a0c:	64da      	str	r2, [r3, #76]	; 0x4c
    4a0e:	651a      	str	r2, [r3, #80]	; 0x50
    4a10:	4b0e      	ldr	r3, [pc, #56]	; (4a4c <_usb_d_dev_init+0x9c>)
    4a12:	4798      	blx	r3
    4a14:	4b0e      	ldr	r3, [pc, #56]	; (4a50 <_usb_d_dev_init+0xa0>)
    4a16:	4798      	blx	r3
    4a18:	2204      	movs	r2, #4
    4a1a:	4b09      	ldr	r3, [pc, #36]	; (4a40 <_usb_d_dev_init+0x90>)
    4a1c:	701a      	strb	r2, [r3, #0]
    4a1e:	4b08      	ldr	r3, [pc, #32]	; (4a40 <_usb_d_dev_init+0x90>)
    4a20:	789b      	ldrb	r3, [r3, #2]
    4a22:	079b      	lsls	r3, r3, #30
    4a24:	d1fb      	bne.n	4a1e <_usb_d_dev_init+0x6e>
    4a26:	4a06      	ldr	r2, [pc, #24]	; (4a40 <_usb_d_dev_init+0x90>)
    4a28:	4b0a      	ldr	r3, [pc, #40]	; (4a54 <_usb_d_dev_init+0xa4>)
    4a2a:	6253      	str	r3, [r2, #36]	; 0x24
    4a2c:	ab01      	add	r3, sp, #4
    4a2e:	785b      	ldrb	r3, [r3, #1]
    4a30:	2101      	movs	r1, #1
    4a32:	430b      	orrs	r3, r1
    4a34:	b2db      	uxtb	r3, r3
    4a36:	8113      	strh	r3, [r2, #8]
    4a38:	2000      	movs	r0, #0
    4a3a:	b003      	add	sp, #12
    4a3c:	bd00      	pop	{pc}
    4a3e:	46c0      	nop			; (mov r8, r8)
    4a40:	41005000 	.word	0x41005000
    4a44:	20000448 	.word	0x20000448
    4a48:	000040a1 	.word	0x000040a1
    4a4c:	0000436d 	.word	0x0000436d
    4a50:	000040a5 	.word	0x000040a5
    4a54:	200003c8 	.word	0x200003c8

00004a58 <_usb_d_dev_enable>:
    4a58:	4b10      	ldr	r3, [pc, #64]	; (4a9c <_usb_d_dev_enable+0x44>)
    4a5a:	789b      	ldrb	r3, [r3, #2]
    4a5c:	079b      	lsls	r3, r3, #30
    4a5e:	d119      	bne.n	4a94 <_usb_d_dev_enable+0x3c>
    4a60:	4b0e      	ldr	r3, [pc, #56]	; (4a9c <_usb_d_dev_enable+0x44>)
    4a62:	789b      	ldrb	r3, [r3, #2]
    4a64:	079b      	lsls	r3, r3, #30
    4a66:	d1fb      	bne.n	4a60 <_usb_d_dev_enable+0x8>
    4a68:	4b0c      	ldr	r3, [pc, #48]	; (4a9c <_usb_d_dev_enable+0x44>)
    4a6a:	781b      	ldrb	r3, [r3, #0]
    4a6c:	b2db      	uxtb	r3, r3
    4a6e:	079a      	lsls	r2, r3, #30
    4a70:	d408      	bmi.n	4a84 <_usb_d_dev_enable+0x2c>
    4a72:	2202      	movs	r2, #2
    4a74:	4313      	orrs	r3, r2
    4a76:	b2db      	uxtb	r3, r3
    4a78:	4a08      	ldr	r2, [pc, #32]	; (4a9c <_usb_d_dev_enable+0x44>)
    4a7a:	7013      	strb	r3, [r2, #0]
    4a7c:	4b07      	ldr	r3, [pc, #28]	; (4a9c <_usb_d_dev_enable+0x44>)
    4a7e:	789b      	ldrb	r3, [r3, #2]
    4a80:	079b      	lsls	r3, r3, #30
    4a82:	d1fb      	bne.n	4a7c <_usb_d_dev_enable+0x24>
    4a84:	2280      	movs	r2, #128	; 0x80
    4a86:	4b06      	ldr	r3, [pc, #24]	; (4aa0 <_usb_d_dev_enable+0x48>)
    4a88:	601a      	str	r2, [r3, #0]
    4a8a:	4a06      	ldr	r2, [pc, #24]	; (4aa4 <_usb_d_dev_enable+0x4c>)
    4a8c:	4b03      	ldr	r3, [pc, #12]	; (4a9c <_usb_d_dev_enable+0x44>)
    4a8e:	831a      	strh	r2, [r3, #24]
    4a90:	2000      	movs	r0, #0
    4a92:	4770      	bx	lr
    4a94:	2011      	movs	r0, #17
    4a96:	4240      	negs	r0, r0
    4a98:	e7fb      	b.n	4a92 <_usb_d_dev_enable+0x3a>
    4a9a:	46c0      	nop			; (mov r8, r8)
    4a9c:	41005000 	.word	0x41005000
    4aa0:	e000e100 	.word	0xe000e100
    4aa4:	0000028d 	.word	0x0000028d

00004aa8 <_usb_d_dev_attach>:
    4aa8:	4a02      	ldr	r2, [pc, #8]	; (4ab4 <_usb_d_dev_attach+0xc>)
    4aaa:	8913      	ldrh	r3, [r2, #8]
    4aac:	2101      	movs	r1, #1
    4aae:	438b      	bics	r3, r1
    4ab0:	8113      	strh	r3, [r2, #8]
    4ab2:	4770      	bx	lr
    4ab4:	41005000 	.word	0x41005000

00004ab8 <_usb_d_dev_set_address>:
    4ab8:	2380      	movs	r3, #128	; 0x80
    4aba:	425b      	negs	r3, r3
    4abc:	4318      	orrs	r0, r3
    4abe:	b2c0      	uxtb	r0, r0
    4ac0:	4b01      	ldr	r3, [pc, #4]	; (4ac8 <_usb_d_dev_set_address+0x10>)
    4ac2:	7298      	strb	r0, [r3, #10]
    4ac4:	4770      	bx	lr
    4ac6:	46c0      	nop			; (mov r8, r8)
    4ac8:	41005000 	.word	0x41005000

00004acc <_usb_d_dev_ep_init>:
    4acc:	b5f0      	push	{r4, r5, r6, r7, lr}
    4ace:	46c6      	mov	lr, r8
    4ad0:	b500      	push	{lr}
    4ad2:	230f      	movs	r3, #15
    4ad4:	4003      	ands	r3, r0
    4ad6:	b244      	sxtb	r4, r0
    4ad8:	46a4      	mov	ip, r4
    4ada:	2b00      	cmp	r3, #0
    4adc:	d005      	beq.n	4aea <_usb_d_dev_ep_init+0x1e>
    4ade:	2c00      	cmp	r4, #0
    4ae0:	db01      	blt.n	4ae6 <_usb_d_dev_ep_init+0x1a>
    4ae2:	001c      	movs	r4, r3
    4ae4:	e002      	b.n	4aec <_usb_d_dev_ep_init+0x20>
    4ae6:	1d5c      	adds	r4, r3, #5
    4ae8:	e000      	b.n	4aec <_usb_d_dev_ep_init+0x20>
    4aea:	001c      	movs	r4, r3
    4aec:	0026      	movs	r6, r4
    4aee:	2503      	movs	r5, #3
    4af0:	4029      	ands	r1, r5
    4af2:	001f      	movs	r7, r3
    4af4:	2b05      	cmp	r3, #5
    4af6:	d900      	bls.n	4afa <_usb_d_dev_ep_init+0x2e>
    4af8:	e079      	b.n	4bee <_usb_d_dev_ep_init+0x122>
    4afa:	00a5      	lsls	r5, r4, #2
    4afc:	192d      	adds	r5, r5, r4
    4afe:	00ac      	lsls	r4, r5, #2
    4b00:	46a0      	mov	r8, r4
    4b02:	4c42      	ldr	r4, [pc, #264]	; (4c0c <_usb_d_dev_ep_init+0x140>)
    4b04:	3440      	adds	r4, #64	; 0x40
    4b06:	4444      	add	r4, r8
    4b08:	3426      	adds	r4, #38	; 0x26
    4b0a:	7824      	ldrb	r4, [r4, #0]
    4b0c:	2cff      	cmp	r4, #255	; 0xff
    4b0e:	d000      	beq.n	4b12 <_usb_d_dev_ep_init+0x46>
    4b10:	e070      	b.n	4bf4 <_usb_d_dev_ep_init+0x128>
    4b12:	2900      	cmp	r1, #0
    4b14:	d118      	bne.n	4b48 <_usb_d_dev_ep_init+0x7c>
    4b16:	2b00      	cmp	r3, #0
    4b18:	d004      	beq.n	4b24 <_usb_d_dev_ep_init+0x58>
    4b1a:	4664      	mov	r4, ip
    4b1c:	2c00      	cmp	r4, #0
    4b1e:	db01      	blt.n	4b24 <_usb_d_dev_ep_init+0x58>
    4b20:	3305      	adds	r3, #5
    4b22:	b2db      	uxtb	r3, r3
    4b24:	009c      	lsls	r4, r3, #2
    4b26:	18e3      	adds	r3, r4, r3
    4b28:	009d      	lsls	r5, r3, #2
    4b2a:	4b38      	ldr	r3, [pc, #224]	; (4c0c <_usb_d_dev_ep_init+0x140>)
    4b2c:	3340      	adds	r3, #64	; 0x40
    4b2e:	195b      	adds	r3, r3, r5
    4b30:	3326      	adds	r3, #38	; 0x26
    4b32:	781b      	ldrb	r3, [r3, #0]
    4b34:	2bff      	cmp	r3, #255	; 0xff
    4b36:	d160      	bne.n	4bfa <_usb_d_dev_ep_init+0x12e>
    4b38:	007b      	lsls	r3, r7, #1
    4b3a:	19db      	adds	r3, r3, r7
    4b3c:	009c      	lsls	r4, r3, #2
    4b3e:	4b34      	ldr	r3, [pc, #208]	; (4c10 <_usb_d_dev_ep_init+0x144>)
    4b40:	191b      	adds	r3, r3, r4
    4b42:	689b      	ldr	r3, [r3, #8]
    4b44:	2b00      	cmp	r3, #0
    4b46:	d05b      	beq.n	4c00 <_usb_d_dev_ep_init+0x134>
    4b48:	4663      	mov	r3, ip
    4b4a:	2b00      	cmp	r3, #0
    4b4c:	db36      	blt.n	4bbc <_usb_d_dev_ep_init+0xf0>
    4b4e:	007b      	lsls	r3, r7, #1
    4b50:	19db      	adds	r3, r3, r7
    4b52:	009c      	lsls	r4, r3, #2
    4b54:	4b2e      	ldr	r3, [pc, #184]	; (4c10 <_usb_d_dev_ep_init+0x144>)
    4b56:	191b      	adds	r3, r3, r4
    4b58:	689b      	ldr	r3, [r3, #8]
    4b5a:	1e5c      	subs	r4, r3, #1
    4b5c:	41a3      	sbcs	r3, r4
    4b5e:	b2db      	uxtb	r3, r3
    4b60:	2b00      	cmp	r3, #0
    4b62:	d00a      	beq.n	4b7a <_usb_d_dev_ep_init+0xae>
    4b64:	4663      	mov	r3, ip
    4b66:	2b00      	cmp	r3, #0
    4b68:	db32      	blt.n	4bd0 <_usb_d_dev_ep_init+0x104>
    4b6a:	007b      	lsls	r3, r7, #1
    4b6c:	19db      	adds	r3, r3, r7
    4b6e:	009c      	lsls	r4, r3, #2
    4b70:	4b27      	ldr	r3, [pc, #156]	; (4c10 <_usb_d_dev_ep_init+0x144>)
    4b72:	191b      	adds	r3, r3, r4
    4b74:	8a1b      	ldrh	r3, [r3, #16]
    4b76:	4293      	cmp	r3, r2
    4b78:	db45      	blt.n	4c06 <_usb_d_dev_ep_init+0x13a>
    4b7a:	4663      	mov	r3, ip
    4b7c:	2b00      	cmp	r3, #0
    4b7e:	db2e      	blt.n	4bde <_usb_d_dev_ep_init+0x112>
    4b80:	007b      	lsls	r3, r7, #1
    4b82:	19df      	adds	r7, r3, r7
    4b84:	00bc      	lsls	r4, r7, #2
    4b86:	4b22      	ldr	r3, [pc, #136]	; (4c10 <_usb_d_dev_ep_init+0x144>)
    4b88:	191b      	adds	r3, r3, r4
    4b8a:	689b      	ldr	r3, [r3, #8]
    4b8c:	469c      	mov	ip, r3
    4b8e:	4b1f      	ldr	r3, [pc, #124]	; (4c0c <_usb_d_dev_ep_init+0x140>)
    4b90:	00b5      	lsls	r5, r6, #2
    4b92:	19af      	adds	r7, r5, r6
    4b94:	00bc      	lsls	r4, r7, #2
    4b96:	191c      	adds	r4, r3, r4
    4b98:	4667      	mov	r7, ip
    4b9a:	6627      	str	r7, [r4, #96]	; 0x60
    4b9c:	3340      	adds	r3, #64	; 0x40
    4b9e:	19af      	adds	r7, r5, r6
    4ba0:	00bc      	lsls	r4, r7, #2
    4ba2:	0027      	movs	r7, r4
    4ba4:	191c      	adds	r4, r3, r4
    4ba6:	84a2      	strh	r2, [r4, #36]	; 0x24
    4ba8:	3101      	adds	r1, #1
    4baa:	3427      	adds	r4, #39	; 0x27
    4bac:	7021      	strb	r1, [r4, #0]
    4bae:	19db      	adds	r3, r3, r7
    4bb0:	3326      	adds	r3, #38	; 0x26
    4bb2:	7018      	strb	r0, [r3, #0]
    4bb4:	2000      	movs	r0, #0
    4bb6:	bc04      	pop	{r2}
    4bb8:	4690      	mov	r8, r2
    4bba:	bdf0      	pop	{r4, r5, r6, r7, pc}
    4bbc:	007b      	lsls	r3, r7, #1
    4bbe:	19db      	adds	r3, r3, r7
    4bc0:	009c      	lsls	r4, r3, #2
    4bc2:	4b13      	ldr	r3, [pc, #76]	; (4c10 <_usb_d_dev_ep_init+0x144>)
    4bc4:	191b      	adds	r3, r3, r4
    4bc6:	68db      	ldr	r3, [r3, #12]
    4bc8:	1e5c      	subs	r4, r3, #1
    4bca:	41a3      	sbcs	r3, r4
    4bcc:	b2db      	uxtb	r3, r3
    4bce:	e7c7      	b.n	4b60 <_usb_d_dev_ep_init+0x94>
    4bd0:	007b      	lsls	r3, r7, #1
    4bd2:	19db      	adds	r3, r3, r7
    4bd4:	009c      	lsls	r4, r3, #2
    4bd6:	4b0e      	ldr	r3, [pc, #56]	; (4c10 <_usb_d_dev_ep_init+0x144>)
    4bd8:	191b      	adds	r3, r3, r4
    4bda:	8a5b      	ldrh	r3, [r3, #18]
    4bdc:	e7cb      	b.n	4b76 <_usb_d_dev_ep_init+0xaa>
    4bde:	007b      	lsls	r3, r7, #1
    4be0:	19df      	adds	r7, r3, r7
    4be2:	00bc      	lsls	r4, r7, #2
    4be4:	4b0a      	ldr	r3, [pc, #40]	; (4c10 <_usb_d_dev_ep_init+0x144>)
    4be6:	191b      	adds	r3, r3, r4
    4be8:	68db      	ldr	r3, [r3, #12]
    4bea:	469c      	mov	ip, r3
    4bec:	e7cf      	b.n	4b8e <_usb_d_dev_ep_init+0xc2>
    4bee:	2012      	movs	r0, #18
    4bf0:	4240      	negs	r0, r0
    4bf2:	e7e0      	b.n	4bb6 <_usb_d_dev_ep_init+0xea>
    4bf4:	2014      	movs	r0, #20
    4bf6:	4240      	negs	r0, r0
    4bf8:	e7dd      	b.n	4bb6 <_usb_d_dev_ep_init+0xea>
    4bfa:	2014      	movs	r0, #20
    4bfc:	4240      	negs	r0, r0
    4bfe:	e7da      	b.n	4bb6 <_usb_d_dev_ep_init+0xea>
    4c00:	2013      	movs	r0, #19
    4c02:	4240      	negs	r0, r0
    4c04:	e7d7      	b.n	4bb6 <_usb_d_dev_ep_init+0xea>
    4c06:	2013      	movs	r0, #19
    4c08:	4240      	negs	r0, r0
    4c0a:	e7d4      	b.n	4bb6 <_usb_d_dev_ep_init+0xea>
    4c0c:	20000448 	.word	0x20000448
    4c10:	0000ac70 	.word	0x0000ac70

00004c14 <_usb_d_dev_ep_deinit>:
    4c14:	b5f8      	push	{r3, r4, r5, r6, r7, lr}
    4c16:	0004      	movs	r4, r0
    4c18:	250f      	movs	r5, #15
    4c1a:	4005      	ands	r5, r0
    4c1c:	b247      	sxtb	r7, r0
    4c1e:	0ffb      	lsrs	r3, r7, #31
    4c20:	469c      	mov	ip, r3
    4c22:	2d00      	cmp	r5, #0
    4c24:	d005      	beq.n	4c32 <_usb_d_dev_ep_deinit+0x1e>
    4c26:	2f00      	cmp	r7, #0
    4c28:	db01      	blt.n	4c2e <_usb_d_dev_ep_deinit+0x1a>
    4c2a:	002a      	movs	r2, r5
    4c2c:	e002      	b.n	4c34 <_usb_d_dev_ep_deinit+0x20>
    4c2e:	1d6a      	adds	r2, r5, #5
    4c30:	e000      	b.n	4c34 <_usb_d_dev_ep_deinit+0x20>
    4c32:	002a      	movs	r2, r5
    4c34:	0016      	movs	r6, r2
    4c36:	0093      	lsls	r3, r2, #2
    4c38:	189b      	adds	r3, r3, r2
    4c3a:	0099      	lsls	r1, r3, #2
    4c3c:	3110      	adds	r1, #16
    4c3e:	4823      	ldr	r0, [pc, #140]	; (4ccc <_usb_d_dev_ep_deinit+0xb8>)
    4c40:	3040      	adds	r0, #64	; 0x40
    4c42:	1840      	adds	r0, r0, r1
    4c44:	3004      	adds	r0, #4
    4c46:	2d05      	cmp	r5, #5
    4c48:	d830      	bhi.n	4cac <_usb_d_dev_ep_deinit+0x98>
    4c4a:	0093      	lsls	r3, r2, #2
    4c4c:	189a      	adds	r2, r3, r2
    4c4e:	0091      	lsls	r1, r2, #2
    4c50:	4b1e      	ldr	r3, [pc, #120]	; (4ccc <_usb_d_dev_ep_deinit+0xb8>)
    4c52:	3340      	adds	r3, #64	; 0x40
    4c54:	185b      	adds	r3, r3, r1
    4c56:	3326      	adds	r3, #38	; 0x26
    4c58:	781b      	ldrb	r3, [r3, #0]
    4c5a:	2bff      	cmp	r3, #255	; 0xff
    4c5c:	d026      	beq.n	4cac <_usb_d_dev_ep_deinit+0x98>
    4c5e:	2203      	movs	r2, #3
    4c60:	4661      	mov	r1, ip
    4c62:	4b1b      	ldr	r3, [pc, #108]	; (4cd0 <_usb_d_dev_ep_deinit+0xbc>)
    4c64:	4798      	blx	r3
    4c66:	00b2      	lsls	r2, r6, #2
    4c68:	1992      	adds	r2, r2, r6
    4c6a:	0091      	lsls	r1, r2, #2
    4c6c:	4b17      	ldr	r3, [pc, #92]	; (4ccc <_usb_d_dev_ep_deinit+0xb8>)
    4c6e:	185b      	adds	r3, r3, r1
    4c70:	3360      	adds	r3, #96	; 0x60
    4c72:	79da      	ldrb	r2, [r3, #7]
    4c74:	2307      	movs	r3, #7
    4c76:	4013      	ands	r3, r2
    4c78:	2b01      	cmp	r3, #1
    4c7a:	d018      	beq.n	4cae <_usb_d_dev_ep_deinit+0x9a>
    4c7c:	2f00      	cmp	r7, #0
    4c7e:	db1c      	blt.n	4cba <_usb_d_dev_ep_deinit+0xa6>
    4c80:	4a14      	ldr	r2, [pc, #80]	; (4cd4 <_usb_d_dev_ep_deinit+0xc0>)
    4c82:	3408      	adds	r4, #8
    4c84:	0164      	lsls	r4, r4, #5
    4c86:	5ca3      	ldrb	r3, [r4, r2]
    4c88:	2107      	movs	r1, #7
    4c8a:	438b      	bics	r3, r1
    4c8c:	54a3      	strb	r3, [r4, r2]
    4c8e:	4b0f      	ldr	r3, [pc, #60]	; (4ccc <_usb_d_dev_ep_deinit+0xb8>)
    4c90:	3340      	adds	r3, #64	; 0x40
    4c92:	00b1      	lsls	r1, r6, #2
    4c94:	1988      	adds	r0, r1, r6
    4c96:	0082      	lsls	r2, r0, #2
    4c98:	189a      	adds	r2, r3, r2
    4c9a:	3227      	adds	r2, #39	; 0x27
    4c9c:	2000      	movs	r0, #0
    4c9e:	7010      	strb	r0, [r2, #0]
    4ca0:	198e      	adds	r6, r1, r6
    4ca2:	00b2      	lsls	r2, r6, #2
    4ca4:	189b      	adds	r3, r3, r2
    4ca6:	3326      	adds	r3, #38	; 0x26
    4ca8:	22ff      	movs	r2, #255	; 0xff
    4caa:	701a      	strb	r2, [r3, #0]
    4cac:	bdf8      	pop	{r3, r4, r5, r6, r7, pc}
    4cae:	3408      	adds	r4, #8
    4cb0:	0164      	lsls	r4, r4, #5
    4cb2:	2200      	movs	r2, #0
    4cb4:	4b07      	ldr	r3, [pc, #28]	; (4cd4 <_usb_d_dev_ep_deinit+0xc0>)
    4cb6:	54e2      	strb	r2, [r4, r3]
    4cb8:	e7e9      	b.n	4c8e <_usb_d_dev_ep_deinit+0x7a>
    4cba:	4a06      	ldr	r2, [pc, #24]	; (4cd4 <_usb_d_dev_ep_deinit+0xc0>)
    4cbc:	3508      	adds	r5, #8
    4cbe:	016d      	lsls	r5, r5, #5
    4cc0:	5cab      	ldrb	r3, [r5, r2]
    4cc2:	2170      	movs	r1, #112	; 0x70
    4cc4:	438b      	bics	r3, r1
    4cc6:	54ab      	strb	r3, [r5, r2]
    4cc8:	e7e1      	b.n	4c8e <_usb_d_dev_ep_deinit+0x7a>
    4cca:	46c0      	nop			; (mov r8, r8)
    4ccc:	20000448 	.word	0x20000448
    4cd0:	000041e1 	.word	0x000041e1
    4cd4:	41005000 	.word	0x41005000

00004cd8 <_usb_d_dev_ep_enable>:
    4cd8:	b5f0      	push	{r4, r5, r6, r7, lr}
    4cda:	230f      	movs	r3, #15
    4cdc:	4003      	ands	r3, r0
    4cde:	b240      	sxtb	r0, r0
    4ce0:	2b00      	cmp	r3, #0
    4ce2:	d005      	beq.n	4cf0 <_usb_d_dev_ep_enable+0x18>
    4ce4:	2800      	cmp	r0, #0
    4ce6:	db01      	blt.n	4cec <_usb_d_dev_ep_enable+0x14>
    4ce8:	001e      	movs	r6, r3
    4cea:	e002      	b.n	4cf2 <_usb_d_dev_ep_enable+0x1a>
    4cec:	1d5e      	adds	r6, r3, #5
    4cee:	e000      	b.n	4cf2 <_usb_d_dev_ep_enable+0x1a>
    4cf0:	001e      	movs	r6, r3
    4cf2:	0034      	movs	r4, r6
    4cf4:	001a      	movs	r2, r3
    4cf6:	3208      	adds	r2, #8
    4cf8:	0152      	lsls	r2, r2, #5
    4cfa:	49b4      	ldr	r1, [pc, #720]	; (4fcc <_usb_d_dev_ep_enable+0x2f4>)
    4cfc:	5c55      	ldrb	r5, [r2, r1]
    4cfe:	b2ed      	uxtb	r5, r5
    4d00:	2b05      	cmp	r3, #5
    4d02:	d900      	bls.n	4d06 <_usb_d_dev_ep_enable+0x2e>
    4d04:	e152      	b.n	4fac <_usb_d_dev_ep_enable+0x2d4>
    4d06:	00b1      	lsls	r1, r6, #2
    4d08:	1989      	adds	r1, r1, r6
    4d0a:	008e      	lsls	r6, r1, #2
    4d0c:	4ab0      	ldr	r2, [pc, #704]	; (4fd0 <_usb_d_dev_ep_enable+0x2f8>)
    4d0e:	3240      	adds	r2, #64	; 0x40
    4d10:	1992      	adds	r2, r2, r6
    4d12:	3226      	adds	r2, #38	; 0x26
    4d14:	7812      	ldrb	r2, [r2, #0]
    4d16:	2aff      	cmp	r2, #255	; 0xff
    4d18:	d100      	bne.n	4d1c <_usb_d_dev_ep_enable+0x44>
    4d1a:	e14a      	b.n	4fb2 <_usb_d_dev_ep_enable+0x2da>
    4d1c:	015a      	lsls	r2, r3, #5
    4d1e:	4ead      	ldr	r6, [pc, #692]	; (4fd4 <_usb_d_dev_ep_enable+0x2fc>)
    4d20:	18b6      	adds	r6, r6, r2
    4d22:	00a1      	lsls	r1, r4, #2
    4d24:	1909      	adds	r1, r1, r4
    4d26:	008f      	lsls	r7, r1, #2
    4d28:	4aa9      	ldr	r2, [pc, #676]	; (4fd0 <_usb_d_dev_ep_enable+0x2f8>)
    4d2a:	19d2      	adds	r2, r2, r7
    4d2c:	3260      	adds	r2, #96	; 0x60
    4d2e:	79d1      	ldrb	r1, [r2, #7]
    4d30:	2207      	movs	r2, #7
    4d32:	400a      	ands	r2, r1
    4d34:	2a01      	cmp	r2, #1
    4d36:	d037      	beq.n	4da8 <_usb_d_dev_ep_enable+0xd0>
    4d38:	2800      	cmp	r0, #0
    4d3a:	da00      	bge.n	4d3e <_usb_d_dev_ep_enable+0x66>
    4d3c:	e0cd      	b.n	4eda <_usb_d_dev_ep_enable+0x202>
    4d3e:	076a      	lsls	r2, r5, #29
    4d40:	d000      	beq.n	4d44 <_usb_d_dev_ep_enable+0x6c>
    4d42:	e13f      	b.n	4fc4 <_usb_d_dev_ep_enable+0x2ec>
    4d44:	4aa2      	ldr	r2, [pc, #648]	; (4fd0 <_usb_d_dev_ep_enable+0x2f8>)
    4d46:	00a0      	lsls	r0, r4, #2
    4d48:	1907      	adds	r7, r0, r4
    4d4a:	00b9      	lsls	r1, r7, #2
    4d4c:	1851      	adds	r1, r2, r1
    4d4e:	3160      	adds	r1, #96	; 0x60
    4d50:	79c9      	ldrb	r1, [r1, #7]
    4d52:	0749      	lsls	r1, r1, #29
    4d54:	0f49      	lsrs	r1, r1, #29
    4d56:	430d      	orrs	r5, r1
    4d58:	0019      	movs	r1, r3
    4d5a:	3108      	adds	r1, #8
    4d5c:	0149      	lsls	r1, r1, #5
    4d5e:	4f9b      	ldr	r7, [pc, #620]	; (4fcc <_usb_d_dev_ep_enable+0x2f4>)
    4d60:	55cd      	strb	r5, [r1, r7]
    4d62:	3240      	adds	r2, #64	; 0x40
    4d64:	1904      	adds	r4, r0, r4
    4d66:	00a1      	lsls	r1, r4, #2
    4d68:	1852      	adds	r2, r2, r1
    4d6a:	8c90      	ldrh	r0, [r2, #36]	; 0x24
    4d6c:	0382      	lsls	r2, r0, #14
    4d6e:	499a      	ldr	r1, [pc, #616]	; (4fd8 <_usb_d_dev_ep_enable+0x300>)
    4d70:	400a      	ands	r2, r1
    4d72:	2180      	movs	r1, #128	; 0x80
    4d74:	0089      	lsls	r1, r1, #2
    4d76:	4288      	cmp	r0, r1
    4d78:	d900      	bls.n	4d7c <_usb_d_dev_ep_enable+0xa4>
    4d7a:	e0fa      	b.n	4f72 <_usb_d_dev_ep_enable+0x29a>
    4d7c:	3901      	subs	r1, #1
    4d7e:	39ff      	subs	r1, #255	; 0xff
    4d80:	4288      	cmp	r0, r1
    4d82:	d900      	bls.n	4d86 <_usb_d_dev_ep_enable+0xae>
    4d84:	e108      	b.n	4f98 <_usb_d_dev_ep_enable+0x2c0>
    4d86:	2880      	cmp	r0, #128	; 0x80
    4d88:	d900      	bls.n	4d8c <_usb_d_dev_ep_enable+0xb4>
    4d8a:	e107      	b.n	4f9c <_usb_d_dev_ep_enable+0x2c4>
    4d8c:	2840      	cmp	r0, #64	; 0x40
    4d8e:	d900      	bls.n	4d92 <_usb_d_dev_ep_enable+0xba>
    4d90:	e106      	b.n	4fa0 <_usb_d_dev_ep_enable+0x2c8>
    4d92:	2820      	cmp	r0, #32
    4d94:	d900      	bls.n	4d98 <_usb_d_dev_ep_enable+0xc0>
    4d96:	e105      	b.n	4fa4 <_usb_d_dev_ep_enable+0x2cc>
    4d98:	2810      	cmp	r0, #16
    4d9a:	d900      	bls.n	4d9e <_usb_d_dev_ep_enable+0xc6>
    4d9c:	e104      	b.n	4fa8 <_usb_d_dev_ep_enable+0x2d0>
    4d9e:	39f8      	subs	r1, #248	; 0xf8
    4da0:	4281      	cmp	r1, r0
    4da2:	4189      	sbcs	r1, r1
    4da4:	4249      	negs	r1, r1
    4da6:	e0e5      	b.n	4f74 <_usb_d_dev_ep_enable+0x29c>
    4da8:	3276      	adds	r2, #118	; 0x76
    4daa:	422a      	tst	r2, r5
    4dac:	d000      	beq.n	4db0 <_usb_d_dev_ep_enable+0xd8>
    4dae:	e103      	b.n	4fb8 <_usb_d_dev_ep_enable+0x2e0>
    4db0:	001a      	movs	r2, r3
    4db2:	3208      	adds	r2, #8
    4db4:	0152      	lsls	r2, r2, #5
    4db6:	2011      	movs	r0, #17
    4db8:	4984      	ldr	r1, [pc, #528]	; (4fcc <_usb_d_dev_ep_enable+0x2f4>)
    4dba:	5450      	strb	r0, [r2, r1]
    4dbc:	4a84      	ldr	r2, [pc, #528]	; (4fd0 <_usb_d_dev_ep_enable+0x2f8>)
    4dbe:	3240      	adds	r2, #64	; 0x40
    4dc0:	19d2      	adds	r2, r2, r7
    4dc2:	8c92      	ldrh	r2, [r2, #36]	; 0x24
    4dc4:	0391      	lsls	r1, r2, #14
    4dc6:	4884      	ldr	r0, [pc, #528]	; (4fd8 <_usb_d_dev_ep_enable+0x300>)
    4dc8:	4001      	ands	r1, r0
    4dca:	2080      	movs	r0, #128	; 0x80
    4dcc:	0080      	lsls	r0, r0, #2
    4dce:	4282      	cmp	r2, r0
    4dd0:	d810      	bhi.n	4df4 <_usb_d_dev_ep_enable+0x11c>
    4dd2:	3801      	subs	r0, #1
    4dd4:	38ff      	subs	r0, #255	; 0xff
    4dd6:	4282      	cmp	r2, r0
    4dd8:	d827      	bhi.n	4e2a <_usb_d_dev_ep_enable+0x152>
    4dda:	2a80      	cmp	r2, #128	; 0x80
    4ddc:	d827      	bhi.n	4e2e <_usb_d_dev_ep_enable+0x156>
    4dde:	2a40      	cmp	r2, #64	; 0x40
    4de0:	d827      	bhi.n	4e32 <_usb_d_dev_ep_enable+0x15a>
    4de2:	2a20      	cmp	r2, #32
    4de4:	d827      	bhi.n	4e36 <_usb_d_dev_ep_enable+0x15e>
    4de6:	2a10      	cmp	r2, #16
    4de8:	d827      	bhi.n	4e3a <_usb_d_dev_ep_enable+0x162>
    4dea:	38f8      	subs	r0, #248	; 0xf8
    4dec:	4290      	cmp	r0, r2
    4dee:	4180      	sbcs	r0, r0
    4df0:	4240      	negs	r0, r0
    4df2:	e000      	b.n	4df6 <_usb_d_dev_ep_enable+0x11e>
    4df4:	2007      	movs	r0, #7
    4df6:	0700      	lsls	r0, r0, #28
    4df8:	4301      	orrs	r1, r0
    4dfa:	6071      	str	r1, [r6, #4]
    4dfc:	0491      	lsls	r1, r2, #18
    4dfe:	0c89      	lsrs	r1, r1, #18
    4e00:	2080      	movs	r0, #128	; 0x80
    4e02:	0080      	lsls	r0, r0, #2
    4e04:	4282      	cmp	r2, r0
    4e06:	d81a      	bhi.n	4e3e <_usb_d_dev_ep_enable+0x166>
    4e08:	3801      	subs	r0, #1
    4e0a:	38ff      	subs	r0, #255	; 0xff
    4e0c:	4282      	cmp	r2, r0
    4e0e:	d85a      	bhi.n	4ec6 <_usb_d_dev_ep_enable+0x1ee>
    4e10:	2a80      	cmp	r2, #128	; 0x80
    4e12:	d85a      	bhi.n	4eca <_usb_d_dev_ep_enable+0x1f2>
    4e14:	2a40      	cmp	r2, #64	; 0x40
    4e16:	d85a      	bhi.n	4ece <_usb_d_dev_ep_enable+0x1f6>
    4e18:	2a20      	cmp	r2, #32
    4e1a:	d85a      	bhi.n	4ed2 <_usb_d_dev_ep_enable+0x1fa>
    4e1c:	2a10      	cmp	r2, #16
    4e1e:	d85a      	bhi.n	4ed6 <_usb_d_dev_ep_enable+0x1fe>
    4e20:	38f8      	subs	r0, #248	; 0xf8
    4e22:	4290      	cmp	r0, r2
    4e24:	4192      	sbcs	r2, r2
    4e26:	4252      	negs	r2, r2
    4e28:	e00a      	b.n	4e40 <_usb_d_dev_ep_enable+0x168>
    4e2a:	2006      	movs	r0, #6
    4e2c:	e7e3      	b.n	4df6 <_usb_d_dev_ep_enable+0x11e>
    4e2e:	2005      	movs	r0, #5
    4e30:	e7e1      	b.n	4df6 <_usb_d_dev_ep_enable+0x11e>
    4e32:	2004      	movs	r0, #4
    4e34:	e7df      	b.n	4df6 <_usb_d_dev_ep_enable+0x11e>
    4e36:	2003      	movs	r0, #3
    4e38:	e7dd      	b.n	4df6 <_usb_d_dev_ep_enable+0x11e>
    4e3a:	2002      	movs	r0, #2
    4e3c:	e7db      	b.n	4df6 <_usb_d_dev_ep_enable+0x11e>
    4e3e:	2207      	movs	r2, #7
    4e40:	0712      	lsls	r2, r2, #28
    4e42:	430a      	orrs	r2, r1
    4e44:	6172      	str	r2, [r6, #20]
    4e46:	001a      	movs	r2, r3
    4e48:	3208      	adds	r2, #8
    4e4a:	0152      	lsls	r2, r2, #5
    4e4c:	495f      	ldr	r1, [pc, #380]	; (4fcc <_usb_d_dev_ep_enable+0x2f4>)
    4e4e:	468c      	mov	ip, r1
    4e50:	4462      	add	r2, ip
    4e52:	2140      	movs	r1, #64	; 0x40
    4e54:	7151      	strb	r1, [r2, #5]
    4e56:	2080      	movs	r0, #128	; 0x80
    4e58:	7110      	strb	r0, [r2, #4]
    4e5a:	4d5e      	ldr	r5, [pc, #376]	; (4fd4 <_usb_d_dev_ep_enable+0x2fc>)
    4e5c:	015b      	lsls	r3, r3, #5
    4e5e:	18eb      	adds	r3, r5, r3
    4e60:	2200      	movs	r2, #0
    4e62:	729a      	strb	r2, [r3, #10]
    4e64:	769a      	strb	r2, [r3, #26]
    4e66:	485a      	ldr	r0, [pc, #360]	; (4fd0 <_usb_d_dev_ep_enable+0x2f8>)
    4e68:	0006      	movs	r6, r0
    4e6a:	3640      	adds	r6, #64	; 0x40
    4e6c:	00a2      	lsls	r2, r4, #2
    4e6e:	1917      	adds	r7, r2, r4
    4e70:	00bb      	lsls	r3, r7, #2
    4e72:	18f3      	adds	r3, r6, r3
    4e74:	3326      	adds	r3, #38	; 0x26
    4e76:	781b      	ldrb	r3, [r3, #0]
    4e78:	270f      	movs	r7, #15
    4e7a:	403b      	ands	r3, r7
    4e7c:	1917      	adds	r7, r2, r4
    4e7e:	00bf      	lsls	r7, r7, #2
    4e80:	46bc      	mov	ip, r7
    4e82:	19c0      	adds	r0, r0, r7
    4e84:	6e07      	ldr	r7, [r0, #96]	; 0x60
    4e86:	0158      	lsls	r0, r3, #5
    4e88:	5147      	str	r7, [r0, r5]
    4e8a:	4662      	mov	r2, ip
    4e8c:	18b6      	adds	r6, r6, r2
    4e8e:	8cb2      	ldrh	r2, [r6, #36]	; 0x24
    4e90:	182c      	adds	r4, r5, r0
    4e92:	6865      	ldr	r5, [r4, #4]
    4e94:	0492      	lsls	r2, r2, #18
    4e96:	0912      	lsrs	r2, r2, #4
    4e98:	4e50      	ldr	r6, [pc, #320]	; (4fdc <_usb_d_dev_ep_enable+0x304>)
    4e9a:	4035      	ands	r5, r6
    4e9c:	432a      	orrs	r2, r5
    4e9e:	6062      	str	r2, [r4, #4]
    4ea0:	6862      	ldr	r2, [r4, #4]
    4ea2:	0b92      	lsrs	r2, r2, #14
    4ea4:	0395      	lsls	r5, r2, #14
    4ea6:	6065      	str	r5, [r4, #4]
    4ea8:	3308      	adds	r3, #8
    4eaa:	015b      	lsls	r3, r3, #5
    4eac:	4a47      	ldr	r2, [pc, #284]	; (4fcc <_usb_d_dev_ep_enable+0x2f4>)
    4eae:	4694      	mov	ip, r2
    4eb0:	4463      	add	r3, ip
    4eb2:	22b0      	movs	r2, #176	; 0xb0
    4eb4:	711a      	strb	r2, [r3, #4]
    4eb6:	7159      	strb	r1, [r3, #5]
    4eb8:	4b49      	ldr	r3, [pc, #292]	; (4fe0 <_usb_d_dev_ep_enable+0x308>)
    4eba:	469c      	mov	ip, r3
    4ebc:	4460      	add	r0, ip
    4ebe:	2310      	movs	r3, #16
    4ec0:	7003      	strb	r3, [r0, #0]
    4ec2:	2000      	movs	r0, #0
    4ec4:	e067      	b.n	4f96 <_usb_d_dev_ep_enable+0x2be>
    4ec6:	2206      	movs	r2, #6
    4ec8:	e7ba      	b.n	4e40 <_usb_d_dev_ep_enable+0x168>
    4eca:	2205      	movs	r2, #5
    4ecc:	e7b8      	b.n	4e40 <_usb_d_dev_ep_enable+0x168>
    4ece:	2204      	movs	r2, #4
    4ed0:	e7b6      	b.n	4e40 <_usb_d_dev_ep_enable+0x168>
    4ed2:	2203      	movs	r2, #3
    4ed4:	e7b4      	b.n	4e40 <_usb_d_dev_ep_enable+0x168>
    4ed6:	2202      	movs	r2, #2
    4ed8:	e7b2      	b.n	4e40 <_usb_d_dev_ep_enable+0x168>
    4eda:	2270      	movs	r2, #112	; 0x70
    4edc:	422a      	tst	r2, r5
    4ede:	d000      	beq.n	4ee2 <_usb_d_dev_ep_enable+0x20a>
    4ee0:	e06d      	b.n	4fbe <_usb_d_dev_ep_enable+0x2e6>
    4ee2:	493b      	ldr	r1, [pc, #236]	; (4fd0 <_usb_d_dev_ep_enable+0x2f8>)
    4ee4:	00a0      	lsls	r0, r4, #2
    4ee6:	1907      	adds	r7, r0, r4
    4ee8:	00ba      	lsls	r2, r7, #2
    4eea:	188a      	adds	r2, r1, r2
    4eec:	3260      	adds	r2, #96	; 0x60
    4eee:	79d2      	ldrb	r2, [r2, #7]
    4ef0:	0752      	lsls	r2, r2, #29
    4ef2:	0e52      	lsrs	r2, r2, #25
    4ef4:	4315      	orrs	r5, r2
    4ef6:	001a      	movs	r2, r3
    4ef8:	3208      	adds	r2, #8
    4efa:	0152      	lsls	r2, r2, #5
    4efc:	4f33      	ldr	r7, [pc, #204]	; (4fcc <_usb_d_dev_ep_enable+0x2f4>)
    4efe:	55d5      	strb	r5, [r2, r7]
    4f00:	3140      	adds	r1, #64	; 0x40
    4f02:	1904      	adds	r4, r0, r4
    4f04:	00a2      	lsls	r2, r4, #2
    4f06:	1889      	adds	r1, r1, r2
    4f08:	8c89      	ldrh	r1, [r1, #36]	; 0x24
    4f0a:	048a      	lsls	r2, r1, #18
    4f0c:	0c92      	lsrs	r2, r2, #18
    4f0e:	2080      	movs	r0, #128	; 0x80
    4f10:	0080      	lsls	r0, r0, #2
    4f12:	4281      	cmp	r1, r0
    4f14:	d810      	bhi.n	4f38 <_usb_d_dev_ep_enable+0x260>
    4f16:	3801      	subs	r0, #1
    4f18:	38ff      	subs	r0, #255	; 0xff
    4f1a:	4281      	cmp	r1, r0
    4f1c:	d81f      	bhi.n	4f5e <_usb_d_dev_ep_enable+0x286>
    4f1e:	2980      	cmp	r1, #128	; 0x80
    4f20:	d81f      	bhi.n	4f62 <_usb_d_dev_ep_enable+0x28a>
    4f22:	2940      	cmp	r1, #64	; 0x40
    4f24:	d81f      	bhi.n	4f66 <_usb_d_dev_ep_enable+0x28e>
    4f26:	2920      	cmp	r1, #32
    4f28:	d81f      	bhi.n	4f6a <_usb_d_dev_ep_enable+0x292>
    4f2a:	2910      	cmp	r1, #16
    4f2c:	d81f      	bhi.n	4f6e <_usb_d_dev_ep_enable+0x296>
    4f2e:	38f8      	subs	r0, #248	; 0xf8
    4f30:	4288      	cmp	r0, r1
    4f32:	4189      	sbcs	r1, r1
    4f34:	4249      	negs	r1, r1
    4f36:	e000      	b.n	4f3a <_usb_d_dev_ep_enable+0x262>
    4f38:	2107      	movs	r1, #7
    4f3a:	0709      	lsls	r1, r1, #28
    4f3c:	430a      	orrs	r2, r1
    4f3e:	6172      	str	r2, [r6, #20]
    4f40:	001a      	movs	r2, r3
    4f42:	3208      	adds	r2, #8
    4f44:	0152      	lsls	r2, r2, #5
    4f46:	4921      	ldr	r1, [pc, #132]	; (4fcc <_usb_d_dev_ep_enable+0x2f4>)
    4f48:	468c      	mov	ip, r1
    4f4a:	4462      	add	r2, ip
    4f4c:	2180      	movs	r1, #128	; 0x80
    4f4e:	7111      	strb	r1, [r2, #4]
    4f50:	015a      	lsls	r2, r3, #5
    4f52:	4b20      	ldr	r3, [pc, #128]	; (4fd4 <_usb_d_dev_ep_enable+0x2fc>)
    4f54:	189b      	adds	r3, r3, r2
    4f56:	2200      	movs	r2, #0
    4f58:	769a      	strb	r2, [r3, #26]
    4f5a:	2000      	movs	r0, #0
    4f5c:	e01b      	b.n	4f96 <_usb_d_dev_ep_enable+0x2be>
    4f5e:	2106      	movs	r1, #6
    4f60:	e7eb      	b.n	4f3a <_usb_d_dev_ep_enable+0x262>
    4f62:	2105      	movs	r1, #5
    4f64:	e7e9      	b.n	4f3a <_usb_d_dev_ep_enable+0x262>
    4f66:	2104      	movs	r1, #4
    4f68:	e7e7      	b.n	4f3a <_usb_d_dev_ep_enable+0x262>
    4f6a:	2103      	movs	r1, #3
    4f6c:	e7e5      	b.n	4f3a <_usb_d_dev_ep_enable+0x262>
    4f6e:	2102      	movs	r1, #2
    4f70:	e7e3      	b.n	4f3a <_usb_d_dev_ep_enable+0x262>
    4f72:	2107      	movs	r1, #7
    4f74:	0709      	lsls	r1, r1, #28
    4f76:	430a      	orrs	r2, r1
    4f78:	6072      	str	r2, [r6, #4]
    4f7a:	001a      	movs	r2, r3
    4f7c:	3208      	adds	r2, #8
    4f7e:	0152      	lsls	r2, r2, #5
    4f80:	4912      	ldr	r1, [pc, #72]	; (4fcc <_usb_d_dev_ep_enable+0x2f4>)
    4f82:	468c      	mov	ip, r1
    4f84:	4462      	add	r2, ip
    4f86:	2140      	movs	r1, #64	; 0x40
    4f88:	7151      	strb	r1, [r2, #5]
    4f8a:	015b      	lsls	r3, r3, #5
    4f8c:	4a11      	ldr	r2, [pc, #68]	; (4fd4 <_usb_d_dev_ep_enable+0x2fc>)
    4f8e:	18d3      	adds	r3, r2, r3
    4f90:	2200      	movs	r2, #0
    4f92:	729a      	strb	r2, [r3, #10]
    4f94:	2000      	movs	r0, #0
    4f96:	bdf0      	pop	{r4, r5, r6, r7, pc}
    4f98:	2106      	movs	r1, #6
    4f9a:	e7eb      	b.n	4f74 <_usb_d_dev_ep_enable+0x29c>
    4f9c:	2105      	movs	r1, #5
    4f9e:	e7e9      	b.n	4f74 <_usb_d_dev_ep_enable+0x29c>
    4fa0:	2104      	movs	r1, #4
    4fa2:	e7e7      	b.n	4f74 <_usb_d_dev_ep_enable+0x29c>
    4fa4:	2103      	movs	r1, #3
    4fa6:	e7e5      	b.n	4f74 <_usb_d_dev_ep_enable+0x29c>
    4fa8:	2102      	movs	r1, #2
    4faa:	e7e3      	b.n	4f74 <_usb_d_dev_ep_enable+0x29c>
    4fac:	2012      	movs	r0, #18
    4fae:	4240      	negs	r0, r0
    4fb0:	e7f1      	b.n	4f96 <_usb_d_dev_ep_enable+0x2be>
    4fb2:	2012      	movs	r0, #18
    4fb4:	4240      	negs	r0, r0
    4fb6:	e7ee      	b.n	4f96 <_usb_d_dev_ep_enable+0x2be>
    4fb8:	2014      	movs	r0, #20
    4fba:	4240      	negs	r0, r0
    4fbc:	e7eb      	b.n	4f96 <_usb_d_dev_ep_enable+0x2be>
    4fbe:	2014      	movs	r0, #20
    4fc0:	4240      	negs	r0, r0
    4fc2:	e7e8      	b.n	4f96 <_usb_d_dev_ep_enable+0x2be>
    4fc4:	2014      	movs	r0, #20
    4fc6:	4240      	negs	r0, r0
    4fc8:	e7e5      	b.n	4f96 <_usb_d_dev_ep_enable+0x2be>
    4fca:	46c0      	nop			; (mov r8, r8)
    4fcc:	41005000 	.word	0x41005000
    4fd0:	20000448 	.word	0x20000448
    4fd4:	200003c8 	.word	0x200003c8
    4fd8:	0fffc000 	.word	0x0fffc000
    4fdc:	f0003fff 	.word	0xf0003fff
    4fe0:	41005109 	.word	0x41005109

00004fe4 <_usb_d_dev_ep_stall>:
    4fe4:	b5f0      	push	{r4, r5, r6, r7, lr}
    4fe6:	220f      	movs	r2, #15
    4fe8:	4002      	ands	r2, r0
    4fea:	b240      	sxtb	r0, r0
    4fec:	0fc4      	lsrs	r4, r0, #31
    4fee:	2a00      	cmp	r2, #0
    4ff0:	d005      	beq.n	4ffe <_usb_d_dev_ep_stall+0x1a>
    4ff2:	2800      	cmp	r0, #0
    4ff4:	db01      	blt.n	4ffa <_usb_d_dev_ep_stall+0x16>
    4ff6:	0013      	movs	r3, r2
    4ff8:	e002      	b.n	5000 <_usb_d_dev_ep_stall+0x1c>
    4ffa:	1d53      	adds	r3, r2, #5
    4ffc:	e000      	b.n	5000 <_usb_d_dev_ep_stall+0x1c>
    4ffe:	0013      	movs	r3, r2
    5000:	001d      	movs	r5, r3
    5002:	0098      	lsls	r0, r3, #2
    5004:	18c0      	adds	r0, r0, r3
    5006:	0083      	lsls	r3, r0, #2
    5008:	3310      	adds	r3, #16
    500a:	0018      	movs	r0, r3
    500c:	4b47      	ldr	r3, [pc, #284]	; (512c <_usb_d_dev_ep_stall+0x148>)
    500e:	3340      	adds	r3, #64	; 0x40
    5010:	181b      	adds	r3, r3, r0
    5012:	3304      	adds	r3, #4
    5014:	2a05      	cmp	r2, #5
    5016:	d900      	bls.n	501a <_usb_d_dev_ep_stall+0x36>
    5018:	e084      	b.n	5124 <_usb_d_dev_ep_stall+0x140>
    501a:	2901      	cmp	r1, #1
    501c:	d018      	beq.n	5050 <_usb_d_dev_ep_stall+0x6c>
    501e:	2900      	cmp	r1, #0
    5020:	d03d      	beq.n	509e <_usb_d_dev_ep_stall+0xba>
    5022:	00aa      	lsls	r2, r5, #2
    5024:	1952      	adds	r2, r2, r5
    5026:	0091      	lsls	r1, r2, #2
    5028:	4b40      	ldr	r3, [pc, #256]	; (512c <_usb_d_dev_ep_stall+0x148>)
    502a:	3340      	adds	r3, #64	; 0x40
    502c:	185b      	adds	r3, r3, r1
    502e:	3326      	adds	r3, #38	; 0x26
    5030:	781a      	ldrb	r2, [r3, #0]
    5032:	230f      	movs	r3, #15
    5034:	4013      	ands	r3, r2
    5036:	3308      	adds	r3, #8
    5038:	015b      	lsls	r3, r3, #5
    503a:	4a3d      	ldr	r2, [pc, #244]	; (5130 <_usb_d_dev_ep_stall+0x14c>)
    503c:	4694      	mov	ip, r2
    503e:	4463      	add	r3, ip
    5040:	7998      	ldrb	r0, [r3, #6]
    5042:	2310      	movs	r3, #16
    5044:	40a3      	lsls	r3, r4
    5046:	4018      	ands	r0, r3
    5048:	1e43      	subs	r3, r0, #1
    504a:	4198      	sbcs	r0, r3
    504c:	b2c0      	uxtb	r0, r0
    504e:	bdf0      	pop	{r4, r5, r6, r7, pc}
    5050:	4836      	ldr	r0, [pc, #216]	; (512c <_usb_d_dev_ep_stall+0x148>)
    5052:	0003      	movs	r3, r0
    5054:	3340      	adds	r3, #64	; 0x40
    5056:	00aa      	lsls	r2, r5, #2
    5058:	1956      	adds	r6, r2, r5
    505a:	00b1      	lsls	r1, r6, #2
    505c:	185b      	adds	r3, r3, r1
    505e:	3326      	adds	r3, #38	; 0x26
    5060:	781b      	ldrb	r3, [r3, #0]
    5062:	210f      	movs	r1, #15
    5064:	400b      	ands	r3, r1
    5066:	2610      	movs	r6, #16
    5068:	40a6      	lsls	r6, r4
    506a:	b2f6      	uxtb	r6, r6
    506c:	0019      	movs	r1, r3
    506e:	3108      	adds	r1, #8
    5070:	0149      	lsls	r1, r1, #5
    5072:	4f2f      	ldr	r7, [pc, #188]	; (5130 <_usb_d_dev_ep_stall+0x14c>)
    5074:	46bc      	mov	ip, r7
    5076:	4461      	add	r1, ip
    5078:	714e      	strb	r6, [r1, #5]
    507a:	2120      	movs	r1, #32
    507c:	40a1      	lsls	r1, r4
    507e:	b2cc      	uxtb	r4, r1
    5080:	0159      	lsls	r1, r3, #5
    5082:	4b2c      	ldr	r3, [pc, #176]	; (5134 <_usb_d_dev_ep_stall+0x150>)
    5084:	469c      	mov	ip, r3
    5086:	4461      	add	r1, ip
    5088:	700c      	strb	r4, [r1, #0]
    508a:	1952      	adds	r2, r2, r5
    508c:	0093      	lsls	r3, r2, #2
    508e:	18c3      	adds	r3, r0, r3
    5090:	3360      	adds	r3, #96	; 0x60
    5092:	79da      	ldrb	r2, [r3, #7]
    5094:	2108      	movs	r1, #8
    5096:	430a      	orrs	r2, r1
    5098:	71da      	strb	r2, [r3, #7]
    509a:	2000      	movs	r0, #0
    509c:	e7d7      	b.n	504e <_usb_d_dev_ep_stall+0x6a>
    509e:	7c9a      	ldrb	r2, [r3, #18]
    50a0:	310f      	adds	r1, #15
    50a2:	400a      	ands	r2, r1
    50a4:	0011      	movs	r1, r2
    50a6:	3108      	adds	r1, #8
    50a8:	0149      	lsls	r1, r1, #5
    50aa:	4821      	ldr	r0, [pc, #132]	; (5130 <_usb_d_dev_ep_stall+0x14c>)
    50ac:	4684      	mov	ip, r0
    50ae:	4461      	add	r1, ip
    50b0:	7988      	ldrb	r0, [r1, #6]
    50b2:	2110      	movs	r1, #16
    50b4:	40a1      	lsls	r1, r4
    50b6:	4208      	tst	r0, r1
    50b8:	d024      	beq.n	5104 <_usb_d_dev_ep_stall+0x120>
    50ba:	b2c9      	uxtb	r1, r1
    50bc:	0010      	movs	r0, r2
    50be:	3008      	adds	r0, #8
    50c0:	0140      	lsls	r0, r0, #5
    50c2:	4460      	add	r0, ip
    50c4:	7101      	strb	r1, [r0, #4]
    50c6:	2120      	movs	r1, #32
    50c8:	40a1      	lsls	r1, r4
    50ca:	b2ce      	uxtb	r6, r1
    50cc:	0155      	lsls	r5, r2, #5
    50ce:	4f1a      	ldr	r7, [pc, #104]	; (5138 <_usb_d_dev_ep_stall+0x154>)
    50d0:	46bc      	mov	ip, r7
    50d2:	4465      	add	r5, ip
    50d4:	702e      	strb	r6, [r5, #0]
    50d6:	79c0      	ldrb	r0, [r0, #7]
    50d8:	4208      	tst	r0, r1
    50da:	d00a      	beq.n	50f2 <_usb_d_dev_ep_stall+0x10e>
    50dc:	0011      	movs	r1, r2
    50de:	3108      	adds	r1, #8
    50e0:	0149      	lsls	r1, r1, #5
    50e2:	4813      	ldr	r0, [pc, #76]	; (5130 <_usb_d_dev_ep_stall+0x14c>)
    50e4:	4684      	mov	ip, r0
    50e6:	4461      	add	r1, ip
    50e8:	71ce      	strb	r6, [r1, #7]
    50ea:	2001      	movs	r0, #1
    50ec:	40a0      	lsls	r0, r4
    50ee:	b2c0      	uxtb	r0, r0
    50f0:	7108      	strb	r0, [r1, #4]
    50f2:	7cd8      	ldrb	r0, [r3, #19]
    50f4:	2107      	movs	r1, #7
    50f6:	4001      	ands	r1, r0
    50f8:	2901      	cmp	r1, #1
    50fa:	d005      	beq.n	5108 <_usb_d_dev_ep_stall+0x124>
    50fc:	7cda      	ldrb	r2, [r3, #19]
    50fe:	2108      	movs	r1, #8
    5100:	438a      	bics	r2, r1
    5102:	74da      	strb	r2, [r3, #19]
    5104:	2000      	movs	r0, #0
    5106:	e7a2      	b.n	504e <_usb_d_dev_ep_stall+0x6a>
    5108:	3208      	adds	r2, #8
    510a:	0152      	lsls	r2, r2, #5
    510c:	4908      	ldr	r1, [pc, #32]	; (5130 <_usb_d_dev_ep_stall+0x14c>)
    510e:	468c      	mov	ip, r1
    5110:	4462      	add	r2, ip
    5112:	7991      	ldrb	r1, [r2, #6]
    5114:	2230      	movs	r2, #48	; 0x30
    5116:	4211      	tst	r1, r2
    5118:	d1f4      	bne.n	5104 <_usb_d_dev_ep_stall+0x120>
    511a:	0002      	movs	r2, r0
    511c:	2108      	movs	r1, #8
    511e:	438a      	bics	r2, r1
    5120:	74da      	strb	r2, [r3, #19]
    5122:	e7ef      	b.n	5104 <_usb_d_dev_ep_stall+0x120>
    5124:	2012      	movs	r0, #18
    5126:	4240      	negs	r0, r0
    5128:	e791      	b.n	504e <_usb_d_dev_ep_stall+0x6a>
    512a:	46c0      	nop			; (mov r8, r8)
    512c:	20000448 	.word	0x20000448
    5130:	41005000 	.word	0x41005000
    5134:	41005109 	.word	0x41005109
    5138:	41005108 	.word	0x41005108

0000513c <_usb_d_dev_ep_read_req>:
    513c:	b570      	push	{r4, r5, r6, lr}
    513e:	000e      	movs	r6, r1
    5140:	240f      	movs	r4, #15
    5142:	4004      	ands	r4, r0
    5144:	0162      	lsls	r2, r4, #5
    5146:	4b18      	ldr	r3, [pc, #96]	; (51a8 <_usb_d_dev_ep_read_req+0x6c>)
    5148:	189b      	adds	r3, r3, r2
    514a:	6819      	ldr	r1, [r3, #0]
    514c:	685d      	ldr	r5, [r3, #4]
    514e:	04ad      	lsls	r5, r5, #18
    5150:	0cad      	lsrs	r5, r5, #18
    5152:	2c05      	cmp	r4, #5
    5154:	d81f      	bhi.n	5196 <_usb_d_dev_ep_read_req+0x5a>
    5156:	2e00      	cmp	r6, #0
    5158:	d020      	beq.n	519c <_usb_d_dev_ep_read_req+0x60>
    515a:	0023      	movs	r3, r4
    515c:	3308      	adds	r3, #8
    515e:	015b      	lsls	r3, r3, #5
    5160:	4a12      	ldr	r2, [pc, #72]	; (51ac <_usb_d_dev_ep_read_req+0x70>)
    5162:	5c9b      	ldrb	r3, [r3, r2]
    5164:	2b11      	cmp	r3, #17
    5166:	d11c      	bne.n	51a2 <_usb_d_dev_ep_read_req+0x66>
    5168:	0023      	movs	r3, r4
    516a:	3308      	adds	r3, #8
    516c:	015b      	lsls	r3, r3, #5
    516e:	4694      	mov	ip, r2
    5170:	4463      	add	r3, ip
    5172:	79db      	ldrb	r3, [r3, #7]
    5174:	06db      	lsls	r3, r3, #27
    5176:	d401      	bmi.n	517c <_usb_d_dev_ep_read_req+0x40>
    5178:	2000      	movs	r0, #0
    517a:	bd70      	pop	{r4, r5, r6, pc}
    517c:	2208      	movs	r2, #8
    517e:	0030      	movs	r0, r6
    5180:	4b0b      	ldr	r3, [pc, #44]	; (51b0 <_usb_d_dev_ep_read_req+0x74>)
    5182:	4798      	blx	r3
    5184:	3408      	adds	r4, #8
    5186:	0164      	lsls	r4, r4, #5
    5188:	4b08      	ldr	r3, [pc, #32]	; (51ac <_usb_d_dev_ep_read_req+0x70>)
    518a:	469c      	mov	ip, r3
    518c:	4464      	add	r4, ip
    518e:	2310      	movs	r3, #16
    5190:	71e3      	strb	r3, [r4, #7]
    5192:	0028      	movs	r0, r5
    5194:	e7f1      	b.n	517a <_usb_d_dev_ep_read_req+0x3e>
    5196:	2012      	movs	r0, #18
    5198:	4240      	negs	r0, r0
    519a:	e7ee      	b.n	517a <_usb_d_dev_ep_read_req+0x3e>
    519c:	2012      	movs	r0, #18
    519e:	4240      	negs	r0, r0
    51a0:	e7eb      	b.n	517a <_usb_d_dev_ep_read_req+0x3e>
    51a2:	2013      	movs	r0, #19
    51a4:	4240      	negs	r0, r0
    51a6:	e7e8      	b.n	517a <_usb_d_dev_ep_read_req+0x3e>
    51a8:	200003c8 	.word	0x200003c8
    51ac:	41005000 	.word	0x41005000
    51b0:	000094e3 	.word	0x000094e3

000051b4 <_usb_d_dev_ep_trans>:
    51b4:	b5f0      	push	{r4, r5, r6, r7, lr}
    51b6:	46de      	mov	lr, fp
    51b8:	4657      	mov	r7, sl
    51ba:	464e      	mov	r6, r9
    51bc:	4645      	mov	r5, r8
    51be:	b5e0      	push	{r5, r6, r7, lr}
    51c0:	b085      	sub	sp, #20
    51c2:	4680      	mov	r8, r0
    51c4:	7a05      	ldrb	r5, [r0, #8]
    51c6:	220f      	movs	r2, #15
    51c8:	402a      	ands	r2, r5
    51ca:	b26d      	sxtb	r5, r5
    51cc:	0feb      	lsrs	r3, r5, #31
    51ce:	4699      	mov	r9, r3
    51d0:	2a00      	cmp	r2, #0
    51d2:	d005      	beq.n	51e0 <_usb_d_dev_ep_trans+0x2c>
    51d4:	2d00      	cmp	r5, #0
    51d6:	db01      	blt.n	51dc <_usb_d_dev_ep_trans+0x28>
    51d8:	0010      	movs	r0, r2
    51da:	e002      	b.n	51e2 <_usb_d_dev_ep_trans+0x2e>
    51dc:	1d50      	adds	r0, r2, #5
    51de:	e000      	b.n	51e2 <_usb_d_dev_ep_trans+0x2e>
    51e0:	0010      	movs	r0, r2
    51e2:	0006      	movs	r6, r0
    51e4:	4b60      	ldr	r3, [pc, #384]	; (5368 <_usb_d_dev_ep_trans+0x1b4>)
    51e6:	3340      	adds	r3, #64	; 0x40
    51e8:	0081      	lsls	r1, r0, #2
    51ea:	180f      	adds	r7, r1, r0
    51ec:	00bc      	lsls	r4, r7, #2
    51ee:	3410      	adds	r4, #16
    51f0:	191c      	adds	r4, r3, r4
    51f2:	3404      	adds	r4, #4
    51f4:	00b8      	lsls	r0, r7, #2
    51f6:	181b      	adds	r3, r3, r0
    51f8:	8c9b      	ldrh	r3, [r3, #36]	; 0x24
    51fa:	495c      	ldr	r1, [pc, #368]	; (536c <_usb_d_dev_ep_trans+0x1b8>)
    51fc:	428b      	cmp	r3, r1
    51fe:	d042      	beq.n	5286 <_usb_d_dev_ep_trans+0xd2>
    5200:	1e5f      	subs	r7, r3, #1
    5202:	b2bf      	uxth	r7, r7
    5204:	4641      	mov	r1, r8
    5206:	6849      	ldr	r1, [r1, #4]
    5208:	400f      	ands	r7, r1
    520a:	2a05      	cmp	r2, #5
    520c:	d900      	bls.n	5210 <_usb_d_dev_ep_trans+0x5c>
    520e:	e0a1      	b.n	5354 <_usb_d_dev_ep_trans+0x1a0>
    5210:	4642      	mov	r2, r8
    5212:	6812      	ldr	r2, [r2, #0]
    5214:	4856      	ldr	r0, [pc, #344]	; (5370 <_usb_d_dev_ep_trans+0x1bc>)
    5216:	4282      	cmp	r2, r0
    5218:	d90c      	bls.n	5234 <_usb_d_dev_ep_trans+0x80>
    521a:	1888      	adds	r0, r1, r2
    521c:	9001      	str	r0, [sp, #4]
    521e:	4855      	ldr	r0, [pc, #340]	; (5374 <_usb_d_dev_ep_trans+0x1c0>)
    5220:	4684      	mov	ip, r0
    5222:	9801      	ldr	r0, [sp, #4]
    5224:	4560      	cmp	r0, ip
    5226:	d805      	bhi.n	5234 <_usb_d_dev_ep_trans+0x80>
    5228:	0792      	lsls	r2, r2, #30
    522a:	d103      	bne.n	5234 <_usb_d_dev_ep_trans+0x80>
    522c:	2d00      	cmp	r5, #0
    522e:	db2c      	blt.n	528a <_usb_d_dev_ep_trans+0xd6>
    5230:	4299      	cmp	r1, r3
    5232:	d22d      	bcs.n	5290 <_usb_d_dev_ep_trans+0xdc>
    5234:	00b3      	lsls	r3, r6, #2
    5236:	199b      	adds	r3, r3, r6
    5238:	009a      	lsls	r2, r3, #2
    523a:	4b4b      	ldr	r3, [pc, #300]	; (5368 <_usb_d_dev_ep_trans+0x1b4>)
    523c:	189b      	adds	r3, r3, r2
    523e:	6e1b      	ldr	r3, [r3, #96]	; 0x60
    5240:	2b00      	cmp	r3, #0
    5242:	d100      	bne.n	5246 <_usb_d_dev_ep_trans+0x92>
    5244:	e089      	b.n	535a <_usb_d_dev_ep_trans+0x1a6>
    5246:	2301      	movs	r3, #1
    5248:	9301      	str	r3, [sp, #4]
    524a:	2d00      	cmp	r5, #0
    524c:	db0a      	blt.n	5264 <_usb_d_dev_ep_trans+0xb0>
    524e:	2f00      	cmp	r7, #0
    5250:	d008      	beq.n	5264 <_usb_d_dev_ep_trans+0xb0>
    5252:	00b3      	lsls	r3, r6, #2
    5254:	199b      	adds	r3, r3, r6
    5256:	009a      	lsls	r2, r3, #2
    5258:	4b43      	ldr	r3, [pc, #268]	; (5368 <_usb_d_dev_ep_trans+0x1b4>)
    525a:	189b      	adds	r3, r3, r2
    525c:	6e1b      	ldr	r3, [r3, #96]	; 0x60
    525e:	2b00      	cmp	r3, #0
    5260:	d100      	bne.n	5264 <_usb_d_dev_ep_trans+0xb0>
    5262:	e07d      	b.n	5360 <_usb_d_dev_ep_trans+0x1ac>
    5264:	00b2      	lsls	r2, r6, #2
    5266:	1992      	adds	r2, r2, r6
    5268:	0091      	lsls	r1, r2, #2
    526a:	4b3f      	ldr	r3, [pc, #252]	; (5368 <_usb_d_dev_ep_trans+0x1b4>)
    526c:	185b      	adds	r3, r3, r1
    526e:	3360      	adds	r3, #96	; 0x60
    5270:	79db      	ldrb	r3, [r3, #7]
    5272:	071b      	lsls	r3, r3, #28
    5274:	d50f      	bpl.n	5296 <_usb_d_dev_ep_trans+0xe2>
    5276:	2002      	movs	r0, #2
    5278:	b005      	add	sp, #20
    527a:	bc3c      	pop	{r2, r3, r4, r5}
    527c:	4690      	mov	r8, r2
    527e:	4699      	mov	r9, r3
    5280:	46a2      	mov	sl, r4
    5282:	46ab      	mov	fp, r5
    5284:	bdf0      	pop	{r4, r5, r6, r7, pc}
    5286:	001f      	movs	r7, r3
    5288:	e7bc      	b.n	5204 <_usb_d_dev_ep_trans+0x50>
    528a:	2300      	movs	r3, #0
    528c:	9301      	str	r3, [sp, #4]
    528e:	e7dc      	b.n	524a <_usb_d_dev_ep_trans+0x96>
    5290:	2300      	movs	r3, #0
    5292:	9301      	str	r3, [sp, #4]
    5294:	e7d9      	b.n	524a <_usb_d_dev_ep_trans+0x96>
    5296:	a803      	add	r0, sp, #12
    5298:	4b37      	ldr	r3, [pc, #220]	; (5378 <_usb_d_dev_ep_trans+0x1c4>)
    529a:	4798      	blx	r3
    529c:	00b2      	lsls	r2, r6, #2
    529e:	1992      	adds	r2, r2, r6
    52a0:	0091      	lsls	r1, r2, #2
    52a2:	4b31      	ldr	r3, [pc, #196]	; (5368 <_usb_d_dev_ep_trans+0x1b4>)
    52a4:	185b      	adds	r3, r3, r1
    52a6:	3360      	adds	r3, #96	; 0x60
    52a8:	79db      	ldrb	r3, [r3, #7]
    52aa:	065b      	lsls	r3, r3, #25
    52ac:	d430      	bmi.n	5310 <_usb_d_dev_ep_trans+0x15c>
    52ae:	00b3      	lsls	r3, r6, #2
    52b0:	199b      	adds	r3, r3, r6
    52b2:	009a      	lsls	r2, r3, #2
    52b4:	4b2c      	ldr	r3, [pc, #176]	; (5368 <_usb_d_dev_ep_trans+0x1b4>)
    52b6:	469b      	mov	fp, r3
    52b8:	4493      	add	fp, r2
    52ba:	2360      	movs	r3, #96	; 0x60
    52bc:	445b      	add	r3, fp
    52be:	469a      	mov	sl, r3
    52c0:	79db      	ldrb	r3, [r3, #7]
    52c2:	2240      	movs	r2, #64	; 0x40
    52c4:	4313      	orrs	r3, r2
    52c6:	4652      	mov	r2, sl
    52c8:	71d3      	strb	r3, [r2, #7]
    52ca:	a803      	add	r0, sp, #12
    52cc:	4b2b      	ldr	r3, [pc, #172]	; (537c <_usb_d_dev_ep_trans+0x1c8>)
    52ce:	4798      	blx	r3
    52d0:	465b      	mov	r3, fp
    52d2:	4642      	mov	r2, r8
    52d4:	6812      	ldr	r2, [r2, #0]
    52d6:	655a      	str	r2, [r3, #84]	; 0x54
    52d8:	4642      	mov	r2, r8
    52da:	6852      	ldr	r2, [r2, #4]
    52dc:	659a      	str	r2, [r3, #88]	; 0x58
    52de:	2300      	movs	r3, #0
    52e0:	465a      	mov	r2, fp
    52e2:	65d3      	str	r3, [r2, #92]	; 0x5c
    52e4:	464b      	mov	r3, r9
    52e6:	01db      	lsls	r3, r3, #7
    52e8:	4652      	mov	r2, sl
    52ea:	79d2      	ldrb	r2, [r2, #7]
    52ec:	217f      	movs	r1, #127	; 0x7f
    52ee:	4011      	ands	r1, r2
    52f0:	9a01      	ldr	r2, [sp, #4]
    52f2:	0152      	lsls	r2, r2, #5
    52f4:	430b      	orrs	r3, r1
    52f6:	2120      	movs	r1, #32
    52f8:	438b      	bics	r3, r1
    52fa:	431a      	orrs	r2, r3
    52fc:	4653      	mov	r3, sl
    52fe:	71da      	strb	r2, [r3, #7]
    5300:	4643      	mov	r3, r8
    5302:	7a5b      	ldrb	r3, [r3, #9]
    5304:	2b00      	cmp	r3, #0
    5306:	d008      	beq.n	531a <_usb_d_dev_ep_trans+0x166>
    5308:	2f00      	cmp	r7, #0
    530a:	d01b      	beq.n	5344 <_usb_d_dev_ep_trans+0x190>
    530c:	2200      	movs	r2, #0
    530e:	e005      	b.n	531c <_usb_d_dev_ep_trans+0x168>
    5310:	a803      	add	r0, sp, #12
    5312:	4b1a      	ldr	r3, [pc, #104]	; (537c <_usb_d_dev_ep_trans+0x1c8>)
    5314:	4798      	blx	r3
    5316:	2001      	movs	r0, #1
    5318:	e7ae      	b.n	5278 <_usb_d_dev_ep_trans+0xc4>
    531a:	2200      	movs	r2, #0
    531c:	00b3      	lsls	r3, r6, #2
    531e:	199e      	adds	r6, r3, r6
    5320:	00b1      	lsls	r1, r6, #2
    5322:	4b11      	ldr	r3, [pc, #68]	; (5368 <_usb_d_dev_ep_trans+0x1b4>)
    5324:	185b      	adds	r3, r3, r1
    5326:	3360      	adds	r3, #96	; 0x60
    5328:	0111      	lsls	r1, r2, #4
    532a:	79da      	ldrb	r2, [r3, #7]
    532c:	2010      	movs	r0, #16
    532e:	4382      	bics	r2, r0
    5330:	430a      	orrs	r2, r1
    5332:	71da      	strb	r2, [r3, #7]
    5334:	2d00      	cmp	r5, #0
    5336:	db07      	blt.n	5348 <_usb_d_dev_ep_trans+0x194>
    5338:	2100      	movs	r1, #0
    533a:	0020      	movs	r0, r4
    533c:	4b10      	ldr	r3, [pc, #64]	; (5380 <_usb_d_dev_ep_trans+0x1cc>)
    533e:	4798      	blx	r3
    5340:	2000      	movs	r0, #0
    5342:	e799      	b.n	5278 <_usb_d_dev_ep_trans+0xc4>
    5344:	2201      	movs	r2, #1
    5346:	e7e9      	b.n	531c <_usb_d_dev_ep_trans+0x168>
    5348:	2100      	movs	r1, #0
    534a:	0020      	movs	r0, r4
    534c:	4b0d      	ldr	r3, [pc, #52]	; (5384 <_usb_d_dev_ep_trans+0x1d0>)
    534e:	4798      	blx	r3
    5350:	2000      	movs	r0, #0
    5352:	e791      	b.n	5278 <_usb_d_dev_ep_trans+0xc4>
    5354:	2012      	movs	r0, #18
    5356:	4240      	negs	r0, r0
    5358:	e78e      	b.n	5278 <_usb_d_dev_ep_trans+0xc4>
    535a:	2013      	movs	r0, #19
    535c:	4240      	negs	r0, r0
    535e:	e78b      	b.n	5278 <_usb_d_dev_ep_trans+0xc4>
    5360:	2012      	movs	r0, #18
    5362:	4240      	negs	r0, r0
    5364:	e788      	b.n	5278 <_usb_d_dev_ep_trans+0xc4>
    5366:	46c0      	nop			; (mov r8, r8)
    5368:	20000448 	.word	0x20000448
    536c:	000003ff 	.word	0x000003ff
    5370:	1fffffff 	.word	0x1fffffff
    5374:	20007fff 	.word	0x20007fff
    5378:	00001271 	.word	0x00001271
    537c:	0000127f 	.word	0x0000127f
    5380:	00004555 	.word	0x00004555
    5384:	000043c5 	.word	0x000043c5

00005388 <_usb_d_dev_register_callback>:
    5388:	2900      	cmp	r1, #0
    538a:	d006      	beq.n	539a <_usb_d_dev_register_callback+0x12>
    538c:	2801      	cmp	r0, #1
    538e:	d006      	beq.n	539e <_usb_d_dev_register_callback+0x16>
    5390:	2800      	cmp	r0, #0
    5392:	d101      	bne.n	5398 <_usb_d_dev_register_callback+0x10>
    5394:	4b03      	ldr	r3, [pc, #12]	; (53a4 <_usb_d_dev_register_callback+0x1c>)
    5396:	6419      	str	r1, [r3, #64]	; 0x40
    5398:	4770      	bx	lr
    539a:	4903      	ldr	r1, [pc, #12]	; (53a8 <_usb_d_dev_register_callback+0x20>)
    539c:	e7f6      	b.n	538c <_usb_d_dev_register_callback+0x4>
    539e:	4b01      	ldr	r3, [pc, #4]	; (53a4 <_usb_d_dev_register_callback+0x1c>)
    53a0:	6459      	str	r1, [r3, #68]	; 0x44
    53a2:	e7f9      	b.n	5398 <_usb_d_dev_register_callback+0x10>
    53a4:	20000448 	.word	0x20000448
    53a8:	000040a1 	.word	0x000040a1

000053ac <_usb_d_dev_register_ep_callback>:
    53ac:	2900      	cmp	r1, #0
    53ae:	d008      	beq.n	53c2 <_usb_d_dev_register_ep_callback+0x16>
    53b0:	2800      	cmp	r0, #0
    53b2:	d008      	beq.n	53c6 <_usb_d_dev_register_ep_callback+0x1a>
    53b4:	2801      	cmp	r0, #1
    53b6:	d009      	beq.n	53cc <_usb_d_dev_register_ep_callback+0x20>
    53b8:	2802      	cmp	r0, #2
    53ba:	d106      	bne.n	53ca <_usb_d_dev_register_ep_callback+0x1e>
    53bc:	4b05      	ldr	r3, [pc, #20]	; (53d4 <_usb_d_dev_register_ep_callback+0x28>)
    53be:	6519      	str	r1, [r3, #80]	; 0x50
    53c0:	e003      	b.n	53ca <_usb_d_dev_register_ep_callback+0x1e>
    53c2:	4905      	ldr	r1, [pc, #20]	; (53d8 <_usb_d_dev_register_ep_callback+0x2c>)
    53c4:	e7f4      	b.n	53b0 <_usb_d_dev_register_ep_callback+0x4>
    53c6:	4b03      	ldr	r3, [pc, #12]	; (53d4 <_usb_d_dev_register_ep_callback+0x28>)
    53c8:	6499      	str	r1, [r3, #72]	; 0x48
    53ca:	4770      	bx	lr
    53cc:	4b01      	ldr	r3, [pc, #4]	; (53d4 <_usb_d_dev_register_ep_callback+0x28>)
    53ce:	64d9      	str	r1, [r3, #76]	; 0x4c
    53d0:	e7fb      	b.n	53ca <_usb_d_dev_register_ep_callback+0x1e>
    53d2:	46c0      	nop			; (mov r8, r8)
    53d4:	20000448 	.word	0x20000448
    53d8:	000040a1 	.word	0x000040a1

000053dc <USB_Handler>:
    53dc:	b510      	push	{r4, lr}
    53de:	4b01      	ldr	r3, [pc, #4]	; (53e4 <USB_Handler+0x8>)
    53e0:	4798      	blx	r3
    53e2:	bd10      	pop	{r4, pc}
    53e4:	00004759 	.word	0x00004759

000053e8 <set_prev_curr_form>:
	adc_async_register_callback(&ADC_0, 0, ADC_ASYNC_CONVERT_CB, convert_cb_ADC_0);
	adc_async_enable_channel(&ADC_0, 0);
}

static void set_prev_curr_form(const uint8_t form){
	session_data.previous_form = session_data.current_form;
    53e8:	4b02      	ldr	r3, [pc, #8]	; (53f4 <set_prev_curr_form+0xc>)
    53ea:	7b1a      	ldrb	r2, [r3, #12]
    53ec:	735a      	strb	r2, [r3, #13]
	session_data.current_form = form;
    53ee:	7318      	strb	r0, [r3, #12]
}
    53f0:	4770      	bx	lr
    53f2:	46c0      	nop			; (mov r8, r8)
    53f4:	20000a3c 	.word	0x20000a3c

000053f8 <sync_trigger>:
	pb_received = true;
	}
}

static void sync_trigger(void)	// called by ext irq
{	
    53f8:	b510      	push	{r4, lr}
	if ((session_data.session_running) && (!trigger_debounce)){
    53fa:	4b24      	ldr	r3, [pc, #144]	; (548c <sync_trigger+0x94>)
    53fc:	789b      	ldrb	r3, [r3, #2]
    53fe:	2b00      	cmp	r3, #0
    5400:	d040      	beq.n	5484 <sync_trigger+0x8c>
    5402:	4b23      	ldr	r3, [pc, #140]	; (5490 <sync_trigger+0x98>)
    5404:	881b      	ldrh	r3, [r3, #0]
    5406:	2b00      	cmp	r3, #0
    5408:	d13c      	bne.n	5484 <sync_trigger+0x8c>
		trigger_debounce = TRIGGER_DEBOUNCE_TIME;
    540a:	2232      	movs	r2, #50	; 0x32
    540c:	4b20      	ldr	r3, [pc, #128]	; (5490 <sync_trigger+0x98>)
    540e:	801a      	strh	r2, [r3, #0]
		session_data.current_slice += 1;
    5410:	4a1e      	ldr	r2, [pc, #120]	; (548c <sync_trigger+0x94>)
    5412:	8b53      	ldrh	r3, [r2, #26]
    5414:	3301      	adds	r3, #1
    5416:	b29b      	uxth	r3, r3
    5418:	8353      	strh	r3, [r2, #26]
		
		if (((session_data.current_slice >= session_data.no_of_slices) && (session_data.current_volume == session_data.no_of_volumes)) ||
    541a:	8a52      	ldrh	r2, [r2, #18]
    541c:	4293      	cmp	r3, r2
    541e:	d304      	bcc.n	542a <sync_trigger+0x32>
    5420:	491a      	ldr	r1, [pc, #104]	; (548c <sync_trigger+0x94>)
    5422:	8b08      	ldrh	r0, [r1, #24]
    5424:	8a09      	ldrh	r1, [r1, #16]
    5426:	4288      	cmp	r0, r1
    5428:	d004      	beq.n	5434 <sync_trigger+0x3c>
			(session_data.current_volume > session_data.no_of_volumes)){
    542a:	4918      	ldr	r1, [pc, #96]	; (548c <sync_trigger+0x94>)
    542c:	8b08      	ldrh	r0, [r1, #24]
    542e:	8a09      	ldrh	r1, [r1, #16]
		if (((session_data.current_slice >= session_data.no_of_slices) && (session_data.current_volume == session_data.no_of_volumes)) ||
    5430:	4288      	cmp	r0, r1
    5432:	d902      	bls.n	543a <sync_trigger+0x42>
			session_data.session_finished = true;
    5434:	2001      	movs	r0, #1
    5436:	4915      	ldr	r1, [pc, #84]	; (548c <sync_trigger+0x94>)
    5438:	7048      	strb	r0, [r1, #1]
		}
		
		if ((session_data.current_slice > session_data.no_of_slices) && (!session_data.session_finished)){
    543a:	4293      	cmp	r3, r2
    543c:	d909      	bls.n	5452 <sync_trigger+0x5a>
    543e:	4b13      	ldr	r3, [pc, #76]	; (548c <sync_trigger+0x94>)
    5440:	785b      	ldrb	r3, [r3, #1]
    5442:	2b00      	cmp	r3, #0
    5444:	d105      	bne.n	5452 <sync_trigger+0x5a>
			session_data.current_volume += 1;	
    5446:	4b11      	ldr	r3, [pc, #68]	; (548c <sync_trigger+0x94>)
    5448:	8b1a      	ldrh	r2, [r3, #24]
    544a:	3201      	adds	r2, #1
    544c:	831a      	strh	r2, [r3, #24]
			session_data.current_slice = 1;					
    544e:	2201      	movs	r2, #1
    5450:	835a      	strh	r2, [r3, #26]
			}
		
		uint16_t divider = session_data.trig_on_volume;
    5452:	4b0e      	ldr	r3, [pc, #56]	; (548c <sync_trigger+0x94>)
    5454:	8a9b      	ldrh	r3, [r3, #20]
		if (divider == 0) {
    5456:	2b00      	cmp	r3, #0
    5458:	d015      	beq.n	5486 <sync_trigger+0x8e>
		uint16_t divider = session_data.trig_on_volume;
    545a:	0019      	movs	r1, r3
			divider = 1;
		}
		if ((session_data.trig_on_volume == 0) || (((session_data.current_volume - 1) % divider) == 0)){
    545c:	2b00      	cmp	r3, #0
    545e:	d006      	beq.n	546e <sync_trigger+0x76>
    5460:	4b0a      	ldr	r3, [pc, #40]	; (548c <sync_trigger+0x94>)
    5462:	8b18      	ldrh	r0, [r3, #24]
    5464:	3801      	subs	r0, #1
    5466:	4b0b      	ldr	r3, [pc, #44]	; (5494 <sync_trigger+0x9c>)
    5468:	4798      	blx	r3
    546a:	2900      	cmp	r1, #0
    546c:	d10a      	bne.n	5484 <sync_trigger+0x8c>
			if ((session_data.trig_on_slice == 0) || (session_data.trig_on_slice == session_data.current_slice)){
    546e:	4b07      	ldr	r3, [pc, #28]	; (548c <sync_trigger+0x94>)
    5470:	8adb      	ldrh	r3, [r3, #22]
    5472:	2b00      	cmp	r3, #0
    5474:	d003      	beq.n	547e <sync_trigger+0x86>
    5476:	4a05      	ldr	r2, [pc, #20]	; (548c <sync_trigger+0x94>)
    5478:	8b52      	ldrh	r2, [r2, #26]
    547a:	4293      	cmp	r3, r2
    547c:	d102      	bne.n	5484 <sync_trigger+0x8c>
				session_data.trigger = true;
    547e:	2201      	movs	r2, #1
    5480:	4b02      	ldr	r3, [pc, #8]	; (548c <sync_trigger+0x94>)
    5482:	715a      	strb	r2, [r3, #5]
			}
		}
	}	
}
    5484:	bd10      	pop	{r4, pc}
			divider = 1;
    5486:	2101      	movs	r1, #1
    5488:	e7e8      	b.n	545c <sync_trigger+0x64>
    548a:	46c0      	nop			; (mov r8, r8)
    548c:	20000a3c 	.word	0x20000a3c
    5490:	20000000 	.word	0x20000000
    5494:	0000941d 	.word	0x0000941d

00005498 <button>:
{
    5498:	b510      	push	{r4, lr}
	if (!pb_debounce){
    549a:	4b07      	ldr	r3, [pc, #28]	; (54b8 <button+0x20>)
    549c:	885b      	ldrh	r3, [r3, #2]
    549e:	2b00      	cmp	r3, #0
    54a0:	d000      	beq.n	54a4 <button+0xc>
}
    54a2:	bd10      	pop	{r4, pc}
	printf("button pressed\r\n");
    54a4:	4805      	ldr	r0, [pc, #20]	; (54bc <button+0x24>)
    54a6:	4b06      	ldr	r3, [pc, #24]	; (54c0 <button+0x28>)
    54a8:	4798      	blx	r3
	pb_debounce = PB_DEBOUNCE_TIME;
    54aa:	22c8      	movs	r2, #200	; 0xc8
    54ac:	4b02      	ldr	r3, [pc, #8]	; (54b8 <button+0x20>)
    54ae:	805a      	strh	r2, [r3, #2]
	pb_received = true;
    54b0:	3ac7      	subs	r2, #199	; 0xc7
    54b2:	4b04      	ldr	r3, [pc, #16]	; (54c4 <button+0x2c>)
    54b4:	701a      	strb	r2, [r3, #0]
}
    54b6:	e7f4      	b.n	54a2 <button+0xa>
    54b8:	20000000 	.word	0x20000000
    54bc:	0000db44 	.word	0x0000db44
    54c0:	000095f9 	.word	0x000095f9
    54c4:	20000740 	.word	0x20000740

000054c8 <convert_cb_ADC_0>:
{
    54c8:	b570      	push	{r4, r5, r6, lr}
	adc_async_read_channel(&ADC_0, channel, &adc_value, 2);
    54ca:	4c04      	ldr	r4, [pc, #16]	; (54dc <convert_cb_ADC_0+0x14>)
    54cc:	1ca2      	adds	r2, r4, #2
    54ce:	2302      	movs	r3, #2
    54d0:	4803      	ldr	r0, [pc, #12]	; (54e0 <convert_cb_ADC_0+0x18>)
    54d2:	4d04      	ldr	r5, [pc, #16]	; (54e4 <convert_cb_ADC_0+0x1c>)
    54d4:	47a8      	blx	r5
	adc_read=true;
    54d6:	2301      	movs	r3, #1
    54d8:	7123      	strb	r3, [r4, #4]
}
    54da:	bd70      	pop	{r4, r5, r6, pc}
    54dc:	20000740 	.word	0x20000740
    54e0:	2000091c 	.word	0x2000091c
    54e4:	00001171 	.word	0x00001171

000054e8 <TIMER_task2_cb>:
		//gpio_toggle_pin_level(T1);
	}
}

static void TIMER_task2_cb(const struct timer_task *const timer_task)  // 1.6Hz
{
    54e8:	b510      	push	{r4, lr}
	//gpio_toggle_pin_level(T2);
	if (adc_read){
    54ea:	4b06      	ldr	r3, [pc, #24]	; (5504 <TIMER_task2_cb+0x1c>)
    54ec:	791b      	ldrb	r3, [r3, #4]
    54ee:	2b00      	cmp	r3, #0
    54f0:	d100      	bne.n	54f4 <TIMER_task2_cb+0xc>
		adc_read=false;
		//printf("ADC value: %d\r\n", adc_value);
		adc_async_start_conversion(&ADC_0);
	}
}
    54f2:	bd10      	pop	{r4, pc}
		adc_read=false;
    54f4:	2200      	movs	r2, #0
    54f6:	4b03      	ldr	r3, [pc, #12]	; (5504 <TIMER_task2_cb+0x1c>)
    54f8:	711a      	strb	r2, [r3, #4]
		adc_async_start_conversion(&ADC_0);
    54fa:	4803      	ldr	r0, [pc, #12]	; (5508 <TIMER_task2_cb+0x20>)
    54fc:	4b03      	ldr	r3, [pc, #12]	; (550c <TIMER_task2_cb+0x24>)
    54fe:	4798      	blx	r3
}
    5500:	e7f7      	b.n	54f2 <TIMER_task2_cb+0xa>
    5502:	46c0      	nop			; (mov r8, r8)
    5504:	20000740 	.word	0x20000740
    5508:	2000091c 	.word	0x2000091c
    550c:	00001249 	.word	0x00001249

00005510 <TIMER_task1_cb>:
   {	
    5510:	b570      	push	{r4, r5, r6, lr}
	if (error_beep_length){
    5512:	4b87      	ldr	r3, [pc, #540]	; (5730 <TIMER_task1_cb+0x220>)
    5514:	88db      	ldrh	r3, [r3, #6]
    5516:	2b00      	cmp	r3, #0
    5518:	d112      	bne.n	5540 <TIMER_task1_cb+0x30>
	else if (click_length){
    551a:	4b85      	ldr	r3, [pc, #532]	; (5730 <TIMER_task1_cb+0x220>)
    551c:	891b      	ldrh	r3, [r3, #8]
    551e:	2b00      	cmp	r3, #0
    5520:	d000      	beq.n	5524 <TIMER_task1_cb+0x14>
    5522:	e0a8      	b.n	5676 <TIMER_task1_cb+0x166>
	else if (beep_sound_length){
    5524:	4b83      	ldr	r3, [pc, #524]	; (5734 <TIMER_task1_cb+0x224>)
    5526:	881b      	ldrh	r3, [r3, #0]
    5528:	2b00      	cmp	r3, #0
    552a:	d100      	bne.n	552e <TIMER_task1_cb+0x1e>
    552c:	e0cb      	b.n	56c6 <TIMER_task1_cb+0x1b6>
		if (session_data.response_sound){
    552e:	4a82      	ldr	r2, [pc, #520]	; (5738 <TIMER_task1_cb+0x228>)
    5530:	7ad2      	ldrb	r2, [r2, #11]
    5532:	2a00      	cmp	r2, #0
    5534:	d000      	beq.n	5538 <TIMER_task1_cb+0x28>
    5536:	e0b2      	b.n	569e <TIMER_task1_cb+0x18e>
			beep_sound_length = 0;
    5538:	2200      	movs	r2, #0
    553a:	4b7e      	ldr	r3, [pc, #504]	; (5734 <TIMER_task1_cb+0x224>)
    553c:	801a      	strh	r2, [r3, #0]
    553e:	e010      	b.n	5562 <TIMER_task1_cb+0x52>
		dc_out = error_beep[ERROR_BEEP_LENGTH - error_beep_length];
    5540:	4a7e      	ldr	r2, [pc, #504]	; (573c <TIMER_task1_cb+0x22c>)
    5542:	1ad3      	subs	r3, r2, r3
    5544:	005b      	lsls	r3, r3, #1
    5546:	4a7e      	ldr	r2, [pc, #504]	; (5740 <TIMER_task1_cb+0x230>)
    5548:	5a9b      	ldrh	r3, [r3, r2]
    554a:	4a7e      	ldr	r2, [pc, #504]	; (5744 <TIMER_task1_cb+0x234>)
    554c:	8093      	strh	r3, [r2, #4]
 		dac_async_write(&DAC_0, 0, &dc_out, 1);
    554e:	3204      	adds	r2, #4
    5550:	2301      	movs	r3, #1
    5552:	2100      	movs	r1, #0
    5554:	487c      	ldr	r0, [pc, #496]	; (5748 <TIMER_task1_cb+0x238>)
    5556:	4c7d      	ldr	r4, [pc, #500]	; (574c <TIMER_task1_cb+0x23c>)
    5558:	47a0      	blx	r4
 		error_beep_length --;
    555a:	4a75      	ldr	r2, [pc, #468]	; (5730 <TIMER_task1_cb+0x220>)
    555c:	88d3      	ldrh	r3, [r2, #6]
    555e:	3b01      	subs	r3, #1
    5560:	80d3      	strh	r3, [r2, #6]
	if (prescaler){
    5562:	4b78      	ldr	r3, [pc, #480]	; (5744 <TIMER_task1_cb+0x234>)
    5564:	799b      	ldrb	r3, [r3, #6]
    5566:	2b00      	cmp	r3, #0
    5568:	d000      	beq.n	556c <TIMER_task1_cb+0x5c>
    556a:	e0cd      	b.n	5708 <TIMER_task1_cb+0x1f8>
		prescaler = PRESCALER_VALUE;
    556c:	2207      	movs	r2, #7
    556e:	4b75      	ldr	r3, [pc, #468]	; (5744 <TIMER_task1_cb+0x234>)
    5570:	719a      	strb	r2, [r3, #6]
		if (usb_disconnected_prescaler){
    5572:	4b6f      	ldr	r3, [pc, #444]	; (5730 <TIMER_task1_cb+0x220>)
    5574:	7a9b      	ldrb	r3, [r3, #10]
    5576:	2b00      	cmp	r3, #0
    5578:	d100      	bne.n	557c <TIMER_task1_cb+0x6c>
    557a:	e0c9      	b.n	5710 <TIMER_task1_cb+0x200>
			usb_disconnected_prescaler --;
    557c:	3b01      	subs	r3, #1
    557e:	4a6c      	ldr	r2, [pc, #432]	; (5730 <TIMER_task1_cb+0x220>)
    5580:	7293      	strb	r3, [r2, #10]
		if (timeout_counter){
    5582:	4b6b      	ldr	r3, [pc, #428]	; (5730 <TIMER_task1_cb+0x220>)
    5584:	899b      	ldrh	r3, [r3, #12]
    5586:	2b00      	cmp	r3, #0
    5588:	d002      	beq.n	5590 <TIMER_task1_cb+0x80>
			timeout_counter --;
    558a:	3b01      	subs	r3, #1
    558c:	4a68      	ldr	r2, [pc, #416]	; (5730 <TIMER_task1_cb+0x220>)
    558e:	8193      	strh	r3, [r2, #12]
		if (trigger_debounce){
    5590:	4b6c      	ldr	r3, [pc, #432]	; (5744 <TIMER_task1_cb+0x234>)
    5592:	881b      	ldrh	r3, [r3, #0]
    5594:	2b00      	cmp	r3, #0
    5596:	d002      	beq.n	559e <TIMER_task1_cb+0x8e>
			trigger_debounce --;
    5598:	3b01      	subs	r3, #1
    559a:	4a6a      	ldr	r2, [pc, #424]	; (5744 <TIMER_task1_cb+0x234>)
    559c:	8013      	strh	r3, [r2, #0]
		if (trig_LED_delay){
    559e:	4b69      	ldr	r3, [pc, #420]	; (5744 <TIMER_task1_cb+0x234>)
    55a0:	891b      	ldrh	r3, [r3, #8]
    55a2:	2b00      	cmp	r3, #0
    55a4:	d002      	beq.n	55ac <TIMER_task1_cb+0x9c>
			trig_LED_delay --;
    55a6:	3b01      	subs	r3, #1
    55a8:	4a66      	ldr	r2, [pc, #408]	; (5744 <TIMER_task1_cb+0x234>)
    55aa:	8113      	strh	r3, [r2, #8]
		if (pb_debounce){
    55ac:	4b65      	ldr	r3, [pc, #404]	; (5744 <TIMER_task1_cb+0x234>)
    55ae:	885b      	ldrh	r3, [r3, #2]
    55b0:	2b00      	cmp	r3, #0
    55b2:	d002      	beq.n	55ba <TIMER_task1_cb+0xaa>
			pb_debounce --;
    55b4:	3b01      	subs	r3, #1
    55b6:	4a63      	ldr	r2, [pc, #396]	; (5744 <TIMER_task1_cb+0x234>)
    55b8:	8053      	strh	r3, [r2, #2]
		if (session_data.simulation_mode){		
    55ba:	4b5f      	ldr	r3, [pc, #380]	; (5738 <TIMER_task1_cb+0x228>)
    55bc:	78db      	ldrb	r3, [r3, #3]
    55be:	2b00      	cmp	r3, #0
    55c0:	d100      	bne.n	55c4 <TIMER_task1_cb+0xb4>
    55c2:	e0a4      	b.n	570e <TIMER_task1_cb+0x1fe>
			pulse_counter += 1;
    55c4:	4a5a      	ldr	r2, [pc, #360]	; (5730 <TIMER_task1_cb+0x220>)
    55c6:	89d3      	ldrh	r3, [r2, #14]
    55c8:	3301      	adds	r3, #1
    55ca:	b29b      	uxth	r3, r3
    55cc:	81d3      	strh	r3, [r2, #14]
			TR_counter += 1;
    55ce:	8a14      	ldrh	r4, [r2, #16]
    55d0:	3401      	adds	r4, #1
    55d2:	b2a4      	uxth	r4, r4
    55d4:	8214      	strh	r4, [r2, #16]
			if (pulse_counter >= session_data.pulse_length){ // slice acquisition starts
    55d6:	4a58      	ldr	r2, [pc, #352]	; (5738 <TIMER_task1_cb+0x228>)
    55d8:	8c12      	ldrh	r2, [r2, #32]
    55da:	4293      	cmp	r3, r2
    55dc:	d334      	bcc.n	5648 <TIMER_task1_cb+0x138>
				pulse_counter = 0;
    55de:	2200      	movs	r2, #0
    55e0:	4b53      	ldr	r3, [pc, #332]	; (5730 <TIMER_task1_cb+0x220>)
    55e2:	81da      	strh	r2, [r3, #14]
				if (session_data.current_slice < session_data.no_of_slices){
    55e4:	4a54      	ldr	r2, [pc, #336]	; (5738 <TIMER_task1_cb+0x228>)
    55e6:	8b53      	ldrh	r3, [r2, #26]
    55e8:	8a52      	ldrh	r2, [r2, #18]
    55ea:	4293      	cmp	r3, r2
    55ec:	d22c      	bcs.n	5648 <TIMER_task1_cb+0x138>
					session_data.current_slice += 1;
    55ee:	3301      	adds	r3, #1
    55f0:	b29d      	uxth	r5, r3
    55f2:	4b51      	ldr	r3, [pc, #324]	; (5738 <TIMER_task1_cb+0x228>)
    55f4:	835d      	strh	r5, [r3, #26]
					if (((session_data.current_slice >= session_data.no_of_slices) && (session_data.current_volume == session_data.no_of_volumes)) || 
    55f6:	42aa      	cmp	r2, r5
    55f8:	d803      	bhi.n	5602 <TIMER_task1_cb+0xf2>
    55fa:	8b1a      	ldrh	r2, [r3, #24]
    55fc:	8a1b      	ldrh	r3, [r3, #16]
    55fe:	429a      	cmp	r2, r3
    5600:	d004      	beq.n	560c <TIMER_task1_cb+0xfc>
						(session_data.current_volume > session_data.no_of_volumes)){
    5602:	4b4d      	ldr	r3, [pc, #308]	; (5738 <TIMER_task1_cb+0x228>)
    5604:	8b1a      	ldrh	r2, [r3, #24]
    5606:	8a1b      	ldrh	r3, [r3, #16]
					if (((session_data.current_slice >= session_data.no_of_slices) && (session_data.current_volume == session_data.no_of_volumes)) || 
    5608:	429a      	cmp	r2, r3
    560a:	d902      	bls.n	5612 <TIMER_task1_cb+0x102>
						session_data.session_finished = true;
    560c:	2201      	movs	r2, #1
    560e:	4b4a      	ldr	r3, [pc, #296]	; (5738 <TIMER_task1_cb+0x228>)
    5610:	705a      	strb	r2, [r3, #1]
					uint16_t divider = session_data.trig_on_volume;
    5612:	4b49      	ldr	r3, [pc, #292]	; (5738 <TIMER_task1_cb+0x228>)
    5614:	8a9b      	ldrh	r3, [r3, #20]
					if (divider == 0) {
    5616:	2b00      	cmp	r3, #0
    5618:	d100      	bne.n	561c <TIMER_task1_cb+0x10c>
    561a:	e087      	b.n	572c <TIMER_task1_cb+0x21c>
					uint16_t divider = session_data.trig_on_volume;
    561c:	0019      	movs	r1, r3
					if ((session_data.trig_on_volume == 0) || (((session_data.current_volume - 1) % divider) == 0)){
    561e:	2b00      	cmp	r3, #0
    5620:	d006      	beq.n	5630 <TIMER_task1_cb+0x120>
    5622:	4b45      	ldr	r3, [pc, #276]	; (5738 <TIMER_task1_cb+0x228>)
    5624:	8b18      	ldrh	r0, [r3, #24]
    5626:	3801      	subs	r0, #1
    5628:	4b49      	ldr	r3, [pc, #292]	; (5750 <TIMER_task1_cb+0x240>)
    562a:	4798      	blx	r3
    562c:	2900      	cmp	r1, #0
    562e:	d10b      	bne.n	5648 <TIMER_task1_cb+0x138>
						if ((session_data.trig_on_slice == 0) || (session_data.trig_on_slice == session_data.current_slice)){
    5630:	4b41      	ldr	r3, [pc, #260]	; (5738 <TIMER_task1_cb+0x228>)
    5632:	8adb      	ldrh	r3, [r3, #22]
    5634:	2b00      	cmp	r3, #0
    5636:	d001      	beq.n	563c <TIMER_task1_cb+0x12c>
    5638:	429d      	cmp	r5, r3
    563a:	d105      	bne.n	5648 <TIMER_task1_cb+0x138>
							session_data.trigger = true;
    563c:	2201      	movs	r2, #1
    563e:	4b3e      	ldr	r3, [pc, #248]	; (5738 <TIMER_task1_cb+0x228>)
    5640:	715a      	strb	r2, [r3, #5]
							sync_beep_length = SYNC_BEEP_LENGTH;
    5642:	4a44      	ldr	r2, [pc, #272]	; (5754 <TIMER_task1_cb+0x244>)
    5644:	4b44      	ldr	r3, [pc, #272]	; (5758 <TIMER_task1_cb+0x248>)
    5646:	801a      	strh	r2, [r3, #0]
			if (TR_counter >= session_data.TR_time){ // new volume acquisition starts
    5648:	4b3b      	ldr	r3, [pc, #236]	; (5738 <TIMER_task1_cb+0x228>)
    564a:	6a5b      	ldr	r3, [r3, #36]	; 0x24
    564c:	429c      	cmp	r4, r3
    564e:	d35e      	bcc.n	570e <TIMER_task1_cb+0x1fe>
				TR_counter = 0;
    5650:	4b37      	ldr	r3, [pc, #220]	; (5730 <TIMER_task1_cb+0x220>)
    5652:	2200      	movs	r2, #0
    5654:	821a      	strh	r2, [r3, #16]
				pulse_counter = 0;
    5656:	81da      	strh	r2, [r3, #14]
				session_data.current_volume += 1;
    5658:	4a37      	ldr	r2, [pc, #220]	; (5738 <TIMER_task1_cb+0x228>)
    565a:	8b13      	ldrh	r3, [r2, #24]
    565c:	3301      	adds	r3, #1
    565e:	b29b      	uxth	r3, r3
    5660:	8313      	strh	r3, [r2, #24]
				if (session_data.current_volume > session_data.no_of_volumes){
    5662:	8a12      	ldrh	r2, [r2, #16]
    5664:	4293      	cmp	r3, r2
    5666:	d902      	bls.n	566e <TIMER_task1_cb+0x15e>
					session_data.session_finished = true;
    5668:	2201      	movs	r2, #1
    566a:	4b33      	ldr	r3, [pc, #204]	; (5738 <TIMER_task1_cb+0x228>)
    566c:	705a      	strb	r2, [r3, #1]
				session_data.current_slice = 0;
    566e:	2200      	movs	r2, #0
    5670:	4b31      	ldr	r3, [pc, #196]	; (5738 <TIMER_task1_cb+0x228>)
    5672:	835a      	strh	r2, [r3, #26]
}
    5674:	e04b      	b.n	570e <TIMER_task1_cb+0x1fe>
		dc_out = click_sound[CLICK_SOUND_LENGTH - click_length];
    5676:	22bc      	movs	r2, #188	; 0xbc
    5678:	0052      	lsls	r2, r2, #1
    567a:	1ad3      	subs	r3, r2, r3
    567c:	005b      	lsls	r3, r3, #1
    567e:	4a37      	ldr	r2, [pc, #220]	; (575c <TIMER_task1_cb+0x24c>)
    5680:	18d3      	adds	r3, r2, r3
    5682:	889b      	ldrh	r3, [r3, #4]
    5684:	4a2f      	ldr	r2, [pc, #188]	; (5744 <TIMER_task1_cb+0x234>)
    5686:	8093      	strh	r3, [r2, #4]
		dac_async_write(&DAC_0, 0, &dc_out, 1);
    5688:	3204      	adds	r2, #4
    568a:	2301      	movs	r3, #1
    568c:	2100      	movs	r1, #0
    568e:	482e      	ldr	r0, [pc, #184]	; (5748 <TIMER_task1_cb+0x238>)
    5690:	4c2e      	ldr	r4, [pc, #184]	; (574c <TIMER_task1_cb+0x23c>)
    5692:	47a0      	blx	r4
		click_length --;
    5694:	4a26      	ldr	r2, [pc, #152]	; (5730 <TIMER_task1_cb+0x220>)
    5696:	8913      	ldrh	r3, [r2, #8]
    5698:	3b01      	subs	r3, #1
    569a:	8113      	strh	r3, [r2, #8]
    569c:	e761      	b.n	5562 <TIMER_task1_cb+0x52>
			dc_out = beep_sound[BEEP_SOUND_LENGTH - beep_sound_length];
    569e:	4a30      	ldr	r2, [pc, #192]	; (5760 <TIMER_task1_cb+0x250>)
    56a0:	1ad3      	subs	r3, r2, r3
    56a2:	005b      	lsls	r3, r3, #1
    56a4:	4a2f      	ldr	r2, [pc, #188]	; (5764 <TIMER_task1_cb+0x254>)
    56a6:	18d3      	adds	r3, r2, r3
    56a8:	2274      	movs	r2, #116	; 0x74
    56aa:	5a9b      	ldrh	r3, [r3, r2]
    56ac:	4a25      	ldr	r2, [pc, #148]	; (5744 <TIMER_task1_cb+0x234>)
    56ae:	8093      	strh	r3, [r2, #4]
			dac_async_write(&DAC_0, 0, &dc_out, 1);
    56b0:	3204      	adds	r2, #4
    56b2:	2301      	movs	r3, #1
    56b4:	2100      	movs	r1, #0
    56b6:	4824      	ldr	r0, [pc, #144]	; (5748 <TIMER_task1_cb+0x238>)
    56b8:	4c24      	ldr	r4, [pc, #144]	; (574c <TIMER_task1_cb+0x23c>)
    56ba:	47a0      	blx	r4
			beep_sound_length --;
    56bc:	4a1d      	ldr	r2, [pc, #116]	; (5734 <TIMER_task1_cb+0x224>)
    56be:	8813      	ldrh	r3, [r2, #0]
    56c0:	3b01      	subs	r3, #1
    56c2:	8013      	strh	r3, [r2, #0]
    56c4:	e74d      	b.n	5562 <TIMER_task1_cb+0x52>
	else if (sync_beep_length){
    56c6:	4b24      	ldr	r3, [pc, #144]	; (5758 <TIMER_task1_cb+0x248>)
    56c8:	881b      	ldrh	r3, [r3, #0]
    56ca:	2b00      	cmp	r3, #0
    56cc:	d100      	bne.n	56d0 <TIMER_task1_cb+0x1c0>
    56ce:	e748      	b.n	5562 <TIMER_task1_cb+0x52>
		if (session_data.trigger_sound){
    56d0:	4a19      	ldr	r2, [pc, #100]	; (5738 <TIMER_task1_cb+0x228>)
    56d2:	7a92      	ldrb	r2, [r2, #10]
    56d4:	2a00      	cmp	r2, #0
    56d6:	d103      	bne.n	56e0 <TIMER_task1_cb+0x1d0>
			sync_beep_length = 0;
    56d8:	2200      	movs	r2, #0
    56da:	4b1f      	ldr	r3, [pc, #124]	; (5758 <TIMER_task1_cb+0x248>)
    56dc:	801a      	strh	r2, [r3, #0]
    56de:	e740      	b.n	5562 <TIMER_task1_cb+0x52>
			dc_out = sync_beep[SYNC_BEEP_LENGTH - sync_beep_length];
    56e0:	4a1c      	ldr	r2, [pc, #112]	; (5754 <TIMER_task1_cb+0x244>)
    56e2:	1ad3      	subs	r3, r2, r3
    56e4:	005b      	lsls	r3, r3, #1
    56e6:	4a20      	ldr	r2, [pc, #128]	; (5768 <TIMER_task1_cb+0x258>)
    56e8:	18d3      	adds	r3, r2, r3
    56ea:	226c      	movs	r2, #108	; 0x6c
    56ec:	5a9b      	ldrh	r3, [r3, r2]
    56ee:	4a15      	ldr	r2, [pc, #84]	; (5744 <TIMER_task1_cb+0x234>)
    56f0:	8093      	strh	r3, [r2, #4]
			dac_async_write(&DAC_0, 0, &dc_out, 1);
    56f2:	3204      	adds	r2, #4
    56f4:	2301      	movs	r3, #1
    56f6:	2100      	movs	r1, #0
    56f8:	4813      	ldr	r0, [pc, #76]	; (5748 <TIMER_task1_cb+0x238>)
    56fa:	4c14      	ldr	r4, [pc, #80]	; (574c <TIMER_task1_cb+0x23c>)
    56fc:	47a0      	blx	r4
			sync_beep_length --;
    56fe:	4a16      	ldr	r2, [pc, #88]	; (5758 <TIMER_task1_cb+0x248>)
    5700:	8813      	ldrh	r3, [r2, #0]
    5702:	3b01      	subs	r3, #1
    5704:	8013      	strh	r3, [r2, #0]
    5706:	e72c      	b.n	5562 <TIMER_task1_cb+0x52>
		prescaler --;
    5708:	3b01      	subs	r3, #1
    570a:	4a0e      	ldr	r2, [pc, #56]	; (5744 <TIMER_task1_cb+0x234>)
    570c:	7193      	strb	r3, [r2, #6]
}
    570e:	bd70      	pop	{r4, r5, r6, pc}
			usb_disconnected_prescaler = 5;
    5710:	2205      	movs	r2, #5
    5712:	4b07      	ldr	r3, [pc, #28]	; (5730 <TIMER_task1_cb+0x220>)
    5714:	729a      	strb	r2, [r3, #10]
			if (usb_disconnected < 500){
    5716:	4b15      	ldr	r3, [pc, #84]	; (576c <TIMER_task1_cb+0x25c>)
    5718:	881b      	ldrh	r3, [r3, #0]
    571a:	22f4      	movs	r2, #244	; 0xf4
    571c:	32ff      	adds	r2, #255	; 0xff
    571e:	4293      	cmp	r3, r2
    5720:	d900      	bls.n	5724 <TIMER_task1_cb+0x214>
    5722:	e72e      	b.n	5582 <TIMER_task1_cb+0x72>
				usb_disconnected ++;
    5724:	3301      	adds	r3, #1
    5726:	4a11      	ldr	r2, [pc, #68]	; (576c <TIMER_task1_cb+0x25c>)
    5728:	8013      	strh	r3, [r2, #0]
    572a:	e72a      	b.n	5582 <TIMER_task1_cb+0x72>
						divider = 1;
    572c:	2101      	movs	r1, #1
    572e:	e776      	b.n	561e <TIMER_task1_cb+0x10e>
    5730:	20000740 	.word	0x20000740
    5734:	20000184 	.word	0x20000184
    5738:	20000a3c 	.word	0x20000a3c
    573c:	00000c82 	.word	0x00000c82
    5740:	0000ae14 	.word	0x0000ae14
    5744:	20000000 	.word	0x20000000
    5748:	20000948 	.word	0x20000948
    574c:	00001381 	.word	0x00001381
    5750:	0000941d 	.word	0x0000941d
    5754:	000003d6 	.word	0x000003d6
    5758:	20000182 	.word	0x20000182
    575c:	0000c714 	.word	0x0000c714
    5760:	0000047c 	.word	0x0000047c
    5764:	0000c994 	.word	0x0000c994
    5768:	0000d294 	.word	0x0000d294
    576c:	20000180 	.word	0x20000180

00005770 <write_flash>:
void write_flash(){
    5770:	b5f0      	push	{r4, r5, r6, r7, lr}
    5772:	46d6      	mov	lr, sl
    5774:	b500      	push	{lr}
    5776:	b084      	sub	sp, #16
	i = session_data.no_of_slices;
    5778:	4f45      	ldr	r7, [pc, #276]	; (5890 <write_flash+0x120>)
    577a:	8a79      	ldrh	r1, [r7, #18]
    577c:	9103      	str	r1, [sp, #12]
	printf("flash write no of slices, %u\r\n", i);
    577e:	4845      	ldr	r0, [pc, #276]	; (5894 <write_flash+0x124>)
    5780:	4d45      	ldr	r5, [pc, #276]	; (5898 <write_flash+0x128>)
    5782:	47a8      	blx	r5
	flash_write(&FLASH_0, ad, ic, 2);
    5784:	ac03      	add	r4, sp, #12
    5786:	2302      	movs	r3, #2
    5788:	0022      	movs	r2, r4
    578a:	21f8      	movs	r1, #248	; 0xf8
    578c:	0289      	lsls	r1, r1, #10
    578e:	4843      	ldr	r0, [pc, #268]	; (589c <write_flash+0x12c>)
    5790:	4e43      	ldr	r6, [pc, #268]	; (58a0 <write_flash+0x130>)
    5792:	46b2      	mov	sl, r6
    5794:	47b0      	blx	r6
	printf("flash written no of slices, %u, %u\r\n", ic[0], ic[1]);
    5796:	7821      	ldrb	r1, [r4, #0]
    5798:	7862      	ldrb	r2, [r4, #1]
    579a:	4842      	ldr	r0, [pc, #264]	; (58a4 <write_flash+0x134>)
    579c:	47a8      	blx	r5
	delay_ms(delay);
    579e:	200a      	movs	r0, #10
    57a0:	4e41      	ldr	r6, [pc, #260]	; (58a8 <write_flash+0x138>)
    57a2:	47b0      	blx	r6
	i = session_data.no_of_volumes;
    57a4:	8a39      	ldrh	r1, [r7, #16]
    57a6:	9103      	str	r1, [sp, #12]
	printf("flash write no of volumes, %u\r\n", i);
    57a8:	4840      	ldr	r0, [pc, #256]	; (58ac <write_flash+0x13c>)
    57aa:	47a8      	blx	r5
	flash_write(&FLASH_0, ad + 2, ic, 2);
    57ac:	2302      	movs	r3, #2
    57ae:	0022      	movs	r2, r4
    57b0:	493f      	ldr	r1, [pc, #252]	; (58b0 <write_flash+0x140>)
    57b2:	483a      	ldr	r0, [pc, #232]	; (589c <write_flash+0x12c>)
    57b4:	47d0      	blx	sl
	printf("flash written no of volumes, %u, %u\r\n", ic[0], ic[1]);
    57b6:	7821      	ldrb	r1, [r4, #0]
    57b8:	7862      	ldrb	r2, [r4, #1]
    57ba:	483e      	ldr	r0, [pc, #248]	; (58b4 <write_flash+0x144>)
    57bc:	47a8      	blx	r5
	delay_ms(delay);
    57be:	200a      	movs	r0, #10
    57c0:	47b0      	blx	r6
	i = session_data.trig_on_slice;
    57c2:	8af9      	ldrh	r1, [r7, #22]
    57c4:	9103      	str	r1, [sp, #12]
	printf("flash write trigg on slice, %u\r\n", i);
    57c6:	483c      	ldr	r0, [pc, #240]	; (58b8 <write_flash+0x148>)
    57c8:	47a8      	blx	r5
	flash_write(&FLASH_0, ad + 4, ic, 2);
    57ca:	2302      	movs	r3, #2
    57cc:	0022      	movs	r2, r4
    57ce:	493b      	ldr	r1, [pc, #236]	; (58bc <write_flash+0x14c>)
    57d0:	4832      	ldr	r0, [pc, #200]	; (589c <write_flash+0x12c>)
    57d2:	47d0      	blx	sl
	printf("flash written trigg on slice, %u, %u\r\n", ic[0], ic[1]);
    57d4:	7821      	ldrb	r1, [r4, #0]
    57d6:	7862      	ldrb	r2, [r4, #1]
    57d8:	4839      	ldr	r0, [pc, #228]	; (58c0 <write_flash+0x150>)
    57da:	47a8      	blx	r5
	delay_ms(delay);
    57dc:	200a      	movs	r0, #10
    57de:	47b0      	blx	r6
	i = session_data.trig_on_volume;
    57e0:	8ab9      	ldrh	r1, [r7, #20]
    57e2:	9103      	str	r1, [sp, #12]
	printf("flash write trigg on volume, %u\r\n", i);
    57e4:	4837      	ldr	r0, [pc, #220]	; (58c4 <write_flash+0x154>)
    57e6:	47a8      	blx	r5
	flash_write(&FLASH_0, ad + 6, ic, 2);
    57e8:	2302      	movs	r3, #2
    57ea:	0022      	movs	r2, r4
    57ec:	4936      	ldr	r1, [pc, #216]	; (58c8 <write_flash+0x158>)
    57ee:	482b      	ldr	r0, [pc, #172]	; (589c <write_flash+0x12c>)
    57f0:	47d0      	blx	sl
	printf("flash written trigg on volume, %u, %u\r\n", ic[0], ic[1]);
    57f2:	7821      	ldrb	r1, [r4, #0]
    57f4:	7862      	ldrb	r2, [r4, #1]
    57f6:	4835      	ldr	r0, [pc, #212]	; (58cc <write_flash+0x15c>)
    57f8:	47a8      	blx	r5
	delay_ms(delay);
    57fa:	200a      	movs	r0, #10
    57fc:	47b0      	blx	r6
	i = session_data.pulse_length;
    57fe:	8c39      	ldrh	r1, [r7, #32]
    5800:	9103      	str	r1, [sp, #12]
	printf("flash write pulse length, %u\r\n", i);
    5802:	4833      	ldr	r0, [pc, #204]	; (58d0 <write_flash+0x160>)
    5804:	47a8      	blx	r5
	flash_write(&FLASH_0, ad + 8, ic, 2);
    5806:	2302      	movs	r3, #2
    5808:	0022      	movs	r2, r4
    580a:	4932      	ldr	r1, [pc, #200]	; (58d4 <write_flash+0x164>)
    580c:	4823      	ldr	r0, [pc, #140]	; (589c <write_flash+0x12c>)
    580e:	47d0      	blx	sl
	printf("flash written pulse lenght, %u, %u\r\n", ic[0], ic[1]);
    5810:	7821      	ldrb	r1, [r4, #0]
    5812:	7862      	ldrb	r2, [r4, #1]
    5814:	4830      	ldr	r0, [pc, #192]	; (58d8 <write_flash+0x168>)
    5816:	47a8      	blx	r5
	delay_ms(delay);
    5818:	200a      	movs	r0, #10
    581a:	47b0      	blx	r6
	li = session_data.TR_time;
    581c:	6a7b      	ldr	r3, [r7, #36]	; 0x24
    581e:	9302      	str	r3, [sp, #8]
	printf("flash write TR time, %lu\r\n", li);
    5820:	0019      	movs	r1, r3
    5822:	482e      	ldr	r0, [pc, #184]	; (58dc <write_flash+0x16c>)
    5824:	47a8      	blx	r5
	flash_write(&FLASH_0, ad + 0x0a, lic, 4);
    5826:	2304      	movs	r3, #4
    5828:	aa02      	add	r2, sp, #8
    582a:	492d      	ldr	r1, [pc, #180]	; (58e0 <write_flash+0x170>)
    582c:	481b      	ldr	r0, [pc, #108]	; (589c <write_flash+0x12c>)
    582e:	47d0      	blx	sl
	printf("flash written TR time, %u, %u, %u, %u\r\n", lic[0], lic[1], lic[2], lic[3]);
    5830:	466b      	mov	r3, sp
    5832:	7a19      	ldrb	r1, [r3, #8]
    5834:	7a5a      	ldrb	r2, [r3, #9]
    5836:	7a9b      	ldrb	r3, [r3, #10]
    5838:	4668      	mov	r0, sp
    583a:	7ac0      	ldrb	r0, [r0, #11]
    583c:	9000      	str	r0, [sp, #0]
    583e:	4829      	ldr	r0, [pc, #164]	; (58e4 <write_flash+0x174>)
    5840:	47a8      	blx	r5
	delay_ms(delay);	
    5842:	200a      	movs	r0, #10
    5844:	47b0      	blx	r6
	i = session_data.trigger_sound * 256 + session_data.response_sound;
    5846:	7ab9      	ldrb	r1, [r7, #10]
    5848:	0209      	lsls	r1, r1, #8
    584a:	7afb      	ldrb	r3, [r7, #11]
    584c:	18c9      	adds	r1, r1, r3
    584e:	9103      	str	r1, [sp, #12]
	printf("flash write trigger / response sound, %u\r\n", i);
    5850:	4825      	ldr	r0, [pc, #148]	; (58e8 <write_flash+0x178>)
    5852:	47a8      	blx	r5
	flash_write(&FLASH_0, ad + 0x0e, ic, 2);
    5854:	2302      	movs	r3, #2
    5856:	0022      	movs	r2, r4
    5858:	4924      	ldr	r1, [pc, #144]	; (58ec <write_flash+0x17c>)
    585a:	4810      	ldr	r0, [pc, #64]	; (589c <write_flash+0x12c>)
    585c:	47d0      	blx	sl
	printf("flash written trigger / response sound, %u, %u\r\n", ic[1], ic[0]);
    585e:	7861      	ldrb	r1, [r4, #1]
    5860:	7822      	ldrb	r2, [r4, #0]
    5862:	4823      	ldr	r0, [pc, #140]	; (58f0 <write_flash+0x180>)
    5864:	47a8      	blx	r5
	delay_ms(delay);
    5866:	200a      	movs	r0, #10
    5868:	47b0      	blx	r6
	i = session_data.sound_volume;
    586a:	89f9      	ldrh	r1, [r7, #14]
    586c:	9103      	str	r1, [sp, #12]
	printf("flash write sound volume, %u\r\n", i);
    586e:	4821      	ldr	r0, [pc, #132]	; (58f4 <write_flash+0x184>)
    5870:	47a8      	blx	r5
	flash_write(&FLASH_0, ad + 0x10, ic, 2);
    5872:	2302      	movs	r3, #2
    5874:	0022      	movs	r2, r4
    5876:	4920      	ldr	r1, [pc, #128]	; (58f8 <write_flash+0x188>)
    5878:	4808      	ldr	r0, [pc, #32]	; (589c <write_flash+0x12c>)
    587a:	47d0      	blx	sl
	printf("flash written sound volume, %u, %u\r\n", ic[0], ic[1]);
    587c:	7821      	ldrb	r1, [r4, #0]
    587e:	7862      	ldrb	r2, [r4, #1]
    5880:	481e      	ldr	r0, [pc, #120]	; (58fc <write_flash+0x18c>)
    5882:	47a8      	blx	r5
	delay_ms(delay);
    5884:	200a      	movs	r0, #10
    5886:	47b0      	blx	r6
}
    5888:	b004      	add	sp, #16
    588a:	bc04      	pop	{r2}
    588c:	4692      	mov	sl, r2
    588e:	bdf0      	pop	{r4, r5, r6, r7, pc}
    5890:	20000a3c 	.word	0x20000a3c
    5894:	0000db54 	.word	0x0000db54
    5898:	00009505 	.word	0x00009505
    589c:	20000900 	.word	0x20000900
    58a0:	0000169d 	.word	0x0000169d
    58a4:	0000db74 	.word	0x0000db74
    58a8:	000013fd 	.word	0x000013fd
    58ac:	0000db9c 	.word	0x0000db9c
    58b0:	0003e002 	.word	0x0003e002
    58b4:	0000dbbc 	.word	0x0000dbbc
    58b8:	0000dbe4 	.word	0x0000dbe4
    58bc:	0003e004 	.word	0x0003e004
    58c0:	0000dc08 	.word	0x0000dc08
    58c4:	0000dc30 	.word	0x0000dc30
    58c8:	0003e006 	.word	0x0003e006
    58cc:	0000dc54 	.word	0x0000dc54
    58d0:	0000dc7c 	.word	0x0000dc7c
    58d4:	0003e008 	.word	0x0003e008
    58d8:	0000dc9c 	.word	0x0000dc9c
    58dc:	0000dcc4 	.word	0x0000dcc4
    58e0:	0003e00a 	.word	0x0003e00a
    58e4:	0000dce0 	.word	0x0000dce0
    58e8:	0000dd08 	.word	0x0000dd08
    58ec:	0003e00e 	.word	0x0003e00e
    58f0:	0000dd34 	.word	0x0000dd34
    58f4:	0000dd68 	.word	0x0000dd68
    58f8:	0003e010 	.word	0x0003e010
    58fc:	0000dd88 	.word	0x0000dd88

00005900 <read_flash>:
void read_flash(){
    5900:	b5f8      	push	{r3, r4, r5, r6, r7, lr}
	printf("read session data from flash\r\n");
    5902:	4874      	ldr	r0, [pc, #464]	; (5ad4 <read_flash+0x1d4>)
    5904:	4b74      	ldr	r3, [pc, #464]	; (5ad8 <read_flash+0x1d8>)
    5906:	4798      	blx	r3
	flash_read(&FLASH_0, ad, a, 2);	
    5908:	4c74      	ldr	r4, [pc, #464]	; (5adc <read_flash+0x1dc>)
    590a:	0022      	movs	r2, r4
    590c:	3214      	adds	r2, #20
    590e:	2302      	movs	r3, #2
    5910:	21f8      	movs	r1, #248	; 0xf8
    5912:	0289      	lsls	r1, r1, #10
    5914:	4872      	ldr	r0, [pc, #456]	; (5ae0 <read_flash+0x1e0>)
    5916:	4d73      	ldr	r5, [pc, #460]	; (5ae4 <read_flash+0x1e4>)
    5918:	47a8      	blx	r5
	session_data.no_of_slices = a[0] + a[1] * 256;	
    591a:	7d21      	ldrb	r1, [r4, #20]
    591c:	7d63      	ldrb	r3, [r4, #21]
    591e:	021b      	lsls	r3, r3, #8
    5920:	18c9      	adds	r1, r1, r3
    5922:	b289      	uxth	r1, r1
    5924:	4c70      	ldr	r4, [pc, #448]	; (5ae8 <read_flash+0x1e8>)
    5926:	8261      	strh	r1, [r4, #18]
	printf("no_of_slices read from flash: %u\r\n", session_data.no_of_slices);	
    5928:	4870      	ldr	r0, [pc, #448]	; (5aec <read_flash+0x1ec>)
    592a:	4b71      	ldr	r3, [pc, #452]	; (5af0 <read_flash+0x1f0>)
    592c:	4798      	blx	r3
	if ((session_data.no_of_slices < 1) || (session_data.no_of_slices > 999)) {
    592e:	8a63      	ldrh	r3, [r4, #18]
    5930:	3b01      	subs	r3, #1
    5932:	b29b      	uxth	r3, r3
    5934:	4a6f      	ldr	r2, [pc, #444]	; (5af4 <read_flash+0x1f4>)
    5936:	4293      	cmp	r3, r2
    5938:	d902      	bls.n	5940 <read_flash+0x40>
		session_data.no_of_slices = 25;
    593a:	2219      	movs	r2, #25
    593c:	4b6a      	ldr	r3, [pc, #424]	; (5ae8 <read_flash+0x1e8>)
    593e:	825a      	strh	r2, [r3, #18]
	flash_read(&FLASH_0, ad + 2, a, 2);
    5940:	4c66      	ldr	r4, [pc, #408]	; (5adc <read_flash+0x1dc>)
    5942:	0022      	movs	r2, r4
    5944:	3214      	adds	r2, #20
    5946:	2302      	movs	r3, #2
    5948:	496b      	ldr	r1, [pc, #428]	; (5af8 <read_flash+0x1f8>)
    594a:	4865      	ldr	r0, [pc, #404]	; (5ae0 <read_flash+0x1e0>)
    594c:	4d65      	ldr	r5, [pc, #404]	; (5ae4 <read_flash+0x1e4>)
    594e:	47a8      	blx	r5
	session_data.no_of_volumes = a[0] + a[1] * 256;
    5950:	7d21      	ldrb	r1, [r4, #20]
    5952:	7d63      	ldrb	r3, [r4, #21]
    5954:	021b      	lsls	r3, r3, #8
    5956:	18c9      	adds	r1, r1, r3
    5958:	b289      	uxth	r1, r1
    595a:	4c63      	ldr	r4, [pc, #396]	; (5ae8 <read_flash+0x1e8>)
    595c:	8221      	strh	r1, [r4, #16]
	printf("no_of_volumes read from flash: %u\r\n", session_data.no_of_volumes);	
    595e:	4867      	ldr	r0, [pc, #412]	; (5afc <read_flash+0x1fc>)
    5960:	4b63      	ldr	r3, [pc, #396]	; (5af0 <read_flash+0x1f0>)
    5962:	4798      	blx	r3
	if ((session_data.no_of_volumes < 1) || (session_data.no_of_volumes > 9999)) {
    5964:	8a23      	ldrh	r3, [r4, #16]
    5966:	3b01      	subs	r3, #1
    5968:	b29b      	uxth	r3, r3
    596a:	4a65      	ldr	r2, [pc, #404]	; (5b00 <read_flash+0x200>)
    596c:	4293      	cmp	r3, r2
    596e:	d902      	bls.n	5976 <read_flash+0x76>
		session_data.no_of_volumes = 100;
    5970:	2264      	movs	r2, #100	; 0x64
    5972:	4b5d      	ldr	r3, [pc, #372]	; (5ae8 <read_flash+0x1e8>)
    5974:	821a      	strh	r2, [r3, #16]
	flash_read(&FLASH_0, ad + 4, a, 2);
    5976:	4c59      	ldr	r4, [pc, #356]	; (5adc <read_flash+0x1dc>)
    5978:	0022      	movs	r2, r4
    597a:	3214      	adds	r2, #20
    597c:	2302      	movs	r3, #2
    597e:	4961      	ldr	r1, [pc, #388]	; (5b04 <read_flash+0x204>)
    5980:	4857      	ldr	r0, [pc, #348]	; (5ae0 <read_flash+0x1e0>)
    5982:	4d58      	ldr	r5, [pc, #352]	; (5ae4 <read_flash+0x1e4>)
    5984:	47a8      	blx	r5
	session_data.trig_on_slice = a[0] + a[1] * 256;
    5986:	7d21      	ldrb	r1, [r4, #20]
    5988:	7d63      	ldrb	r3, [r4, #21]
    598a:	021b      	lsls	r3, r3, #8
    598c:	18c9      	adds	r1, r1, r3
    598e:	b289      	uxth	r1, r1
    5990:	4c55      	ldr	r4, [pc, #340]	; (5ae8 <read_flash+0x1e8>)
    5992:	82e1      	strh	r1, [r4, #22]
	printf("trig_on_slice read from flash: %u\r\n", session_data.trig_on_slice);	
    5994:	485c      	ldr	r0, [pc, #368]	; (5b08 <read_flash+0x208>)
    5996:	4b56      	ldr	r3, [pc, #344]	; (5af0 <read_flash+0x1f0>)
    5998:	4798      	blx	r3
	if ((session_data.trig_on_slice < 0) || (session_data.trig_on_slice > 999)) {
    599a:	8ae2      	ldrh	r2, [r4, #22]
    599c:	4b5b      	ldr	r3, [pc, #364]	; (5b0c <read_flash+0x20c>)
    599e:	429a      	cmp	r2, r3
    59a0:	d902      	bls.n	59a8 <read_flash+0xa8>
		session_data.trig_on_slice = 0;
    59a2:	2200      	movs	r2, #0
    59a4:	4b50      	ldr	r3, [pc, #320]	; (5ae8 <read_flash+0x1e8>)
    59a6:	82da      	strh	r2, [r3, #22]
	flash_read(&FLASH_0, ad + 6, a, 2);
    59a8:	4c4c      	ldr	r4, [pc, #304]	; (5adc <read_flash+0x1dc>)
    59aa:	0022      	movs	r2, r4
    59ac:	3214      	adds	r2, #20
    59ae:	2302      	movs	r3, #2
    59b0:	4957      	ldr	r1, [pc, #348]	; (5b10 <read_flash+0x210>)
    59b2:	484b      	ldr	r0, [pc, #300]	; (5ae0 <read_flash+0x1e0>)
    59b4:	4d4b      	ldr	r5, [pc, #300]	; (5ae4 <read_flash+0x1e4>)
    59b6:	47a8      	blx	r5
	session_data.trig_on_volume = a[0] + a[1] * 256;
    59b8:	7d21      	ldrb	r1, [r4, #20]
    59ba:	7d63      	ldrb	r3, [r4, #21]
    59bc:	021b      	lsls	r3, r3, #8
    59be:	18c9      	adds	r1, r1, r3
    59c0:	b289      	uxth	r1, r1
    59c2:	4c49      	ldr	r4, [pc, #292]	; (5ae8 <read_flash+0x1e8>)
    59c4:	82a1      	strh	r1, [r4, #20]
	printf("trig_on_volume read from flash: %u\r\n", session_data.trig_on_volume);	
    59c6:	4853      	ldr	r0, [pc, #332]	; (5b14 <read_flash+0x214>)
    59c8:	4b49      	ldr	r3, [pc, #292]	; (5af0 <read_flash+0x1f0>)
    59ca:	4798      	blx	r3
	if ((session_data.trig_on_volume < 0) || (session_data.trig_on_volume > 9999)) {
    59cc:	8aa2      	ldrh	r2, [r4, #20]
    59ce:	4b52      	ldr	r3, [pc, #328]	; (5b18 <read_flash+0x218>)
    59d0:	429a      	cmp	r2, r3
    59d2:	d902      	bls.n	59da <read_flash+0xda>
		session_data.trig_on_volume = 0;
    59d4:	2200      	movs	r2, #0
    59d6:	4b44      	ldr	r3, [pc, #272]	; (5ae8 <read_flash+0x1e8>)
    59d8:	829a      	strh	r2, [r3, #20]
	flash_read(&FLASH_0, ad + 8, a, 2);
    59da:	4c40      	ldr	r4, [pc, #256]	; (5adc <read_flash+0x1dc>)
    59dc:	0022      	movs	r2, r4
    59de:	3214      	adds	r2, #20
    59e0:	2302      	movs	r3, #2
    59e2:	494e      	ldr	r1, [pc, #312]	; (5b1c <read_flash+0x21c>)
    59e4:	483e      	ldr	r0, [pc, #248]	; (5ae0 <read_flash+0x1e0>)
    59e6:	4d3f      	ldr	r5, [pc, #252]	; (5ae4 <read_flash+0x1e4>)
    59e8:	47a8      	blx	r5
	session_data.pulse_length = a[0] + a[1] * 256;
    59ea:	7d21      	ldrb	r1, [r4, #20]
    59ec:	7d63      	ldrb	r3, [r4, #21]
    59ee:	021b      	lsls	r3, r3, #8
    59f0:	18c9      	adds	r1, r1, r3
    59f2:	b289      	uxth	r1, r1
    59f4:	4c3c      	ldr	r4, [pc, #240]	; (5ae8 <read_flash+0x1e8>)
    59f6:	8421      	strh	r1, [r4, #32]
	printf("pulse_length read from flash: %u\r\n", session_data.pulse_length);	
    59f8:	4849      	ldr	r0, [pc, #292]	; (5b20 <read_flash+0x220>)
    59fa:	4b3d      	ldr	r3, [pc, #244]	; (5af0 <read_flash+0x1f0>)
    59fc:	4798      	blx	r3
	if ((session_data.pulse_length < 100) || (session_data.pulse_length > 999)) {
    59fe:	8c23      	ldrh	r3, [r4, #32]
    5a00:	3b64      	subs	r3, #100	; 0x64
    5a02:	b29b      	uxth	r3, r3
    5a04:	4a47      	ldr	r2, [pc, #284]	; (5b24 <read_flash+0x224>)
    5a06:	4293      	cmp	r3, r2
    5a08:	d902      	bls.n	5a10 <read_flash+0x110>
		session_data.pulse_length = 100;
    5a0a:	2264      	movs	r2, #100	; 0x64
    5a0c:	4b36      	ldr	r3, [pc, #216]	; (5ae8 <read_flash+0x1e8>)
    5a0e:	841a      	strh	r2, [r3, #32]
	flash_read(&FLASH_0, ad + 0x0a, a, 4);
    5a10:	4c32      	ldr	r4, [pc, #200]	; (5adc <read_flash+0x1dc>)
    5a12:	0022      	movs	r2, r4
    5a14:	3214      	adds	r2, #20
    5a16:	2304      	movs	r3, #4
    5a18:	4943      	ldr	r1, [pc, #268]	; (5b28 <read_flash+0x228>)
    5a1a:	4831      	ldr	r0, [pc, #196]	; (5ae0 <read_flash+0x1e0>)
    5a1c:	4d31      	ldr	r5, [pc, #196]	; (5ae4 <read_flash+0x1e4>)
    5a1e:	47a8      	blx	r5
	session_data.TR_time = a[0] + a[1] * 256 + a[2] * 65536 + a[3] * 16777216;
    5a20:	7d21      	ldrb	r1, [r4, #20]
    5a22:	7d63      	ldrb	r3, [r4, #21]
    5a24:	021b      	lsls	r3, r3, #8
    5a26:	18c9      	adds	r1, r1, r3
    5a28:	7da3      	ldrb	r3, [r4, #22]
    5a2a:	041b      	lsls	r3, r3, #16
    5a2c:	18c9      	adds	r1, r1, r3
    5a2e:	7de3      	ldrb	r3, [r4, #23]
    5a30:	061b      	lsls	r3, r3, #24
    5a32:	18c9      	adds	r1, r1, r3
    5a34:	4c2c      	ldr	r4, [pc, #176]	; (5ae8 <read_flash+0x1e8>)
    5a36:	6261      	str	r1, [r4, #36]	; 0x24
	printf("TR_time read from flash: %lu\r\n", session_data.TR_time);	
    5a38:	483c      	ldr	r0, [pc, #240]	; (5b2c <read_flash+0x22c>)
    5a3a:	4b2d      	ldr	r3, [pc, #180]	; (5af0 <read_flash+0x1f0>)
    5a3c:	4798      	blx	r3
	uint32_t minvalue_long = session_data.pulse_length * session_data.no_of_slices;
    5a3e:	8c22      	ldrh	r2, [r4, #32]
    5a40:	8a63      	ldrh	r3, [r4, #18]
    5a42:	4353      	muls	r3, r2
	if (minvalue_long > 999999){   // hibaellenrzs!!!!!!!!!!!!
    5a44:	4a3a      	ldr	r2, [pc, #232]	; (5b30 <read_flash+0x230>)
    5a46:	4293      	cmp	r3, r2
    5a48:	d900      	bls.n	5a4c <read_flash+0x14c>
		minvalue_long = 999999;
    5a4a:	0013      	movs	r3, r2
	if (session_data.TR_time < minvalue_long) {  
    5a4c:	4a26      	ldr	r2, [pc, #152]	; (5ae8 <read_flash+0x1e8>)
    5a4e:	6a52      	ldr	r2, [r2, #36]	; 0x24
    5a50:	4293      	cmp	r3, r2
    5a52:	d901      	bls.n	5a58 <read_flash+0x158>
		session_data.TR_time = minvalue_long;
    5a54:	4a24      	ldr	r2, [pc, #144]	; (5ae8 <read_flash+0x1e8>)
    5a56:	6253      	str	r3, [r2, #36]	; 0x24
	if (session_data.TR_time > 999999) {
    5a58:	4b23      	ldr	r3, [pc, #140]	; (5ae8 <read_flash+0x1e8>)
    5a5a:	6a5a      	ldr	r2, [r3, #36]	; 0x24
    5a5c:	4b34      	ldr	r3, [pc, #208]	; (5b30 <read_flash+0x230>)
    5a5e:	429a      	cmp	r2, r3
    5a60:	d902      	bls.n	5a68 <read_flash+0x168>
		session_data.TR_time = 999999;
    5a62:	001a      	movs	r2, r3
    5a64:	4b20      	ldr	r3, [pc, #128]	; (5ae8 <read_flash+0x1e8>)
    5a66:	625a      	str	r2, [r3, #36]	; 0x24
	flash_read(&FLASH_0, ad + 0x0e, a, 2);
    5a68:	4c1c      	ldr	r4, [pc, #112]	; (5adc <read_flash+0x1dc>)
    5a6a:	0022      	movs	r2, r4
    5a6c:	3214      	adds	r2, #20
    5a6e:	2302      	movs	r3, #2
    5a70:	4930      	ldr	r1, [pc, #192]	; (5b34 <read_flash+0x234>)
    5a72:	481b      	ldr	r0, [pc, #108]	; (5ae0 <read_flash+0x1e0>)
    5a74:	4d1b      	ldr	r5, [pc, #108]	; (5ae4 <read_flash+0x1e4>)
    5a76:	47a8      	blx	r5
	if (a[1] > 0){
    5a78:	7d63      	ldrb	r3, [r4, #21]
    5a7a:	2b00      	cmp	r3, #0
    5a7c:	d022      	beq.n	5ac4 <read_flash+0x1c4>
		session_data.trigger_sound = true;
    5a7e:	2201      	movs	r2, #1
    5a80:	4b19      	ldr	r3, [pc, #100]	; (5ae8 <read_flash+0x1e8>)
    5a82:	729a      	strb	r2, [r3, #10]
	if (a[0] > 0){
    5a84:	4b15      	ldr	r3, [pc, #84]	; (5adc <read_flash+0x1dc>)
    5a86:	7d1b      	ldrb	r3, [r3, #20]
    5a88:	2b00      	cmp	r3, #0
    5a8a:	d01f      	beq.n	5acc <read_flash+0x1cc>
		session_data.response_sound = true;
    5a8c:	2201      	movs	r2, #1
    5a8e:	4b16      	ldr	r3, [pc, #88]	; (5ae8 <read_flash+0x1e8>)
    5a90:	72da      	strb	r2, [r3, #11]
	printf("trigger / response sound: %u, %u\r\n", session_data.trigger_sound, session_data.response_sound);		
    5a92:	4c15      	ldr	r4, [pc, #84]	; (5ae8 <read_flash+0x1e8>)
    5a94:	7aa1      	ldrb	r1, [r4, #10]
    5a96:	7ae2      	ldrb	r2, [r4, #11]
    5a98:	4827      	ldr	r0, [pc, #156]	; (5b38 <read_flash+0x238>)
    5a9a:	4d15      	ldr	r5, [pc, #84]	; (5af0 <read_flash+0x1f0>)
    5a9c:	47a8      	blx	r5
	flash_read(&FLASH_0, ad + 0x10, a, 2);
    5a9e:	4e0f      	ldr	r6, [pc, #60]	; (5adc <read_flash+0x1dc>)
    5aa0:	0032      	movs	r2, r6
    5aa2:	3214      	adds	r2, #20
    5aa4:	2302      	movs	r3, #2
    5aa6:	4925      	ldr	r1, [pc, #148]	; (5b3c <read_flash+0x23c>)
    5aa8:	480d      	ldr	r0, [pc, #52]	; (5ae0 <read_flash+0x1e0>)
    5aaa:	4f0e      	ldr	r7, [pc, #56]	; (5ae4 <read_flash+0x1e4>)
    5aac:	47b8      	blx	r7
	session_data.sound_volume = a[0];
    5aae:	7d31      	ldrb	r1, [r6, #20]
    5ab0:	81e1      	strh	r1, [r4, #14]
	printf("sound volume read from flash: %u\r\n", session_data.sound_volume);	
    5ab2:	4823      	ldr	r0, [pc, #140]	; (5b40 <read_flash+0x240>)
    5ab4:	47a8      	blx	r5
	if ((session_data.sound_volume < 0) || (session_data.sound_volume > 127)) {
    5ab6:	89e3      	ldrh	r3, [r4, #14]
    5ab8:	2b7f      	cmp	r3, #127	; 0x7f
    5aba:	d902      	bls.n	5ac2 <read_flash+0x1c2>
		session_data.sound_volume = 64;
    5abc:	2240      	movs	r2, #64	; 0x40
    5abe:	4b0a      	ldr	r3, [pc, #40]	; (5ae8 <read_flash+0x1e8>)
    5ac0:	81da      	strh	r2, [r3, #14]
}
    5ac2:	bdf8      	pop	{r3, r4, r5, r6, r7, pc}
		session_data.trigger_sound = false;
    5ac4:	2200      	movs	r2, #0
    5ac6:	4b08      	ldr	r3, [pc, #32]	; (5ae8 <read_flash+0x1e8>)
    5ac8:	729a      	strb	r2, [r3, #10]
    5aca:	e7db      	b.n	5a84 <read_flash+0x184>
		session_data.response_sound = false;
    5acc:	2200      	movs	r2, #0
    5ace:	4b06      	ldr	r3, [pc, #24]	; (5ae8 <read_flash+0x1e8>)
    5ad0:	72da      	strb	r2, [r3, #11]
    5ad2:	e7de      	b.n	5a92 <read_flash+0x192>
    5ad4:	0000ddb0 	.word	0x0000ddb0
    5ad8:	000095f9 	.word	0x000095f9
    5adc:	20000740 	.word	0x20000740
    5ae0:	20000900 	.word	0x20000900
    5ae4:	0000161d 	.word	0x0000161d
    5ae8:	20000a3c 	.word	0x20000a3c
    5aec:	0000ddd0 	.word	0x0000ddd0
    5af0:	00009505 	.word	0x00009505
    5af4:	000003e6 	.word	0x000003e6
    5af8:	0003e002 	.word	0x0003e002
    5afc:	0000ddf4 	.word	0x0000ddf4
    5b00:	0000270e 	.word	0x0000270e
    5b04:	0003e004 	.word	0x0003e004
    5b08:	0000de18 	.word	0x0000de18
    5b0c:	000003e7 	.word	0x000003e7
    5b10:	0003e006 	.word	0x0003e006
    5b14:	0000de3c 	.word	0x0000de3c
    5b18:	0000270f 	.word	0x0000270f
    5b1c:	0003e008 	.word	0x0003e008
    5b20:	0000de64 	.word	0x0000de64
    5b24:	00000383 	.word	0x00000383
    5b28:	0003e00a 	.word	0x0003e00a
    5b2c:	0000de88 	.word	0x0000de88
    5b30:	000f423f 	.word	0x000f423f
    5b34:	0003e00e 	.word	0x0003e00e
    5b38:	0000dea8 	.word	0x0000dea8
    5b3c:	0003e010 	.word	0x0003e010
    5b40:	0000decc 	.word	0x0000decc

00005b44 <resync>:
void resync(){
    5b44:	b510      	push	{r4, lr}
	printf("no ACK received, resync");
    5b46:	4802      	ldr	r0, [pc, #8]	; (5b50 <resync+0xc>)
    5b48:	4b02      	ldr	r3, [pc, #8]	; (5b54 <resync+0x10>)
    5b4a:	4798      	blx	r3
}
    5b4c:	bd10      	pop	{r4, pc}
    5b4e:	46c0      	nop			; (mov r8, r8)
    5b50:	0000def0 	.word	0x0000def0
    5b54:	00009505 	.word	0x00009505

00005b58 <io_write_clear_ack>:
{
    5b58:	b570      	push	{r4, r5, r6, lr}
    5b5a:	0006      	movs	r6, r0
    5b5c:	000d      	movs	r5, r1
	if (ACK_received){
    5b5e:	4b1c      	ldr	r3, [pc, #112]	; (5bd0 <io_write_clear_ack+0x78>)
    5b60:	781b      	ldrb	r3, [r3, #0]
    5b62:	2b00      	cmp	r3, #0
    5b64:	d013      	beq.n	5b8e <io_write_clear_ack+0x36>
		ACK_received = false;
    5b66:	2200      	movs	r2, #0
    5b68:	4b19      	ldr	r3, [pc, #100]	; (5bd0 <io_write_clear_ack+0x78>)
    5b6a:	701a      	strb	r2, [r3, #0]
		for (i = 0; i < length; i++)
    5b6c:	2400      	movs	r4, #0
    5b6e:	e00b      	b.n	5b88 <io_write_clear_ack+0x30>
			io_write(&USART_1.io, &buf[i], 1);
    5b70:	1931      	adds	r1, r6, r4
    5b72:	2201      	movs	r2, #1
    5b74:	4817      	ldr	r0, [pc, #92]	; (5bd4 <io_write_clear_ack+0x7c>)
    5b76:	4b18      	ldr	r3, [pc, #96]	; (5bd8 <io_write_clear_ack+0x80>)
    5b78:	4798      	blx	r3
			while(usart_async_is_tx_empty(&USART_1)!=1);  // waiting the tx is over		
    5b7a:	4816      	ldr	r0, [pc, #88]	; (5bd4 <io_write_clear_ack+0x7c>)
    5b7c:	4b17      	ldr	r3, [pc, #92]	; (5bdc <io_write_clear_ack+0x84>)
    5b7e:	4798      	blx	r3
    5b80:	2801      	cmp	r0, #1
    5b82:	d1fa      	bne.n	5b7a <io_write_clear_ack+0x22>
		for (i = 0; i < length; i++)
    5b84:	3401      	adds	r4, #1
    5b86:	b2e4      	uxtb	r4, r4
    5b88:	42ac      	cmp	r4, r5
    5b8a:	d3f1      	bcc.n	5b70 <io_write_clear_ack+0x18>
}
    5b8c:	bd70      	pop	{r4, r5, r6, pc}
		printf("start timeout");
    5b8e:	4814      	ldr	r0, [pc, #80]	; (5be0 <io_write_clear_ack+0x88>)
    5b90:	4b14      	ldr	r3, [pc, #80]	; (5be4 <io_write_clear_ack+0x8c>)
    5b92:	4798      	blx	r3
		timeout_counter = ACK_TIMEOUT;
    5b94:	22c8      	movs	r2, #200	; 0xc8
    5b96:	0052      	lsls	r2, r2, #1
    5b98:	4b13      	ldr	r3, [pc, #76]	; (5be8 <io_write_clear_ack+0x90>)
    5b9a:	819a      	strh	r2, [r3, #12]
				if (ACK_received){
    5b9c:	4b0c      	ldr	r3, [pc, #48]	; (5bd0 <io_write_clear_ack+0x78>)
    5b9e:	781b      	ldrb	r3, [r3, #0]
    5ba0:	2b00      	cmp	r3, #0
    5ba2:	d0fb      	beq.n	5b9c <io_write_clear_ack+0x44>
		if (ACK_received){
    5ba4:	4b0a      	ldr	r3, [pc, #40]	; (5bd0 <io_write_clear_ack+0x78>)
    5ba6:	781b      	ldrb	r3, [r3, #0]
    5ba8:	2b00      	cmp	r3, #0
    5baa:	d102      	bne.n	5bb2 <io_write_clear_ack+0x5a>
			resync();
    5bac:	4b0f      	ldr	r3, [pc, #60]	; (5bec <io_write_clear_ack+0x94>)
    5bae:	4798      	blx	r3
}
    5bb0:	e7ec      	b.n	5b8c <io_write_clear_ack+0x34>
			printf("received an ACK finally...\r\n");
    5bb2:	480f      	ldr	r0, [pc, #60]	; (5bf0 <io_write_clear_ack+0x98>)
    5bb4:	4c0f      	ldr	r4, [pc, #60]	; (5bf4 <io_write_clear_ack+0x9c>)
    5bb6:	47a0      	blx	r4
			printf("timeout counter: %u\r\n", timeout_counter);
    5bb8:	4b0b      	ldr	r3, [pc, #44]	; (5be8 <io_write_clear_ack+0x90>)
    5bba:	8999      	ldrh	r1, [r3, #12]
    5bbc:	480e      	ldr	r0, [pc, #56]	; (5bf8 <io_write_clear_ack+0xa0>)
    5bbe:	4b09      	ldr	r3, [pc, #36]	; (5be4 <io_write_clear_ack+0x8c>)
    5bc0:	4798      	blx	r3
			printf("send command\r\n");
    5bc2:	480e      	ldr	r0, [pc, #56]	; (5bfc <io_write_clear_ack+0xa4>)
    5bc4:	47a0      	blx	r4
			io_write_clear_ack(buf, length);
    5bc6:	0029      	movs	r1, r5
    5bc8:	0030      	movs	r0, r6
    5bca:	f7ff ffc5 	bl	5b58 <io_write_clear_ack>
    5bce:	e7dd      	b.n	5b8c <io_write_clear_ack+0x34>
    5bd0:	20000a64 	.word	0x20000a64
    5bd4:	200009a8 	.word	0x200009a8
    5bd8:	00001929 	.word	0x00001929
    5bdc:	00001f79 	.word	0x00001f79
    5be0:	0000df08 	.word	0x0000df08
    5be4:	00009505 	.word	0x00009505
    5be8:	20000740 	.word	0x20000740
    5bec:	00005b45 	.word	0x00005b45
    5bf0:	0000df18 	.word	0x0000df18
    5bf4:	000095f9 	.word	0x000095f9
    5bf8:	0000df34 	.word	0x0000df34
    5bfc:	0000df4c 	.word	0x0000df4c

00005c00 <getCRC>:
{
    5c00:	b510      	push	{r4, lr}
	unsigned char i, crc = 0;
    5c02:	2200      	movs	r2, #0
	for (i = 0; i < length; i++)
    5c04:	2300      	movs	r3, #0
    5c06:	e003      	b.n	5c10 <getCRC+0x10>
		crc ^= message[i];
    5c08:	5cc4      	ldrb	r4, [r0, r3]
    5c0a:	4062      	eors	r2, r4
	for (i = 0; i < length; i++)
    5c0c:	3301      	adds	r3, #1
    5c0e:	b2db      	uxtb	r3, r3
    5c10:	428b      	cmp	r3, r1
    5c12:	d3f9      	bcc.n	5c08 <getCRC+0x8>
}
    5c14:	0010      	movs	r0, r2
    5c16:	bd10      	pop	{r4, pc}

00005c18 <print_no>:
static void print_no(uint32_t number, uint8_t str_no){
    5c18:	b5f8      	push	{r3, r4, r5, r6, r7, lr}
    5c1a:	0006      	movs	r6, r0
    5c1c:	000f      	movs	r7, r1
	unsigned char length = snprintf(buffer, 25, "___%lu", number);
    5c1e:	4c10      	ldr	r4, [pc, #64]	; (5c60 <print_no+0x48>)
    5c20:	0003      	movs	r3, r0
    5c22:	4a10      	ldr	r2, [pc, #64]	; (5c64 <print_no+0x4c>)
    5c24:	2119      	movs	r1, #25
    5c26:	0020      	movs	r0, r4
    5c28:	4d0f      	ldr	r5, [pc, #60]	; (5c68 <print_no+0x50>)
    5c2a:	47a8      	blx	r5
    5c2c:	b2c5      	uxtb	r5, r0
	buffer[0] = WRITE_STR;
    5c2e:	2302      	movs	r3, #2
    5c30:	7023      	strb	r3, [r4, #0]
	buffer[1] = str_no;
    5c32:	7067      	strb	r7, [r4, #1]
	buffer[2] = length-3;
    5c34:	1eeb      	subs	r3, r5, #3
    5c36:	70a3      	strb	r3, [r4, #2]
    5c38:	27ff      	movs	r7, #255	; 0xff
    5c3a:	4007      	ands	r7, r0
	buffer[length] = getCRC(buffer, length);
    5c3c:	0029      	movs	r1, r5
    5c3e:	0020      	movs	r0, r4
    5c40:	4b0a      	ldr	r3, [pc, #40]	; (5c6c <print_no+0x54>)
    5c42:	4798      	blx	r3
    5c44:	55e0      	strb	r0, [r4, r7]
	buffer[length+1] = 0; // ????????????
    5c46:	3701      	adds	r7, #1
    5c48:	2300      	movs	r3, #0
    5c4a:	55e3      	strb	r3, [r4, r7]
    io_write_clear_ack(buffer, length+1);
    5c4c:	3501      	adds	r5, #1
    5c4e:	b2e9      	uxtb	r1, r5
    5c50:	0020      	movs	r0, r4
    5c52:	4b07      	ldr	r3, [pc, #28]	; (5c70 <print_no+0x58>)
    5c54:	4798      	blx	r3
	printf("number: %lu\r\n", number);
    5c56:	0031      	movs	r1, r6
    5c58:	4806      	ldr	r0, [pc, #24]	; (5c74 <print_no+0x5c>)
    5c5a:	4b07      	ldr	r3, [pc, #28]	; (5c78 <print_no+0x60>)
    5c5c:	4798      	blx	r3
}
    5c5e:	bdf8      	pop	{r3, r4, r5, r6, r7, pc}
    5c60:	20000a84 	.word	0x20000a84
    5c64:	0000df5c 	.word	0x0000df5c
    5c68:	00009779 	.word	0x00009779
    5c6c:	00005c01 	.word	0x00005c01
    5c70:	00005b59 	.word	0x00005b59
    5c74:	0000df64 	.word	0x0000df64
    5c78:	00009505 	.word	0x00009505

00005c7c <print_version>:
static void print_version(){
    5c7c:	b5f8      	push	{r3, r4, r5, r6, r7, lr}
	unsigned char length = snprintf(buffer, 25, "___version: %s", VERSION);
    5c7e:	4e11      	ldr	r6, [pc, #68]	; (5cc4 <print_version+0x48>)
    5c80:	4c11      	ldr	r4, [pc, #68]	; (5cc8 <print_version+0x4c>)
    5c82:	0033      	movs	r3, r6
    5c84:	4a11      	ldr	r2, [pc, #68]	; (5ccc <print_version+0x50>)
    5c86:	2119      	movs	r1, #25
    5c88:	0020      	movs	r0, r4
    5c8a:	4d11      	ldr	r5, [pc, #68]	; (5cd0 <print_version+0x54>)
    5c8c:	47a8      	blx	r5
    5c8e:	b2c5      	uxtb	r5, r0
	buffer[0] = WRITE_STR;
    5c90:	2302      	movs	r3, #2
    5c92:	7023      	strb	r3, [r4, #0]
	buffer[1] = VERSION_STR;
    5c94:	330b      	adds	r3, #11
    5c96:	7063      	strb	r3, [r4, #1]
	buffer[2] = length-3;
    5c98:	1eeb      	subs	r3, r5, #3
    5c9a:	70a3      	strb	r3, [r4, #2]
    5c9c:	27ff      	movs	r7, #255	; 0xff
    5c9e:	4007      	ands	r7, r0
	buffer[length] = getCRC(buffer, length);
    5ca0:	0029      	movs	r1, r5
    5ca2:	0020      	movs	r0, r4
    5ca4:	4b0b      	ldr	r3, [pc, #44]	; (5cd4 <print_version+0x58>)
    5ca6:	4798      	blx	r3
    5ca8:	55e0      	strb	r0, [r4, r7]
	buffer[length+1] = 0; // ????????????
    5caa:	3701      	adds	r7, #1
    5cac:	2300      	movs	r3, #0
    5cae:	55e3      	strb	r3, [r4, r7]
	io_write_clear_ack(buffer, length+1);
    5cb0:	3501      	adds	r5, #1
    5cb2:	b2e9      	uxtb	r1, r5
    5cb4:	0020      	movs	r0, r4
    5cb6:	4b08      	ldr	r3, [pc, #32]	; (5cd8 <print_version+0x5c>)
    5cb8:	4798      	blx	r3
	printf("version: %s\r\n", VERSION);
    5cba:	0031      	movs	r1, r6
    5cbc:	4807      	ldr	r0, [pc, #28]	; (5cdc <print_version+0x60>)
    5cbe:	4b08      	ldr	r3, [pc, #32]	; (5ce0 <print_version+0x64>)
    5cc0:	4798      	blx	r3
}
    5cc2:	bdf8      	pop	{r3, r4, r5, r6, r7, pc}
    5cc4:	0000df74 	.word	0x0000df74
    5cc8:	20000a84 	.word	0x20000a84
    5ccc:	0000df7c 	.word	0x0000df7c
    5cd0:	00009779 	.word	0x00009779
    5cd4:	00005c01 	.word	0x00005c01
    5cd8:	00005b59 	.word	0x00005b59
    5cdc:	0000df8c 	.word	0x0000df8c
    5ce0:	00009505 	.word	0x00009505

00005ce4 <switch_to_form>:
{		
    5ce4:	b570      	push	{r4, r5, r6, lr}
    5ce6:	0004      	movs	r4, r0
	switch (form){
    5ce8:	280b      	cmp	r0, #11
    5cea:	d80e      	bhi.n	5d0a <switch_to_form+0x26>
    5cec:	0083      	lsls	r3, r0, #2
    5cee:	4a86      	ldr	r2, [pc, #536]	; (5f08 <switch_to_form+0x224>)
    5cf0:	58d3      	ldr	r3, [r2, r3]
    5cf2:	469f      	mov	pc, r3
			printf("sw to default form\r\n");
    5cf4:	4885      	ldr	r0, [pc, #532]	; (5f0c <switch_to_form+0x228>)
    5cf6:	4b86      	ldr	r3, [pc, #536]	; (5f10 <switch_to_form+0x22c>)
    5cf8:	4798      	blx	r3
			io_write_clear_ack(switch_to_default_form,6);
    5cfa:	2106      	movs	r1, #6
    5cfc:	4885      	ldr	r0, [pc, #532]	; (5f14 <switch_to_form+0x230>)
    5cfe:	3018      	adds	r0, #24
    5d00:	4b85      	ldr	r3, [pc, #532]	; (5f18 <switch_to_form+0x234>)
    5d02:	4798      	blx	r3
			set_prev_curr_form(form);			
    5d04:	0020      	movs	r0, r4
    5d06:	4b85      	ldr	r3, [pc, #532]	; (5f1c <switch_to_form+0x238>)
    5d08:	4798      	blx	r3
}
    5d0a:	bd70      	pop	{r4, r5, r6, pc}
			printf("sw to ses running form\r\n");
    5d0c:	4884      	ldr	r0, [pc, #528]	; (5f20 <switch_to_form+0x23c>)
    5d0e:	4b80      	ldr	r3, [pc, #512]	; (5f10 <switch_to_form+0x22c>)
    5d10:	4798      	blx	r3
			io_write_clear_ack(switch_to_session_running_form,6);
    5d12:	2106      	movs	r1, #6
    5d14:	487f      	ldr	r0, [pc, #508]	; (5f14 <switch_to_form+0x230>)
    5d16:	3020      	adds	r0, #32
    5d18:	4b7f      	ldr	r3, [pc, #508]	; (5f18 <switch_to_form+0x234>)
    5d1a:	4798      	blx	r3
			set_prev_curr_form(form);
    5d1c:	0020      	movs	r0, r4
    5d1e:	4b7f      	ldr	r3, [pc, #508]	; (5f1c <switch_to_form+0x238>)
    5d20:	4798      	blx	r3
		break;	
    5d22:	e7f2      	b.n	5d0a <switch_to_form+0x26>
			printf("sw to man trig form\r\n");
    5d24:	487f      	ldr	r0, [pc, #508]	; (5f24 <switch_to_form+0x240>)
    5d26:	4b7a      	ldr	r3, [pc, #488]	; (5f10 <switch_to_form+0x22c>)
    5d28:	4798      	blx	r3
			io_write_clear_ack(switch_to_manual_trigger_form,6);
    5d2a:	2106      	movs	r1, #6
    5d2c:	4879      	ldr	r0, [pc, #484]	; (5f14 <switch_to_form+0x230>)
    5d2e:	3028      	adds	r0, #40	; 0x28
    5d30:	4b79      	ldr	r3, [pc, #484]	; (5f18 <switch_to_form+0x234>)
    5d32:	4798      	blx	r3
			set_prev_curr_form(form);
    5d34:	0020      	movs	r0, r4
    5d36:	4b79      	ldr	r3, [pc, #484]	; (5f1c <switch_to_form+0x238>)
    5d38:	4798      	blx	r3
			break;
    5d3a:	e7e6      	b.n	5d0a <switch_to_form+0x26>
			printf("sw to sim running form\r\n");
    5d3c:	487a      	ldr	r0, [pc, #488]	; (5f28 <switch_to_form+0x244>)
    5d3e:	4b74      	ldr	r3, [pc, #464]	; (5f10 <switch_to_form+0x22c>)
    5d40:	4798      	blx	r3
			io_write_clear_ack(switch_to_simulation_running_form,6);
    5d42:	2106      	movs	r1, #6
    5d44:	4873      	ldr	r0, [pc, #460]	; (5f14 <switch_to_form+0x230>)
    5d46:	3030      	adds	r0, #48	; 0x30
    5d48:	4b73      	ldr	r3, [pc, #460]	; (5f18 <switch_to_form+0x234>)
    5d4a:	4798      	blx	r3
			set_prev_curr_form(form);
    5d4c:	0020      	movs	r0, r4
    5d4e:	4b73      	ldr	r3, [pc, #460]	; (5f1c <switch_to_form+0x238>)
    5d50:	4798      	blx	r3
		break;
    5d52:	e7da      	b.n	5d0a <switch_to_form+0x26>
			printf("switch to settings 1 form\r\n");
    5d54:	4875      	ldr	r0, [pc, #468]	; (5f2c <switch_to_form+0x248>)
    5d56:	4b6e      	ldr	r3, [pc, #440]	; (5f10 <switch_to_form+0x22c>)
    5d58:	4798      	blx	r3
			io_write_clear_ack(switch_to_settings_1_form,6);
    5d5a:	2106      	movs	r1, #6
    5d5c:	486d      	ldr	r0, [pc, #436]	; (5f14 <switch_to_form+0x230>)
    5d5e:	3038      	adds	r0, #56	; 0x38
    5d60:	4b6d      	ldr	r3, [pc, #436]	; (5f18 <switch_to_form+0x234>)
    5d62:	4798      	blx	r3
			set_prev_curr_form(form);
    5d64:	0020      	movs	r0, r4
    5d66:	4b6d      	ldr	r3, [pc, #436]	; (5f1c <switch_to_form+0x238>)
    5d68:	4798      	blx	r3
			if (session_data.response_sound){
    5d6a:	4b71      	ldr	r3, [pc, #452]	; (5f30 <switch_to_form+0x24c>)
    5d6c:	7adb      	ldrb	r3, [r3, #11]
    5d6e:	2b00      	cmp	r3, #0
    5d70:	d02b      	beq.n	5dca <switch_to_form+0xe6>
				printf("setting response sound switch and text on\r\n");
    5d72:	4870      	ldr	r0, [pc, #448]	; (5f34 <switch_to_form+0x250>)
    5d74:	4b66      	ldr	r3, [pc, #408]	; (5f10 <switch_to_form+0x22c>)
    5d76:	4798      	blx	r3
				io_write_clear_ack(set_response_sound_on,6);
    5d78:	4c66      	ldr	r4, [pc, #408]	; (5f14 <switch_to_form+0x230>)
    5d7a:	0020      	movs	r0, r4
    5d7c:	3040      	adds	r0, #64	; 0x40
    5d7e:	2106      	movs	r1, #6
    5d80:	4d65      	ldr	r5, [pc, #404]	; (5f18 <switch_to_form+0x234>)
    5d82:	47a8      	blx	r5
				io_write_clear_ack(set_response_sound_switch_on,6);
    5d84:	0020      	movs	r0, r4
    5d86:	3048      	adds	r0, #72	; 0x48
    5d88:	2106      	movs	r1, #6
    5d8a:	47a8      	blx	r5
			if (session_data.trigger_sound){
    5d8c:	4b68      	ldr	r3, [pc, #416]	; (5f30 <switch_to_form+0x24c>)
    5d8e:	7a9b      	ldrb	r3, [r3, #10]
    5d90:	2b00      	cmp	r3, #0
    5d92:	d028      	beq.n	5de6 <switch_to_form+0x102>
				printf("setting trigger sound switch and text on\r\n");
    5d94:	4868      	ldr	r0, [pc, #416]	; (5f38 <switch_to_form+0x254>)
    5d96:	4b5e      	ldr	r3, [pc, #376]	; (5f10 <switch_to_form+0x22c>)
    5d98:	4798      	blx	r3
				io_write_clear_ack(set_trigger_sound_on,6);
    5d9a:	4c5e      	ldr	r4, [pc, #376]	; (5f14 <switch_to_form+0x230>)
    5d9c:	0020      	movs	r0, r4
    5d9e:	3060      	adds	r0, #96	; 0x60
    5da0:	2106      	movs	r1, #6
    5da2:	4d5d      	ldr	r5, [pc, #372]	; (5f18 <switch_to_form+0x234>)
    5da4:	47a8      	blx	r5
				io_write_clear_ack(set_trigger_sound_switch_on,6);
    5da6:	0020      	movs	r0, r4
    5da8:	3068      	adds	r0, #104	; 0x68
    5daa:	2106      	movs	r1, #6
    5dac:	47a8      	blx	r5
				printf("setting trig on slice string\r\n");
    5dae:	4863      	ldr	r0, [pc, #396]	; (5f3c <switch_to_form+0x258>)
    5db0:	4e57      	ldr	r6, [pc, #348]	; (5f10 <switch_to_form+0x22c>)
    5db2:	47b0      	blx	r6
				print_no(session_temp.trig_on_slice, SLICE_TRIGGERNO_STR);
    5db4:	4d62      	ldr	r5, [pc, #392]	; (5f40 <switch_to_form+0x25c>)
    5db6:	88e8      	ldrh	r0, [r5, #6]
    5db8:	2104      	movs	r1, #4
    5dba:	4c62      	ldr	r4, [pc, #392]	; (5f44 <switch_to_form+0x260>)
    5dbc:	47a0      	blx	r4
				printf("setting trig on volume string\r\n");
    5dbe:	4862      	ldr	r0, [pc, #392]	; (5f48 <switch_to_form+0x264>)
    5dc0:	47b0      	blx	r6
				print_no(session_temp.trig_on_volume, VOLUME_TRIGGERNO_STR);
    5dc2:	88a8      	ldrh	r0, [r5, #4]
    5dc4:	2105      	movs	r1, #5
    5dc6:	47a0      	blx	r4
		break;
    5dc8:	e79f      	b.n	5d0a <switch_to_form+0x26>
				printf("setting response sound switch and text off\r\n");
    5dca:	4860      	ldr	r0, [pc, #384]	; (5f4c <switch_to_form+0x268>)
    5dcc:	4b50      	ldr	r3, [pc, #320]	; (5f10 <switch_to_form+0x22c>)
    5dce:	4798      	blx	r3
				io_write_clear_ack(set_response_sound_off,6);
    5dd0:	4c50      	ldr	r4, [pc, #320]	; (5f14 <switch_to_form+0x230>)
    5dd2:	0020      	movs	r0, r4
    5dd4:	3050      	adds	r0, #80	; 0x50
    5dd6:	2106      	movs	r1, #6
    5dd8:	4d4f      	ldr	r5, [pc, #316]	; (5f18 <switch_to_form+0x234>)
    5dda:	47a8      	blx	r5
				io_write_clear_ack(set_response_sound_switch_off,6);
    5ddc:	0020      	movs	r0, r4
    5dde:	3058      	adds	r0, #88	; 0x58
    5de0:	2106      	movs	r1, #6
    5de2:	47a8      	blx	r5
    5de4:	e7d2      	b.n	5d8c <switch_to_form+0xa8>
				printf("setting trigger sound switch and text off\r\n");
    5de6:	485a      	ldr	r0, [pc, #360]	; (5f50 <switch_to_form+0x26c>)
    5de8:	4b49      	ldr	r3, [pc, #292]	; (5f10 <switch_to_form+0x22c>)
    5dea:	4798      	blx	r3
				io_write_clear_ack(set_trigger_sound_off,6);
    5dec:	4c49      	ldr	r4, [pc, #292]	; (5f14 <switch_to_form+0x230>)
    5dee:	0020      	movs	r0, r4
    5df0:	3070      	adds	r0, #112	; 0x70
    5df2:	2106      	movs	r1, #6
    5df4:	4d48      	ldr	r5, [pc, #288]	; (5f18 <switch_to_form+0x234>)
    5df6:	47a8      	blx	r5
				io_write_clear_ack(set_trigger_sound_switch_off,6);
    5df8:	0020      	movs	r0, r4
    5dfa:	3078      	adds	r0, #120	; 0x78
    5dfc:	2106      	movs	r1, #6
    5dfe:	47a8      	blx	r5
    5e00:	e7d5      	b.n	5dae <switch_to_form+0xca>
			printf("sw to settings 2 form\r\n");
    5e02:	4854      	ldr	r0, [pc, #336]	; (5f54 <switch_to_form+0x270>)
    5e04:	4d42      	ldr	r5, [pc, #264]	; (5f10 <switch_to_form+0x22c>)
    5e06:	47a8      	blx	r5
			io_write_clear_ack(switch_to_settings_2_form,6);
    5e08:	2106      	movs	r1, #6
    5e0a:	4853      	ldr	r0, [pc, #332]	; (5f58 <switch_to_form+0x274>)
    5e0c:	4b42      	ldr	r3, [pc, #264]	; (5f18 <switch_to_form+0x234>)
    5e0e:	4798      	blx	r3
			set_prev_curr_form(form);					
    5e10:	0020      	movs	r0, r4
    5e12:	4b42      	ldr	r3, [pc, #264]	; (5f1c <switch_to_form+0x238>)
    5e14:	4798      	blx	r3
			printf("setting no of volumes string\r\n");
    5e16:	4851      	ldr	r0, [pc, #324]	; (5f5c <switch_to_form+0x278>)
    5e18:	47a8      	blx	r5
			print_no(session_temp.no_of_volumes, SET_VOLUMES_STR);
    5e1a:	4e49      	ldr	r6, [pc, #292]	; (5f40 <switch_to_form+0x25c>)
    5e1c:	8830      	ldrh	r0, [r6, #0]
    5e1e:	2107      	movs	r1, #7
    5e20:	4c48      	ldr	r4, [pc, #288]	; (5f44 <switch_to_form+0x260>)
    5e22:	47a0      	blx	r4
			printf("setting no of slices string\r\n");
    5e24:	484e      	ldr	r0, [pc, #312]	; (5f60 <switch_to_form+0x27c>)
    5e26:	47a8      	blx	r5
			print_no(session_temp.no_of_slices, SET_SLICES_STR);
    5e28:	8870      	ldrh	r0, [r6, #2]
    5e2a:	2106      	movs	r1, #6
    5e2c:	47a0      	blx	r4
			printf("setting pulse length string\r\n"); 
    5e2e:	484d      	ldr	r0, [pc, #308]	; (5f64 <switch_to_form+0x280>)
    5e30:	47a8      	blx	r5
 			print_no(session_temp.pulse_length, PULSE_LENGTH_STR);
    5e32:	8930      	ldrh	r0, [r6, #8]
    5e34:	2108      	movs	r1, #8
    5e36:	47a0      	blx	r4
			printf("setting TR time string\r\n");
    5e38:	484b      	ldr	r0, [pc, #300]	; (5f68 <switch_to_form+0x284>)
    5e3a:	47a8      	blx	r5
 			print_no(session_temp.TR_time, TR_TIME_STR);
    5e3c:	68f0      	ldr	r0, [r6, #12]
    5e3e:	2109      	movs	r1, #9
    5e40:	47a0      	blx	r4
		break;
    5e42:	e762      	b.n	5d0a <switch_to_form+0x26>
			printf("sw to settings 3 form\r\n");
    5e44:	4849      	ldr	r0, [pc, #292]	; (5f6c <switch_to_form+0x288>)
    5e46:	4b32      	ldr	r3, [pc, #200]	; (5f10 <switch_to_form+0x22c>)
    5e48:	4798      	blx	r3
			io_write_clear_ack(switch_to_settings_3_form,6);
    5e4a:	2106      	movs	r1, #6
    5e4c:	4842      	ldr	r0, [pc, #264]	; (5f58 <switch_to_form+0x274>)
    5e4e:	3008      	adds	r0, #8
    5e50:	4b31      	ldr	r3, [pc, #196]	; (5f18 <switch_to_form+0x234>)
    5e52:	4798      	blx	r3
			set_prev_curr_form(form);
    5e54:	0020      	movs	r0, r4
    5e56:	4b31      	ldr	r3, [pc, #196]	; (5f1c <switch_to_form+0x238>)
    5e58:	4798      	blx	r3
		break;
    5e5a:	e756      	b.n	5d0a <switch_to_form+0x26>
			printf("sw to keyboard form\r\n");
    5e5c:	4844      	ldr	r0, [pc, #272]	; (5f70 <switch_to_form+0x28c>)
    5e5e:	4b2c      	ldr	r3, [pc, #176]	; (5f10 <switch_to_form+0x22c>)
    5e60:	4798      	blx	r3
			io_write_clear_ack(switch_to_keyboard_form,6);
    5e62:	2106      	movs	r1, #6
    5e64:	483c      	ldr	r0, [pc, #240]	; (5f58 <switch_to_form+0x274>)
    5e66:	3010      	adds	r0, #16
    5e68:	4b2b      	ldr	r3, [pc, #172]	; (5f18 <switch_to_form+0x234>)
    5e6a:	4798      	blx	r3
			set_prev_curr_form(form);
    5e6c:	0020      	movs	r0, r4
    5e6e:	4b2b      	ldr	r3, [pc, #172]	; (5f1c <switch_to_form+0x238>)
    5e70:	4798      	blx	r3
		break;
    5e72:	e74a      	b.n	5d0a <switch_to_form+0x26>
			printf("sw to menu form\r\n");
    5e74:	483f      	ldr	r0, [pc, #252]	; (5f74 <switch_to_form+0x290>)
    5e76:	4b26      	ldr	r3, [pc, #152]	; (5f10 <switch_to_form+0x22c>)
    5e78:	4798      	blx	r3
			io_write_clear_ack(switch_to_menu_form,6);
    5e7a:	2106      	movs	r1, #6
    5e7c:	4836      	ldr	r0, [pc, #216]	; (5f58 <switch_to_form+0x274>)
    5e7e:	3018      	adds	r0, #24
    5e80:	4b25      	ldr	r3, [pc, #148]	; (5f18 <switch_to_form+0x234>)
    5e82:	4798      	blx	r3
			set_prev_curr_form(form);
    5e84:	0020      	movs	r0, r4
    5e86:	4b25      	ldr	r3, [pc, #148]	; (5f1c <switch_to_form+0x238>)
    5e88:	4798      	blx	r3
		break;		
    5e8a:	e73e      	b.n	5d0a <switch_to_form+0x26>
			printf("sw to about form\r\n");
    5e8c:	483a      	ldr	r0, [pc, #232]	; (5f78 <switch_to_form+0x294>)
    5e8e:	4b20      	ldr	r3, [pc, #128]	; (5f10 <switch_to_form+0x22c>)
    5e90:	4798      	blx	r3
			io_write_clear_ack(switch_to_about_form,6);
    5e92:	2106      	movs	r1, #6
    5e94:	4830      	ldr	r0, [pc, #192]	; (5f58 <switch_to_form+0x274>)
    5e96:	3020      	adds	r0, #32
    5e98:	4b1f      	ldr	r3, [pc, #124]	; (5f18 <switch_to_form+0x234>)
    5e9a:	4798      	blx	r3
			print_version();
    5e9c:	4b37      	ldr	r3, [pc, #220]	; (5f7c <switch_to_form+0x298>)
    5e9e:	4798      	blx	r3
			set_prev_curr_form(form);
    5ea0:	0020      	movs	r0, r4
    5ea2:	4b1e      	ldr	r3, [pc, #120]	; (5f1c <switch_to_form+0x238>)
    5ea4:	4798      	blx	r3
		break;
    5ea6:	e730      	b.n	5d0a <switch_to_form+0x26>
			printf("sw to error form\r\n");
    5ea8:	4835      	ldr	r0, [pc, #212]	; (5f80 <switch_to_form+0x29c>)
    5eaa:	4b19      	ldr	r3, [pc, #100]	; (5f10 <switch_to_form+0x22c>)
    5eac:	4798      	blx	r3
	((Port *)hw)->Group[submodule_index].OUTCLR.reg = ~data;
}

static inline void hri_port_clear_OUT_reg(const void *const hw, uint8_t submodule_index, hri_port_out_reg_t mask)
{
	((Port *)hw)->Group[submodule_index].OUTCLR.reg = mask;
    5eae:	23c0      	movs	r3, #192	; 0xc0
    5eb0:	05db      	lsls	r3, r3, #23
    5eb2:	2280      	movs	r2, #128	; 0x80
    5eb4:	0212      	lsls	r2, r2, #8
    5eb6:	615a      	str	r2, [r3, #20]
    5eb8:	2280      	movs	r2, #128	; 0x80
    5eba:	01d2      	lsls	r2, r2, #7
    5ebc:	615a      	str	r2, [r3, #20]
    5ebe:	2294      	movs	r2, #148	; 0x94
    5ec0:	2180      	movs	r1, #128	; 0x80
    5ec2:	0249      	lsls	r1, r1, #9
    5ec4:	5099      	str	r1, [r3, r2]
    5ec6:	2180      	movs	r1, #128	; 0x80
    5ec8:	0289      	lsls	r1, r1, #10
    5eca:	5099      	str	r1, [r3, r2]
    5ecc:	2280      	movs	r2, #128	; 0x80
    5ece:	0352      	lsls	r2, r2, #13
    5ed0:	615a      	str	r2, [r3, #20]
    5ed2:	2280      	movs	r2, #128	; 0x80
    5ed4:	0392      	lsls	r2, r2, #14
    5ed6:	615a      	str	r2, [r3, #20]
    5ed8:	2280      	movs	r2, #128	; 0x80
    5eda:	0192      	lsls	r2, r2, #6
    5edc:	615a      	str	r2, [r3, #20]
				session_data.session_running = false;
    5ede:	4b14      	ldr	r3, [pc, #80]	; (5f30 <switch_to_form+0x24c>)
    5ee0:	2200      	movs	r2, #0
    5ee2:	709a      	strb	r2, [r3, #2]
				session_data.simulation_mode = false;
    5ee4:	70da      	strb	r2, [r3, #3]
				session_data.manual_trigger=false;
    5ee6:	711a      	strb	r2, [r3, #4]
				session_data.trigger = false;
    5ee8:	715a      	strb	r2, [r3, #5]
				session_data.current_volume = 1;
    5eea:	2101      	movs	r1, #1
    5eec:	8319      	strh	r1, [r3, #24]
				session_data.current_slice = 0;
    5eee:	835a      	strh	r2, [r3, #26]
			io_write_clear_ack(switch_to_error_form,6);
    5ef0:	3105      	adds	r1, #5
    5ef2:	4819      	ldr	r0, [pc, #100]	; (5f58 <switch_to_form+0x274>)
    5ef4:	3028      	adds	r0, #40	; 0x28
    5ef6:	4b08      	ldr	r3, [pc, #32]	; (5f18 <switch_to_form+0x234>)
    5ef8:	4798      	blx	r3
			set_prev_curr_form(form);
    5efa:	0020      	movs	r0, r4
    5efc:	4b07      	ldr	r3, [pc, #28]	; (5f1c <switch_to_form+0x238>)
    5efe:	4798      	blx	r3
			error_beep_length = ERROR_BEEP_LENGTH;
    5f00:	4a20      	ldr	r2, [pc, #128]	; (5f84 <switch_to_form+0x2a0>)
    5f02:	4b21      	ldr	r3, [pc, #132]	; (5f88 <switch_to_form+0x2a4>)
    5f04:	80da      	strh	r2, [r3, #6]
}
    5f06:	e700      	b.n	5d0a <switch_to_form+0x26>
    5f08:	0000acc0 	.word	0x0000acc0
    5f0c:	0000df9c 	.word	0x0000df9c
    5f10:	000095f9 	.word	0x000095f9
    5f14:	0000da94 	.word	0x0000da94
    5f18:	00005b59 	.word	0x00005b59
    5f1c:	000053e9 	.word	0x000053e9
    5f20:	0000dfb0 	.word	0x0000dfb0
    5f24:	0000dfc8 	.word	0x0000dfc8
    5f28:	0000dfe0 	.word	0x0000dfe0
    5f2c:	0000dff8 	.word	0x0000dff8
    5f30:	20000a3c 	.word	0x20000a3c
    5f34:	0000e014 	.word	0x0000e014
    5f38:	0000e06c 	.word	0x0000e06c
    5f3c:	0000e0c4 	.word	0x0000e0c4
    5f40:	20000a68 	.word	0x20000a68
    5f44:	00005c19 	.word	0x00005c19
    5f48:	0000e0e4 	.word	0x0000e0e4
    5f4c:	0000e040 	.word	0x0000e040
    5f50:	0000e098 	.word	0x0000e098
    5f54:	0000e104 	.word	0x0000e104
    5f58:	0000db14 	.word	0x0000db14
    5f5c:	0000e11c 	.word	0x0000e11c
    5f60:	0000e13c 	.word	0x0000e13c
    5f64:	0000e15c 	.word	0x0000e15c
    5f68:	0000e17c 	.word	0x0000e17c
    5f6c:	0000e194 	.word	0x0000e194
    5f70:	0000e1ac 	.word	0x0000e1ac
    5f74:	0000e1c4 	.word	0x0000e1c4
    5f78:	0000e1d8 	.word	0x0000e1d8
    5f7c:	00005c7d 	.word	0x00005c7d
    5f80:	0000e1ec 	.word	0x0000e1ec
    5f84:	00000c82 	.word	0x00000c82
    5f88:	20000740 	.word	0x20000740

00005f8c <print_slices>:
static void print_slices(uint8_t str_no){
    5f8c:	b5f0      	push	{r4, r5, r6, r7, lr}
    5f8e:	b083      	sub	sp, #12
    5f90:	0006      	movs	r6, r0
	uint8_t length = snprintf(buffer, 64, "___%u / %u    ", session_data.current_slice, session_data.no_of_slices);
    5f92:	4f12      	ldr	r7, [pc, #72]	; (5fdc <print_slices+0x50>)
    5f94:	8b7b      	ldrh	r3, [r7, #26]
    5f96:	8a7a      	ldrh	r2, [r7, #18]
    5f98:	4c11      	ldr	r4, [pc, #68]	; (5fe0 <print_slices+0x54>)
    5f9a:	9200      	str	r2, [sp, #0]
    5f9c:	4a11      	ldr	r2, [pc, #68]	; (5fe4 <print_slices+0x58>)
    5f9e:	2140      	movs	r1, #64	; 0x40
    5fa0:	0020      	movs	r0, r4
    5fa2:	4d11      	ldr	r5, [pc, #68]	; (5fe8 <print_slices+0x5c>)
    5fa4:	47a8      	blx	r5
    5fa6:	b2c5      	uxtb	r5, r0
	buffer[0] = WRITE_STR;
    5fa8:	2302      	movs	r3, #2
    5faa:	7023      	strb	r3, [r4, #0]
	buffer[1] = str_no;
    5fac:	7066      	strb	r6, [r4, #1]
	buffer[2] = length-3;
    5fae:	1eeb      	subs	r3, r5, #3
    5fb0:	70a3      	strb	r3, [r4, #2]
    5fb2:	26ff      	movs	r6, #255	; 0xff
    5fb4:	4006      	ands	r6, r0
	buffer[length] = getCRC(buffer, length);
    5fb6:	0029      	movs	r1, r5
    5fb8:	0020      	movs	r0, r4
    5fba:	4b0c      	ldr	r3, [pc, #48]	; (5fec <print_slices+0x60>)
    5fbc:	4798      	blx	r3
    5fbe:	55a0      	strb	r0, [r4, r6]
	buffer[length+1] = 0; // ????????????
    5fc0:	3601      	adds	r6, #1
    5fc2:	2300      	movs	r3, #0
    5fc4:	55a3      	strb	r3, [r4, r6]
	io_write_clear_ack(buffer,length+1);
    5fc6:	3501      	adds	r5, #1
    5fc8:	b2e9      	uxtb	r1, r5
    5fca:	0020      	movs	r0, r4
    5fcc:	4b08      	ldr	r3, [pc, #32]	; (5ff0 <print_slices+0x64>)
    5fce:	4798      	blx	r3
	printf("current slice: %u\r\n", session_data.current_slice);
    5fd0:	8b79      	ldrh	r1, [r7, #26]
    5fd2:	4808      	ldr	r0, [pc, #32]	; (5ff4 <print_slices+0x68>)
    5fd4:	4b08      	ldr	r3, [pc, #32]	; (5ff8 <print_slices+0x6c>)
    5fd6:	4798      	blx	r3
}
    5fd8:	b003      	add	sp, #12
    5fda:	bdf0      	pop	{r4, r5, r6, r7, pc}
    5fdc:	20000a3c 	.word	0x20000a3c
    5fe0:	20000a84 	.word	0x20000a84
    5fe4:	0000e200 	.word	0x0000e200
    5fe8:	00009779 	.word	0x00009779
    5fec:	00005c01 	.word	0x00005c01
    5ff0:	00005b59 	.word	0x00005b59
    5ff4:	0000e210 	.word	0x0000e210
    5ff8:	00009505 	.word	0x00009505

00005ffc <print_volumes>:
static void print_volumes(uint8_t str_no){
    5ffc:	b5f0      	push	{r4, r5, r6, r7, lr}
    5ffe:	b083      	sub	sp, #12
    6000:	0006      	movs	r6, r0
	uint8_t length = snprintf(buffer, 64, "___%u / %u    ", session_data.current_volume, session_data.no_of_volumes);
    6002:	4f12      	ldr	r7, [pc, #72]	; (604c <print_volumes+0x50>)
    6004:	8b3b      	ldrh	r3, [r7, #24]
    6006:	8a3a      	ldrh	r2, [r7, #16]
    6008:	4c11      	ldr	r4, [pc, #68]	; (6050 <print_volumes+0x54>)
    600a:	9200      	str	r2, [sp, #0]
    600c:	4a11      	ldr	r2, [pc, #68]	; (6054 <print_volumes+0x58>)
    600e:	2140      	movs	r1, #64	; 0x40
    6010:	0020      	movs	r0, r4
    6012:	4d11      	ldr	r5, [pc, #68]	; (6058 <print_volumes+0x5c>)
    6014:	47a8      	blx	r5
    6016:	b2c5      	uxtb	r5, r0
	buffer[0] = WRITE_STR;
    6018:	2302      	movs	r3, #2
    601a:	7023      	strb	r3, [r4, #0]
	buffer[1] = str_no;
    601c:	7066      	strb	r6, [r4, #1]
	buffer[2] = length-3;
    601e:	1eeb      	subs	r3, r5, #3
    6020:	70a3      	strb	r3, [r4, #2]
    6022:	26ff      	movs	r6, #255	; 0xff
    6024:	4006      	ands	r6, r0
	buffer[length] = getCRC(buffer, length);
    6026:	0029      	movs	r1, r5
    6028:	0020      	movs	r0, r4
    602a:	4b0c      	ldr	r3, [pc, #48]	; (605c <print_volumes+0x60>)
    602c:	4798      	blx	r3
    602e:	55a0      	strb	r0, [r4, r6]
	buffer[length+1] = 0; // ????????????
    6030:	3601      	adds	r6, #1
    6032:	2300      	movs	r3, #0
    6034:	55a3      	strb	r3, [r4, r6]
	io_write_clear_ack(buffer,length+1);
    6036:	3501      	adds	r5, #1
    6038:	b2e9      	uxtb	r1, r5
    603a:	0020      	movs	r0, r4
    603c:	4b08      	ldr	r3, [pc, #32]	; (6060 <print_volumes+0x64>)
    603e:	4798      	blx	r3
	printf("**********current volume: %u\r\n", session_data.current_volume);
    6040:	8b39      	ldrh	r1, [r7, #24]
    6042:	4808      	ldr	r0, [pc, #32]	; (6064 <print_volumes+0x68>)
    6044:	4b08      	ldr	r3, [pc, #32]	; (6068 <print_volumes+0x6c>)
    6046:	4798      	blx	r3
}
    6048:	b003      	add	sp, #12
    604a:	bdf0      	pop	{r4, r5, r6, r7, pc}
    604c:	20000a3c 	.word	0x20000a3c
    6050:	20000a84 	.word	0x20000a84
    6054:	0000e200 	.word	0x0000e200
    6058:	00009779 	.word	0x00009779
    605c:	00005c01 	.word	0x00005c01
    6060:	00005b59 	.word	0x00005b59
    6064:	0000e224 	.word	0x0000e224
    6068:	00009505 	.word	0x00009505

0000606c <ADC_init>:
{
    606c:	b570      	push	{r4, r5, r6, lr}
	adc_async_register_callback(&ADC_0, 0, ADC_ASYNC_CONVERT_CB, convert_cb_ADC_0);
    606e:	4c06      	ldr	r4, [pc, #24]	; (6088 <ADC_init+0x1c>)
    6070:	4b06      	ldr	r3, [pc, #24]	; (608c <ADC_init+0x20>)
    6072:	2200      	movs	r2, #0
    6074:	2100      	movs	r1, #0
    6076:	0020      	movs	r0, r4
    6078:	4d05      	ldr	r5, [pc, #20]	; (6090 <ADC_init+0x24>)
    607a:	47a8      	blx	r5
	adc_async_enable_channel(&ADC_0, 0);
    607c:	2100      	movs	r1, #0
    607e:	0020      	movs	r0, r4
    6080:	4b04      	ldr	r3, [pc, #16]	; (6094 <ADC_init+0x28>)
    6082:	4798      	blx	r3
}
    6084:	bd70      	pop	{r4, r5, r6, pc}
    6086:	46c0      	nop			; (mov r8, r8)
    6088:	2000091c 	.word	0x2000091c
    608c:	000054c9 	.word	0x000054c9
    6090:	000010f5 	.word	0x000010f5
    6094:	000010b5 	.word	0x000010b5

00006098 <ps_error>:
void ps_error(){
    6098:	b510      	push	{r4, lr}
	switch_to_form(ERROR_FORM);
    609a:	200b      	movs	r0, #11
    609c:	4b13      	ldr	r3, [pc, #76]	; (60ec <ps_error+0x54>)
    609e:	4798      	blx	r3
	if (adc_value < 1550){
    60a0:	4b13      	ldr	r3, [pc, #76]	; (60f0 <ps_error+0x58>)
    60a2:	885a      	ldrh	r2, [r3, #2]
    60a4:	4b13      	ldr	r3, [pc, #76]	; (60f4 <ps_error+0x5c>)
    60a6:	429a      	cmp	r2, r3
    60a8:	d90b      	bls.n	60c2 <ps_error+0x2a>
	if (adc_value > 2000){
    60aa:	4b11      	ldr	r3, [pc, #68]	; (60f0 <ps_error+0x58>)
    60ac:	885a      	ldrh	r2, [r3, #2]
    60ae:	23fa      	movs	r3, #250	; 0xfa
    60b0:	00db      	lsls	r3, r3, #3
    60b2:	429a      	cmp	r2, r3
    60b4:	d80f      	bhi.n	60d6 <ps_error+0x3e>
	printf("psup voltage is %d\r\n", adc_value);
    60b6:	4b0e      	ldr	r3, [pc, #56]	; (60f0 <ps_error+0x58>)
    60b8:	8859      	ldrh	r1, [r3, #2]
    60ba:	480f      	ldr	r0, [pc, #60]	; (60f8 <ps_error+0x60>)
    60bc:	4b0f      	ldr	r3, [pc, #60]	; (60fc <ps_error+0x64>)
    60be:	4798      	blx	r3
}
    60c0:	bd10      	pop	{r4, pc}
		io_write_clear_ack(set_error_text_PS_low,6);
    60c2:	2106      	movs	r1, #6
    60c4:	480e      	ldr	r0, [pc, #56]	; (6100 <ps_error+0x68>)
    60c6:	4b0f      	ldr	r3, [pc, #60]	; (6104 <ps_error+0x6c>)
    60c8:	4798      	blx	r3
		printf("!!!!!!!!!!!!!!!!!!!");
    60ca:	480f      	ldr	r0, [pc, #60]	; (6108 <ps_error+0x70>)
    60cc:	4c0b      	ldr	r4, [pc, #44]	; (60fc <ps_error+0x64>)
    60ce:	47a0      	blx	r4
		printf("ps voltage too low");
    60d0:	480e      	ldr	r0, [pc, #56]	; (610c <ps_error+0x74>)
    60d2:	47a0      	blx	r4
    60d4:	e7e9      	b.n	60aa <ps_error+0x12>
		io_write_clear_ack(set_error_text_PS_high,6);
    60d6:	2106      	movs	r1, #6
    60d8:	4809      	ldr	r0, [pc, #36]	; (6100 <ps_error+0x68>)
    60da:	3008      	adds	r0, #8
    60dc:	4b09      	ldr	r3, [pc, #36]	; (6104 <ps_error+0x6c>)
    60de:	4798      	blx	r3
		printf("!!!!!!!!!!!!!!!!!!!");
    60e0:	4809      	ldr	r0, [pc, #36]	; (6108 <ps_error+0x70>)
    60e2:	4c06      	ldr	r4, [pc, #24]	; (60fc <ps_error+0x64>)
    60e4:	47a0      	blx	r4
		printf("ps voltage too high");
    60e6:	480a      	ldr	r0, [pc, #40]	; (6110 <ps_error+0x78>)
    60e8:	47a0      	blx	r4
    60ea:	e7e4      	b.n	60b6 <ps_error+0x1e>
    60ec:	00005ce5 	.word	0x00005ce5
    60f0:	20000740 	.word	0x20000740
    60f4:	0000060d 	.word	0x0000060d
    60f8:	0000e280 	.word	0x0000e280
    60fc:	00009505 	.word	0x00009505
    6100:	0000ada8 	.word	0x0000ada8
    6104:	00005b59 	.word	0x00005b59
    6108:	0000e244 	.word	0x0000e244
    610c:	0000e258 	.word	0x0000e258
    6110:	0000e26c 	.word	0x0000e26c

00006114 <usb_error>:
void usb_error(){
    6114:	b510      	push	{r4, lr}
	switch_to_form(ERROR_FORM);	
    6116:	200b      	movs	r0, #11
    6118:	4b0b      	ldr	r3, [pc, #44]	; (6148 <usb_error+0x34>)
    611a:	4798      	blx	r3
	io_write_clear_ack(set_error_text_USB_error,6);
    611c:	2106      	movs	r1, #6
    611e:	480b      	ldr	r0, [pc, #44]	; (614c <usb_error+0x38>)
    6120:	3010      	adds	r0, #16
    6122:	4b0b      	ldr	r3, [pc, #44]	; (6150 <usb_error+0x3c>)
    6124:	4798      	blx	r3
	printf("!!!!!!!!!!!!!!!!!!!\r\n");
    6126:	480b      	ldr	r0, [pc, #44]	; (6154 <usb_error+0x40>)
    6128:	4c0b      	ldr	r4, [pc, #44]	; (6158 <usb_error+0x44>)
    612a:	47a0      	blx	r4
	printf("USB error\r\n");
    612c:	480b      	ldr	r0, [pc, #44]	; (615c <usb_error+0x48>)
    612e:	47a0      	blx	r4
	while (usb_disconnected){}
    6130:	4b0b      	ldr	r3, [pc, #44]	; (6160 <usb_error+0x4c>)
    6132:	881b      	ldrh	r3, [r3, #0]
    6134:	2b00      	cmp	r3, #0
    6136:	d1fb      	bne.n	6130 <usb_error+0x1c>
	printf("USB connection ok\r\n");
    6138:	480a      	ldr	r0, [pc, #40]	; (6164 <usb_error+0x50>)
    613a:	4b07      	ldr	r3, [pc, #28]	; (6158 <usb_error+0x44>)
    613c:	4798      	blx	r3
	switch_to_form(DEFAULT_FORM);
    613e:	2000      	movs	r0, #0
    6140:	4b01      	ldr	r3, [pc, #4]	; (6148 <usb_error+0x34>)
    6142:	4798      	blx	r3
}
    6144:	bd10      	pop	{r4, pc}
    6146:	46c0      	nop			; (mov r8, r8)
    6148:	00005ce5 	.word	0x00005ce5
    614c:	0000ada8 	.word	0x0000ada8
    6150:	00005b59 	.word	0x00005b59
    6154:	0000e298 	.word	0x0000e298
    6158:	000095f9 	.word	0x000095f9
    615c:	0000e2b0 	.word	0x0000e2b0
    6160:	20000180 	.word	0x20000180
    6164:	0000e2bc 	.word	0x0000e2bc

00006168 <start_simulation>:
{
    6168:	b570      	push	{r4, r5, r6, lr}
	printf("starting simulation\r\n");
    616a:	4817      	ldr	r0, [pc, #92]	; (61c8 <start_simulation+0x60>)
    616c:	4d17      	ldr	r5, [pc, #92]	; (61cc <start_simulation+0x64>)
    616e:	47a8      	blx	r5
	pulse_counter = 0;
    6170:	4917      	ldr	r1, [pc, #92]	; (61d0 <start_simulation+0x68>)
    6172:	2200      	movs	r2, #0
    6174:	2300      	movs	r3, #0
    6176:	81ca      	strh	r2, [r1, #14]
	TR_counter = 0;
    6178:	820a      	strh	r2, [r1, #16]
	session_data.trig_LED_on = false;
    617a:	4c16      	ldr	r4, [pc, #88]	; (61d4 <start_simulation+0x6c>)
    617c:	7023      	strb	r3, [r4, #0]
	session_data.trigger = false;
    617e:	7163      	strb	r3, [r4, #5]
	session_data.current_volume = 1;
    6180:	2101      	movs	r1, #1
    6182:	8321      	strh	r1, [r4, #24]
	session_data.current_slice = 0;
    6184:	8362      	strh	r2, [r4, #26]
	session_data.previous_volume = session_data.no_of_volumes;
    6186:	8a21      	ldrh	r1, [r4, #16]
    6188:	83a1      	strh	r1, [r4, #28]
	session_data.previous_slice = 0;
    618a:	83e2      	strh	r2, [r4, #30]
	session_data.simulated_A=false;
    618c:	71a3      	strb	r3, [r4, #6]
	session_data.simulated_B=false;
    618e:	71e3      	strb	r3, [r4, #7]
	session_data.simulated_C=false;
    6190:	7223      	strb	r3, [r4, #8]
	session_data.simulated_D=false;
    6192:	7263      	strb	r3, [r4, #9]
	session_data.manual_trigger=false;
    6194:	7123      	strb	r3, [r4, #4]
	session_data.session_running = false;
    6196:	70a3      	strb	r3, [r4, #2]
	session_data.session_finished = false;
    6198:	7063      	strb	r3, [r4, #1]
	switch_to_form(SIMULATION_RUNNING_FORM);
    619a:	2003      	movs	r0, #3
    619c:	4b0e      	ldr	r3, [pc, #56]	; (61d8 <start_simulation+0x70>)
    619e:	4798      	blx	r3
	printf("setting current slice string\r\n");
    61a0:	480e      	ldr	r0, [pc, #56]	; (61dc <start_simulation+0x74>)
    61a2:	47a8      	blx	r5
	print_slices(SIMULATION_CURRENT_SLICE_STR);
    61a4:	200e      	movs	r0, #14
    61a6:	4b0e      	ldr	r3, [pc, #56]	; (61e0 <start_simulation+0x78>)
    61a8:	4798      	blx	r3
	printf("setting current volume string\r\n");	
    61aa:	480e      	ldr	r0, [pc, #56]	; (61e4 <start_simulation+0x7c>)
    61ac:	47a8      	blx	r5
	print_volumes(SIMULATION_CURRENT_VOLUME_STR);
    61ae:	200f      	movs	r0, #15
    61b0:	4b0d      	ldr	r3, [pc, #52]	; (61e8 <start_simulation+0x80>)
    61b2:	4798      	blx	r3
	printf("playing start sound\r\n");
    61b4:	480d      	ldr	r0, [pc, #52]	; (61ec <start_simulation+0x84>)
    61b6:	47a8      	blx	r5
	delay_ms(1000);
    61b8:	20fa      	movs	r0, #250	; 0xfa
    61ba:	0080      	lsls	r0, r0, #2
    61bc:	4b0c      	ldr	r3, [pc, #48]	; (61f0 <start_simulation+0x88>)
    61be:	4798      	blx	r3
	session_data.simulation_mode=true;	
    61c0:	2301      	movs	r3, #1
    61c2:	70e3      	strb	r3, [r4, #3]
}
    61c4:	bd70      	pop	{r4, r5, r6, pc}
    61c6:	46c0      	nop			; (mov r8, r8)
    61c8:	0000e2d0 	.word	0x0000e2d0
    61cc:	000095f9 	.word	0x000095f9
    61d0:	20000740 	.word	0x20000740
    61d4:	20000a3c 	.word	0x20000a3c
    61d8:	00005ce5 	.word	0x00005ce5
    61dc:	0000e2e8 	.word	0x0000e2e8
    61e0:	00005f8d 	.word	0x00005f8d
    61e4:	0000e308 	.word	0x0000e308
    61e8:	00005ffd 	.word	0x00005ffd
    61ec:	0000e328 	.word	0x0000e328
    61f0:	000013fd 	.word	0x000013fd

000061f4 <stop_simulation>:
{
    61f4:	b510      	push	{r4, lr}
	printf("stopping simulation\r\n");
    61f6:	480b      	ldr	r0, [pc, #44]	; (6224 <stop_simulation+0x30>)
    61f8:	4b0b      	ldr	r3, [pc, #44]	; (6228 <stop_simulation+0x34>)
    61fa:	4798      	blx	r3
	pb_received = false;
    61fc:	2400      	movs	r4, #0
    61fe:	4b0b      	ldr	r3, [pc, #44]	; (622c <stop_simulation+0x38>)
    6200:	701c      	strb	r4, [r3, #0]
	io_write_clear_ack(simulation_trigger_LED_off,6);
    6202:	2106      	movs	r1, #6
    6204:	480a      	ldr	r0, [pc, #40]	; (6230 <stop_simulation+0x3c>)
    6206:	3018      	adds	r0, #24
    6208:	4b0a      	ldr	r3, [pc, #40]	; (6234 <stop_simulation+0x40>)
    620a:	4798      	blx	r3
	switch_to_form(MENU_FORM);
    620c:	2007      	movs	r0, #7
    620e:	4b0a      	ldr	r3, [pc, #40]	; (6238 <stop_simulation+0x44>)
    6210:	4798      	blx	r3
	session_data.session_running = false;
    6212:	4b0a      	ldr	r3, [pc, #40]	; (623c <stop_simulation+0x48>)
    6214:	709c      	strb	r4, [r3, #2]
	session_data.simulation_mode = false;
    6216:	70dc      	strb	r4, [r3, #3]
	session_data.manual_trigger=false;
    6218:	711c      	strb	r4, [r3, #4]
	session_data.trigger = false;
    621a:	715c      	strb	r4, [r3, #5]
	session_data.current_volume = 1;
    621c:	2201      	movs	r2, #1
    621e:	831a      	strh	r2, [r3, #24]
	session_data.current_slice = 0;
    6220:	835c      	strh	r4, [r3, #26]
}
    6222:	bd10      	pop	{r4, pc}
    6224:	0000e340 	.word	0x0000e340
    6228:	000095f9 	.word	0x000095f9
    622c:	20000740 	.word	0x20000740
    6230:	0000ada8 	.word	0x0000ada8
    6234:	00005b59 	.word	0x00005b59
    6238:	00005ce5 	.word	0x00005ce5
    623c:	20000a3c 	.word	0x20000a3c

00006240 <start_man_trig>:
{
    6240:	b570      	push	{r4, r5, r6, lr}
	printf("starting manual trigger\r\n");
    6242:	4813      	ldr	r0, [pc, #76]	; (6290 <start_man_trig+0x50>)
    6244:	4d13      	ldr	r5, [pc, #76]	; (6294 <start_man_trig+0x54>)
    6246:	47a8      	blx	r5
	session_data.trig_LED_on = false;
    6248:	4c13      	ldr	r4, [pc, #76]	; (6298 <start_man_trig+0x58>)
    624a:	2200      	movs	r2, #0
    624c:	7022      	strb	r2, [r4, #0]
	session_data.trigger = false;
    624e:	7162      	strb	r2, [r4, #5]
	session_data.current_volume = 1;
    6250:	2301      	movs	r3, #1
    6252:	8323      	strh	r3, [r4, #24]
	session_data.current_slice = 0;
    6254:	2300      	movs	r3, #0
    6256:	8362      	strh	r2, [r4, #26]
	session_data.previous_volume = session_data.no_of_volumes;
    6258:	8a21      	ldrh	r1, [r4, #16]
    625a:	83a1      	strh	r1, [r4, #28]
	session_data.previous_slice = 0;
    625c:	83e2      	strh	r2, [r4, #30]
	session_data.simulated_A=false;
    625e:	71a3      	strb	r3, [r4, #6]
	session_data.simulated_B=false;
    6260:	71e3      	strb	r3, [r4, #7]
	session_data.simulated_C=false;
    6262:	7223      	strb	r3, [r4, #8]
	session_data.simulated_D=false;
    6264:	7263      	strb	r3, [r4, #9]
	session_data.simulation_mode=false;
    6266:	70e3      	strb	r3, [r4, #3]
	session_data.session_running= false;
    6268:	70a3      	strb	r3, [r4, #2]
	session_data.session_finished = false;	
    626a:	7063      	strb	r3, [r4, #1]
	switch_to_form(MANUAL_TRIGGER_FORM);
    626c:	2002      	movs	r0, #2
    626e:	4b0b      	ldr	r3, [pc, #44]	; (629c <start_man_trig+0x5c>)
    6270:	4798      	blx	r3
	printf("setting current slice string\r\n");
    6272:	480b      	ldr	r0, [pc, #44]	; (62a0 <start_man_trig+0x60>)
    6274:	47a8      	blx	r5
	print_slices(MAN_TRIG_CURRENT_SLICE_STR);
    6276:	2010      	movs	r0, #16
    6278:	4b0a      	ldr	r3, [pc, #40]	; (62a4 <start_man_trig+0x64>)
    627a:	4798      	blx	r3
	printf("setting current volume string\r\n");
    627c:	480a      	ldr	r0, [pc, #40]	; (62a8 <start_man_trig+0x68>)
    627e:	47a8      	blx	r5
	print_volumes(MAN_TRIG_CURRENT_VOLUME_STR);
    6280:	2011      	movs	r0, #17
    6282:	4b0a      	ldr	r3, [pc, #40]	; (62ac <start_man_trig+0x6c>)
    6284:	4798      	blx	r3
	printf("playing start sound\r\n");
    6286:	480a      	ldr	r0, [pc, #40]	; (62b0 <start_man_trig+0x70>)
    6288:	47a8      	blx	r5
	session_data.manual_trigger=true;	
    628a:	2301      	movs	r3, #1
    628c:	7123      	strb	r3, [r4, #4]
}
    628e:	bd70      	pop	{r4, r5, r6, pc}
    6290:	0000e358 	.word	0x0000e358
    6294:	000095f9 	.word	0x000095f9
    6298:	20000a3c 	.word	0x20000a3c
    629c:	00005ce5 	.word	0x00005ce5
    62a0:	0000e2e8 	.word	0x0000e2e8
    62a4:	00005f8d 	.word	0x00005f8d
    62a8:	0000e308 	.word	0x0000e308
    62ac:	00005ffd 	.word	0x00005ffd
    62b0:	0000e328 	.word	0x0000e328

000062b4 <stop_man_trig>:
{
    62b4:	b510      	push	{r4, lr}
	printf("stopping manual trigger\r\n");
    62b6:	480b      	ldr	r0, [pc, #44]	; (62e4 <stop_man_trig+0x30>)
    62b8:	4b0b      	ldr	r3, [pc, #44]	; (62e8 <stop_man_trig+0x34>)
    62ba:	4798      	blx	r3
	pb_received = false;
    62bc:	2400      	movs	r4, #0
    62be:	4b0b      	ldr	r3, [pc, #44]	; (62ec <stop_man_trig+0x38>)
    62c0:	701c      	strb	r4, [r3, #0]
	io_write_clear_ack(man_trig_trigger_LED_off,6);
    62c2:	2106      	movs	r1, #6
    62c4:	480a      	ldr	r0, [pc, #40]	; (62f0 <stop_man_trig+0x3c>)
    62c6:	3020      	adds	r0, #32
    62c8:	4b0a      	ldr	r3, [pc, #40]	; (62f4 <stop_man_trig+0x40>)
    62ca:	4798      	blx	r3
	switch_to_form(MENU_FORM);
    62cc:	2007      	movs	r0, #7
    62ce:	4b0a      	ldr	r3, [pc, #40]	; (62f8 <stop_man_trig+0x44>)
    62d0:	4798      	blx	r3
	session_data.session_running = false;
    62d2:	4b0a      	ldr	r3, [pc, #40]	; (62fc <stop_man_trig+0x48>)
    62d4:	709c      	strb	r4, [r3, #2]
	session_data.simulation_mode = false;
    62d6:	70dc      	strb	r4, [r3, #3]
	session_data.manual_trigger=false;
    62d8:	711c      	strb	r4, [r3, #4]
	session_data.trigger = false;
    62da:	715c      	strb	r4, [r3, #5]
	session_data.current_volume = 1;
    62dc:	2201      	movs	r2, #1
    62de:	831a      	strh	r2, [r3, #24]
	session_data.current_slice = 0;
    62e0:	835c      	strh	r4, [r3, #26]
}
    62e2:	bd10      	pop	{r4, pc}
    62e4:	0000e374 	.word	0x0000e374
    62e8:	000095f9 	.word	0x000095f9
    62ec:	20000740 	.word	0x20000740
    62f0:	0000ada8 	.word	0x0000ada8
    62f4:	00005b59 	.word	0x00005b59
    62f8:	00005ce5 	.word	0x00005ce5
    62fc:	20000a3c 	.word	0x20000a3c

00006300 <start_session>:
{
    6300:	b570      	push	{r4, r5, r6, lr}
	if ((adc_value > 1550) && (adc_value < 2000)) {
    6302:	4b22      	ldr	r3, [pc, #136]	; (638c <start_session+0x8c>)
    6304:	885b      	ldrh	r3, [r3, #2]
    6306:	4a22      	ldr	r2, [pc, #136]	; (6390 <start_session+0x90>)
    6308:	4694      	mov	ip, r2
    630a:	4463      	add	r3, ip
    630c:	b29b      	uxth	r3, r3
    630e:	22e0      	movs	r2, #224	; 0xe0
    6310:	0052      	lsls	r2, r2, #1
    6312:	4293      	cmp	r3, r2
    6314:	d902      	bls.n	631c <start_session+0x1c>
		ps_error();
    6316:	4b1f      	ldr	r3, [pc, #124]	; (6394 <start_session+0x94>)
    6318:	4798      	blx	r3
}
    631a:	bd70      	pop	{r4, r5, r6, pc}
		printf("starting session\r\n");
    631c:	481e      	ldr	r0, [pc, #120]	; (6398 <start_session+0x98>)
    631e:	4d1f      	ldr	r5, [pc, #124]	; (639c <start_session+0x9c>)
    6320:	47a8      	blx	r5
		session_data.trig_LED_on = false;
    6322:	4c1f      	ldr	r4, [pc, #124]	; (63a0 <start_session+0xa0>)
    6324:	2200      	movs	r2, #0
    6326:	7022      	strb	r2, [r4, #0]
		session_data.trigger = false;
    6328:	7162      	strb	r2, [r4, #5]
		session_data.current_volume = 1;
    632a:	2301      	movs	r3, #1
    632c:	8323      	strh	r3, [r4, #24]
		session_data.current_slice = 0;
    632e:	2300      	movs	r3, #0
    6330:	8362      	strh	r2, [r4, #26]
		session_data.previous_volume = session_data.no_of_volumes;
    6332:	8a21      	ldrh	r1, [r4, #16]
    6334:	83a1      	strh	r1, [r4, #28]
		session_data.previous_slice = 0;
    6336:	83e2      	strh	r2, [r4, #30]
		session_data.simulated_A=false;
    6338:	71a3      	strb	r3, [r4, #6]
		session_data.simulated_B=false;
    633a:	71e3      	strb	r3, [r4, #7]
		session_data.simulated_C=false;
    633c:	7223      	strb	r3, [r4, #8]
		session_data.simulated_D=false;
    633e:	7263      	strb	r3, [r4, #9]
		session_data.simulation_mode=false;
    6340:	70e3      	strb	r3, [r4, #3]
		session_data.session_finished = false;
    6342:	7063      	strb	r3, [r4, #1]
		switch_to_form(SESSION_RUNNING_FORM);
    6344:	2001      	movs	r0, #1
    6346:	4b17      	ldr	r3, [pc, #92]	; (63a4 <start_session+0xa4>)
    6348:	4798      	blx	r3
		printf("enable RX pwr\r\n");
    634a:	4817      	ldr	r0, [pc, #92]	; (63a8 <start_session+0xa8>)
    634c:	47a8      	blx	r5
	((Port *)hw)->Group[submodule_index].OUTSET.reg = mask;
    634e:	26c0      	movs	r6, #192	; 0xc0
    6350:	05f6      	lsls	r6, r6, #23
    6352:	2380      	movs	r3, #128	; 0x80
    6354:	019b      	lsls	r3, r3, #6
    6356:	61b3      	str	r3, [r6, #24]
		printf("powering up TX ch. 1\r\n");
    6358:	4814      	ldr	r0, [pc, #80]	; (63ac <start_session+0xac>)
    635a:	47a8      	blx	r5
    635c:	2380      	movs	r3, #128	; 0x80
    635e:	021b      	lsls	r3, r3, #8
    6360:	61b3      	str	r3, [r6, #24]
		printf("powering up TX ch. 2\r\n");
    6362:	4813      	ldr	r0, [pc, #76]	; (63b0 <start_session+0xb0>)
    6364:	47a8      	blx	r5
    6366:	2380      	movs	r3, #128	; 0x80
    6368:	01db      	lsls	r3, r3, #7
    636a:	61b3      	str	r3, [r6, #24]
		printf("setting current slice string\r\n");
    636c:	4811      	ldr	r0, [pc, #68]	; (63b4 <start_session+0xb4>)
    636e:	47a8      	blx	r5
		print_slices(CURRENT_SLICE_STR);
    6370:	2000      	movs	r0, #0
    6372:	4b11      	ldr	r3, [pc, #68]	; (63b8 <start_session+0xb8>)
    6374:	4798      	blx	r3
		printf("setting current volume string\r\n");
    6376:	4811      	ldr	r0, [pc, #68]	; (63bc <start_session+0xbc>)
    6378:	47a8      	blx	r5
		print_volumes(CURRENT_VOLUME_STR);
    637a:	2001      	movs	r0, #1
    637c:	4b10      	ldr	r3, [pc, #64]	; (63c0 <start_session+0xc0>)
    637e:	4798      	blx	r3
		printf("playing start sound\r\n");
    6380:	4810      	ldr	r0, [pc, #64]	; (63c4 <start_session+0xc4>)
    6382:	47a8      	blx	r5
		session_data.session_running = true;
    6384:	2301      	movs	r3, #1
    6386:	70a3      	strb	r3, [r4, #2]
    6388:	e7c7      	b.n	631a <start_session+0x1a>
    638a:	46c0      	nop			; (mov r8, r8)
    638c:	20000740 	.word	0x20000740
    6390:	fffff9f1 	.word	0xfffff9f1
    6394:	00006099 	.word	0x00006099
    6398:	0000e390 	.word	0x0000e390
    639c:	000095f9 	.word	0x000095f9
    63a0:	20000a3c 	.word	0x20000a3c
    63a4:	00005ce5 	.word	0x00005ce5
    63a8:	0000e3a4 	.word	0x0000e3a4
    63ac:	0000e3b4 	.word	0x0000e3b4
    63b0:	0000e3cc 	.word	0x0000e3cc
    63b4:	0000e2e8 	.word	0x0000e2e8
    63b8:	00005f8d 	.word	0x00005f8d
    63bc:	0000e308 	.word	0x0000e308
    63c0:	00005ffd 	.word	0x00005ffd
    63c4:	0000e328 	.word	0x0000e328

000063c8 <stop_session>:
{
    63c8:	b570      	push	{r4, r5, r6, lr}
	printf("stopping session\r\n");
    63ca:	4810      	ldr	r0, [pc, #64]	; (640c <stop_session+0x44>)
    63cc:	4c10      	ldr	r4, [pc, #64]	; (6410 <stop_session+0x48>)
    63ce:	47a0      	blx	r4
	switch_to_form(DEFAULT_FORM);
    63d0:	2000      	movs	r0, #0
    63d2:	4b10      	ldr	r3, [pc, #64]	; (6414 <stop_session+0x4c>)
    63d4:	4798      	blx	r3
	session_data.session_running = false;
    63d6:	4b10      	ldr	r3, [pc, #64]	; (6418 <stop_session+0x50>)
    63d8:	2200      	movs	r2, #0
    63da:	709a      	strb	r2, [r3, #2]
	session_data.simulation_mode = false;
    63dc:	70da      	strb	r2, [r3, #3]
	session_data.trigger = false;
    63de:	715a      	strb	r2, [r3, #5]
	session_data.current_volume = 1;
    63e0:	2101      	movs	r1, #1
    63e2:	8319      	strh	r1, [r3, #24]
	session_data.current_slice = 0;
    63e4:	835a      	strh	r2, [r3, #26]
	printf("powering down TX ch. 1\r\n");
    63e6:	480d      	ldr	r0, [pc, #52]	; (641c <stop_session+0x54>)
    63e8:	47a0      	blx	r4
	((Port *)hw)->Group[submodule_index].OUTCLR.reg = mask;
    63ea:	25c0      	movs	r5, #192	; 0xc0
    63ec:	05ed      	lsls	r5, r5, #23
    63ee:	2380      	movs	r3, #128	; 0x80
    63f0:	021b      	lsls	r3, r3, #8
    63f2:	616b      	str	r3, [r5, #20]
	printf("powering down TX ch. 2\r\n");
    63f4:	480a      	ldr	r0, [pc, #40]	; (6420 <stop_session+0x58>)
    63f6:	47a0      	blx	r4
    63f8:	2380      	movs	r3, #128	; 0x80
    63fa:	01db      	lsls	r3, r3, #7
    63fc:	616b      	str	r3, [r5, #20]
	printf("disable RX pwr\r\n");
    63fe:	4809      	ldr	r0, [pc, #36]	; (6424 <stop_session+0x5c>)
    6400:	47a0      	blx	r4
    6402:	2380      	movs	r3, #128	; 0x80
    6404:	019b      	lsls	r3, r3, #6
    6406:	616b      	str	r3, [r5, #20]
}
    6408:	bd70      	pop	{r4, r5, r6, pc}
    640a:	46c0      	nop			; (mov r8, r8)
    640c:	0000e3e4 	.word	0x0000e3e4
    6410:	000095f9 	.word	0x000095f9
    6414:	00005ce5 	.word	0x00005ce5
    6418:	20000a3c 	.word	0x20000a3c
    641c:	0000e3f8 	.word	0x0000e3f8
    6420:	0000e410 	.word	0x0000e410
    6424:	0000e428 	.word	0x0000e428

00006428 <TIMER_init>:

void TIMER_init(void)
{
    6428:	b570      	push	{r4, r5, r6, lr}
	TIMER_0_task1.interval = 1; // 8kHz
    642a:	490d      	ldr	r1, [pc, #52]	; (6460 <TIMER_init+0x38>)
    642c:	2301      	movs	r3, #1
    642e:	620b      	str	r3, [r1, #32]
	TIMER_0_task1.cb       = TIMER_task1_cb;
    6430:	4a0c      	ldr	r2, [pc, #48]	; (6464 <TIMER_init+0x3c>)
    6432:	624a      	str	r2, [r1, #36]	; 0x24
	TIMER_0_task1.mode     = TIMER_TASK_REPEAT;
    6434:	2228      	movs	r2, #40	; 0x28
    6436:	548b      	strb	r3, [r1, r2]
	TIMER_0_task2.interval = 5000;   //1.6 Hz
    6438:	4a0b      	ldr	r2, [pc, #44]	; (6468 <TIMER_init+0x40>)
    643a:	634a      	str	r2, [r1, #52]	; 0x34
	TIMER_0_task2.cb       = TIMER_task2_cb;
    643c:	4a0b      	ldr	r2, [pc, #44]	; (646c <TIMER_init+0x44>)
    643e:	638a      	str	r2, [r1, #56]	; 0x38
	TIMER_0_task2.mode     = TIMER_TASK_REPEAT;
    6440:	000e      	movs	r6, r1
    6442:	362c      	adds	r6, #44	; 0x2c
    6444:	7433      	strb	r3, [r6, #16]

	timer_add_task(&TIMER_0, &TIMER_0_task1);
    6446:	3118      	adds	r1, #24
    6448:	4c09      	ldr	r4, [pc, #36]	; (6470 <TIMER_init+0x48>)
    644a:	0020      	movs	r0, r4
    644c:	4d09      	ldr	r5, [pc, #36]	; (6474 <TIMER_init+0x4c>)
    644e:	47a8      	blx	r5
	timer_add_task(&TIMER_0, &TIMER_0_task2);
    6450:	0031      	movs	r1, r6
    6452:	0020      	movs	r0, r4
    6454:	47a8      	blx	r5
	timer_start(&TIMER_0);
    6456:	0020      	movs	r0, r4
    6458:	4b07      	ldr	r3, [pc, #28]	; (6478 <TIMER_init+0x50>)
    645a:	4798      	blx	r3
}
    645c:	bd70      	pop	{r4, r5, r6, pc}
    645e:	46c0      	nop			; (mov r8, r8)
    6460:	20000740 	.word	0x20000740
    6464:	00005511 	.word	0x00005511
    6468:	00001388 	.word	0x00001388
    646c:	000054e9 	.word	0x000054e9
    6470:	20000a18 	.word	0x20000a18
    6474:	00001bed 	.word	0x00001bed
    6478:	00001bb1 	.word	0x00001bb1

0000647c <main>:

int main(void)
{
    647c:	b5f0      	push	{r4, r5, r6, r7, lr}
    647e:	46c6      	mov	lr, r8
    6480:	b500      	push	{lr}
	pb_received = false;
    6482:	4ec4      	ldr	r6, [pc, #784]	; (6794 <main+0x318>)
    6484:	2400      	movs	r4, #0
    6486:	7034      	strb	r4, [r6, #0]
	uint16_t page_size;
	/* Initializes MCU, drivers and middleware */
	atmel_start_init();
    6488:	4bc3      	ldr	r3, [pc, #780]	; (6798 <main+0x31c>)
    648a:	4798      	blx	r3
    648c:	25c0      	movs	r5, #192	; 0xc0
    648e:	05ed      	lsls	r5, r5, #23
    6490:	2380      	movs	r3, #128	; 0x80
    6492:	021b      	lsls	r3, r3, #8
    6494:	616b      	str	r3, [r5, #20]
    6496:	2380      	movs	r3, #128	; 0x80
    6498:	01db      	lsls	r3, r3, #7
    649a:	616b      	str	r3, [r5, #20]
    649c:	2394      	movs	r3, #148	; 0x94
    649e:	2280      	movs	r2, #128	; 0x80
    64a0:	0252      	lsls	r2, r2, #9
    64a2:	50ea      	str	r2, [r5, r3]
    64a4:	2280      	movs	r2, #128	; 0x80
    64a6:	0292      	lsls	r2, r2, #10
    64a8:	50ea      	str	r2, [r5, r3]
    64aa:	2380      	movs	r3, #128	; 0x80
    64ac:	035b      	lsls	r3, r3, #13
    64ae:	616b      	str	r3, [r5, #20]
    64b0:	2380      	movs	r3, #128	; 0x80
    64b2:	039b      	lsls	r3, r3, #14
    64b4:	616b      	str	r3, [r5, #20]
    64b6:	2380      	movs	r3, #128	; 0x80
    64b8:	019b      	lsls	r3, r3, #6
    64ba:	616b      	str	r3, [r5, #20]
	gpio_set_pin_level(T5, false);
	gpio_set_pin_level(T6, false);
	gpio_set_pin_level(RX_PWR, false);
	
	
	ADC_init();
    64bc:	4bb7      	ldr	r3, [pc, #732]	; (679c <main+0x320>)
    64be:	4798      	blx	r3
	adc_read=true;
    64c0:	2701      	movs	r7, #1
    64c2:	7137      	strb	r7, [r6, #4]
	TIMER_init();
    64c4:	4bb6      	ldr	r3, [pc, #728]	; (67a0 <main+0x324>)
    64c6:	4798      	blx	r3
	uart_init();  // LCD communication
    64c8:	4bb6      	ldr	r3, [pc, #728]	; (67a4 <main+0x328>)
    64ca:	4798      	blx	r3
		
	page_size = flash_get_page_size(&FLASH_0);	
    64cc:	48b6      	ldr	r0, [pc, #728]	; (67a8 <main+0x32c>)
    64ce:	4bb7      	ldr	r3, [pc, #732]	; (67ac <main+0x330>)
    64d0:	4798      	blx	r3
	printf("\r\nFLASH page size: %d\r\n", page_size);
    64d2:	0401      	lsls	r1, r0, #16
    64d4:	0c09      	lsrs	r1, r1, #16
    64d6:	48b6      	ldr	r0, [pc, #728]	; (67b0 <main+0x334>)
    64d8:	4eb6      	ldr	r6, [pc, #728]	; (67b4 <main+0x338>)
    64da:	47b0      	blx	r6
	
	page_size=sizeof(session_data);
	printf("\r\nsession data size: %d\r\n", page_size);
    64dc:	2128      	movs	r1, #40	; 0x28
    64de:	48b6      	ldr	r0, [pc, #728]	; (67b8 <main+0x33c>)
    64e0:	47b0      	blx	r6
	
	page_size=sizeof(session_data.sound_volume);
	printf("\r\nsound volume size: %d\r\n", page_size);
    64e2:	2102      	movs	r1, #2
    64e4:	48b5      	ldr	r0, [pc, #724]	; (67bc <main+0x340>)
    64e6:	47b0      	blx	r6
	
	page_size=sizeof(session_data.response_sound);
	printf("\r\nresponse sound size: %d\r\n", page_size);
    64e8:	2101      	movs	r1, #1
    64ea:	48b5      	ldr	r0, [pc, #724]	; (67c0 <main+0x344>)
    64ec:	47b0      	blx	r6
	
	page_size=sizeof(session_data.current_form);
	printf("\r\ncurrent form size: %d\r\n", page_size);	
    64ee:	2101      	movs	r1, #1
    64f0:	48b4      	ldr	r0, [pc, #720]	; (67c4 <main+0x348>)
    64f2:	47b0      	blx	r6
	
	printf("reading settings from FLASH memory");
    64f4:	48b4      	ldr	r0, [pc, #720]	; (67c8 <main+0x34c>)
    64f6:	47b0      	blx	r6
	read_flash();
    64f8:	4bb4      	ldr	r3, [pc, #720]	; (67cc <main+0x350>)
    64fa:	4798      	blx	r3
	
	session_data.trigger = false;
    64fc:	4bb4      	ldr	r3, [pc, #720]	; (67d0 <main+0x354>)
    64fe:	715c      	strb	r4, [r3, #5]
	session_data.session_running = false;
    6500:	709c      	strb	r4, [r3, #2]
	session_data.session_finished = false;
    6502:	705c      	strb	r4, [r3, #1]
	session_data.simulation_mode = false;
    6504:	70dc      	strb	r4, [r3, #3]
	session_data.manual_trigger = false;
    6506:	711c      	strb	r4, [r3, #4]
	session_data.current_form = DEFAULT_FORM;
    6508:	731c      	strb	r4, [r3, #12]
	session_data.previous_form = DEFAULT_FORM;
    650a:	735c      	strb	r4, [r3, #13]
	session_data.simulated_A = false;
    650c:	719c      	strb	r4, [r3, #6]
	session_data.simulated_B = false;
    650e:	71dc      	strb	r4, [r3, #7]
	session_data.simulated_C = false;
    6510:	721c      	strb	r4, [r3, #8]
	session_data.simulated_D = false;
    6512:	725c      	strb	r4, [r3, #9]

	printf("enabling DAC\r\n");
    6514:	48af      	ldr	r0, [pc, #700]	; (67d4 <main+0x358>)
    6516:	4eb0      	ldr	r6, [pc, #704]	; (67d8 <main+0x35c>)
    6518:	47b0      	blx	r6
	dac_async_enable_channel(&DAC_0, 0);
    651a:	2100      	movs	r1, #0
    651c:	48af      	ldr	r0, [pc, #700]	; (67dc <main+0x360>)
    651e:	4bb0      	ldr	r3, [pc, #704]	; (67e0 <main+0x364>)
    6520:	4798      	blx	r3
	
	printf("register ext irq sync trigger\r\n");
    6522:	48b0      	ldr	r0, [pc, #704]	; (67e4 <main+0x368>)
    6524:	47b0      	blx	r6
    ext_irq_register(I0, sync_trigger);
    6526:	49b0      	ldr	r1, [pc, #704]	; (67e8 <main+0x36c>)
    6528:	2022      	movs	r0, #34	; 0x22
    652a:	4bb0      	ldr	r3, [pc, #704]	; (67ec <main+0x370>)
    652c:	4698      	mov	r8, r3
    652e:	4798      	blx	r3
	
	printf("register ext irq button\r\n");
    6530:	48af      	ldr	r0, [pc, #700]	; (67f0 <main+0x374>)
    6532:	47b0      	blx	r6
    ext_irq_register(PB2, button);
    6534:	49af      	ldr	r1, [pc, #700]	; (67f4 <main+0x378>)
    6536:	2023      	movs	r0, #35	; 0x23
    6538:	47c0      	blx	r8
		
	printf("reset LCD\r\n");
    653a:	48af      	ldr	r0, [pc, #700]	; (67f8 <main+0x37c>)
    653c:	47b0      	blx	r6
	((Port *)hw)->Group[submodule_index].OUTSET.reg = mask;
    653e:	2380      	movs	r3, #128	; 0x80
    6540:	055b      	lsls	r3, r3, #21
    6542:	61ab      	str	r3, [r5, #24]
	gpio_set_pin_level(DISP_RESET, true);
	delay_ms(2000);
    6544:	20fa      	movs	r0, #250	; 0xfa
    6546:	00c0      	lsls	r0, r0, #3
    6548:	4bac      	ldr	r3, [pc, #688]	; (67fc <main+0x380>)
    654a:	4798      	blx	r3
	printf("set ACK after display reset\r\n");
    654c:	48ac      	ldr	r0, [pc, #688]	; (6800 <main+0x384>)
    654e:	47b0      	blx	r6
	ACK_received = true;
    6550:	4bac      	ldr	r3, [pc, #688]	; (6804 <main+0x388>)
    6552:	701f      	strb	r7, [r3, #0]
	
	printf("enabling audio amp\r\n");
    6554:	48ac      	ldr	r0, [pc, #688]	; (6808 <main+0x38c>)
    6556:	47b0      	blx	r6
    6558:	2220      	movs	r2, #32
    655a:	2398      	movs	r3, #152	; 0x98
    655c:	50ea      	str	r2, [r5, r3]
	gpio_set_pin_level(AUDENB, true);

	printf("***************************************\r\n");
    655e:	48ab      	ldr	r0, [pc, #684]	; (680c <main+0x390>)
    6560:	47b0      	blx	r6
	printf("initialization done, starting main loop\r\n");
    6562:	48ab      	ldr	r0, [pc, #684]	; (6810 <main+0x394>)
    6564:	47b0      	blx	r6
	usb_disconnected = 0;
    6566:	4bab      	ldr	r3, [pc, #684]	; (6814 <main+0x398>)
    6568:	801c      	strh	r4, [r3, #0]
    656a:	e186      	b.n	687a <main+0x3fe>
	while (1) {		
		
		if ((adc_value < 1500) || (adc_value > 2000)) {
			ps_error_counter ++;
    656c:	4889      	ldr	r0, [pc, #548]	; (6794 <main+0x318>)
    656e:	2340      	movs	r3, #64	; 0x40
    6570:	5ac2      	ldrh	r2, [r0, r3]
    6572:	3201      	adds	r2, #1
    6574:	b292      	uxth	r2, r2
    6576:	52c2      	strh	r2, [r0, r3]
			printf("ps dip, voltage: %d, counter: %u\r\n", adc_value, ps_error_counter);
    6578:	48a7      	ldr	r0, [pc, #668]	; (6818 <main+0x39c>)
    657a:	4b8e      	ldr	r3, [pc, #568]	; (67b4 <main+0x338>)
    657c:	4798      	blx	r3
    657e:	e18a      	b.n	6896 <main+0x41a>
		}
		else{
			ps_error_counter = 0;
		}
		if (ps_error_counter > 3){
			ps_error();
    6580:	4ba6      	ldr	r3, [pc, #664]	; (681c <main+0x3a0>)
    6582:	4798      	blx	r3
    6584:	e18d      	b.n	68a2 <main+0x426>
		}
		
		
		if (usb_disconnected > 100){
			printf("USB disconnected!\r\n");
    6586:	48a6      	ldr	r0, [pc, #664]	; (6820 <main+0x3a4>)
    6588:	4b93      	ldr	r3, [pc, #588]	; (67d8 <main+0x35c>)
    658a:	4798      	blx	r3
			usb_error();
    658c:	4ba5      	ldr	r3, [pc, #660]	; (6824 <main+0x3a8>)
    658e:	4798      	blx	r3
    6590:	e18c      	b.n	68ac <main+0x430>
				session_data.previous_volume = session_data.current_volume;				
				print_volumes(CURRENT_VOLUME_STR);			
			}
			
			if (session_data.session_finished) {
				session_data.session_running = false;
    6592:	2200      	movs	r2, #0
    6594:	4b8e      	ldr	r3, [pc, #568]	; (67d0 <main+0x354>)
    6596:	709a      	strb	r2, [r3, #2]
				delay_ms(2000);
    6598:	20fa      	movs	r0, #250	; 0xfa
    659a:	00c0      	lsls	r0, r0, #3
    659c:	4b97      	ldr	r3, [pc, #604]	; (67fc <main+0x380>)
    659e:	4798      	blx	r3
				stop_session();
    65a0:	4ba1      	ldr	r3, [pc, #644]	; (6828 <main+0x3ac>)
    65a2:	4798      	blx	r3
    65a4:	e1a0      	b.n	68e8 <main+0x46c>
			}
		}
		
		else if (session_data.manual_trigger) {
    65a6:	4b8a      	ldr	r3, [pc, #552]	; (67d0 <main+0x354>)
    65a8:	791b      	ldrb	r3, [r3, #4]
    65aa:	2b00      	cmp	r3, #0
    65ac:	d100      	bne.n	65b0 <main+0x134>
    65ae:	e09e      	b.n	66ee <main+0x272>
			
			if (pb_received){
    65b0:	4b78      	ldr	r3, [pc, #480]	; (6794 <main+0x318>)
    65b2:	781b      	ldrb	r3, [r3, #0]
    65b4:	2b00      	cmp	r3, #0
    65b6:	d00a      	beq.n	65ce <main+0x152>
				pb_received = false;
    65b8:	2200      	movs	r2, #0
    65ba:	4b76      	ldr	r3, [pc, #472]	; (6794 <main+0x318>)
    65bc:	701a      	strb	r2, [r3, #0]
				if ((!session_data.simulation_mode) && (!session_data.session_running) && (session_data.manual_trigger) && (!trigger_debounce)){
    65be:	4b84      	ldr	r3, [pc, #528]	; (67d0 <main+0x354>)
    65c0:	78db      	ldrb	r3, [r3, #3]
    65c2:	2b00      	cmp	r3, #0
    65c4:	d103      	bne.n	65ce <main+0x152>
    65c6:	4b99      	ldr	r3, [pc, #612]	; (682c <main+0x3b0>)
    65c8:	881b      	ldrh	r3, [r3, #0]
    65ca:	2b00      	cmp	r3, #0
    65cc:	d02b      	beq.n	6626 <main+0x1aa>
						}
					}
				}
			}
			
			if ((!trig_LED_delay) && (session_data.trig_LED_on)){
    65ce:	4b97      	ldr	r3, [pc, #604]	; (682c <main+0x3b0>)
    65d0:	891b      	ldrh	r3, [r3, #8]
    65d2:	2b00      	cmp	r3, #0
    65d4:	d104      	bne.n	65e0 <main+0x164>
    65d6:	4b7e      	ldr	r3, [pc, #504]	; (67d0 <main+0x354>)
    65d8:	781b      	ldrb	r3, [r3, #0]
    65da:	2b00      	cmp	r3, #0
    65dc:	d000      	beq.n	65e0 <main+0x164>
    65de:	e07a      	b.n	66d6 <main+0x25a>
				printf("man trig switch trigger LED off\r\n");
				io_write_clear_ack(man_trig_trigger_LED_off,6);
				
			}
			
			if (session_data.previous_slice != session_data.current_slice){
    65e0:	4b7b      	ldr	r3, [pc, #492]	; (67d0 <main+0x354>)
    65e2:	8bda      	ldrh	r2, [r3, #30]
    65e4:	8b5b      	ldrh	r3, [r3, #26]
    65e6:	429a      	cmp	r2, r3
    65e8:	d004      	beq.n	65f4 <main+0x178>
				session_data.previous_slice = session_data.current_slice;
    65ea:	4a79      	ldr	r2, [pc, #484]	; (67d0 <main+0x354>)
    65ec:	83d3      	strh	r3, [r2, #30]
				
				print_slices(MAN_TRIG_CURRENT_SLICE_STR);
    65ee:	2010      	movs	r0, #16
    65f0:	4b8f      	ldr	r3, [pc, #572]	; (6830 <main+0x3b4>)
    65f2:	4798      	blx	r3
			}
			
			if (session_data.previous_volume != session_data.current_volume){
    65f4:	4b76      	ldr	r3, [pc, #472]	; (67d0 <main+0x354>)
    65f6:	8b9a      	ldrh	r2, [r3, #28]
    65f8:	8b1b      	ldrh	r3, [r3, #24]
    65fa:	429a      	cmp	r2, r3
    65fc:	d004      	beq.n	6608 <main+0x18c>
				session_data.previous_volume = session_data.current_volume;
    65fe:	4a74      	ldr	r2, [pc, #464]	; (67d0 <main+0x354>)
    6600:	8393      	strh	r3, [r2, #28]
				
				print_volumes(MAN_TRIG_CURRENT_VOLUME_STR);
    6602:	2011      	movs	r0, #17
    6604:	4b8b      	ldr	r3, [pc, #556]	; (6834 <main+0x3b8>)
    6606:	4798      	blx	r3
			}
			
			if (session_data.session_finished) {
    6608:	4b71      	ldr	r3, [pc, #452]	; (67d0 <main+0x354>)
    660a:	785b      	ldrb	r3, [r3, #1]
    660c:	2b00      	cmp	r3, #0
    660e:	d100      	bne.n	6612 <main+0x196>
    6610:	e16a      	b.n	68e8 <main+0x46c>
				session_data.manual_trigger = false;
    6612:	2200      	movs	r2, #0
    6614:	4b6e      	ldr	r3, [pc, #440]	; (67d0 <main+0x354>)
    6616:	711a      	strb	r2, [r3, #4]
				delay_ms(2000);
    6618:	20fa      	movs	r0, #250	; 0xfa
    661a:	00c0      	lsls	r0, r0, #3
    661c:	4b77      	ldr	r3, [pc, #476]	; (67fc <main+0x380>)
    661e:	4798      	blx	r3
				stop_man_trig();
    6620:	4b85      	ldr	r3, [pc, #532]	; (6838 <main+0x3bc>)
    6622:	4798      	blx	r3
    6624:	e160      	b.n	68e8 <main+0x46c>
					trigger_debounce = TRIGGER_DEBOUNCE_TIME;
    6626:	3232      	adds	r2, #50	; 0x32
    6628:	4b80      	ldr	r3, [pc, #512]	; (682c <main+0x3b0>)
    662a:	801a      	strh	r2, [r3, #0]
					printf("simulated S\r\n");
    662c:	4883      	ldr	r0, [pc, #524]	; (683c <main+0x3c0>)
    662e:	4b6a      	ldr	r3, [pc, #424]	; (67d8 <main+0x35c>)
    6630:	4798      	blx	r3
					session_data.current_slice += 1;
    6632:	4a67      	ldr	r2, [pc, #412]	; (67d0 <main+0x354>)
    6634:	8b53      	ldrh	r3, [r2, #26]
    6636:	3301      	adds	r3, #1
    6638:	b29b      	uxth	r3, r3
    663a:	8353      	strh	r3, [r2, #26]
					if (((session_data.current_slice >= session_data.no_of_slices) && (session_data.current_volume == session_data.no_of_volumes)) ||
    663c:	8a52      	ldrh	r2, [r2, #18]
    663e:	4293      	cmp	r3, r2
    6640:	d304      	bcc.n	664c <main+0x1d0>
    6642:	4963      	ldr	r1, [pc, #396]	; (67d0 <main+0x354>)
    6644:	8b08      	ldrh	r0, [r1, #24]
    6646:	8a09      	ldrh	r1, [r1, #16]
    6648:	4288      	cmp	r0, r1
    664a:	d004      	beq.n	6656 <main+0x1da>
					(session_data.current_volume > session_data.no_of_volumes)){
    664c:	4960      	ldr	r1, [pc, #384]	; (67d0 <main+0x354>)
    664e:	8b08      	ldrh	r0, [r1, #24]
    6650:	8a09      	ldrh	r1, [r1, #16]
					if (((session_data.current_slice >= session_data.no_of_slices) && (session_data.current_volume == session_data.no_of_volumes)) ||
    6652:	4288      	cmp	r0, r1
    6654:	d902      	bls.n	665c <main+0x1e0>
						session_data.session_finished = true;
    6656:	2001      	movs	r0, #1
    6658:	495d      	ldr	r1, [pc, #372]	; (67d0 <main+0x354>)
    665a:	7048      	strb	r0, [r1, #1]
					if ((session_data.current_slice > session_data.no_of_slices) && (!session_data.session_finished)){
    665c:	4293      	cmp	r3, r2
    665e:	d909      	bls.n	6674 <main+0x1f8>
    6660:	4b5b      	ldr	r3, [pc, #364]	; (67d0 <main+0x354>)
    6662:	785b      	ldrb	r3, [r3, #1]
    6664:	2b00      	cmp	r3, #0
    6666:	d105      	bne.n	6674 <main+0x1f8>
						session_data.current_volume += 1;
    6668:	4b59      	ldr	r3, [pc, #356]	; (67d0 <main+0x354>)
    666a:	8b1a      	ldrh	r2, [r3, #24]
    666c:	3201      	adds	r2, #1
    666e:	831a      	strh	r2, [r3, #24]
						session_data.current_slice = 1;
    6670:	2201      	movs	r2, #1
    6672:	835a      	strh	r2, [r3, #26]
					uint16_t divider = session_data.trig_on_volume;
    6674:	4b56      	ldr	r3, [pc, #344]	; (67d0 <main+0x354>)
    6676:	8a9b      	ldrh	r3, [r3, #20]
					if (divider == 0) {
    6678:	2b00      	cmp	r3, #0
    667a:	d02a      	beq.n	66d2 <main+0x256>
					uint16_t divider = session_data.trig_on_volume;
    667c:	0019      	movs	r1, r3
					if ((session_data.trig_on_volume == 0) || (((session_data.current_volume - 1) % divider) == 0)){
    667e:	2b00      	cmp	r3, #0
    6680:	d006      	beq.n	6690 <main+0x214>
    6682:	4b53      	ldr	r3, [pc, #332]	; (67d0 <main+0x354>)
    6684:	8b18      	ldrh	r0, [r3, #24]
    6686:	3801      	subs	r0, #1
    6688:	4b6d      	ldr	r3, [pc, #436]	; (6840 <main+0x3c4>)
    668a:	4798      	blx	r3
    668c:	2900      	cmp	r1, #0
    668e:	d19e      	bne.n	65ce <main+0x152>
						if ((session_data.trig_on_slice == 0) || (session_data.trig_on_slice == session_data.current_slice)){
    6690:	4b4f      	ldr	r3, [pc, #316]	; (67d0 <main+0x354>)
    6692:	8adb      	ldrh	r3, [r3, #22]
    6694:	2b00      	cmp	r3, #0
    6696:	d003      	beq.n	66a0 <main+0x224>
    6698:	4a4d      	ldr	r2, [pc, #308]	; (67d0 <main+0x354>)
    669a:	8b52      	ldrh	r2, [r2, #26]
    669c:	4293      	cmp	r3, r2
    669e:	d196      	bne.n	65ce <main+0x152>
							session_data.trigger = true;
    66a0:	4b4b      	ldr	r3, [pc, #300]	; (67d0 <main+0x354>)
    66a2:	2201      	movs	r2, #1
    66a4:	715a      	strb	r2, [r3, #5]
							sync_beep_length = SYNC_BEEP_LENGTH;
    66a6:	4967      	ldr	r1, [pc, #412]	; (6844 <main+0x3c8>)
    66a8:	4a67      	ldr	r2, [pc, #412]	; (6848 <main+0x3cc>)
    66aa:	8011      	strh	r1, [r2, #0]
							if (!session_data.trig_LED_on){
    66ac:	781b      	ldrb	r3, [r3, #0]
    66ae:	2b00      	cmp	r3, #0
    66b0:	d000      	beq.n	66b4 <main+0x238>
    66b2:	e78c      	b.n	65ce <main+0x152>
								session_data.trig_LED_on = true;
    66b4:	2201      	movs	r2, #1
    66b6:	4b46      	ldr	r3, [pc, #280]	; (67d0 <main+0x354>)
    66b8:	701a      	strb	r2, [r3, #0]
								printf("switch trigger LED on\r\n");
    66ba:	4864      	ldr	r0, [pc, #400]	; (684c <main+0x3d0>)
    66bc:	4b46      	ldr	r3, [pc, #280]	; (67d8 <main+0x35c>)
    66be:	4798      	blx	r3
								io_write_clear_ack(man_trig_trigger_LED_on,6);
    66c0:	2106      	movs	r1, #6
    66c2:	4863      	ldr	r0, [pc, #396]	; (6850 <main+0x3d4>)
    66c4:	3028      	adds	r0, #40	; 0x28
    66c6:	4b63      	ldr	r3, [pc, #396]	; (6854 <main+0x3d8>)
    66c8:	4798      	blx	r3
								trig_LED_delay = TRIGGER_LED_DELAY;
    66ca:	2250      	movs	r2, #80	; 0x50
    66cc:	4b57      	ldr	r3, [pc, #348]	; (682c <main+0x3b0>)
    66ce:	811a      	strh	r2, [r3, #8]
    66d0:	e77d      	b.n	65ce <main+0x152>
						divider = 1;
    66d2:	2101      	movs	r1, #1
    66d4:	e7d3      	b.n	667e <main+0x202>
				session_data.trig_LED_on = false;
    66d6:	2200      	movs	r2, #0
    66d8:	4b3d      	ldr	r3, [pc, #244]	; (67d0 <main+0x354>)
    66da:	701a      	strb	r2, [r3, #0]
				printf("man trig switch trigger LED off\r\n");
    66dc:	485e      	ldr	r0, [pc, #376]	; (6858 <main+0x3dc>)
    66de:	4b3e      	ldr	r3, [pc, #248]	; (67d8 <main+0x35c>)
    66e0:	4798      	blx	r3
				io_write_clear_ack(man_trig_trigger_LED_off,6);
    66e2:	2106      	movs	r1, #6
    66e4:	485a      	ldr	r0, [pc, #360]	; (6850 <main+0x3d4>)
    66e6:	3020      	adds	r0, #32
    66e8:	4b5a      	ldr	r3, [pc, #360]	; (6854 <main+0x3d8>)
    66ea:	4798      	blx	r3
    66ec:	e778      	b.n	65e0 <main+0x164>
			}
		}
		
		else if (session_data.simulation_mode) {
    66ee:	4b38      	ldr	r3, [pc, #224]	; (67d0 <main+0x354>)
    66f0:	78db      	ldrb	r3, [r3, #3]
    66f2:	2b00      	cmp	r3, #0
    66f4:	d100      	bne.n	66f8 <main+0x27c>
    66f6:	e0f7      	b.n	68e8 <main+0x46c>
			
			if ((session_data.trigger) && (!session_data.trig_LED_on)){
    66f8:	4b35      	ldr	r3, [pc, #212]	; (67d0 <main+0x354>)
    66fa:	795b      	ldrb	r3, [r3, #5]
    66fc:	2b00      	cmp	r3, #0
    66fe:	d003      	beq.n	6708 <main+0x28c>
    6700:	4b33      	ldr	r3, [pc, #204]	; (67d0 <main+0x354>)
    6702:	781b      	ldrb	r3, [r3, #0]
    6704:	2b00      	cmp	r3, #0
    6706:	d02a      	beq.n	675e <main+0x2e2>
				printf("simulation switch trigger LED on\r\n");
				io_write_clear_ack(simulation_trigger_LED_on,6);
				trig_LED_delay = TRIGGER_LED_DELAY;
			}			
			
			if ((!trig_LED_delay) && (session_data.trig_LED_on)){
    6708:	4b48      	ldr	r3, [pc, #288]	; (682c <main+0x3b0>)
    670a:	891b      	ldrh	r3, [r3, #8]
    670c:	2b00      	cmp	r3, #0
    670e:	d103      	bne.n	6718 <main+0x29c>
    6710:	4b2f      	ldr	r3, [pc, #188]	; (67d0 <main+0x354>)
    6712:	781b      	ldrb	r3, [r3, #0]
    6714:	2b00      	cmp	r3, #0
    6716:	d131      	bne.n	677c <main+0x300>
				session_data.trig_LED_on = false;
				printf("simulation switch trigger LED off\r\n");
				io_write_clear_ack(simulation_trigger_LED_off,6);				
			}
			
			if (session_data.previous_slice != session_data.current_slice){
    6718:	4b2d      	ldr	r3, [pc, #180]	; (67d0 <main+0x354>)
    671a:	8bda      	ldrh	r2, [r3, #30]
    671c:	8b5b      	ldrh	r3, [r3, #26]
    671e:	429a      	cmp	r2, r3
    6720:	d004      	beq.n	672c <main+0x2b0>
				session_data.previous_slice = session_data.current_slice;
    6722:	4a2b      	ldr	r2, [pc, #172]	; (67d0 <main+0x354>)
    6724:	83d3      	strh	r3, [r2, #30]
				print_slices(SIMULATION_CURRENT_SLICE_STR);
    6726:	200e      	movs	r0, #14
    6728:	4b41      	ldr	r3, [pc, #260]	; (6830 <main+0x3b4>)
    672a:	4798      	blx	r3
			}
			
			if (session_data.previous_volume != session_data.current_volume){
    672c:	4b28      	ldr	r3, [pc, #160]	; (67d0 <main+0x354>)
    672e:	8b9a      	ldrh	r2, [r3, #28]
    6730:	8b1b      	ldrh	r3, [r3, #24]
    6732:	429a      	cmp	r2, r3
    6734:	d004      	beq.n	6740 <main+0x2c4>
				session_data.previous_volume = session_data.current_volume;
    6736:	4a26      	ldr	r2, [pc, #152]	; (67d0 <main+0x354>)
    6738:	8393      	strh	r3, [r2, #28]
				print_volumes(SIMULATION_CURRENT_VOLUME_STR);			
    673a:	200f      	movs	r0, #15
    673c:	4b3d      	ldr	r3, [pc, #244]	; (6834 <main+0x3b8>)
    673e:	4798      	blx	r3
			}			
	
			if (session_data.session_finished) {
    6740:	4b23      	ldr	r3, [pc, #140]	; (67d0 <main+0x354>)
    6742:	785b      	ldrb	r3, [r3, #1]
    6744:	2b00      	cmp	r3, #0
    6746:	d100      	bne.n	674a <main+0x2ce>
    6748:	e0ce      	b.n	68e8 <main+0x46c>
				session_data.simulation_mode = false;
    674a:	2200      	movs	r2, #0
    674c:	4b20      	ldr	r3, [pc, #128]	; (67d0 <main+0x354>)
    674e:	70da      	strb	r2, [r3, #3]
				delay_ms(2000);
    6750:	20fa      	movs	r0, #250	; 0xfa
    6752:	00c0      	lsls	r0, r0, #3
    6754:	4b29      	ldr	r3, [pc, #164]	; (67fc <main+0x380>)
    6756:	4798      	blx	r3
				stop_simulation();
    6758:	4b40      	ldr	r3, [pc, #256]	; (685c <main+0x3e0>)
    675a:	4798      	blx	r3
    675c:	e0c4      	b.n	68e8 <main+0x46c>
				session_data.trig_LED_on = true;
    675e:	2201      	movs	r2, #1
    6760:	4b1b      	ldr	r3, [pc, #108]	; (67d0 <main+0x354>)
    6762:	701a      	strb	r2, [r3, #0]
				printf("simulation switch trigger LED on\r\n");
    6764:	483e      	ldr	r0, [pc, #248]	; (6860 <main+0x3e4>)
    6766:	4b1c      	ldr	r3, [pc, #112]	; (67d8 <main+0x35c>)
    6768:	4798      	blx	r3
				io_write_clear_ack(simulation_trigger_LED_on,6);
    676a:	2106      	movs	r1, #6
    676c:	4838      	ldr	r0, [pc, #224]	; (6850 <main+0x3d4>)
    676e:	3030      	adds	r0, #48	; 0x30
    6770:	4b38      	ldr	r3, [pc, #224]	; (6854 <main+0x3d8>)
    6772:	4798      	blx	r3
				trig_LED_delay = TRIGGER_LED_DELAY;
    6774:	2250      	movs	r2, #80	; 0x50
    6776:	4b2d      	ldr	r3, [pc, #180]	; (682c <main+0x3b0>)
    6778:	811a      	strh	r2, [r3, #8]
    677a:	e7c5      	b.n	6708 <main+0x28c>
				session_data.trig_LED_on = false;
    677c:	2200      	movs	r2, #0
    677e:	4b14      	ldr	r3, [pc, #80]	; (67d0 <main+0x354>)
    6780:	701a      	strb	r2, [r3, #0]
				printf("simulation switch trigger LED off\r\n");
    6782:	4838      	ldr	r0, [pc, #224]	; (6864 <main+0x3e8>)
    6784:	4b14      	ldr	r3, [pc, #80]	; (67d8 <main+0x35c>)
    6786:	4798      	blx	r3
				io_write_clear_ack(simulation_trigger_LED_off,6);				
    6788:	2106      	movs	r1, #6
    678a:	4831      	ldr	r0, [pc, #196]	; (6850 <main+0x3d4>)
    678c:	3018      	adds	r0, #24
    678e:	4b31      	ldr	r3, [pc, #196]	; (6854 <main+0x3d8>)
    6790:	4798      	blx	r3
    6792:	e7c1      	b.n	6718 <main+0x29c>
    6794:	20000740 	.word	0x20000740
    6798:	00000115 	.word	0x00000115
    679c:	0000606d 	.word	0x0000606d
    67a0:	00006429 	.word	0x00006429
    67a4:	00007ac1 	.word	0x00007ac1
    67a8:	20000900 	.word	0x20000900
    67ac:	00001859 	.word	0x00001859
    67b0:	0000e438 	.word	0x0000e438
    67b4:	00009505 	.word	0x00009505
    67b8:	0000e450 	.word	0x0000e450
    67bc:	0000e46c 	.word	0x0000e46c
    67c0:	0000e488 	.word	0x0000e488
    67c4:	0000e4a4 	.word	0x0000e4a4
    67c8:	0000e4c0 	.word	0x0000e4c0
    67cc:	00005901 	.word	0x00005901
    67d0:	20000a3c 	.word	0x20000a3c
    67d4:	0000e4e4 	.word	0x0000e4e4
    67d8:	000095f9 	.word	0x000095f9
    67dc:	20000948 	.word	0x20000948
    67e0:	00001345 	.word	0x00001345
    67e4:	0000e4f4 	.word	0x0000e4f4
    67e8:	000053f9 	.word	0x000053f9
    67ec:	00001495 	.word	0x00001495
    67f0:	0000e514 	.word	0x0000e514
    67f4:	00005499 	.word	0x00005499
    67f8:	0000e530 	.word	0x0000e530
    67fc:	000013fd 	.word	0x000013fd
    6800:	0000e53c 	.word	0x0000e53c
    6804:	20000a64 	.word	0x20000a64
    6808:	0000e55c 	.word	0x0000e55c
    680c:	0000e570 	.word	0x0000e570
    6810:	0000e59c 	.word	0x0000e59c
    6814:	20000180 	.word	0x20000180
    6818:	0000e5c8 	.word	0x0000e5c8
    681c:	00006099 	.word	0x00006099
    6820:	0000e5ec 	.word	0x0000e5ec
    6824:	00006115 	.word	0x00006115
    6828:	000063c9 	.word	0x000063c9
    682c:	20000000 	.word	0x20000000
    6830:	00005f8d 	.word	0x00005f8d
    6834:	00005ffd 	.word	0x00005ffd
    6838:	000062b5 	.word	0x000062b5
    683c:	0000e600 	.word	0x0000e600
    6840:	0000941d 	.word	0x0000941d
    6844:	000003d6 	.word	0x000003d6
    6848:	20000182 	.word	0x20000182
    684c:	0000e610 	.word	0x0000e610
    6850:	0000ada8 	.word	0x0000ada8
    6854:	00005b59 	.word	0x00005b59
    6858:	0000e628 	.word	0x0000e628
    685c:	000061f5 	.word	0x000061f5
    6860:	0000e64c 	.word	0x0000e64c
    6864:	0000e670 	.word	0x0000e670
			if (session_data.session_running){
				printf("stop session by pushbutton\r\n");
				stop_session();
			}
			else{
				printf("start session by pushbutton\r\n");
    6868:	48c5      	ldr	r0, [pc, #788]	; (6b80 <main+0x704>)
    686a:	4bc6      	ldr	r3, [pc, #792]	; (6b84 <main+0x708>)
    686c:	4798      	blx	r3
				start_session();
    686e:	4bc6      	ldr	r3, [pc, #792]	; (6b88 <main+0x70c>)
    6870:	4798      	blx	r3
			}
		}
				
		if (event_report.report_valid){			
    6872:	4bc6      	ldr	r3, [pc, #792]	; (6b8c <main+0x710>)
    6874:	795b      	ldrb	r3, [r3, #5]
    6876:	2b00      	cmp	r3, #0
    6878:	d14f      	bne.n	691a <main+0x49e>
		if ((adc_value < 1500) || (adc_value > 2000)) {
    687a:	4bc5      	ldr	r3, [pc, #788]	; (6b90 <main+0x714>)
    687c:	8859      	ldrh	r1, [r3, #2]
    687e:	4bc5      	ldr	r3, [pc, #788]	; (6b94 <main+0x718>)
    6880:	18cb      	adds	r3, r1, r3
    6882:	b29b      	uxth	r3, r3
    6884:	22fa      	movs	r2, #250	; 0xfa
    6886:	0052      	lsls	r2, r2, #1
    6888:	4293      	cmp	r3, r2
    688a:	d900      	bls.n	688e <main+0x412>
    688c:	e66e      	b.n	656c <main+0xf0>
			ps_error_counter = 0;
    688e:	2100      	movs	r1, #0
    6890:	2340      	movs	r3, #64	; 0x40
    6892:	4abf      	ldr	r2, [pc, #764]	; (6b90 <main+0x714>)
    6894:	52d1      	strh	r1, [r2, r3]
		if (ps_error_counter > 3){
    6896:	2340      	movs	r3, #64	; 0x40
    6898:	4abd      	ldr	r2, [pc, #756]	; (6b90 <main+0x714>)
    689a:	5ad3      	ldrh	r3, [r2, r3]
    689c:	2b03      	cmp	r3, #3
    689e:	d900      	bls.n	68a2 <main+0x426>
    68a0:	e66e      	b.n	6580 <main+0x104>
		if (usb_disconnected > 100){
    68a2:	4bbd      	ldr	r3, [pc, #756]	; (6b98 <main+0x71c>)
    68a4:	881b      	ldrh	r3, [r3, #0]
    68a6:	2b64      	cmp	r3, #100	; 0x64
    68a8:	d900      	bls.n	68ac <main+0x430>
    68aa:	e66c      	b.n	6586 <main+0x10a>
		if (session_data.session_running) {		
    68ac:	4bbb      	ldr	r3, [pc, #748]	; (6b9c <main+0x720>)
    68ae:	789b      	ldrb	r3, [r3, #2]
    68b0:	2b00      	cmp	r3, #0
    68b2:	d100      	bne.n	68b6 <main+0x43a>
    68b4:	e677      	b.n	65a6 <main+0x12a>
			if (session_data.previous_slice != session_data.current_slice){
    68b6:	4bb9      	ldr	r3, [pc, #740]	; (6b9c <main+0x720>)
    68b8:	8bda      	ldrh	r2, [r3, #30]
    68ba:	8b5b      	ldrh	r3, [r3, #26]
    68bc:	429a      	cmp	r2, r3
    68be:	d004      	beq.n	68ca <main+0x44e>
				session_data.previous_slice = session_data.current_slice;					
    68c0:	4ab6      	ldr	r2, [pc, #728]	; (6b9c <main+0x720>)
    68c2:	83d3      	strh	r3, [r2, #30]
				print_slices(CURRENT_SLICE_STR);
    68c4:	2000      	movs	r0, #0
    68c6:	4bb6      	ldr	r3, [pc, #728]	; (6ba0 <main+0x724>)
    68c8:	4798      	blx	r3
			if (session_data.previous_volume != session_data.current_volume){
    68ca:	4bb4      	ldr	r3, [pc, #720]	; (6b9c <main+0x720>)
    68cc:	8b9a      	ldrh	r2, [r3, #28]
    68ce:	8b1b      	ldrh	r3, [r3, #24]
    68d0:	429a      	cmp	r2, r3
    68d2:	d004      	beq.n	68de <main+0x462>
				session_data.previous_volume = session_data.current_volume;				
    68d4:	4ab1      	ldr	r2, [pc, #708]	; (6b9c <main+0x720>)
    68d6:	8393      	strh	r3, [r2, #28]
				print_volumes(CURRENT_VOLUME_STR);			
    68d8:	2001      	movs	r0, #1
    68da:	4bb2      	ldr	r3, [pc, #712]	; (6ba4 <main+0x728>)
    68dc:	4798      	blx	r3
			if (session_data.session_finished) {
    68de:	4baf      	ldr	r3, [pc, #700]	; (6b9c <main+0x720>)
    68e0:	785b      	ldrb	r3, [r3, #1]
    68e2:	2b00      	cmp	r3, #0
    68e4:	d000      	beq.n	68e8 <main+0x46c>
    68e6:	e654      	b.n	6592 <main+0x116>
		if ((pb_received) && (!session_data.simulation_mode) && (!session_data.manual_trigger)){
    68e8:	4ba9      	ldr	r3, [pc, #676]	; (6b90 <main+0x714>)
    68ea:	781b      	ldrb	r3, [r3, #0]
    68ec:	2b00      	cmp	r3, #0
    68ee:	d0c0      	beq.n	6872 <main+0x3f6>
    68f0:	4baa      	ldr	r3, [pc, #680]	; (6b9c <main+0x720>)
    68f2:	78db      	ldrb	r3, [r3, #3]
    68f4:	2b00      	cmp	r3, #0
    68f6:	d1bc      	bne.n	6872 <main+0x3f6>
    68f8:	4ba8      	ldr	r3, [pc, #672]	; (6b9c <main+0x720>)
    68fa:	791b      	ldrb	r3, [r3, #4]
    68fc:	2b00      	cmp	r3, #0
    68fe:	d1b8      	bne.n	6872 <main+0x3f6>
			pb_received = false;
    6900:	2200      	movs	r2, #0
    6902:	4ba3      	ldr	r3, [pc, #652]	; (6b90 <main+0x714>)
    6904:	701a      	strb	r2, [r3, #0]
			if (session_data.session_running){
    6906:	4ba5      	ldr	r3, [pc, #660]	; (6b9c <main+0x720>)
    6908:	789b      	ldrb	r3, [r3, #2]
    690a:	2b00      	cmp	r3, #0
    690c:	d0ac      	beq.n	6868 <main+0x3ec>
				printf("stop session by pushbutton\r\n");
    690e:	48a6      	ldr	r0, [pc, #664]	; (6ba8 <main+0x72c>)
    6910:	4b9c      	ldr	r3, [pc, #624]	; (6b84 <main+0x708>)
    6912:	4798      	blx	r3
				stop_session();
    6914:	4ba5      	ldr	r3, [pc, #660]	; (6bac <main+0x730>)
    6916:	4798      	blx	r3
    6918:	e7ab      	b.n	6872 <main+0x3f6>
			event_report.report_valid=false;
    691a:	4b9c      	ldr	r3, [pc, #624]	; (6b8c <main+0x710>)
    691c:	2200      	movs	r2, #0
    691e:	715a      	strb	r2, [r3, #5]
	
			switch (event_report.object_id) {
    6920:	781b      	ldrb	r3, [r3, #0]
    6922:	2b0d      	cmp	r3, #13
    6924:	d100      	bne.n	6928 <main+0x4ac>
    6926:	e36b      	b.n	7000 <main+0xb84>
    6928:	2b1e      	cmp	r3, #30
    692a:	d100      	bne.n	692e <main+0x4b2>
    692c:	e2c3      	b.n	6eb6 <main+0xa3a>
    692e:	2b06      	cmp	r3, #6
    6930:	d006      	beq.n	6940 <main+0x4c4>
				break;
				default:
				;					
			}
			
			printf("Event received from %u, index: %u\r\n", event_report.object_id, event_report.object_index);
    6932:	4b96      	ldr	r3, [pc, #600]	; (6b8c <main+0x710>)
    6934:	7819      	ldrb	r1, [r3, #0]
    6936:	785a      	ldrb	r2, [r3, #1]
    6938:	489d      	ldr	r0, [pc, #628]	; (6bb0 <main+0x734>)
    693a:	4b9e      	ldr	r3, [pc, #632]	; (6bb4 <main+0x738>)
    693c:	4798      	blx	r3
    693e:	e79c      	b.n	687a <main+0x3fe>
					printf("\r\nwinbutton pressed, index: %u\r\n", event_report.object_index);
    6940:	4c92      	ldr	r4, [pc, #584]	; (6b8c <main+0x710>)
    6942:	7861      	ldrb	r1, [r4, #1]
    6944:	489c      	ldr	r0, [pc, #624]	; (6bb8 <main+0x73c>)
    6946:	4b9b      	ldr	r3, [pc, #620]	; (6bb4 <main+0x738>)
    6948:	4798      	blx	r3
					if ((event_report.object_index < STOP_SIMULATION) && (event_report.object_index > MAN_TRIG_BACK)){ //avoid doubleclick with 'Both' action buttons
    694a:	7863      	ldrb	r3, [r4, #1]
    694c:	1f1a      	subs	r2, r3, #4
    694e:	b2d2      	uxtb	r2, r2
    6950:	2a08      	cmp	r2, #8
    6952:	d808      	bhi.n	6966 <main+0x4ea>
						if (event_report.value_lsb == 1){
    6954:	4a8d      	ldr	r2, [pc, #564]	; (6b8c <main+0x710>)
    6956:	78d2      	ldrb	r2, [r2, #3]
    6958:	2a01      	cmp	r2, #1
    695a:	d108      	bne.n	696e <main+0x4f2>
							click_length = CLICK_SOUND_LENGTH;
    695c:	21bc      	movs	r1, #188	; 0xbc
    695e:	0049      	lsls	r1, r1, #1
    6960:	4a8b      	ldr	r2, [pc, #556]	; (6b90 <main+0x714>)
    6962:	8111      	strh	r1, [r2, #8]
    6964:	e003      	b.n	696e <main+0x4f2>
						click_length = CLICK_SOUND_LENGTH;
    6966:	21bc      	movs	r1, #188	; 0xbc
    6968:	0049      	lsls	r1, r1, #1
    696a:	4a89      	ldr	r2, [pc, #548]	; (6b90 <main+0x714>)
    696c:	8111      	strh	r1, [r2, #8]
					switch (event_report.object_index) {
    696e:	2b21      	cmp	r3, #33	; 0x21
    6970:	d8df      	bhi.n	6932 <main+0x4b6>
    6972:	009b      	lsls	r3, r3, #2
    6974:	4a91      	ldr	r2, [pc, #580]	; (6bbc <main+0x740>)
    6976:	58d3      	ldr	r3, [r2, r3]
    6978:	469f      	mov	pc, r3
							start_session();
    697a:	4b83      	ldr	r3, [pc, #524]	; (6b88 <main+0x70c>)
    697c:	4798      	blx	r3
						break;
    697e:	e7d8      	b.n	6932 <main+0x4b6>
							switch_to_form(MENU_FORM);
    6980:	2007      	movs	r0, #7
    6982:	4b8f      	ldr	r3, [pc, #572]	; (6bc0 <main+0x744>)
    6984:	4798      	blx	r3
							printf("switching to form 7\r\n");
    6986:	488f      	ldr	r0, [pc, #572]	; (6bc4 <main+0x748>)
    6988:	4b7e      	ldr	r3, [pc, #504]	; (6b84 <main+0x708>)
    698a:	4798      	blx	r3
						break;
    698c:	e7d1      	b.n	6932 <main+0x4b6>
							stop_session();
    698e:	4b87      	ldr	r3, [pc, #540]	; (6bac <main+0x730>)
    6990:	4798      	blx	r3
						break;
    6992:	e7ce      	b.n	6932 <main+0x4b6>
							if (event_report.value_lsb == ON){
    6994:	4b7d      	ldr	r3, [pc, #500]	; (6b8c <main+0x710>)
    6996:	78db      	ldrb	r3, [r3, #3]
    6998:	2b01      	cmp	r3, #1
    699a:	d006      	beq.n	69aa <main+0x52e>
								session_data.simulated_A = false;
    699c:	2200      	movs	r2, #0
    699e:	4b7f      	ldr	r3, [pc, #508]	; (6b9c <main+0x720>)
    69a0:	719a      	strb	r2, [r3, #6]
							printf("simulated A\r\n");
    69a2:	4889      	ldr	r0, [pc, #548]	; (6bc8 <main+0x74c>)
    69a4:	4b77      	ldr	r3, [pc, #476]	; (6b84 <main+0x708>)
    69a6:	4798      	blx	r3
						break;
    69a8:	e7c3      	b.n	6932 <main+0x4b6>
								session_data.simulated_A = true;
    69aa:	2201      	movs	r2, #1
    69ac:	4b7b      	ldr	r3, [pc, #492]	; (6b9c <main+0x720>)
    69ae:	719a      	strb	r2, [r3, #6]
								delay_ms(10);
    69b0:	200a      	movs	r0, #10
    69b2:	4b86      	ldr	r3, [pc, #536]	; (6bcc <main+0x750>)
    69b4:	4798      	blx	r3
    69b6:	e7f4      	b.n	69a2 <main+0x526>
							if (event_report.value_lsb == ON){
    69b8:	4b74      	ldr	r3, [pc, #464]	; (6b8c <main+0x710>)
    69ba:	78db      	ldrb	r3, [r3, #3]
    69bc:	2b01      	cmp	r3, #1
    69be:	d006      	beq.n	69ce <main+0x552>
								session_data.simulated_B = false;
    69c0:	2200      	movs	r2, #0
    69c2:	4b76      	ldr	r3, [pc, #472]	; (6b9c <main+0x720>)
    69c4:	71da      	strb	r2, [r3, #7]
							printf("simulated B\r\n");
    69c6:	4882      	ldr	r0, [pc, #520]	; (6bd0 <main+0x754>)
    69c8:	4b6e      	ldr	r3, [pc, #440]	; (6b84 <main+0x708>)
    69ca:	4798      	blx	r3
						break;
    69cc:	e7b1      	b.n	6932 <main+0x4b6>
								session_data.simulated_B = true;
    69ce:	2201      	movs	r2, #1
    69d0:	4b72      	ldr	r3, [pc, #456]	; (6b9c <main+0x720>)
    69d2:	71da      	strb	r2, [r3, #7]
								delay_ms(10);
    69d4:	200a      	movs	r0, #10
    69d6:	4b7d      	ldr	r3, [pc, #500]	; (6bcc <main+0x750>)
    69d8:	4798      	blx	r3
    69da:	e7f4      	b.n	69c6 <main+0x54a>
							if (event_report.value_lsb == ON){
    69dc:	4b6b      	ldr	r3, [pc, #428]	; (6b8c <main+0x710>)
    69de:	78db      	ldrb	r3, [r3, #3]
    69e0:	2b01      	cmp	r3, #1
    69e2:	d006      	beq.n	69f2 <main+0x576>
								session_data.simulated_C = false;
    69e4:	2200      	movs	r2, #0
    69e6:	4b6d      	ldr	r3, [pc, #436]	; (6b9c <main+0x720>)
    69e8:	721a      	strb	r2, [r3, #8]
							printf("simulated C\r\n");
    69ea:	487a      	ldr	r0, [pc, #488]	; (6bd4 <main+0x758>)
    69ec:	4b65      	ldr	r3, [pc, #404]	; (6b84 <main+0x708>)
    69ee:	4798      	blx	r3
						break;
    69f0:	e79f      	b.n	6932 <main+0x4b6>
								session_data.simulated_C = true;
    69f2:	2201      	movs	r2, #1
    69f4:	4b69      	ldr	r3, [pc, #420]	; (6b9c <main+0x720>)
    69f6:	721a      	strb	r2, [r3, #8]
								delay_ms(10);
    69f8:	200a      	movs	r0, #10
    69fa:	4b74      	ldr	r3, [pc, #464]	; (6bcc <main+0x750>)
    69fc:	4798      	blx	r3
    69fe:	e7f4      	b.n	69ea <main+0x56e>
							if (event_report.value_lsb == ON){
    6a00:	4b62      	ldr	r3, [pc, #392]	; (6b8c <main+0x710>)
    6a02:	78db      	ldrb	r3, [r3, #3]
    6a04:	2b01      	cmp	r3, #1
    6a06:	d006      	beq.n	6a16 <main+0x59a>
								session_data.simulated_D = false;
    6a08:	2200      	movs	r2, #0
    6a0a:	4b64      	ldr	r3, [pc, #400]	; (6b9c <main+0x720>)
    6a0c:	725a      	strb	r2, [r3, #9]
							printf("simulated D\r\n");
    6a0e:	4872      	ldr	r0, [pc, #456]	; (6bd8 <main+0x75c>)
    6a10:	4b5c      	ldr	r3, [pc, #368]	; (6b84 <main+0x708>)
    6a12:	4798      	blx	r3
						break;
    6a14:	e78d      	b.n	6932 <main+0x4b6>
								session_data.simulated_D = true;
    6a16:	2201      	movs	r2, #1
    6a18:	4b60      	ldr	r3, [pc, #384]	; (6b9c <main+0x720>)
    6a1a:	725a      	strb	r2, [r3, #9]
								delay_ms(10);
    6a1c:	200a      	movs	r0, #10
    6a1e:	4b6b      	ldr	r3, [pc, #428]	; (6bcc <main+0x750>)
    6a20:	4798      	blx	r3
    6a22:	e7f4      	b.n	6a0e <main+0x592>
							if ((event_report.value_lsb == ON) && (!session_data.simulation_mode) && (!session_data.session_running) && (session_data.manual_trigger) && (!trigger_debounce)){
    6a24:	4b59      	ldr	r3, [pc, #356]	; (6b8c <main+0x710>)
    6a26:	78db      	ldrb	r3, [r3, #3]
    6a28:	2b01      	cmp	r3, #1
    6a2a:	d182      	bne.n	6932 <main+0x4b6>
    6a2c:	4b5b      	ldr	r3, [pc, #364]	; (6b9c <main+0x720>)
    6a2e:	78db      	ldrb	r3, [r3, #3]
    6a30:	2b00      	cmp	r3, #0
    6a32:	d000      	beq.n	6a36 <main+0x5ba>
    6a34:	e77d      	b.n	6932 <main+0x4b6>
    6a36:	4b59      	ldr	r3, [pc, #356]	; (6b9c <main+0x720>)
    6a38:	789b      	ldrb	r3, [r3, #2]
    6a3a:	2b00      	cmp	r3, #0
    6a3c:	d000      	beq.n	6a40 <main+0x5c4>
    6a3e:	e778      	b.n	6932 <main+0x4b6>
    6a40:	4b56      	ldr	r3, [pc, #344]	; (6b9c <main+0x720>)
    6a42:	791b      	ldrb	r3, [r3, #4]
    6a44:	2b00      	cmp	r3, #0
    6a46:	d100      	bne.n	6a4a <main+0x5ce>
    6a48:	e773      	b.n	6932 <main+0x4b6>
    6a4a:	4b64      	ldr	r3, [pc, #400]	; (6bdc <main+0x760>)
    6a4c:	881b      	ldrh	r3, [r3, #0]
    6a4e:	2b00      	cmp	r3, #0
    6a50:	d000      	beq.n	6a54 <main+0x5d8>
    6a52:	e76e      	b.n	6932 <main+0x4b6>
								trigger_debounce = TRIGGER_DEBOUNCE_TIME;
    6a54:	2232      	movs	r2, #50	; 0x32
    6a56:	4b61      	ldr	r3, [pc, #388]	; (6bdc <main+0x760>)
    6a58:	801a      	strh	r2, [r3, #0]
								printf("simulated S\r\n");
    6a5a:	4861      	ldr	r0, [pc, #388]	; (6be0 <main+0x764>)
    6a5c:	4b49      	ldr	r3, [pc, #292]	; (6b84 <main+0x708>)
    6a5e:	4798      	blx	r3
								session_data.current_slice += 1;
    6a60:	4a4e      	ldr	r2, [pc, #312]	; (6b9c <main+0x720>)
    6a62:	8b53      	ldrh	r3, [r2, #26]
    6a64:	3301      	adds	r3, #1
    6a66:	b29b      	uxth	r3, r3
    6a68:	8353      	strh	r3, [r2, #26]
								if (((session_data.current_slice >= session_data.no_of_slices) && (session_data.current_volume == session_data.no_of_volumes)) ||
    6a6a:	8a52      	ldrh	r2, [r2, #18]
    6a6c:	4293      	cmp	r3, r2
    6a6e:	d304      	bcc.n	6a7a <main+0x5fe>
    6a70:	494a      	ldr	r1, [pc, #296]	; (6b9c <main+0x720>)
    6a72:	8b08      	ldrh	r0, [r1, #24]
    6a74:	8a09      	ldrh	r1, [r1, #16]
    6a76:	4288      	cmp	r0, r1
    6a78:	d004      	beq.n	6a84 <main+0x608>
								(session_data.current_volume > session_data.no_of_volumes)){
    6a7a:	4948      	ldr	r1, [pc, #288]	; (6b9c <main+0x720>)
    6a7c:	8b08      	ldrh	r0, [r1, #24]
    6a7e:	8a09      	ldrh	r1, [r1, #16]
								if (((session_data.current_slice >= session_data.no_of_slices) && (session_data.current_volume == session_data.no_of_volumes)) ||
    6a80:	4288      	cmp	r0, r1
    6a82:	d902      	bls.n	6a8a <main+0x60e>
									session_data.session_finished = true;
    6a84:	2001      	movs	r0, #1
    6a86:	4945      	ldr	r1, [pc, #276]	; (6b9c <main+0x720>)
    6a88:	7048      	strb	r0, [r1, #1]
								if ((session_data.current_slice > session_data.no_of_slices) && (!session_data.session_finished)){
    6a8a:	4293      	cmp	r3, r2
    6a8c:	d909      	bls.n	6aa2 <main+0x626>
    6a8e:	4b43      	ldr	r3, [pc, #268]	; (6b9c <main+0x720>)
    6a90:	785b      	ldrb	r3, [r3, #1]
    6a92:	2b00      	cmp	r3, #0
    6a94:	d105      	bne.n	6aa2 <main+0x626>
									session_data.current_volume += 1;
    6a96:	4b41      	ldr	r3, [pc, #260]	; (6b9c <main+0x720>)
    6a98:	8b1a      	ldrh	r2, [r3, #24]
    6a9a:	3201      	adds	r2, #1
    6a9c:	831a      	strh	r2, [r3, #24]
									session_data.current_slice = 1;
    6a9e:	2201      	movs	r2, #1
    6aa0:	835a      	strh	r2, [r3, #26]
								uint16_t divider = session_data.trig_on_volume;
    6aa2:	4b3e      	ldr	r3, [pc, #248]	; (6b9c <main+0x720>)
    6aa4:	8a9b      	ldrh	r3, [r3, #20]
								if (divider == 0) {
    6aa6:	2b00      	cmp	r3, #0
    6aa8:	d02f      	beq.n	6b0a <main+0x68e>
								uint16_t divider = session_data.trig_on_volume;
    6aaa:	0019      	movs	r1, r3
								if ((session_data.trig_on_volume == 0) || (((session_data.current_volume - 1) % divider) == 0)){
    6aac:	2b00      	cmp	r3, #0
    6aae:	d007      	beq.n	6ac0 <main+0x644>
    6ab0:	4b3a      	ldr	r3, [pc, #232]	; (6b9c <main+0x720>)
    6ab2:	8b18      	ldrh	r0, [r3, #24]
    6ab4:	3801      	subs	r0, #1
    6ab6:	4b4b      	ldr	r3, [pc, #300]	; (6be4 <main+0x768>)
    6ab8:	4798      	blx	r3
    6aba:	2900      	cmp	r1, #0
    6abc:	d000      	beq.n	6ac0 <main+0x644>
    6abe:	e738      	b.n	6932 <main+0x4b6>
									if ((session_data.trig_on_slice == 0) || (session_data.trig_on_slice == session_data.current_slice)){
    6ac0:	4b36      	ldr	r3, [pc, #216]	; (6b9c <main+0x720>)
    6ac2:	8adb      	ldrh	r3, [r3, #22]
    6ac4:	2b00      	cmp	r3, #0
    6ac6:	d004      	beq.n	6ad2 <main+0x656>
    6ac8:	4a34      	ldr	r2, [pc, #208]	; (6b9c <main+0x720>)
    6aca:	8b52      	ldrh	r2, [r2, #26]
    6acc:	4293      	cmp	r3, r2
    6ace:	d000      	beq.n	6ad2 <main+0x656>
    6ad0:	e72f      	b.n	6932 <main+0x4b6>
										session_data.trigger = true;										
    6ad2:	4c32      	ldr	r4, [pc, #200]	; (6b9c <main+0x720>)
    6ad4:	2301      	movs	r3, #1
    6ad6:	7163      	strb	r3, [r4, #5]
										printf("start sync sound\r\n");
    6ad8:	4843      	ldr	r0, [pc, #268]	; (6be8 <main+0x76c>)
    6ada:	4b2a      	ldr	r3, [pc, #168]	; (6b84 <main+0x708>)
    6adc:	4798      	blx	r3
										sync_beep_length = SYNC_BEEP_LENGTH;
    6ade:	4a43      	ldr	r2, [pc, #268]	; (6bec <main+0x770>)
    6ae0:	4b43      	ldr	r3, [pc, #268]	; (6bf0 <main+0x774>)
    6ae2:	801a      	strh	r2, [r3, #0]
										if (!session_data.trig_LED_on){
    6ae4:	7823      	ldrb	r3, [r4, #0]
    6ae6:	2b00      	cmp	r3, #0
    6ae8:	d000      	beq.n	6aec <main+0x670>
    6aea:	e722      	b.n	6932 <main+0x4b6>
											session_data.trig_LED_on = true;
    6aec:	2201      	movs	r2, #1
    6aee:	4b2b      	ldr	r3, [pc, #172]	; (6b9c <main+0x720>)
    6af0:	701a      	strb	r2, [r3, #0]
											printf("switch trigger LED on\r\n");
    6af2:	4840      	ldr	r0, [pc, #256]	; (6bf4 <main+0x778>)
    6af4:	4b23      	ldr	r3, [pc, #140]	; (6b84 <main+0x708>)
    6af6:	4798      	blx	r3
											io_write_clear_ack(man_trig_trigger_LED_on,6);
    6af8:	2106      	movs	r1, #6
    6afa:	483f      	ldr	r0, [pc, #252]	; (6bf8 <main+0x77c>)
    6afc:	3028      	adds	r0, #40	; 0x28
    6afe:	4b3f      	ldr	r3, [pc, #252]	; (6bfc <main+0x780>)
    6b00:	4798      	blx	r3
											trig_LED_delay = TRIGGER_LED_DELAY;
    6b02:	2250      	movs	r2, #80	; 0x50
    6b04:	4b35      	ldr	r3, [pc, #212]	; (6bdc <main+0x760>)
    6b06:	811a      	strh	r2, [r3, #8]
    6b08:	e713      	b.n	6932 <main+0x4b6>
									divider = 1;
    6b0a:	2101      	movs	r1, #1
    6b0c:	e7ce      	b.n	6aac <main+0x630>
							stop_man_trig();						
    6b0e:	4b3c      	ldr	r3, [pc, #240]	; (6c00 <main+0x784>)
    6b10:	4798      	blx	r3
						break;
    6b12:	e70e      	b.n	6932 <main+0x4b6>
							if (event_report.value_lsb == ON){
    6b14:	4b1d      	ldr	r3, [pc, #116]	; (6b8c <main+0x710>)
    6b16:	78db      	ldrb	r3, [r3, #3]
    6b18:	2b01      	cmp	r3, #1
    6b1a:	d006      	beq.n	6b2a <main+0x6ae>
								session_data.simulated_A = false;
    6b1c:	2200      	movs	r2, #0
    6b1e:	4b1f      	ldr	r3, [pc, #124]	; (6b9c <main+0x720>)
    6b20:	719a      	strb	r2, [r3, #6]
							printf("simulated A\r\n");
    6b22:	4829      	ldr	r0, [pc, #164]	; (6bc8 <main+0x74c>)
    6b24:	4b17      	ldr	r3, [pc, #92]	; (6b84 <main+0x708>)
    6b26:	4798      	blx	r3
						break;
    6b28:	e703      	b.n	6932 <main+0x4b6>
								session_data.simulated_A = true;
    6b2a:	2201      	movs	r2, #1
    6b2c:	4b1b      	ldr	r3, [pc, #108]	; (6b9c <main+0x720>)
    6b2e:	719a      	strb	r2, [r3, #6]
								delay_ms(10);
    6b30:	200a      	movs	r0, #10
    6b32:	4b26      	ldr	r3, [pc, #152]	; (6bcc <main+0x750>)
    6b34:	4798      	blx	r3
    6b36:	e7f4      	b.n	6b22 <main+0x6a6>
							if (event_report.value_lsb == ON){
    6b38:	4b14      	ldr	r3, [pc, #80]	; (6b8c <main+0x710>)
    6b3a:	78db      	ldrb	r3, [r3, #3]
    6b3c:	2b01      	cmp	r3, #1
    6b3e:	d006      	beq.n	6b4e <main+0x6d2>
								session_data.simulated_B = false;
    6b40:	2200      	movs	r2, #0
    6b42:	4b16      	ldr	r3, [pc, #88]	; (6b9c <main+0x720>)
    6b44:	71da      	strb	r2, [r3, #7]
							printf("simulated B\r\n");
    6b46:	4822      	ldr	r0, [pc, #136]	; (6bd0 <main+0x754>)
    6b48:	4b0e      	ldr	r3, [pc, #56]	; (6b84 <main+0x708>)
    6b4a:	4798      	blx	r3
						break;
    6b4c:	e6f1      	b.n	6932 <main+0x4b6>
								session_data.simulated_B = true;
    6b4e:	2201      	movs	r2, #1
    6b50:	4b12      	ldr	r3, [pc, #72]	; (6b9c <main+0x720>)
    6b52:	71da      	strb	r2, [r3, #7]
								delay_ms(10);
    6b54:	200a      	movs	r0, #10
    6b56:	4b1d      	ldr	r3, [pc, #116]	; (6bcc <main+0x750>)
    6b58:	4798      	blx	r3
    6b5a:	e7f4      	b.n	6b46 <main+0x6ca>
							if (event_report.value_lsb == ON){
    6b5c:	4b0b      	ldr	r3, [pc, #44]	; (6b8c <main+0x710>)
    6b5e:	78db      	ldrb	r3, [r3, #3]
    6b60:	2b01      	cmp	r3, #1
    6b62:	d006      	beq.n	6b72 <main+0x6f6>
								session_data.simulated_C = false;
    6b64:	2200      	movs	r2, #0
    6b66:	4b0d      	ldr	r3, [pc, #52]	; (6b9c <main+0x720>)
    6b68:	721a      	strb	r2, [r3, #8]
							printf("simulated C\r\n");
    6b6a:	481a      	ldr	r0, [pc, #104]	; (6bd4 <main+0x758>)
    6b6c:	4b05      	ldr	r3, [pc, #20]	; (6b84 <main+0x708>)
    6b6e:	4798      	blx	r3
						break;
    6b70:	e6df      	b.n	6932 <main+0x4b6>
								session_data.simulated_C = true;
    6b72:	2201      	movs	r2, #1
    6b74:	4b09      	ldr	r3, [pc, #36]	; (6b9c <main+0x720>)
    6b76:	721a      	strb	r2, [r3, #8]
								delay_ms(10);
    6b78:	200a      	movs	r0, #10
    6b7a:	4b14      	ldr	r3, [pc, #80]	; (6bcc <main+0x750>)
    6b7c:	4798      	blx	r3
    6b7e:	e7f4      	b.n	6b6a <main+0x6ee>
    6b80:	0000e6b0 	.word	0x0000e6b0
    6b84:	000095f9 	.word	0x000095f9
    6b88:	00006301 	.word	0x00006301
    6b8c:	20000a34 	.word	0x20000a34
    6b90:	20000740 	.word	0x20000740
    6b94:	fffffa24 	.word	0xfffffa24
    6b98:	20000180 	.word	0x20000180
    6b9c:	20000a3c 	.word	0x20000a3c
    6ba0:	00005f8d 	.word	0x00005f8d
    6ba4:	00005ffd 	.word	0x00005ffd
    6ba8:	0000e694 	.word	0x0000e694
    6bac:	000063c9 	.word	0x000063c9
    6bb0:	0000eaf4 	.word	0x0000eaf4
    6bb4:	00009505 	.word	0x00009505
    6bb8:	0000e6d0 	.word	0x0000e6d0
    6bbc:	0000acf0 	.word	0x0000acf0
    6bc0:	00005ce5 	.word	0x00005ce5
    6bc4:	0000e6f4 	.word	0x0000e6f4
    6bc8:	0000e70c 	.word	0x0000e70c
    6bcc:	000013fd 	.word	0x000013fd
    6bd0:	0000e71c 	.word	0x0000e71c
    6bd4:	0000e72c 	.word	0x0000e72c
    6bd8:	0000e73c 	.word	0x0000e73c
    6bdc:	20000000 	.word	0x20000000
    6be0:	0000e600 	.word	0x0000e600
    6be4:	0000941d 	.word	0x0000941d
    6be8:	0000e74c 	.word	0x0000e74c
    6bec:	000003d6 	.word	0x000003d6
    6bf0:	20000182 	.word	0x20000182
    6bf4:	0000e610 	.word	0x0000e610
    6bf8:	0000ada8 	.word	0x0000ada8
    6bfc:	00005b59 	.word	0x00005b59
    6c00:	000062b5 	.word	0x000062b5
							if (event_report.value_lsb == ON){
    6c04:	4bd3      	ldr	r3, [pc, #844]	; (6f54 <main+0xad8>)
    6c06:	78db      	ldrb	r3, [r3, #3]
    6c08:	2b01      	cmp	r3, #1
    6c0a:	d006      	beq.n	6c1a <main+0x79e>
								session_data.simulated_D = false;
    6c0c:	2200      	movs	r2, #0
    6c0e:	4bd2      	ldr	r3, [pc, #840]	; (6f58 <main+0xadc>)
    6c10:	725a      	strb	r2, [r3, #9]
							printf("simulated D\r\n");
    6c12:	48d2      	ldr	r0, [pc, #840]	; (6f5c <main+0xae0>)
    6c14:	4bd2      	ldr	r3, [pc, #840]	; (6f60 <main+0xae4>)
    6c16:	4798      	blx	r3
						break;
    6c18:	e68b      	b.n	6932 <main+0x4b6>
								session_data.simulated_D = true;
    6c1a:	2201      	movs	r2, #1
    6c1c:	4bce      	ldr	r3, [pc, #824]	; (6f58 <main+0xadc>)
    6c1e:	725a      	strb	r2, [r3, #9]
								delay_ms(10);
    6c20:	200a      	movs	r0, #10
    6c22:	4bd0      	ldr	r3, [pc, #832]	; (6f64 <main+0xae8>)
    6c24:	4798      	blx	r3
    6c26:	e7f4      	b.n	6c12 <main+0x796>
							stop_simulation();												
    6c28:	4bcf      	ldr	r3, [pc, #828]	; (6f68 <main+0xaec>)
    6c2a:	4798      	blx	r3
						break;
    6c2c:	e681      	b.n	6932 <main+0x4b6>
							session_temp.parameter = SLICE_TRIGGERNO_BTN;
    6c2e:	4ccf      	ldr	r4, [pc, #828]	; (6f6c <main+0xaf0>)
    6c30:	230e      	movs	r3, #14
    6c32:	7423      	strb	r3, [r4, #16]
							switch_to_form(KEYBOARD_FORM);
    6c34:	2006      	movs	r0, #6
    6c36:	4bce      	ldr	r3, [pc, #824]	; (6f70 <main+0xaf4>)
    6c38:	4798      	blx	r3
							kb_value = session_temp.trig_on_slice;
    6c3a:	88e3      	ldrh	r3, [r4, #6]
    6c3c:	4ccd      	ldr	r4, [pc, #820]	; (6f74 <main+0xaf8>)
    6c3e:	6463      	str	r3, [r4, #68]	; 0x44
							minvalue = 0;
    6c40:	2300      	movs	r3, #0
    6c42:	64a3      	str	r3, [r4, #72]	; 0x48
							maxvalue = 999;
    6c44:	4bcc      	ldr	r3, [pc, #816]	; (6f78 <main+0xafc>)
    6c46:	64e3      	str	r3, [r4, #76]	; 0x4c
							io_write_clear_ack(set_trigg_slice_txt,6);
    6c48:	2106      	movs	r1, #6
    6c4a:	48cc      	ldr	r0, [pc, #816]	; (6f7c <main+0xb00>)
    6c4c:	3038      	adds	r0, #56	; 0x38
    6c4e:	4bcc      	ldr	r3, [pc, #816]	; (6f80 <main+0xb04>)
    6c50:	4798      	blx	r3
							print_no(kb_value, 11);
    6c52:	6c60      	ldr	r0, [r4, #68]	; 0x44
    6c54:	210b      	movs	r1, #11
    6c56:	4bcb      	ldr	r3, [pc, #812]	; (6f84 <main+0xb08>)
    6c58:	4798      	blx	r3
							printf("set slice trigg no, switch to form 6\r\n");
    6c5a:	48cb      	ldr	r0, [pc, #812]	; (6f88 <main+0xb0c>)
    6c5c:	4bc0      	ldr	r3, [pc, #768]	; (6f60 <main+0xae4>)
    6c5e:	4798      	blx	r3
						break;
    6c60:	e667      	b.n	6932 <main+0x4b6>
							session_temp.parameter = VOLUME_TRIGGERNO_BTN;
    6c62:	4cc2      	ldr	r4, [pc, #776]	; (6f6c <main+0xaf0>)
    6c64:	2312      	movs	r3, #18
    6c66:	7423      	strb	r3, [r4, #16]
							switch_to_form(KEYBOARD_FORM);
    6c68:	2006      	movs	r0, #6
    6c6a:	4bc1      	ldr	r3, [pc, #772]	; (6f70 <main+0xaf4>)
    6c6c:	4798      	blx	r3
							kb_value = session_temp.trig_on_volume;
    6c6e:	88a3      	ldrh	r3, [r4, #4]
    6c70:	4cc0      	ldr	r4, [pc, #768]	; (6f74 <main+0xaf8>)
    6c72:	6463      	str	r3, [r4, #68]	; 0x44
							minvalue = 0;
    6c74:	2300      	movs	r3, #0
    6c76:	64a3      	str	r3, [r4, #72]	; 0x48
							maxvalue = 9999;
    6c78:	4bc4      	ldr	r3, [pc, #784]	; (6f8c <main+0xb10>)
    6c7a:	64e3      	str	r3, [r4, #76]	; 0x4c
							io_write_clear_ack(set_trigg_volume_txt,6);
    6c7c:	2106      	movs	r1, #6
    6c7e:	48bf      	ldr	r0, [pc, #764]	; (6f7c <main+0xb00>)
    6c80:	3040      	adds	r0, #64	; 0x40
    6c82:	4bbf      	ldr	r3, [pc, #764]	; (6f80 <main+0xb04>)
    6c84:	4798      	blx	r3
							print_no(kb_value, 11);
    6c86:	6c60      	ldr	r0, [r4, #68]	; 0x44
    6c88:	210b      	movs	r1, #11
    6c8a:	4bbe      	ldr	r3, [pc, #760]	; (6f84 <main+0xb08>)
    6c8c:	4798      	blx	r3
							printf("set volume trigg no, switch to form 6\r\n");
    6c8e:	48c0      	ldr	r0, [pc, #768]	; (6f90 <main+0xb14>)
    6c90:	4bb3      	ldr	r3, [pc, #716]	; (6f60 <main+0xae4>)
    6c92:	4798      	blx	r3
						break;
    6c94:	e64d      	b.n	6932 <main+0x4b6>
							switch_to_form(SETTINGS_2_FORM);
    6c96:	2005      	movs	r0, #5
    6c98:	4bb5      	ldr	r3, [pc, #724]	; (6f70 <main+0xaf4>)
    6c9a:	4798      	blx	r3
							printf("form4 more, switch to form 5\r\n");
    6c9c:	48bd      	ldr	r0, [pc, #756]	; (6f94 <main+0xb18>)
    6c9e:	4bb0      	ldr	r3, [pc, #704]	; (6f60 <main+0xae4>)
    6ca0:	4798      	blx	r3
						break;
    6ca2:	e646      	b.n	6932 <main+0x4b6>
							switch_to_form(MENU_FORM);
    6ca4:	2007      	movs	r0, #7
    6ca6:	4bb2      	ldr	r3, [pc, #712]	; (6f70 <main+0xaf4>)
    6ca8:	4798      	blx	r3
							session_data.no_of_slices = session_temp.no_of_slices;
    6caa:	4ab0      	ldr	r2, [pc, #704]	; (6f6c <main+0xaf0>)
    6cac:	8851      	ldrh	r1, [r2, #2]
    6cae:	4baa      	ldr	r3, [pc, #680]	; (6f58 <main+0xadc>)
    6cb0:	8259      	strh	r1, [r3, #18]
							session_data.no_of_volumes = session_temp.no_of_volumes;
    6cb2:	8811      	ldrh	r1, [r2, #0]
    6cb4:	8219      	strh	r1, [r3, #16]
							session_data.trig_on_slice = session_temp.trig_on_slice;
    6cb6:	88d1      	ldrh	r1, [r2, #6]
    6cb8:	82d9      	strh	r1, [r3, #22]
							session_data.trig_on_volume = session_temp.trig_on_volume;
    6cba:	8891      	ldrh	r1, [r2, #4]
    6cbc:	8299      	strh	r1, [r3, #20]
							session_data.pulse_length = session_temp.pulse_length;
    6cbe:	8911      	ldrh	r1, [r2, #8]
    6cc0:	8419      	strh	r1, [r3, #32]
							session_data.TR_time = session_temp.TR_time;
    6cc2:	68d2      	ldr	r2, [r2, #12]
    6cc4:	625a      	str	r2, [r3, #36]	; 0x24
							printf("form4 accept, switch to form 7\r\n");
    6cc6:	48b4      	ldr	r0, [pc, #720]	; (6f98 <main+0xb1c>)
    6cc8:	4ca5      	ldr	r4, [pc, #660]	; (6f60 <main+0xae4>)
    6cca:	47a0      	blx	r4
							write_flash();
    6ccc:	4bb3      	ldr	r3, [pc, #716]	; (6f9c <main+0xb20>)
    6cce:	4798      	blx	r3
							printf("FLASH written\r\n");
    6cd0:	48b3      	ldr	r0, [pc, #716]	; (6fa0 <main+0xb24>)
    6cd2:	47a0      	blx	r4
						break;
    6cd4:	e62d      	b.n	6932 <main+0x4b6>
							switch_to_form(MENU_FORM);
    6cd6:	2007      	movs	r0, #7
    6cd8:	4ba5      	ldr	r3, [pc, #660]	; (6f70 <main+0xaf4>)
    6cda:	4798      	blx	r3
							printf("form4 cancel, switch to form 7\r\n");
    6cdc:	48b1      	ldr	r0, [pc, #708]	; (6fa4 <main+0xb28>)
    6cde:	4ba0      	ldr	r3, [pc, #640]	; (6f60 <main+0xae4>)
    6ce0:	4798      	blx	r3
						break;
    6ce2:	e626      	b.n	6932 <main+0x4b6>
							session_temp.parameter = SET_SLICESNO_BTN;
    6ce4:	4ca1      	ldr	r4, [pc, #644]	; (6f6c <main+0xaf0>)
    6ce6:	2319      	movs	r3, #25
    6ce8:	7423      	strb	r3, [r4, #16]
							switch_to_form(KEYBOARD_FORM);
    6cea:	2006      	movs	r0, #6
    6cec:	4ba0      	ldr	r3, [pc, #640]	; (6f70 <main+0xaf4>)
    6cee:	4798      	blx	r3
							kb_value = session_temp.no_of_slices;
    6cf0:	8863      	ldrh	r3, [r4, #2]
    6cf2:	4ca0      	ldr	r4, [pc, #640]	; (6f74 <main+0xaf8>)
    6cf4:	6463      	str	r3, [r4, #68]	; 0x44
							minvalue = 1;
    6cf6:	2301      	movs	r3, #1
    6cf8:	64a3      	str	r3, [r4, #72]	; 0x48
							maxvalue = 999;
    6cfa:	4b9f      	ldr	r3, [pc, #636]	; (6f78 <main+0xafc>)
    6cfc:	64e3      	str	r3, [r4, #76]	; 0x4c
							io_write_clear_ack(set_no_of_slices_txt,6);
    6cfe:	2106      	movs	r1, #6
    6d00:	489e      	ldr	r0, [pc, #632]	; (6f7c <main+0xb00>)
    6d02:	3048      	adds	r0, #72	; 0x48
    6d04:	4b9e      	ldr	r3, [pc, #632]	; (6f80 <main+0xb04>)
    6d06:	4798      	blx	r3
							print_no(kb_value, 11);
    6d08:	6c60      	ldr	r0, [r4, #68]	; 0x44
    6d0a:	210b      	movs	r1, #11
    6d0c:	4b9d      	ldr	r3, [pc, #628]	; (6f84 <main+0xb08>)
    6d0e:	4798      	blx	r3
							printf("set slices no, switch to form 6\r\n");
    6d10:	48a5      	ldr	r0, [pc, #660]	; (6fa8 <main+0xb2c>)
    6d12:	4b93      	ldr	r3, [pc, #588]	; (6f60 <main+0xae4>)
    6d14:	4798      	blx	r3
						break;
    6d16:	e60c      	b.n	6932 <main+0x4b6>
							session_temp.parameter = SET_VOLUMESNO_BTN;
    6d18:	4c94      	ldr	r4, [pc, #592]	; (6f6c <main+0xaf0>)
    6d1a:	2318      	movs	r3, #24
    6d1c:	7423      	strb	r3, [r4, #16]
							switch_to_form(KEYBOARD_FORM);
    6d1e:	2006      	movs	r0, #6
    6d20:	4b93      	ldr	r3, [pc, #588]	; (6f70 <main+0xaf4>)
    6d22:	4798      	blx	r3
							kb_value = session_temp.no_of_volumes;
    6d24:	8823      	ldrh	r3, [r4, #0]
    6d26:	4c93      	ldr	r4, [pc, #588]	; (6f74 <main+0xaf8>)
    6d28:	6463      	str	r3, [r4, #68]	; 0x44
							minvalue = 1;
    6d2a:	2301      	movs	r3, #1
    6d2c:	64a3      	str	r3, [r4, #72]	; 0x48
							maxvalue = 9999;
    6d2e:	4b97      	ldr	r3, [pc, #604]	; (6f8c <main+0xb10>)
    6d30:	64e3      	str	r3, [r4, #76]	; 0x4c
							io_write_clear_ack(set_no_of_volumes_txt,6);
    6d32:	2106      	movs	r1, #6
    6d34:	4891      	ldr	r0, [pc, #580]	; (6f7c <main+0xb00>)
    6d36:	3050      	adds	r0, #80	; 0x50
    6d38:	4b91      	ldr	r3, [pc, #580]	; (6f80 <main+0xb04>)
    6d3a:	4798      	blx	r3
							print_no(kb_value, 11);
    6d3c:	6c60      	ldr	r0, [r4, #68]	; 0x44
    6d3e:	210b      	movs	r1, #11
    6d40:	4b90      	ldr	r3, [pc, #576]	; (6f84 <main+0xb08>)
    6d42:	4798      	blx	r3
							printf("set volumes no, switch to form 6\r\n");
    6d44:	4899      	ldr	r0, [pc, #612]	; (6fac <main+0xb30>)
    6d46:	4b86      	ldr	r3, [pc, #536]	; (6f60 <main+0xae4>)
    6d48:	4798      	blx	r3
						break;
    6d4a:	e5f2      	b.n	6932 <main+0x4b6>
							session_temp.parameter = PULSE_LENGTH_BTN;
    6d4c:	4c87      	ldr	r4, [pc, #540]	; (6f6c <main+0xaf0>)
    6d4e:	2317      	movs	r3, #23
    6d50:	7423      	strb	r3, [r4, #16]
							switch_to_form(KEYBOARD_FORM);
    6d52:	2006      	movs	r0, #6
    6d54:	4b86      	ldr	r3, [pc, #536]	; (6f70 <main+0xaf4>)
    6d56:	4798      	blx	r3
							kb_value = session_temp.pulse_length;
    6d58:	8923      	ldrh	r3, [r4, #8]
    6d5a:	4c86      	ldr	r4, [pc, #536]	; (6f74 <main+0xaf8>)
    6d5c:	6463      	str	r3, [r4, #68]	; 0x44
							minvalue = 100;
    6d5e:	2364      	movs	r3, #100	; 0x64
    6d60:	64a3      	str	r3, [r4, #72]	; 0x48
							maxvalue = 999;
    6d62:	4b85      	ldr	r3, [pc, #532]	; (6f78 <main+0xafc>)
    6d64:	64e3      	str	r3, [r4, #76]	; 0x4c
							io_write_clear_ack(set_pulse_length_txt,6);							
    6d66:	2106      	movs	r1, #6
    6d68:	4884      	ldr	r0, [pc, #528]	; (6f7c <main+0xb00>)
    6d6a:	3058      	adds	r0, #88	; 0x58
    6d6c:	4b84      	ldr	r3, [pc, #528]	; (6f80 <main+0xb04>)
    6d6e:	4798      	blx	r3
							print_no(kb_value, 11);							
    6d70:	6c60      	ldr	r0, [r4, #68]	; 0x44
    6d72:	210b      	movs	r1, #11
    6d74:	4b83      	ldr	r3, [pc, #524]	; (6f84 <main+0xb08>)
    6d76:	4798      	blx	r3
							printf("set pulse length, switch to form 6\r\n");
    6d78:	488d      	ldr	r0, [pc, #564]	; (6fb0 <main+0xb34>)
    6d7a:	4b79      	ldr	r3, [pc, #484]	; (6f60 <main+0xae4>)
    6d7c:	4798      	blx	r3
						break;
    6d7e:	e5d8      	b.n	6932 <main+0x4b6>
							session_temp.parameter = TR_TIME_BTN;
    6d80:	4c7a      	ldr	r4, [pc, #488]	; (6f6c <main+0xaf0>)
    6d82:	2316      	movs	r3, #22
    6d84:	7423      	strb	r3, [r4, #16]
							switch_to_form(KEYBOARD_FORM);
    6d86:	2006      	movs	r0, #6
    6d88:	4b79      	ldr	r3, [pc, #484]	; (6f70 <main+0xaf4>)
    6d8a:	4798      	blx	r3
							kb_value = session_temp.TR_time;
    6d8c:	4b79      	ldr	r3, [pc, #484]	; (6f74 <main+0xaf8>)
    6d8e:	68e2      	ldr	r2, [r4, #12]
    6d90:	645a      	str	r2, [r3, #68]	; 0x44
							uint32_t minvalue_long = session_temp.pulse_length * session_temp.no_of_slices;
    6d92:	8922      	ldrh	r2, [r4, #8]
    6d94:	8863      	ldrh	r3, [r4, #2]
    6d96:	4353      	muls	r3, r2
							if (minvalue_long > 999999){   // hibaellenrzs!!!!!!!!!!!!
    6d98:	4a86      	ldr	r2, [pc, #536]	; (6fb4 <main+0xb38>)
    6d9a:	4293      	cmp	r3, r2
    6d9c:	d911      	bls.n	6dc2 <main+0x946>
								minvalue = 999999;
    6d9e:	4b75      	ldr	r3, [pc, #468]	; (6f74 <main+0xaf8>)
    6da0:	649a      	str	r2, [r3, #72]	; 0x48
							maxvalue = 999999;
    6da2:	4c74      	ldr	r4, [pc, #464]	; (6f74 <main+0xaf8>)
    6da4:	4b83      	ldr	r3, [pc, #524]	; (6fb4 <main+0xb38>)
    6da6:	64e3      	str	r3, [r4, #76]	; 0x4c
							io_write_clear_ack(set_tr_time_txt,6);							
    6da8:	2106      	movs	r1, #6
    6daa:	4874      	ldr	r0, [pc, #464]	; (6f7c <main+0xb00>)
    6dac:	3060      	adds	r0, #96	; 0x60
    6dae:	4b74      	ldr	r3, [pc, #464]	; (6f80 <main+0xb04>)
    6db0:	4798      	blx	r3
							print_no(kb_value, 11);							
    6db2:	6c60      	ldr	r0, [r4, #68]	; 0x44
    6db4:	210b      	movs	r1, #11
    6db6:	4b73      	ldr	r3, [pc, #460]	; (6f84 <main+0xb08>)
    6db8:	4798      	blx	r3
							printf("set TR time, switchto form 6\r\n");
    6dba:	487f      	ldr	r0, [pc, #508]	; (6fb8 <main+0xb3c>)
    6dbc:	4b68      	ldr	r3, [pc, #416]	; (6f60 <main+0xae4>)
    6dbe:	4798      	blx	r3
						break;
    6dc0:	e5b7      	b.n	6932 <main+0x4b6>
								minvalue = minvalue_long;
    6dc2:	4a6c      	ldr	r2, [pc, #432]	; (6f74 <main+0xaf8>)
    6dc4:	6493      	str	r3, [r2, #72]	; 0x48
    6dc6:	e7ec      	b.n	6da2 <main+0x926>
							switch_to_form(SETTINGS_1_FORM);
    6dc8:	2004      	movs	r0, #4
    6dca:	4b69      	ldr	r3, [pc, #420]	; (6f70 <main+0xaf4>)
    6dcc:	4798      	blx	r3
							printf("form8 more, switch to form 8\r\n");
    6dce:	487b      	ldr	r0, [pc, #492]	; (6fbc <main+0xb40>)
    6dd0:	4b63      	ldr	r3, [pc, #396]	; (6f60 <main+0xae4>)
    6dd2:	4798      	blx	r3
						break;
    6dd4:	e5ad      	b.n	6932 <main+0x4b6>
							switch_to_form(MENU_FORM);
    6dd6:	2007      	movs	r0, #7
    6dd8:	4b65      	ldr	r3, [pc, #404]	; (6f70 <main+0xaf4>)
    6dda:	4798      	blx	r3
							session_data.no_of_slices = session_temp.no_of_slices;
    6ddc:	4a63      	ldr	r2, [pc, #396]	; (6f6c <main+0xaf0>)
    6dde:	8851      	ldrh	r1, [r2, #2]
    6de0:	4b5d      	ldr	r3, [pc, #372]	; (6f58 <main+0xadc>)
    6de2:	8259      	strh	r1, [r3, #18]
							session_data.no_of_volumes = session_temp.no_of_volumes;
    6de4:	8811      	ldrh	r1, [r2, #0]
    6de6:	8219      	strh	r1, [r3, #16]
							session_data.trig_on_slice = session_temp.trig_on_slice;
    6de8:	88d1      	ldrh	r1, [r2, #6]
    6dea:	82d9      	strh	r1, [r3, #22]
							session_data.trig_on_volume = session_temp.trig_on_volume;
    6dec:	8891      	ldrh	r1, [r2, #4]
    6dee:	8299      	strh	r1, [r3, #20]
							session_data.pulse_length = session_temp.pulse_length;
    6df0:	8911      	ldrh	r1, [r2, #8]
    6df2:	8419      	strh	r1, [r3, #32]
							session_data.TR_time = session_temp.TR_time;
    6df4:	68d2      	ldr	r2, [r2, #12]
    6df6:	625a      	str	r2, [r3, #36]	; 0x24
							printf("form5 accept, switch to form 7\r\n");
    6df8:	4871      	ldr	r0, [pc, #452]	; (6fc0 <main+0xb44>)
    6dfa:	4c59      	ldr	r4, [pc, #356]	; (6f60 <main+0xae4>)
    6dfc:	47a0      	blx	r4
							write_flash();
    6dfe:	4b67      	ldr	r3, [pc, #412]	; (6f9c <main+0xb20>)
    6e00:	4798      	blx	r3
							printf("FLASH written\r\n");
    6e02:	4867      	ldr	r0, [pc, #412]	; (6fa0 <main+0xb24>)
    6e04:	47a0      	blx	r4
						break;
    6e06:	e594      	b.n	6932 <main+0x4b6>
							switch_to_form(MENU_FORM);
    6e08:	2007      	movs	r0, #7
    6e0a:	4b59      	ldr	r3, [pc, #356]	; (6f70 <main+0xaf4>)
    6e0c:	4798      	blx	r3
							printf("form5 cancel, switch to form 7\r\n");
    6e0e:	486d      	ldr	r0, [pc, #436]	; (6fc4 <main+0xb48>)
    6e10:	4b53      	ldr	r3, [pc, #332]	; (6f60 <main+0xae4>)
    6e12:	4798      	blx	r3
						break;
    6e14:	e58d      	b.n	6932 <main+0x4b6>
							session_temp.no_of_slices = session_data.no_of_slices;
    6e16:	4a50      	ldr	r2, [pc, #320]	; (6f58 <main+0xadc>)
    6e18:	8a51      	ldrh	r1, [r2, #18]
    6e1a:	4b54      	ldr	r3, [pc, #336]	; (6f6c <main+0xaf0>)
    6e1c:	8059      	strh	r1, [r3, #2]
							session_temp.no_of_volumes = session_data.no_of_volumes;
    6e1e:	8a11      	ldrh	r1, [r2, #16]
    6e20:	8019      	strh	r1, [r3, #0]
							session_temp.trig_on_slice = session_data.trig_on_slice;
    6e22:	8ad1      	ldrh	r1, [r2, #22]
    6e24:	80d9      	strh	r1, [r3, #6]
							session_temp.trig_on_volume = session_data.trig_on_volume;
    6e26:	8a91      	ldrh	r1, [r2, #20]
    6e28:	8099      	strh	r1, [r3, #4]
							session_temp.pulse_length = session_data.pulse_length;
    6e2a:	8c11      	ldrh	r1, [r2, #32]
    6e2c:	8119      	strh	r1, [r3, #8]
							session_temp.TR_time = session_data.TR_time;
    6e2e:	6a52      	ldr	r2, [r2, #36]	; 0x24
    6e30:	60da      	str	r2, [r3, #12]
							switch_to_form(SETTINGS_1_FORM);							
    6e32:	2004      	movs	r0, #4
    6e34:	4b4e      	ldr	r3, [pc, #312]	; (6f70 <main+0xaf4>)
    6e36:	4798      	blx	r3
							printf("settings, switch to form 4\r\n");
    6e38:	4863      	ldr	r0, [pc, #396]	; (6fc8 <main+0xb4c>)
    6e3a:	4b49      	ldr	r3, [pc, #292]	; (6f60 <main+0xae4>)
    6e3c:	4798      	blx	r3
						break;
    6e3e:	e578      	b.n	6932 <main+0x4b6>
							start_simulation();
    6e40:	4b62      	ldr	r3, [pc, #392]	; (6fcc <main+0xb50>)
    6e42:	4798      	blx	r3
						break;
    6e44:	e575      	b.n	6932 <main+0x4b6>
							start_man_trig();
    6e46:	4b62      	ldr	r3, [pc, #392]	; (6fd0 <main+0xb54>)
    6e48:	4798      	blx	r3
						break;
    6e4a:	e572      	b.n	6932 <main+0x4b6>
							switch_to_form(DEFAULT_FORM);
    6e4c:	2000      	movs	r0, #0
    6e4e:	4b48      	ldr	r3, [pc, #288]	; (6f70 <main+0xaf4>)
    6e50:	4798      	blx	r3
							printf("menu back, switch to form 0\r\n");
    6e52:	4860      	ldr	r0, [pc, #384]	; (6fd4 <main+0xb58>)
    6e54:	4b42      	ldr	r3, [pc, #264]	; (6f60 <main+0xae4>)
    6e56:	4798      	blx	r3
						break;
    6e58:	e56b      	b.n	6932 <main+0x4b6>
							switch_to_form(ABOUT_FORM);
    6e5a:	200a      	movs	r0, #10
    6e5c:	4b44      	ldr	r3, [pc, #272]	; (6f70 <main+0xaf4>)
    6e5e:	4798      	blx	r3
							printf("about, switch to form 0\r\n");
    6e60:	485d      	ldr	r0, [pc, #372]	; (6fd8 <main+0xb5c>)
    6e62:	4b3f      	ldr	r3, [pc, #252]	; (6f60 <main+0xae4>)
    6e64:	4798      	blx	r3
						break;
    6e66:	e564      	b.n	6932 <main+0x4b6>
							switch_to_form(SETTINGS_1_FORM);
    6e68:	2004      	movs	r0, #4
    6e6a:	4b41      	ldr	r3, [pc, #260]	; (6f70 <main+0xaf4>)
    6e6c:	4798      	blx	r3
							printf("form4 more, switch to form 4  \r\n");
    6e6e:	485b      	ldr	r0, [pc, #364]	; (6fdc <main+0xb60>)
    6e70:	4b3b      	ldr	r3, [pc, #236]	; (6f60 <main+0xae4>)
    6e72:	4798      	blx	r3
						break;
    6e74:	e55d      	b.n	6932 <main+0x4b6>
							switch_to_form(MENU_FORM);
    6e76:	2007      	movs	r0, #7
    6e78:	4b3d      	ldr	r3, [pc, #244]	; (6f70 <main+0xaf4>)
    6e7a:	4798      	blx	r3
							session_data.no_of_slices = session_temp.no_of_slices;
    6e7c:	4a3b      	ldr	r2, [pc, #236]	; (6f6c <main+0xaf0>)
    6e7e:	8851      	ldrh	r1, [r2, #2]
    6e80:	4b35      	ldr	r3, [pc, #212]	; (6f58 <main+0xadc>)
    6e82:	8259      	strh	r1, [r3, #18]
							session_data.no_of_volumes = session_temp.no_of_volumes;
    6e84:	8811      	ldrh	r1, [r2, #0]
    6e86:	8219      	strh	r1, [r3, #16]
							session_data.trig_on_slice = session_temp.trig_on_slice;
    6e88:	88d1      	ldrh	r1, [r2, #6]
    6e8a:	82d9      	strh	r1, [r3, #22]
							session_data.trig_on_volume = session_temp.trig_on_volume;
    6e8c:	8891      	ldrh	r1, [r2, #4]
    6e8e:	8299      	strh	r1, [r3, #20]
							session_data.pulse_length = session_temp.pulse_length;
    6e90:	8911      	ldrh	r1, [r2, #8]
    6e92:	8419      	strh	r1, [r3, #32]
							session_data.TR_time = session_temp.TR_time;
    6e94:	68d2      	ldr	r2, [r2, #12]
    6e96:	625a      	str	r2, [r3, #36]	; 0x24
							printf("form4 accept, switch to form 7\r\n");
    6e98:	483f      	ldr	r0, [pc, #252]	; (6f98 <main+0xb1c>)
    6e9a:	4c31      	ldr	r4, [pc, #196]	; (6f60 <main+0xae4>)
    6e9c:	47a0      	blx	r4
							write_flash();
    6e9e:	4b3f      	ldr	r3, [pc, #252]	; (6f9c <main+0xb20>)
    6ea0:	4798      	blx	r3
							printf("FLASH written\r\n");
    6ea2:	483f      	ldr	r0, [pc, #252]	; (6fa0 <main+0xb24>)
    6ea4:	47a0      	blx	r4
						break;
    6ea6:	e544      	b.n	6932 <main+0x4b6>
							switch_to_form(MENU_FORM);
    6ea8:	2007      	movs	r0, #7
    6eaa:	4b31      	ldr	r3, [pc, #196]	; (6f70 <main+0xaf4>)
    6eac:	4798      	blx	r3
							printf("form10 back, switch to menu form  \r\n");
    6eae:	484c      	ldr	r0, [pc, #304]	; (6fe0 <main+0xb64>)
    6eb0:	4b2b      	ldr	r3, [pc, #172]	; (6f60 <main+0xae4>)
    6eb2:	4798      	blx	r3
						break;
    6eb4:	e53d      	b.n	6932 <main+0x4b6>
					printf("4dbutton pressed, index: %u, value: %u\r\n", event_report.object_index, event_report.value_lsb);
    6eb6:	4c27      	ldr	r4, [pc, #156]	; (6f54 <main+0xad8>)
    6eb8:	7861      	ldrb	r1, [r4, #1]
    6eba:	78e2      	ldrb	r2, [r4, #3]
    6ebc:	4849      	ldr	r0, [pc, #292]	; (6fe4 <main+0xb68>)
    6ebe:	4b4a      	ldr	r3, [pc, #296]	; (6fe8 <main+0xb6c>)
    6ec0:	4798      	blx	r3
					click_length = CLICK_SOUND_LENGTH;
    6ec2:	22bc      	movs	r2, #188	; 0xbc
    6ec4:	0052      	lsls	r2, r2, #1
    6ec6:	4b2b      	ldr	r3, [pc, #172]	; (6f74 <main+0xaf8>)
    6ec8:	811a      	strh	r2, [r3, #8]
					switch (event_report.object_index) {
    6eca:	7863      	ldrb	r3, [r4, #1]
    6ecc:	2b00      	cmp	r3, #0
    6ece:	d015      	beq.n	6efc <main+0xa80>
    6ed0:	2b01      	cmp	r3, #1
    6ed2:	d000      	beq.n	6ed6 <main+0xa5a>
    6ed4:	e52d      	b.n	6932 <main+0x4b6>
							switch (event_report.value_lsb){
    6ed6:	4b1f      	ldr	r3, [pc, #124]	; (6f54 <main+0xad8>)
    6ed8:	78db      	ldrb	r3, [r3, #3]
    6eda:	2b00      	cmp	r3, #0
    6edc:	d02d      	beq.n	6f3a <main+0xabe>
    6ede:	2b01      	cmp	r3, #1
    6ee0:	d000      	beq.n	6ee4 <main+0xa68>
    6ee2:	e526      	b.n	6932 <main+0x4b6>
									io_write_clear_ack(set_response_sound_on,6);
    6ee4:	2106      	movs	r1, #6
    6ee6:	4841      	ldr	r0, [pc, #260]	; (6fec <main+0xb70>)
    6ee8:	3040      	adds	r0, #64	; 0x40
    6eea:	4b25      	ldr	r3, [pc, #148]	; (6f80 <main+0xb04>)
    6eec:	4798      	blx	r3
									session_data.response_sound = true;
    6eee:	2201      	movs	r2, #1
    6ef0:	4b19      	ldr	r3, [pc, #100]	; (6f58 <main+0xadc>)
    6ef2:	72da      	strb	r2, [r3, #11]
									printf("response snd switch is on\r\n");	
    6ef4:	483e      	ldr	r0, [pc, #248]	; (6ff0 <main+0xb74>)
    6ef6:	4b1a      	ldr	r3, [pc, #104]	; (6f60 <main+0xae4>)
    6ef8:	4798      	blx	r3
								break;
    6efa:	e51a      	b.n	6932 <main+0x4b6>
							switch (event_report.value_lsb){
    6efc:	4b15      	ldr	r3, [pc, #84]	; (6f54 <main+0xad8>)
    6efe:	78db      	ldrb	r3, [r3, #3]
    6f00:	2b00      	cmp	r3, #0
    6f02:	d00e      	beq.n	6f22 <main+0xaa6>
    6f04:	2b01      	cmp	r3, #1
    6f06:	d000      	beq.n	6f0a <main+0xa8e>
    6f08:	e513      	b.n	6932 <main+0x4b6>
									io_write_clear_ack(set_trigger_sound_on,6);
    6f0a:	2106      	movs	r1, #6
    6f0c:	4837      	ldr	r0, [pc, #220]	; (6fec <main+0xb70>)
    6f0e:	3060      	adds	r0, #96	; 0x60
    6f10:	4b1b      	ldr	r3, [pc, #108]	; (6f80 <main+0xb04>)
    6f12:	4798      	blx	r3
									session_data.trigger_sound = true;
    6f14:	2201      	movs	r2, #1
    6f16:	4b10      	ldr	r3, [pc, #64]	; (6f58 <main+0xadc>)
    6f18:	729a      	strb	r2, [r3, #10]
									printf("trigger snd switch is on\r\n");								
    6f1a:	4836      	ldr	r0, [pc, #216]	; (6ff4 <main+0xb78>)
    6f1c:	4b10      	ldr	r3, [pc, #64]	; (6f60 <main+0xae4>)
    6f1e:	4798      	blx	r3
								break;
    6f20:	e507      	b.n	6932 <main+0x4b6>
									io_write_clear_ack(set_trigger_sound_off,6);
    6f22:	2106      	movs	r1, #6
    6f24:	4831      	ldr	r0, [pc, #196]	; (6fec <main+0xb70>)
    6f26:	3070      	adds	r0, #112	; 0x70
    6f28:	4b15      	ldr	r3, [pc, #84]	; (6f80 <main+0xb04>)
    6f2a:	4798      	blx	r3
									session_data.trigger_sound = false;
    6f2c:	2200      	movs	r2, #0
    6f2e:	4b0a      	ldr	r3, [pc, #40]	; (6f58 <main+0xadc>)
    6f30:	729a      	strb	r2, [r3, #10]
									printf("trigger snd switch is off\r\n");	
    6f32:	4831      	ldr	r0, [pc, #196]	; (6ff8 <main+0xb7c>)
    6f34:	4b0a      	ldr	r3, [pc, #40]	; (6f60 <main+0xae4>)
    6f36:	4798      	blx	r3
								break;
    6f38:	e4fb      	b.n	6932 <main+0x4b6>
									io_write_clear_ack(set_response_sound_off,6);
    6f3a:	2106      	movs	r1, #6
    6f3c:	482b      	ldr	r0, [pc, #172]	; (6fec <main+0xb70>)
    6f3e:	3050      	adds	r0, #80	; 0x50
    6f40:	4b0f      	ldr	r3, [pc, #60]	; (6f80 <main+0xb04>)
    6f42:	4798      	blx	r3
									session_data.response_sound = false;
    6f44:	2200      	movs	r2, #0
    6f46:	4b04      	ldr	r3, [pc, #16]	; (6f58 <main+0xadc>)
    6f48:	72da      	strb	r2, [r3, #11]
									printf("response snd switch is off\r\n");	
    6f4a:	482c      	ldr	r0, [pc, #176]	; (6ffc <main+0xb80>)
    6f4c:	4b04      	ldr	r3, [pc, #16]	; (6f60 <main+0xae4>)
    6f4e:	4798      	blx	r3
								break;
    6f50:	e4ef      	b.n	6932 <main+0x4b6>
    6f52:	46c0      	nop			; (mov r8, r8)
    6f54:	20000a34 	.word	0x20000a34
    6f58:	20000a3c 	.word	0x20000a3c
    6f5c:	0000e73c 	.word	0x0000e73c
    6f60:	000095f9 	.word	0x000095f9
    6f64:	000013fd 	.word	0x000013fd
    6f68:	000061f5 	.word	0x000061f5
    6f6c:	20000a68 	.word	0x20000a68
    6f70:	00005ce5 	.word	0x00005ce5
    6f74:	20000740 	.word	0x20000740
    6f78:	000003e7 	.word	0x000003e7
    6f7c:	0000ada8 	.word	0x0000ada8
    6f80:	00005b59 	.word	0x00005b59
    6f84:	00005c19 	.word	0x00005c19
    6f88:	0000e760 	.word	0x0000e760
    6f8c:	0000270f 	.word	0x0000270f
    6f90:	0000e788 	.word	0x0000e788
    6f94:	0000e7b0 	.word	0x0000e7b0
    6f98:	0000e7d0 	.word	0x0000e7d0
    6f9c:	00005771 	.word	0x00005771
    6fa0:	0000e7f0 	.word	0x0000e7f0
    6fa4:	0000e800 	.word	0x0000e800
    6fa8:	0000e820 	.word	0x0000e820
    6fac:	0000e844 	.word	0x0000e844
    6fb0:	0000e868 	.word	0x0000e868
    6fb4:	000f423f 	.word	0x000f423f
    6fb8:	0000e88c 	.word	0x0000e88c
    6fbc:	0000e8ac 	.word	0x0000e8ac
    6fc0:	0000e8cc 	.word	0x0000e8cc
    6fc4:	0000e8ec 	.word	0x0000e8ec
    6fc8:	0000e90c 	.word	0x0000e90c
    6fcc:	00006169 	.word	0x00006169
    6fd0:	00006241 	.word	0x00006241
    6fd4:	0000e928 	.word	0x0000e928
    6fd8:	0000e948 	.word	0x0000e948
    6fdc:	0000e964 	.word	0x0000e964
    6fe0:	0000e984 	.word	0x0000e984
    6fe4:	0000e9a8 	.word	0x0000e9a8
    6fe8:	00009505 	.word	0x00009505
    6fec:	0000da94 	.word	0x0000da94
    6ff0:	0000ea0c 	.word	0x0000ea0c
    6ff4:	0000e9d4 	.word	0x0000e9d4
    6ff8:	0000e9f0 	.word	0x0000e9f0
    6ffc:	0000ea28 	.word	0x0000ea28
					printf("4dbutton pressed, index: %u, value: %u\r\n", event_report.object_index, event_report.value_lsb);
    7000:	4c64      	ldr	r4, [pc, #400]	; (7194 <main+0xd18>)
    7002:	7861      	ldrb	r1, [r4, #1]
    7004:	78e2      	ldrb	r2, [r4, #3]
    7006:	4864      	ldr	r0, [pc, #400]	; (7198 <main+0xd1c>)
    7008:	4b64      	ldr	r3, [pc, #400]	; (719c <main+0xd20>)
    700a:	4798      	blx	r3
					click_length = CLICK_SOUND_LENGTH;
    700c:	4b64      	ldr	r3, [pc, #400]	; (71a0 <main+0xd24>)
    700e:	22bc      	movs	r2, #188	; 0xbc
    7010:	0052      	lsls	r2, r2, #1
    7012:	811a      	strh	r2, [r3, #8]
					uint32_t prev_kb_value = kb_value;
    7014:	6c5d      	ldr	r5, [r3, #68]	; 0x44
					switch (event_report.value_lsb){
    7016:	78e3      	ldrb	r3, [r4, #3]
    7018:	2b6f      	cmp	r3, #111	; 0x6f
    701a:	d030      	beq.n	707e <main+0xc02>
    701c:	2bb0      	cmp	r3, #176	; 0xb0
    701e:	d018      	beq.n	7052 <main+0xbd6>
    7020:	2b63      	cmp	r3, #99	; 0x63
    7022:	d100      	bne.n	7026 <main+0xbaa>
    7024:	e0a9      	b.n	717a <main+0xcfe>
						if ((event_report.value_lsb>0x29) && (event_report.value_lsb<0x3a)){
    7026:	001a      	movs	r2, r3
    7028:	3a2a      	subs	r2, #42	; 0x2a
    702a:	b2d2      	uxtb	r2, r2
    702c:	2a0f      	cmp	r2, #15
    702e:	d81b      	bhi.n	7068 <main+0xbec>
							unsigned char digit=event_report.value_lsb-0x30;
    7030:	3b30      	subs	r3, #48	; 0x30
    7032:	b2d9      	uxtb	r1, r3
							kb_value = kb_value * 10 + digit;
    7034:	00aa      	lsls	r2, r5, #2
    7036:	1952      	adds	r2, r2, r5
    7038:	0053      	lsls	r3, r2, #1
    703a:	18cb      	adds	r3, r1, r3
    703c:	4a58      	ldr	r2, [pc, #352]	; (71a0 <main+0xd24>)
    703e:	6453      	str	r3, [r2, #68]	; 0x44
							if (kb_value > maxvalue){
    7040:	6cd2      	ldr	r2, [r2, #76]	; 0x4c
    7042:	4293      	cmp	r3, r2
    7044:	d901      	bls.n	704a <main+0xbce>
								kb_value = prev_kb_value;
    7046:	4b56      	ldr	r3, [pc, #344]	; (71a0 <main+0xd24>)
    7048:	645d      	str	r5, [r3, #68]	; 0x44
							printf("%i\r\n", digit);							
    704a:	4856      	ldr	r0, [pc, #344]	; (71a4 <main+0xd28>)
    704c:	4b53      	ldr	r3, [pc, #332]	; (719c <main+0xd20>)
    704e:	4798      	blx	r3
    7050:	e00a      	b.n	7068 <main+0xbec>
							if (kb_value != 0){
    7052:	2d00      	cmp	r5, #0
    7054:	d005      	beq.n	7062 <main+0xbe6>
								kb_value = kb_value / 10;
    7056:	210a      	movs	r1, #10
    7058:	0028      	movs	r0, r5
    705a:	4b53      	ldr	r3, [pc, #332]	; (71a8 <main+0xd2c>)
    705c:	4798      	blx	r3
    705e:	4b50      	ldr	r3, [pc, #320]	; (71a0 <main+0xd24>)
    7060:	6458      	str	r0, [r3, #68]	; 0x44
							printf("back\r\n");
    7062:	4852      	ldr	r0, [pc, #328]	; (71ac <main+0xd30>)
    7064:	4b52      	ldr	r3, [pc, #328]	; (71b0 <main+0xd34>)
    7066:	4798      	blx	r3
					printf("kb value: %lu, prev kb value: %lu\r\n", kb_value, prev_kb_value);
    7068:	4c4d      	ldr	r4, [pc, #308]	; (71a0 <main+0xd24>)
    706a:	002a      	movs	r2, r5
    706c:	6c61      	ldr	r1, [r4, #68]	; 0x44
    706e:	4851      	ldr	r0, [pc, #324]	; (71b4 <main+0xd38>)
    7070:	4b4a      	ldr	r3, [pc, #296]	; (719c <main+0xd20>)
    7072:	4798      	blx	r3
					print_no(kb_value, 11);
    7074:	6c60      	ldr	r0, [r4, #68]	; 0x44
    7076:	210b      	movs	r1, #11
    7078:	4b4f      	ldr	r3, [pc, #316]	; (71b8 <main+0xd3c>)
    707a:	4798      	blx	r3
				break;
    707c:	e459      	b.n	6932 <main+0x4b6>
							printf("keyboard ok\r\n");
    707e:	484f      	ldr	r0, [pc, #316]	; (71bc <main+0xd40>)
    7080:	4b4b      	ldr	r3, [pc, #300]	; (71b0 <main+0xd34>)
    7082:	4798      	blx	r3
							printf("kb value: %lu\r\n", kb_value);
    7084:	4c46      	ldr	r4, [pc, #280]	; (71a0 <main+0xd24>)
    7086:	6c61      	ldr	r1, [r4, #68]	; 0x44
    7088:	484d      	ldr	r0, [pc, #308]	; (71c0 <main+0xd44>)
    708a:	4b44      	ldr	r3, [pc, #272]	; (719c <main+0xd20>)
    708c:	4798      	blx	r3
							if (kb_value < minvalue){
    708e:	6c63      	ldr	r3, [r4, #68]	; 0x44
    7090:	6ca0      	ldr	r0, [r4, #72]	; 0x48
    7092:	4283      	cmp	r3, r0
    7094:	d317      	bcc.n	70c6 <main+0xc4a>
							if (kb_value > maxvalue){
    7096:	4b42      	ldr	r3, [pc, #264]	; (71a0 <main+0xd24>)
    7098:	6c5a      	ldr	r2, [r3, #68]	; 0x44
    709a:	6cd8      	ldr	r0, [r3, #76]	; 0x4c
    709c:	4282      	cmp	r2, r0
    709e:	d81c      	bhi.n	70da <main+0xc5e>
							printf("kb return value: %lu\r\n", kb_value);
    70a0:	4b3f      	ldr	r3, [pc, #252]	; (71a0 <main+0xd24>)
    70a2:	6c59      	ldr	r1, [r3, #68]	; 0x44
    70a4:	4847      	ldr	r0, [pc, #284]	; (71c4 <main+0xd48>)
    70a6:	4b3d      	ldr	r3, [pc, #244]	; (719c <main+0xd20>)
    70a8:	4798      	blx	r3
							switch_to_form(session_data.previous_form);							
    70aa:	4b47      	ldr	r3, [pc, #284]	; (71c8 <main+0xd4c>)
    70ac:	7b58      	ldrb	r0, [r3, #13]
    70ae:	4b47      	ldr	r3, [pc, #284]	; (71cc <main+0xd50>)
    70b0:	4798      	blx	r3
							switch (session_temp.parameter){
    70b2:	4b47      	ldr	r3, [pc, #284]	; (71d0 <main+0xd54>)
    70b4:	7c1b      	ldrb	r3, [r3, #16]
    70b6:	3b0e      	subs	r3, #14
    70b8:	b2da      	uxtb	r2, r3
    70ba:	2a0b      	cmp	r2, #11
    70bc:	d827      	bhi.n	710e <main+0xc92>
    70be:	0093      	lsls	r3, r2, #2
    70c0:	4a44      	ldr	r2, [pc, #272]	; (71d4 <main+0xd58>)
    70c2:	58d3      	ldr	r3, [r2, r3]
    70c4:	469f      	mov	pc, r3
								kb_value = minvalue;
    70c6:	4b36      	ldr	r3, [pc, #216]	; (71a0 <main+0xd24>)
    70c8:	6458      	str	r0, [r3, #68]	; 0x44
								print_no(kb_value, 11);
    70ca:	210b      	movs	r1, #11
    70cc:	4b3a      	ldr	r3, [pc, #232]	; (71b8 <main+0xd3c>)
    70ce:	4798      	blx	r3
								delay_ms(500);
    70d0:	20fa      	movs	r0, #250	; 0xfa
    70d2:	0040      	lsls	r0, r0, #1
    70d4:	4b40      	ldr	r3, [pc, #256]	; (71d8 <main+0xd5c>)
    70d6:	4798      	blx	r3
    70d8:	e7dd      	b.n	7096 <main+0xc1a>
								kb_value = maxvalue;
    70da:	6458      	str	r0, [r3, #68]	; 0x44
								print_no(kb_value, 11);
    70dc:	210b      	movs	r1, #11
    70de:	4b36      	ldr	r3, [pc, #216]	; (71b8 <main+0xd3c>)
    70e0:	4798      	blx	r3
								delay_ms(500);
    70e2:	20fa      	movs	r0, #250	; 0xfa
    70e4:	0040      	lsls	r0, r0, #1
    70e6:	4b3c      	ldr	r3, [pc, #240]	; (71d8 <main+0xd5c>)
    70e8:	4798      	blx	r3
    70ea:	e7d9      	b.n	70a0 <main+0xc24>
									session_temp.no_of_slices = kb_value;	
    70ec:	4b2c      	ldr	r3, [pc, #176]	; (71a0 <main+0xd24>)
    70ee:	6c5a      	ldr	r2, [r3, #68]	; 0x44
    70f0:	b292      	uxth	r2, r2
    70f2:	4b37      	ldr	r3, [pc, #220]	; (71d0 <main+0xd54>)
    70f4:	805a      	strh	r2, [r3, #2]
									if (session_temp.TR_time < (session_temp.no_of_slices * session_temp.pulse_length)){
    70f6:	68d9      	ldr	r1, [r3, #12]
    70f8:	891b      	ldrh	r3, [r3, #8]
    70fa:	4353      	muls	r3, r2
    70fc:	4299      	cmp	r1, r3
    70fe:	d206      	bcs.n	710e <main+0xc92>
										session_temp.TR_time = (session_temp.no_of_slices * session_temp.pulse_length);
    7100:	4a33      	ldr	r2, [pc, #204]	; (71d0 <main+0xd54>)
    7102:	60d3      	str	r3, [r2, #12]
    7104:	e003      	b.n	710e <main+0xc92>
									session_temp.no_of_volumes = kb_value;									
    7106:	4b26      	ldr	r3, [pc, #152]	; (71a0 <main+0xd24>)
    7108:	6c5a      	ldr	r2, [r3, #68]	; 0x44
    710a:	4b31      	ldr	r3, [pc, #196]	; (71d0 <main+0xd54>)
    710c:	801a      	strh	r2, [r3, #0]
							print_no(session_temp.no_of_slices, SET_SLICES_STR);
    710e:	4e30      	ldr	r6, [pc, #192]	; (71d0 <main+0xd54>)
    7110:	8870      	ldrh	r0, [r6, #2]
    7112:	2106      	movs	r1, #6
    7114:	4c28      	ldr	r4, [pc, #160]	; (71b8 <main+0xd3c>)
    7116:	47a0      	blx	r4
							print_no(session_temp.no_of_volumes, SET_VOLUMES_STR);
    7118:	8830      	ldrh	r0, [r6, #0]
    711a:	2107      	movs	r1, #7
    711c:	47a0      	blx	r4
							print_no(session_temp.trig_on_slice, SLICE_TRIGGERNO_STR);
    711e:	88f0      	ldrh	r0, [r6, #6]
    7120:	2104      	movs	r1, #4
    7122:	47a0      	blx	r4
							print_no(session_temp.trig_on_volume, VOLUME_TRIGGERNO_STR);
    7124:	88b0      	ldrh	r0, [r6, #4]
    7126:	2105      	movs	r1, #5
    7128:	47a0      	blx	r4
							print_no(session_temp.pulse_length, PULSE_LENGTH_STR);
    712a:	8930      	ldrh	r0, [r6, #8]
    712c:	2108      	movs	r1, #8
    712e:	47a0      	blx	r4
							print_no(session_temp.TR_time, TR_TIME_STR);
    7130:	68f0      	ldr	r0, [r6, #12]
    7132:	2109      	movs	r1, #9
    7134:	47a0      	blx	r4
							printf("keyboard ok, switch back to form %u\r\n", session_data.previous_form);
    7136:	4b24      	ldr	r3, [pc, #144]	; (71c8 <main+0xd4c>)
    7138:	7b59      	ldrb	r1, [r3, #13]
    713a:	4828      	ldr	r0, [pc, #160]	; (71dc <main+0xd60>)
    713c:	4b17      	ldr	r3, [pc, #92]	; (719c <main+0xd20>)
    713e:	4798      	blx	r3
						break;
    7140:	e792      	b.n	7068 <main+0xbec>
									session_temp.trig_on_slice = kb_value;									
    7142:	4b17      	ldr	r3, [pc, #92]	; (71a0 <main+0xd24>)
    7144:	6c5a      	ldr	r2, [r3, #68]	; 0x44
    7146:	4b22      	ldr	r3, [pc, #136]	; (71d0 <main+0xd54>)
    7148:	80da      	strh	r2, [r3, #6]
								break;
    714a:	e7e0      	b.n	710e <main+0xc92>
									session_temp.trig_on_volume = kb_value;
    714c:	4b14      	ldr	r3, [pc, #80]	; (71a0 <main+0xd24>)
    714e:	6c5a      	ldr	r2, [r3, #68]	; 0x44
    7150:	4b1f      	ldr	r3, [pc, #124]	; (71d0 <main+0xd54>)
    7152:	809a      	strh	r2, [r3, #4]
								break;
    7154:	e7db      	b.n	710e <main+0xc92>
									session_temp.pulse_length = kb_value;
    7156:	4b12      	ldr	r3, [pc, #72]	; (71a0 <main+0xd24>)
    7158:	6c5b      	ldr	r3, [r3, #68]	; 0x44
    715a:	b29b      	uxth	r3, r3
    715c:	4a1c      	ldr	r2, [pc, #112]	; (71d0 <main+0xd54>)
    715e:	8113      	strh	r3, [r2, #8]
									if (session_temp.TR_time < (session_temp.no_of_slices * session_temp.pulse_length)){
    7160:	68d1      	ldr	r1, [r2, #12]
    7162:	8852      	ldrh	r2, [r2, #2]
    7164:	4353      	muls	r3, r2
    7166:	4299      	cmp	r1, r3
    7168:	d2d1      	bcs.n	710e <main+0xc92>
										session_temp.TR_time = (session_temp.no_of_slices * session_temp.pulse_length);
    716a:	4a19      	ldr	r2, [pc, #100]	; (71d0 <main+0xd54>)
    716c:	60d3      	str	r3, [r2, #12]
    716e:	e7ce      	b.n	710e <main+0xc92>
									session_temp.TR_time = kb_value;
    7170:	4b0b      	ldr	r3, [pc, #44]	; (71a0 <main+0xd24>)
    7172:	6c5a      	ldr	r2, [r3, #68]	; 0x44
    7174:	4b16      	ldr	r3, [pc, #88]	; (71d0 <main+0xd54>)
    7176:	60da      	str	r2, [r3, #12]
								break;
    7178:	e7c9      	b.n	710e <main+0xc92>
							printf("cancel\r\n");
    717a:	4819      	ldr	r0, [pc, #100]	; (71e0 <main+0xd64>)
    717c:	4b0c      	ldr	r3, [pc, #48]	; (71b0 <main+0xd34>)
    717e:	4798      	blx	r3
							switch_to_form(session_data.previous_form);
    7180:	4c11      	ldr	r4, [pc, #68]	; (71c8 <main+0xd4c>)
    7182:	7b60      	ldrb	r0, [r4, #13]
    7184:	4b11      	ldr	r3, [pc, #68]	; (71cc <main+0xd50>)
    7186:	4798      	blx	r3
							printf("keyboard cancel, switch back to form %u\r\n", session_data.previous_form);
    7188:	7b61      	ldrb	r1, [r4, #13]
    718a:	4816      	ldr	r0, [pc, #88]	; (71e4 <main+0xd68>)
    718c:	4b03      	ldr	r3, [pc, #12]	; (719c <main+0xd20>)
    718e:	4798      	blx	r3
						break;
    7190:	e76a      	b.n	7068 <main+0xbec>
    7192:	46c0      	nop			; (mov r8, r8)
    7194:	20000a34 	.word	0x20000a34
    7198:	0000e9a8 	.word	0x0000e9a8
    719c:	00009505 	.word	0x00009505
    71a0:	20000740 	.word	0x20000740
    71a4:	0000eac8 	.word	0x0000eac8
    71a8:	0000913d 	.word	0x0000913d
    71ac:	0000eb9c 	.word	0x0000eb9c
    71b0:	000095f9 	.word	0x000095f9
    71b4:	0000ead0 	.word	0x0000ead0
    71b8:	00005c19 	.word	0x00005c19
    71bc:	0000ea44 	.word	0x0000ea44
    71c0:	0000eae4 	.word	0x0000eae4
    71c4:	0000ea54 	.word	0x0000ea54
    71c8:	20000a3c 	.word	0x20000a3c
    71cc:	00005ce5 	.word	0x00005ce5
    71d0:	20000a68 	.word	0x20000a68
    71d4:	0000ad78 	.word	0x0000ad78
    71d8:	000013fd 	.word	0x000013fd
    71dc:	0000ea6c 	.word	0x0000ea6c
    71e0:	0000ea94 	.word	0x0000ea94
    71e4:	0000ea9c 	.word	0x0000ea9c

000071e8 <nv_init>:
    71e8:	b5f8      	push	{r3, r4, r5, r6, r7, lr}
    71ea:	4c0e      	ldr	r4, [pc, #56]	; (7224 <nv_init+0x3c>)
    71ec:	6020      	str	r0, [r4, #0]
    71ee:	4f0e      	ldr	r7, [pc, #56]	; (7228 <nv_init+0x40>)
    71f0:	47b8      	blx	r7
    71f2:	0081      	lsls	r1, r0, #2
    71f4:	4e0d      	ldr	r6, [pc, #52]	; (722c <nv_init+0x44>)
    71f6:	2080      	movs	r0, #128	; 0x80
    71f8:	0240      	lsls	r0, r0, #9
    71fa:	47b0      	blx	r6
    71fc:	4248      	negs	r0, r1
    71fe:	4148      	adcs	r0, r1
    7200:	b2c0      	uxtb	r0, r0
    7202:	2235      	movs	r2, #53	; 0x35
    7204:	490a      	ldr	r1, [pc, #40]	; (7230 <nv_init+0x48>)
    7206:	4d0b      	ldr	r5, [pc, #44]	; (7234 <nv_init+0x4c>)
    7208:	47a8      	blx	r5
    720a:	6820      	ldr	r0, [r4, #0]
    720c:	47b8      	blx	r7
    720e:	0081      	lsls	r1, r0, #2
    7210:	2080      	movs	r0, #128	; 0x80
    7212:	0140      	lsls	r0, r0, #5
    7214:	47b0      	blx	r6
    7216:	4248      	negs	r0, r1
    7218:	4148      	adcs	r0, r1
    721a:	b2c0      	uxtb	r0, r0
    721c:	2237      	movs	r2, #55	; 0x37
    721e:	4904      	ldr	r1, [pc, #16]	; (7230 <nv_init+0x48>)
    7220:	47a8      	blx	r5
    7222:	bdf8      	pop	{r3, r4, r5, r6, r7, pc}
    7224:	20000790 	.word	0x20000790
    7228:	00001859 	.word	0x00001859
    722c:	00009249 	.word	0x00009249
    7230:	0000eb18 	.word	0x0000eb18
    7234:	000026a1 	.word	0x000026a1

00007238 <nv_write>:
    7238:	b570      	push	{r4, r5, r6, lr}
    723a:	0016      	movs	r6, r2
    723c:	001d      	movs	r5, r3
    723e:	3010      	adds	r0, #16
    7240:	0304      	lsls	r4, r0, #12
    7242:	1864      	adds	r4, r4, r1
    7244:	4b0f      	ldr	r3, [pc, #60]	; (7284 <nv_write+0x4c>)
    7246:	429c      	cmp	r4, r3
    7248:	d80b      	bhi.n	7262 <nv_write+0x2a>
    724a:	192b      	adds	r3, r5, r4
    724c:	2290      	movs	r2, #144	; 0x90
    724e:	0252      	lsls	r2, r2, #9
    7250:	4293      	cmp	r3, r2
    7252:	d813      	bhi.n	727c <nv_write+0x44>
    7254:	1869      	adds	r1, r5, r1
    7256:	2380      	movs	r3, #128	; 0x80
    7258:	015b      	lsls	r3, r3, #5
    725a:	4299      	cmp	r1, r3
    725c:	dd10      	ble.n	7280 <nv_write+0x48>
    725e:	2000      	movs	r0, #0
    7260:	e000      	b.n	7264 <nv_write+0x2c>
    7262:	2000      	movs	r0, #0
    7264:	2244      	movs	r2, #68	; 0x44
    7266:	4908      	ldr	r1, [pc, #32]	; (7288 <nv_write+0x50>)
    7268:	4b08      	ldr	r3, [pc, #32]	; (728c <nv_write+0x54>)
    726a:	4798      	blx	r3
    726c:	4b08      	ldr	r3, [pc, #32]	; (7290 <nv_write+0x58>)
    726e:	6818      	ldr	r0, [r3, #0]
    7270:	002b      	movs	r3, r5
    7272:	0032      	movs	r2, r6
    7274:	0021      	movs	r1, r4
    7276:	4c07      	ldr	r4, [pc, #28]	; (7294 <nv_write+0x5c>)
    7278:	47a0      	blx	r4
    727a:	bd70      	pop	{r4, r5, r6, pc}
    727c:	2000      	movs	r0, #0
    727e:	e7f1      	b.n	7264 <nv_write+0x2c>
    7280:	2001      	movs	r0, #1
    7282:	e7ef      	b.n	7264 <nv_write+0x2c>
    7284:	00011fff 	.word	0x00011fff
    7288:	0000eb18 	.word	0x0000eb18
    728c:	000026a1 	.word	0x000026a1
    7290:	20000790 	.word	0x20000790
    7294:	00001735 	.word	0x00001735

00007298 <nv_read>:
    7298:	b570      	push	{r4, r5, r6, lr}
    729a:	0016      	movs	r6, r2
    729c:	001d      	movs	r5, r3
    729e:	3010      	adds	r0, #16
    72a0:	0304      	lsls	r4, r0, #12
    72a2:	1864      	adds	r4, r4, r1
    72a4:	4b0f      	ldr	r3, [pc, #60]	; (72e4 <nv_read+0x4c>)
    72a6:	429c      	cmp	r4, r3
    72a8:	d80b      	bhi.n	72c2 <nv_read+0x2a>
    72aa:	192b      	adds	r3, r5, r4
    72ac:	2290      	movs	r2, #144	; 0x90
    72ae:	0252      	lsls	r2, r2, #9
    72b0:	4293      	cmp	r3, r2
    72b2:	d813      	bhi.n	72dc <nv_read+0x44>
    72b4:	1869      	adds	r1, r5, r1
    72b6:	2380      	movs	r3, #128	; 0x80
    72b8:	015b      	lsls	r3, r3, #5
    72ba:	4299      	cmp	r1, r3
    72bc:	dd10      	ble.n	72e0 <nv_read+0x48>
    72be:	2000      	movs	r0, #0
    72c0:	e000      	b.n	72c4 <nv_read+0x2c>
    72c2:	2000      	movs	r0, #0
    72c4:	2253      	movs	r2, #83	; 0x53
    72c6:	4908      	ldr	r1, [pc, #32]	; (72e8 <nv_read+0x50>)
    72c8:	4b08      	ldr	r3, [pc, #32]	; (72ec <nv_read+0x54>)
    72ca:	4798      	blx	r3
    72cc:	4b08      	ldr	r3, [pc, #32]	; (72f0 <nv_read+0x58>)
    72ce:	6818      	ldr	r0, [r3, #0]
    72d0:	002b      	movs	r3, r5
    72d2:	0032      	movs	r2, r6
    72d4:	0021      	movs	r1, r4
    72d6:	4c07      	ldr	r4, [pc, #28]	; (72f4 <nv_read+0x5c>)
    72d8:	47a0      	blx	r4
    72da:	bd70      	pop	{r4, r5, r6, pc}
    72dc:	2000      	movs	r0, #0
    72de:	e7f1      	b.n	72c4 <nv_read+0x2c>
    72e0:	2001      	movs	r0, #1
    72e2:	e7ef      	b.n	72c4 <nv_read+0x2c>
    72e4:	00011fff 	.word	0x00011fff
    72e8:	0000eb18 	.word	0x0000eb18
    72ec:	000026a1 	.word	0x000026a1
    72f0:	20000790 	.word	0x20000790
    72f4:	0000161d 	.word	0x0000161d

000072f8 <nv_erase_sector>:
    72f8:	b570      	push	{r4, r5, r6, lr}
    72fa:	3010      	adds	r0, #16
    72fc:	0304      	lsls	r4, r0, #12
    72fe:	2000      	movs	r0, #0
    7300:	4b0b      	ldr	r3, [pc, #44]	; (7330 <nv_erase_sector+0x38>)
    7302:	42a3      	cmp	r3, r4
    7304:	4140      	adcs	r0, r0
    7306:	b2c0      	uxtb	r0, r0
    7308:	225f      	movs	r2, #95	; 0x5f
    730a:	490a      	ldr	r1, [pc, #40]	; (7334 <nv_erase_sector+0x3c>)
    730c:	4b0a      	ldr	r3, [pc, #40]	; (7338 <nv_erase_sector+0x40>)
    730e:	4798      	blx	r3
    7310:	4b0a      	ldr	r3, [pc, #40]	; (733c <nv_erase_sector+0x44>)
    7312:	681d      	ldr	r5, [r3, #0]
    7314:	0028      	movs	r0, r5
    7316:	4b0a      	ldr	r3, [pc, #40]	; (7340 <nv_erase_sector+0x48>)
    7318:	4798      	blx	r3
    731a:	0001      	movs	r1, r0
    731c:	2080      	movs	r0, #128	; 0x80
    731e:	0140      	lsls	r0, r0, #5
    7320:	4b08      	ldr	r3, [pc, #32]	; (7344 <nv_erase_sector+0x4c>)
    7322:	4798      	blx	r3
    7324:	0002      	movs	r2, r0
    7326:	0021      	movs	r1, r4
    7328:	0028      	movs	r0, r5
    732a:	4b07      	ldr	r3, [pc, #28]	; (7348 <nv_erase_sector+0x50>)
    732c:	4798      	blx	r3
    732e:	bd70      	pop	{r4, r5, r6, pc}
    7330:	00011fff 	.word	0x00011fff
    7334:	0000eb18 	.word	0x0000eb18
    7338:	000026a1 	.word	0x000026a1
    733c:	20000790 	.word	0x20000790
    7340:	00001859 	.word	0x00001859
    7344:	0000913d 	.word	0x0000913d
    7348:	000017cd 	.word	0x000017cd

0000734c <nv_is_equal>:
    734c:	b5f0      	push	{r4, r5, r6, r7, lr}
    734e:	46de      	mov	lr, fp
    7350:	4657      	mov	r7, sl
    7352:	464e      	mov	r6, r9
    7354:	4645      	mov	r5, r8
    7356:	b5e0      	push	{r5, r6, r7, lr}
    7358:	b091      	sub	sp, #68	; 0x44
    735a:	4691      	mov	r9, r2
    735c:	001f      	movs	r7, r3
    735e:	3010      	adds	r0, #16
    7360:	0300      	lsls	r0, r0, #12
    7362:	4680      	mov	r8, r0
    7364:	4488      	add	r8, r1
    7366:	4b23      	ldr	r3, [pc, #140]	; (73f4 <nv_is_equal+0xa8>)
    7368:	4598      	cmp	r8, r3
    736a:	d80e      	bhi.n	738a <nv_is_equal+0x3e>
    736c:	4643      	mov	r3, r8
    736e:	18fb      	adds	r3, r7, r3
    7370:	2290      	movs	r2, #144	; 0x90
    7372:	0252      	lsls	r2, r2, #9
    7374:	4293      	cmp	r3, r2
    7376:	d80f      	bhi.n	7398 <nv_is_equal+0x4c>
    7378:	1879      	adds	r1, r7, r1
    737a:	2380      	movs	r3, #128	; 0x80
    737c:	015b      	lsls	r3, r3, #5
    737e:	4299      	cmp	r1, r3
    7380:	dc0c      	bgt.n	739c <nv_is_equal+0x50>
    7382:	2f00      	cmp	r7, #0
    7384:	d10c      	bne.n	73a0 <nv_is_equal+0x54>
    7386:	2000      	movs	r0, #0
    7388:	e000      	b.n	738c <nv_is_equal+0x40>
    738a:	2000      	movs	r0, #0
    738c:	2270      	movs	r2, #112	; 0x70
    738e:	491a      	ldr	r1, [pc, #104]	; (73f8 <nv_is_equal+0xac>)
    7390:	4b1a      	ldr	r3, [pc, #104]	; (73fc <nv_is_equal+0xb0>)
    7392:	4798      	blx	r3
    7394:	2400      	movs	r4, #0
    7396:	e01b      	b.n	73d0 <nv_is_equal+0x84>
    7398:	2000      	movs	r0, #0
    739a:	e7f7      	b.n	738c <nv_is_equal+0x40>
    739c:	2000      	movs	r0, #0
    739e:	e7f5      	b.n	738c <nv_is_equal+0x40>
    73a0:	2001      	movs	r0, #1
    73a2:	e7f3      	b.n	738c <nv_is_equal+0x40>
    73a4:	b2da      	uxtb	r2, r3
    73a6:	4693      	mov	fp, r2
    73a8:	25ff      	movs	r5, #255	; 0xff
    73aa:	401d      	ands	r5, r3
    73ac:	4643      	mov	r3, r8
    73ae:	1919      	adds	r1, r3, r4
    73b0:	4b13      	ldr	r3, [pc, #76]	; (7400 <nv_is_equal+0xb4>)
    73b2:	6818      	ldr	r0, [r3, #0]
    73b4:	002b      	movs	r3, r5
    73b6:	466a      	mov	r2, sp
    73b8:	4e12      	ldr	r6, [pc, #72]	; (7404 <nv_is_equal+0xb8>)
    73ba:	47b0      	blx	r6
    73bc:	464b      	mov	r3, r9
    73be:	1918      	adds	r0, r3, r4
    73c0:	002a      	movs	r2, r5
    73c2:	4669      	mov	r1, sp
    73c4:	4b10      	ldr	r3, [pc, #64]	; (7408 <nv_is_equal+0xbc>)
    73c6:	4798      	blx	r3
    73c8:	2800      	cmp	r0, #0
    73ca:	d110      	bne.n	73ee <nv_is_equal+0xa2>
    73cc:	445c      	add	r4, fp
    73ce:	b2a4      	uxth	r4, r4
    73d0:	42bc      	cmp	r4, r7
    73d2:	d004      	beq.n	73de <nv_is_equal+0x92>
    73d4:	1b3b      	subs	r3, r7, r4
    73d6:	2b40      	cmp	r3, #64	; 0x40
    73d8:	dde4      	ble.n	73a4 <nv_is_equal+0x58>
    73da:	2340      	movs	r3, #64	; 0x40
    73dc:	e7e2      	b.n	73a4 <nv_is_equal+0x58>
    73de:	2001      	movs	r0, #1
    73e0:	b011      	add	sp, #68	; 0x44
    73e2:	bc3c      	pop	{r2, r3, r4, r5}
    73e4:	4690      	mov	r8, r2
    73e6:	4699      	mov	r9, r3
    73e8:	46a2      	mov	sl, r4
    73ea:	46ab      	mov	fp, r5
    73ec:	bdf0      	pop	{r4, r5, r6, r7, pc}
    73ee:	2000      	movs	r0, #0
    73f0:	e7f6      	b.n	73e0 <nv_is_equal+0x94>
    73f2:	46c0      	nop			; (mov r8, r8)
    73f4:	00011fff 	.word	0x00011fff
    73f8:	0000eb18 	.word	0x0000eb18
    73fc:	000026a1 	.word	0x000026a1
    7400:	20000790 	.word	0x20000790
    7404:	0000161d 	.word	0x0000161d
    7408:	000094c5 	.word	0x000094c5

0000740c <nv_is_empty>:
    740c:	b5f0      	push	{r4, r5, r6, r7, lr}
    740e:	46ce      	mov	lr, r9
    7410:	4647      	mov	r7, r8
    7412:	b580      	push	{r7, lr}
    7414:	b091      	sub	sp, #68	; 0x44
    7416:	0015      	movs	r5, r2
    7418:	3010      	adds	r0, #16
    741a:	0304      	lsls	r4, r0, #12
    741c:	1864      	adds	r4, r4, r1
    741e:	4b23      	ldr	r3, [pc, #140]	; (74ac <nv_is_empty+0xa0>)
    7420:	429c      	cmp	r4, r3
    7422:	d80d      	bhi.n	7440 <nv_is_empty+0x34>
    7424:	1913      	adds	r3, r2, r4
    7426:	2290      	movs	r2, #144	; 0x90
    7428:	0252      	lsls	r2, r2, #9
    742a:	4293      	cmp	r3, r2
    742c:	d82d      	bhi.n	748a <nv_is_empty+0x7e>
    742e:	1869      	adds	r1, r5, r1
    7430:	2380      	movs	r3, #128	; 0x80
    7432:	015b      	lsls	r3, r3, #5
    7434:	4299      	cmp	r1, r3
    7436:	dc2a      	bgt.n	748e <nv_is_empty+0x82>
    7438:	2d00      	cmp	r5, #0
    743a:	d12a      	bne.n	7492 <nv_is_empty+0x86>
    743c:	2000      	movs	r0, #0
    743e:	e000      	b.n	7442 <nv_is_empty+0x36>
    7440:	2000      	movs	r0, #0
    7442:	228c      	movs	r2, #140	; 0x8c
    7444:	491a      	ldr	r1, [pc, #104]	; (74b0 <nv_is_empty+0xa4>)
    7446:	4b1b      	ldr	r3, [pc, #108]	; (74b4 <nv_is_empty+0xa8>)
    7448:	4798      	blx	r3
    744a:	2240      	movs	r2, #64	; 0x40
    744c:	21ff      	movs	r1, #255	; 0xff
    744e:	4668      	mov	r0, sp
    7450:	4b19      	ldr	r3, [pc, #100]	; (74b8 <nv_is_empty+0xac>)
    7452:	4798      	blx	r3
    7454:	2600      	movs	r6, #0
    7456:	42ae      	cmp	r6, r5
    7458:	d020      	beq.n	749c <nv_is_empty+0x90>
    745a:	1bab      	subs	r3, r5, r6
    745c:	2b40      	cmp	r3, #64	; 0x40
    745e:	dd00      	ble.n	7462 <nv_is_empty+0x56>
    7460:	2340      	movs	r3, #64	; 0x40
    7462:	b2da      	uxtb	r2, r3
    7464:	4691      	mov	r9, r2
    7466:	22ff      	movs	r2, #255	; 0xff
    7468:	4013      	ands	r3, r2
    746a:	1931      	adds	r1, r6, r4
    746c:	4a13      	ldr	r2, [pc, #76]	; (74bc <nv_is_empty+0xb0>)
    746e:	6810      	ldr	r0, [r2, #0]
    7470:	466a      	mov	r2, sp
    7472:	4f13      	ldr	r7, [pc, #76]	; (74c0 <nv_is_empty+0xb4>)
    7474:	47b8      	blx	r7
    7476:	2300      	movs	r3, #0
    7478:	2b3f      	cmp	r3, #63	; 0x3f
    747a:	d80c      	bhi.n	7496 <nv_is_empty+0x8a>
    747c:	466a      	mov	r2, sp
    747e:	5cd2      	ldrb	r2, [r2, r3]
    7480:	2aff      	cmp	r2, #255	; 0xff
    7482:	d10d      	bne.n	74a0 <nv_is_empty+0x94>
    7484:	3301      	adds	r3, #1
    7486:	b2db      	uxtb	r3, r3
    7488:	e7f6      	b.n	7478 <nv_is_empty+0x6c>
    748a:	2000      	movs	r0, #0
    748c:	e7d9      	b.n	7442 <nv_is_empty+0x36>
    748e:	2000      	movs	r0, #0
    7490:	e7d7      	b.n	7442 <nv_is_empty+0x36>
    7492:	2001      	movs	r0, #1
    7494:	e7d5      	b.n	7442 <nv_is_empty+0x36>
    7496:	444e      	add	r6, r9
    7498:	b2b6      	uxth	r6, r6
    749a:	e7dc      	b.n	7456 <nv_is_empty+0x4a>
    749c:	2001      	movs	r0, #1
    749e:	e000      	b.n	74a2 <nv_is_empty+0x96>
    74a0:	2000      	movs	r0, #0
    74a2:	b011      	add	sp, #68	; 0x44
    74a4:	bc0c      	pop	{r2, r3}
    74a6:	4690      	mov	r8, r2
    74a8:	4699      	mov	r9, r3
    74aa:	bdf0      	pop	{r4, r5, r6, r7, pc}
    74ac:	00011fff 	.word	0x00011fff
    74b0:	0000eb18 	.word	0x0000eb18
    74b4:	000026a1 	.word	0x000026a1
    74b8:	000094f5 	.word	0x000094f5
    74bc:	20000790 	.word	0x20000790
    74c0:	0000161d 	.word	0x0000161d

000074c4 <nv_align_next_access_address>:
    74c4:	b510      	push	{r4, lr}
    74c6:	0004      	movs	r4, r0
    74c8:	2900      	cmp	r1, #0
    74ca:	d005      	beq.n	74d8 <nv_align_next_access_address+0x14>
    74cc:	2901      	cmp	r1, #1
    74ce:	d104      	bne.n	74da <nv_align_next_access_address+0x16>
    74d0:	347f      	adds	r4, #127	; 0x7f
    74d2:	b2a0      	uxth	r0, r4
    74d4:	237f      	movs	r3, #127	; 0x7f
    74d6:	4398      	bics	r0, r3
    74d8:	bd10      	pop	{r4, pc}
    74da:	22af      	movs	r2, #175	; 0xaf
    74dc:	4902      	ldr	r1, [pc, #8]	; (74e8 <nv_align_next_access_address+0x24>)
    74de:	2000      	movs	r0, #0
    74e0:	4b02      	ldr	r3, [pc, #8]	; (74ec <nv_align_next_access_address+0x28>)
    74e2:	4798      	blx	r3
    74e4:	0020      	movs	r0, r4
    74e6:	e7f7      	b.n	74d8 <nv_align_next_access_address+0x14>
    74e8:	0000eb18 	.word	0x0000eb18
    74ec:	000026a1 	.word	0x000026a1

000074f0 <find_item>:
    74f0:	b510      	push	{r4, lr}
    74f2:	2300      	movs	r3, #0
    74f4:	4a09      	ldr	r2, [pc, #36]	; (751c <find_item+0x2c>)
    74f6:	8d52      	ldrh	r2, [r2, #42]	; 0x2a
    74f8:	4293      	cmp	r3, r2
    74fa:	d20c      	bcs.n	7516 <find_item+0x26>
    74fc:	0099      	lsls	r1, r3, #2
    74fe:	4a07      	ldr	r2, [pc, #28]	; (751c <find_item+0x2c>)
    7500:	1852      	adds	r2, r2, r1
    7502:	8852      	ldrh	r2, [r2, #2]
    7504:	4282      	cmp	r2, r0
    7506:	d002      	beq.n	750e <find_item+0x1e>
    7508:	3301      	adds	r3, #1
    750a:	b29b      	uxth	r3, r3
    750c:	e7f2      	b.n	74f4 <find_item+0x4>
    750e:	4803      	ldr	r0, [pc, #12]	; (751c <find_item+0x2c>)
    7510:	1840      	adds	r0, r0, r1
    7512:	3002      	adds	r0, #2
    7514:	e000      	b.n	7518 <find_item+0x28>
    7516:	2000      	movs	r0, #0
    7518:	bd10      	pop	{r4, pc}
    751a:	46c0      	nop			; (mov r8, r8)
    751c:	20000794 	.word	0x20000794

00007520 <calculate_block_header_checksum>:
    7520:	b510      	push	{r4, lr}
    7522:	0004      	movs	r4, r0
    7524:	2200      	movs	r2, #0
    7526:	4b0b      	ldr	r3, [pc, #44]	; (7554 <calculate_block_header_checksum+0x34>)
    7528:	e00f      	b.n	754a <calculate_block_header_checksum+0x2a>
    752a:	0a18      	lsrs	r0, r3, #8
    752c:	18a1      	adds	r1, r4, r2
    752e:	7889      	ldrb	r1, [r1, #2]
    7530:	4048      	eors	r0, r1
    7532:	0901      	lsrs	r1, r0, #4
    7534:	4048      	eors	r0, r1
    7536:	021b      	lsls	r3, r3, #8
    7538:	0301      	lsls	r1, r0, #12
    753a:	404b      	eors	r3, r1
    753c:	b21b      	sxth	r3, r3
    753e:	0141      	lsls	r1, r0, #5
    7540:	404b      	eors	r3, r1
    7542:	4043      	eors	r3, r0
    7544:	b29b      	uxth	r3, r3
    7546:	3201      	adds	r2, #1
    7548:	b2d2      	uxtb	r2, r2
    754a:	2a09      	cmp	r2, #9
    754c:	d9ed      	bls.n	752a <calculate_block_header_checksum+0xa>
    754e:	0018      	movs	r0, r3
    7550:	bd10      	pop	{r4, pc}
    7552:	46c0      	nop			; (mov r8, r8)
    7554:	0000ffff 	.word	0x0000ffff

00007558 <load_data_from_sector>:
    7558:	b570      	push	{r4, r5, r6, lr}
    755a:	b084      	sub	sp, #16
    755c:	0004      	movs	r4, r0
    755e:	2100      	movs	r1, #0
    7560:	200c      	movs	r0, #12
    7562:	4b38      	ldr	r3, [pc, #224]	; (7644 <load_data_from_sector+0xec>)
    7564:	4798      	blx	r3
    7566:	4b38      	ldr	r3, [pc, #224]	; (7648 <load_data_from_sector+0xf0>)
    7568:	8018      	strh	r0, [r3, #0]
    756a:	e010      	b.n	758e <load_data_from_sector+0x36>
    756c:	2b0e      	cmp	r3, #14
    756e:	d05e      	beq.n	762e <load_data_from_sector+0xd6>
    7570:	466b      	mov	r3, sp
    7572:	899d      	ldrh	r5, [r3, #12]
    7574:	4668      	mov	r0, sp
    7576:	4b35      	ldr	r3, [pc, #212]	; (764c <load_data_from_sector+0xf4>)
    7578:	4798      	blx	r3
    757a:	4285      	cmp	r5, r0
    757c:	d018      	beq.n	75b0 <load_data_from_sector+0x58>
    757e:	4d32      	ldr	r5, [pc, #200]	; (7648 <load_data_from_sector+0xf0>)
    7580:	8828      	ldrh	r0, [r5, #0]
    7582:	300e      	adds	r0, #14
    7584:	b280      	uxth	r0, r0
    7586:	2101      	movs	r1, #1
    7588:	4b2e      	ldr	r3, [pc, #184]	; (7644 <load_data_from_sector+0xec>)
    758a:	4798      	blx	r3
    758c:	8028      	strh	r0, [r5, #0]
    758e:	4b2e      	ldr	r3, [pc, #184]	; (7648 <load_data_from_sector+0xf0>)
    7590:	8819      	ldrh	r1, [r3, #0]
    7592:	230e      	movs	r3, #14
    7594:	466a      	mov	r2, sp
    7596:	0020      	movs	r0, r4
    7598:	4d2d      	ldr	r5, [pc, #180]	; (7650 <load_data_from_sector+0xf8>)
    759a:	47a8      	blx	r5
    759c:	2300      	movs	r3, #0
    759e:	2b0d      	cmp	r3, #13
    75a0:	d8e4      	bhi.n	756c <load_data_from_sector+0x14>
    75a2:	466a      	mov	r2, sp
    75a4:	5cd2      	ldrb	r2, [r2, r3]
    75a6:	2aff      	cmp	r2, #255	; 0xff
    75a8:	d1e0      	bne.n	756c <load_data_from_sector+0x14>
    75aa:	3301      	adds	r3, #1
    75ac:	b2db      	uxtb	r3, r3
    75ae:	e7f6      	b.n	759e <load_data_from_sector+0x46>
    75b0:	466b      	mov	r3, sp
    75b2:	881b      	ldrh	r3, [r3, #0]
    75b4:	2b00      	cmp	r3, #0
    75b6:	d00c      	beq.n	75d2 <load_data_from_sector+0x7a>
    75b8:	466b      	mov	r3, sp
    75ba:	88d8      	ldrh	r0, [r3, #6]
    75bc:	4d22      	ldr	r5, [pc, #136]	; (7648 <load_data_from_sector+0xf0>)
    75be:	882b      	ldrh	r3, [r5, #0]
    75c0:	18c0      	adds	r0, r0, r3
    75c2:	300e      	adds	r0, #14
    75c4:	b280      	uxth	r0, r0
    75c6:	8028      	strh	r0, [r5, #0]
    75c8:	2101      	movs	r1, #1
    75ca:	4b1e      	ldr	r3, [pc, #120]	; (7644 <load_data_from_sector+0xec>)
    75cc:	4798      	blx	r3
    75ce:	8028      	strh	r0, [r5, #0]
    75d0:	e7dd      	b.n	758e <load_data_from_sector+0x36>
    75d2:	466b      	mov	r3, sp
    75d4:	885d      	ldrh	r5, [r3, #2]
    75d6:	0028      	movs	r0, r5
    75d8:	4b1e      	ldr	r3, [pc, #120]	; (7654 <load_data_from_sector+0xfc>)
    75da:	4798      	blx	r3
    75dc:	1e06      	subs	r6, r0, #0
    75de:	d028      	beq.n	7632 <load_data_from_sector+0xda>
    75e0:	466b      	mov	r3, sp
    75e2:	891b      	ldrh	r3, [r3, #8]
    75e4:	2b00      	cmp	r3, #0
    75e6:	d10b      	bne.n	7600 <load_data_from_sector+0xa8>
    75e8:	4917      	ldr	r1, [pc, #92]	; (7648 <load_data_from_sector+0xf0>)
    75ea:	8d4a      	ldrh	r2, [r1, #42]	; 0x2a
    75ec:	3a01      	subs	r2, #1
    75ee:	b293      	uxth	r3, r2
    75f0:	854b      	strh	r3, [r1, #42]	; 0x2a
    75f2:	009b      	lsls	r3, r3, #2
    75f4:	18c9      	adds	r1, r1, r3
    75f6:	3102      	adds	r1, #2
    75f8:	2204      	movs	r2, #4
    75fa:	0030      	movs	r0, r6
    75fc:	4b16      	ldr	r3, [pc, #88]	; (7658 <load_data_from_sector+0x100>)
    75fe:	4798      	blx	r3
    7600:	4d11      	ldr	r5, [pc, #68]	; (7648 <load_data_from_sector+0xf0>)
    7602:	8828      	ldrh	r0, [r5, #0]
    7604:	8070      	strh	r0, [r6, #2]
    7606:	466b      	mov	r3, sp
    7608:	88db      	ldrh	r3, [r3, #6]
    760a:	18c0      	adds	r0, r0, r3
    760c:	300e      	adds	r0, #14
    760e:	b280      	uxth	r0, r0
    7610:	8028      	strh	r0, [r5, #0]
    7612:	2101      	movs	r1, #1
    7614:	4b0b      	ldr	r3, [pc, #44]	; (7644 <load_data_from_sector+0xec>)
    7616:	4798      	blx	r3
    7618:	8028      	strh	r0, [r5, #0]
    761a:	0023      	movs	r3, r4
    761c:	3310      	adds	r3, #16
    761e:	031b      	lsls	r3, r3, #12
    7620:	1818      	adds	r0, r3, r0
    7622:	0023      	movs	r3, r4
    7624:	3311      	adds	r3, #17
    7626:	031b      	lsls	r3, r3, #12
    7628:	3b01      	subs	r3, #1
    762a:	4298      	cmp	r0, r3
    762c:	d3af      	bcc.n	758e <load_data_from_sector+0x36>
    762e:	b004      	add	sp, #16
    7630:	bd70      	pop	{r4, r5, r6, pc}
    7632:	4b05      	ldr	r3, [pc, #20]	; (7648 <load_data_from_sector+0xf0>)
    7634:	8d5a      	ldrh	r2, [r3, #42]	; 0x2a
    7636:	1c51      	adds	r1, r2, #1
    7638:	8559      	strh	r1, [r3, #42]	; 0x2a
    763a:	0092      	lsls	r2, r2, #2
    763c:	189b      	adds	r3, r3, r2
    763e:	1c9e      	adds	r6, r3, #2
    7640:	805d      	strh	r5, [r3, #2]
    7642:	e7cd      	b.n	75e0 <load_data_from_sector+0x88>
    7644:	000074c5 	.word	0x000074c5
    7648:	20000794 	.word	0x20000794
    764c:	00007521 	.word	0x00007521
    7650:	00007299 	.word	0x00007299
    7654:	000074f1 	.word	0x000074f1
    7658:	000094e3 	.word	0x000094e3

0000765c <write_and_verify>:
    765c:	b5f0      	push	{r4, r5, r6, r7, lr}
    765e:	b083      	sub	sp, #12
    7660:	9001      	str	r0, [sp, #4]
    7662:	000d      	movs	r5, r1
    7664:	0016      	movs	r6, r2
    7666:	001f      	movs	r7, r3
    7668:	4c04      	ldr	r4, [pc, #16]	; (767c <write_and_verify+0x20>)
    766a:	47a0      	blx	r4
    766c:	003b      	movs	r3, r7
    766e:	0032      	movs	r2, r6
    7670:	0029      	movs	r1, r5
    7672:	9801      	ldr	r0, [sp, #4]
    7674:	4c02      	ldr	r4, [pc, #8]	; (7680 <write_and_verify+0x24>)
    7676:	47a0      	blx	r4
    7678:	b003      	add	sp, #12
    767a:	bdf0      	pop	{r4, r5, r6, r7, pc}
    767c:	00007239 	.word	0x00007239
    7680:	0000734d 	.word	0x0000734d

00007684 <create_sector>:
    7684:	b5f0      	push	{r4, r5, r6, r7, lr}
    7686:	b085      	sub	sp, #20
    7688:	0006      	movs	r6, r0
    768a:	000d      	movs	r5, r1
    768c:	0017      	movs	r7, r2
    768e:	2200      	movs	r2, #0
    7690:	466b      	mov	r3, sp
    7692:	70da      	strb	r2, [r3, #3]
    7694:	2280      	movs	r2, #128	; 0x80
    7696:	0152      	lsls	r2, r2, #5
    7698:	2100      	movs	r1, #0
    769a:	4b20      	ldr	r3, [pc, #128]	; (771c <create_sector+0x98>)
    769c:	4798      	blx	r3
    769e:	2800      	cmp	r0, #0
    76a0:	d10a      	bne.n	76b8 <create_sector+0x34>
    76a2:	0030      	movs	r0, r6
    76a4:	4b1e      	ldr	r3, [pc, #120]	; (7720 <create_sector+0x9c>)
    76a6:	4798      	blx	r3
    76a8:	2280      	movs	r2, #128	; 0x80
    76aa:	0152      	lsls	r2, r2, #5
    76ac:	2100      	movs	r1, #0
    76ae:	0030      	movs	r0, r6
    76b0:	4b1a      	ldr	r3, [pc, #104]	; (771c <create_sector+0x98>)
    76b2:	4798      	blx	r3
    76b4:	1e04      	subs	r4, r0, #0
    76b6:	d01a      	beq.n	76ee <create_sector+0x6a>
    76b8:	ac01      	add	r4, sp, #4
    76ba:	2207      	movs	r2, #7
    76bc:	4919      	ldr	r1, [pc, #100]	; (7724 <create_sector+0xa0>)
    76be:	2009      	movs	r0, #9
    76c0:	4468      	add	r0, sp
    76c2:	4b19      	ldr	r3, [pc, #100]	; (7728 <create_sector+0xa4>)
    76c4:	4798      	blx	r3
    76c6:	23ff      	movs	r3, #255	; 0xff
    76c8:	7023      	strb	r3, [r4, #0]
    76ca:	466b      	mov	r3, sp
    76cc:	715d      	strb	r5, [r3, #5]
    76ce:	0a2a      	lsrs	r2, r5, #8
    76d0:	719a      	strb	r2, [r3, #6]
    76d2:	0c2a      	lsrs	r2, r5, #16
    76d4:	71da      	strb	r2, [r3, #7]
    76d6:	0e2d      	lsrs	r5, r5, #24
    76d8:	721d      	strb	r5, [r3, #8]
    76da:	230c      	movs	r3, #12
    76dc:	0022      	movs	r2, r4
    76de:	2100      	movs	r1, #0
    76e0:	0030      	movs	r0, r6
    76e2:	4c12      	ldr	r4, [pc, #72]	; (772c <create_sector+0xa8>)
    76e4:	47a0      	blx	r4
    76e6:	1e04      	subs	r4, r0, #0
    76e8:	d001      	beq.n	76ee <create_sector+0x6a>
    76ea:	2f00      	cmp	r7, #0
    76ec:	d102      	bne.n	76f4 <create_sector+0x70>
    76ee:	0020      	movs	r0, r4
    76f0:	b005      	add	sp, #20
    76f2:	bdf0      	pop	{r4, r5, r6, r7, pc}
    76f4:	2301      	movs	r3, #1
    76f6:	466a      	mov	r2, sp
    76f8:	3203      	adds	r2, #3
    76fa:	2100      	movs	r1, #0
    76fc:	0030      	movs	r0, r6
    76fe:	4c0b      	ldr	r4, [pc, #44]	; (772c <create_sector+0xa8>)
    7700:	47a0      	blx	r4
    7702:	1e04      	subs	r4, r0, #0
    7704:	d0f3      	beq.n	76ee <create_sector+0x6a>
    7706:	4d0a      	ldr	r5, [pc, #40]	; (7730 <create_sector+0xac>)
    7708:	230c      	movs	r3, #12
    770a:	802b      	strh	r3, [r5, #0]
    770c:	2100      	movs	r1, #0
    770e:	200c      	movs	r0, #12
    7710:	4b08      	ldr	r3, [pc, #32]	; (7734 <create_sector+0xb0>)
    7712:	4798      	blx	r3
    7714:	8028      	strh	r0, [r5, #0]
    7716:	232c      	movs	r3, #44	; 0x2c
    7718:	54ee      	strb	r6, [r5, r3]
    771a:	e7e8      	b.n	76ee <create_sector+0x6a>
    771c:	0000740d 	.word	0x0000740d
    7720:	000072f9 	.word	0x000072f9
    7724:	0000eb48 	.word	0x0000eb48
    7728:	000094e3 	.word	0x000094e3
    772c:	0000765d 	.word	0x0000765d
    7730:	20000794 	.word	0x20000794
    7734:	000074c5 	.word	0x000074c5

00007738 <nv_storage_init>:
    7738:	b5f0      	push	{r4, r5, r6, r7, lr}
    773a:	46ce      	mov	lr, r9
    773c:	4647      	mov	r7, r8
    773e:	b580      	push	{r7, lr}
    7740:	b085      	sub	sp, #20
    7742:	2300      	movs	r3, #0
    7744:	4699      	mov	r9, r3
    7746:	26ff      	movs	r6, #255	; 0xff
    7748:	2400      	movs	r4, #0
    774a:	e001      	b.n	7750 <nv_storage_init+0x18>
    774c:	3401      	adds	r4, #1
    774e:	b2e4      	uxtb	r4, r4
    7750:	2c01      	cmp	r4, #1
    7752:	d81c      	bhi.n	778e <nv_storage_init+0x56>
    7754:	ad01      	add	r5, sp, #4
    7756:	230c      	movs	r3, #12
    7758:	002a      	movs	r2, r5
    775a:	2100      	movs	r1, #0
    775c:	0020      	movs	r0, r4
    775e:	4f1e      	ldr	r7, [pc, #120]	; (77d8 <nv_storage_init+0xa0>)
    7760:	47b8      	blx	r7
    7762:	782b      	ldrb	r3, [r5, #0]
    7764:	2b00      	cmp	r3, #0
    7766:	d1f1      	bne.n	774c <nv_storage_init+0x14>
    7768:	2207      	movs	r2, #7
    776a:	491c      	ldr	r1, [pc, #112]	; (77dc <nv_storage_init+0xa4>)
    776c:	2009      	movs	r0, #9
    776e:	4468      	add	r0, sp
    7770:	4b1b      	ldr	r3, [pc, #108]	; (77e0 <nv_storage_init+0xa8>)
    7772:	4798      	blx	r3
    7774:	2800      	cmp	r0, #0
    7776:	d1e9      	bne.n	774c <nv_storage_init+0x14>
    7778:	9b01      	ldr	r3, [sp, #4]
    777a:	0a1a      	lsrs	r2, r3, #8
    777c:	ab01      	add	r3, sp, #4
    777e:	791b      	ldrb	r3, [r3, #4]
    7780:	061b      	lsls	r3, r3, #24
    7782:	4313      	orrs	r3, r2
    7784:	4599      	cmp	r9, r3
    7786:	d8e1      	bhi.n	774c <nv_storage_init+0x14>
    7788:	4699      	mov	r9, r3
    778a:	0026      	movs	r6, r4
    778c:	e7de      	b.n	774c <nv_storage_init+0x14>
    778e:	2eff      	cmp	r6, #255	; 0xff
    7790:	d110      	bne.n	77b4 <nv_storage_init+0x7c>
    7792:	2400      	movs	r4, #0
    7794:	e001      	b.n	779a <nv_storage_init+0x62>
    7796:	3401      	adds	r4, #1
    7798:	b2e4      	uxtb	r4, r4
    779a:	2c01      	cmp	r4, #1
    779c:	d808      	bhi.n	77b0 <nv_storage_init+0x78>
    779e:	464b      	mov	r3, r9
    77a0:	1c59      	adds	r1, r3, #1
    77a2:	2201      	movs	r2, #1
    77a4:	0020      	movs	r0, r4
    77a6:	4b0f      	ldr	r3, [pc, #60]	; (77e4 <nv_storage_init+0xac>)
    77a8:	4798      	blx	r3
    77aa:	2800      	cmp	r0, #0
    77ac:	d0f3      	beq.n	7796 <nv_storage_init+0x5e>
    77ae:	e007      	b.n	77c0 <nv_storage_init+0x88>
    77b0:	2c02      	cmp	r4, #2
    77b2:	d00a      	beq.n	77ca <nv_storage_init+0x92>
    77b4:	232c      	movs	r3, #44	; 0x2c
    77b6:	4a0c      	ldr	r2, [pc, #48]	; (77e8 <nv_storage_init+0xb0>)
    77b8:	54d6      	strb	r6, [r2, r3]
    77ba:	0030      	movs	r0, r6
    77bc:	4b0b      	ldr	r3, [pc, #44]	; (77ec <nv_storage_init+0xb4>)
    77be:	4798      	blx	r3
    77c0:	b005      	add	sp, #20
    77c2:	bc0c      	pop	{r2, r3}
    77c4:	4690      	mov	r8, r2
    77c6:	4699      	mov	r9, r3
    77c8:	bdf0      	pop	{r4, r5, r6, r7, pc}
    77ca:	2297      	movs	r2, #151	; 0x97
    77cc:	4908      	ldr	r1, [pc, #32]	; (77f0 <nv_storage_init+0xb8>)
    77ce:	2000      	movs	r0, #0
    77d0:	4b08      	ldr	r3, [pc, #32]	; (77f4 <nv_storage_init+0xbc>)
    77d2:	4798      	blx	r3
    77d4:	e7f4      	b.n	77c0 <nv_storage_init+0x88>
    77d6:	46c0      	nop			; (mov r8, r8)
    77d8:	00007299 	.word	0x00007299
    77dc:	0000eb48 	.word	0x0000eb48
    77e0:	000094c5 	.word	0x000094c5
    77e4:	00007685 	.word	0x00007685
    77e8:	20000794 	.word	0x20000794
    77ec:	00007559 	.word	0x00007559
    77f0:	0000eb50 	.word	0x0000eb50
    77f4:	000026a1 	.word	0x000026a1

000077f8 <persistent_storage_init>:
    77f8:	b510      	push	{r4, lr}
    77fa:	4803      	ldr	r0, [pc, #12]	; (7808 <persistent_storage_init+0x10>)
    77fc:	4b03      	ldr	r3, [pc, #12]	; (780c <persistent_storage_init+0x14>)
    77fe:	4798      	blx	r3
    7800:	4b03      	ldr	r3, [pc, #12]	; (7810 <persistent_storage_init+0x18>)
    7802:	4798      	blx	r3
    7804:	bd10      	pop	{r4, pc}
    7806:	46c0      	nop			; (mov r8, r8)
    7808:	20000900 	.word	0x20000900
    780c:	000071e9 	.word	0x000071e9
    7810:	00007739 	.word	0x00007739

00007814 <_read>:
    7814:	b510      	push	{r4, lr}
    7816:	000b      	movs	r3, r1
    7818:	2800      	cmp	r0, #0
    781a:	d109      	bne.n	7830 <_read+0x1c>
    781c:	0011      	movs	r1, r2
    781e:	0018      	movs	r0, r3
    7820:	4b05      	ldr	r3, [pc, #20]	; (7838 <_read+0x24>)
    7822:	4798      	blx	r3
    7824:	2800      	cmp	r0, #0
    7826:	db00      	blt.n	782a <_read+0x16>
    7828:	bd10      	pop	{r4, pc}
    782a:	2001      	movs	r0, #1
    782c:	4240      	negs	r0, r0
    782e:	e7fb      	b.n	7828 <_read+0x14>
    7830:	2001      	movs	r0, #1
    7832:	4240      	negs	r0, r0
    7834:	e7f8      	b.n	7828 <_read+0x14>
    7836:	46c0      	nop			; (mov r8, r8)
    7838:	00007891 	.word	0x00007891

0000783c <_write>:
    783c:	b510      	push	{r4, lr}
    783e:	000b      	movs	r3, r1
    7840:	3801      	subs	r0, #1
    7842:	2802      	cmp	r0, #2
    7844:	d809      	bhi.n	785a <_write+0x1e>
    7846:	0011      	movs	r1, r2
    7848:	0018      	movs	r0, r3
    784a:	4b05      	ldr	r3, [pc, #20]	; (7860 <_write+0x24>)
    784c:	4798      	blx	r3
    784e:	2800      	cmp	r0, #0
    7850:	db00      	blt.n	7854 <_write+0x18>
    7852:	bd10      	pop	{r4, pc}
    7854:	2001      	movs	r0, #1
    7856:	4240      	negs	r0, r0
    7858:	e7fb      	b.n	7852 <_write+0x16>
    785a:	2001      	movs	r0, #1
    785c:	4240      	negs	r0, r0
    785e:	e7f8      	b.n	7852 <_write+0x16>
    7860:	000078b5 	.word	0x000078b5

00007864 <stdio_io_init>:
    7864:	b570      	push	{r4, r5, r6, lr}
    7866:	0006      	movs	r6, r0
    7868:	4d06      	ldr	r5, [pc, #24]	; (7884 <stdio_io_init+0x20>)
    786a:	682b      	ldr	r3, [r5, #0]
    786c:	6898      	ldr	r0, [r3, #8]
    786e:	2100      	movs	r1, #0
    7870:	4c05      	ldr	r4, [pc, #20]	; (7888 <stdio_io_init+0x24>)
    7872:	47a0      	blx	r4
    7874:	682b      	ldr	r3, [r5, #0]
    7876:	6858      	ldr	r0, [r3, #4]
    7878:	2100      	movs	r1, #0
    787a:	47a0      	blx	r4
    787c:	4b03      	ldr	r3, [pc, #12]	; (788c <stdio_io_init+0x28>)
    787e:	601e      	str	r6, [r3, #0]
    7880:	bd70      	pop	{r4, r5, r6, pc}
    7882:	46c0      	nop			; (mov r8, r8)
    7884:	200000dc 	.word	0x200000dc
    7888:	0000960d 	.word	0x0000960d
    788c:	200007c4 	.word	0x200007c4

00007890 <stdio_io_read>:
    7890:	b510      	push	{r4, lr}
    7892:	0004      	movs	r4, r0
    7894:	4b05      	ldr	r3, [pc, #20]	; (78ac <stdio_io_read+0x1c>)
    7896:	6818      	ldr	r0, [r3, #0]
    7898:	2800      	cmp	r0, #0
    789a:	d004      	beq.n	78a6 <stdio_io_read+0x16>
    789c:	b28a      	uxth	r2, r1
    789e:	0021      	movs	r1, r4
    78a0:	4b03      	ldr	r3, [pc, #12]	; (78b0 <stdio_io_read+0x20>)
    78a2:	4798      	blx	r3
    78a4:	bd10      	pop	{r4, pc}
    78a6:	2000      	movs	r0, #0
    78a8:	e7fc      	b.n	78a4 <stdio_io_read+0x14>
    78aa:	46c0      	nop			; (mov r8, r8)
    78ac:	200007c4 	.word	0x200007c4
    78b0:	00001961 	.word	0x00001961

000078b4 <stdio_io_write>:
    78b4:	b510      	push	{r4, lr}
    78b6:	0004      	movs	r4, r0
    78b8:	4b05      	ldr	r3, [pc, #20]	; (78d0 <stdio_io_write+0x1c>)
    78ba:	6818      	ldr	r0, [r3, #0]
    78bc:	2800      	cmp	r0, #0
    78be:	d004      	beq.n	78ca <stdio_io_write+0x16>
    78c0:	b28a      	uxth	r2, r1
    78c2:	0021      	movs	r1, r4
    78c4:	4b03      	ldr	r3, [pc, #12]	; (78d4 <stdio_io_write+0x20>)
    78c6:	4798      	blx	r3
    78c8:	bd10      	pop	{r4, pc}
    78ca:	2000      	movs	r0, #0
    78cc:	e7fc      	b.n	78c8 <stdio_io_write+0x14>
    78ce:	46c0      	nop			; (mov r8, r8)
    78d0:	200007c4 	.word	0x200007c4
    78d4:	00001929 	.word	0x00001929

000078d8 <stdio_redirect_init>:
    78d8:	b510      	push	{r4, lr}
    78da:	4c04      	ldr	r4, [pc, #16]	; (78ec <stdio_redirect_init+0x14>)
    78dc:	0020      	movs	r0, r4
    78de:	4b04      	ldr	r3, [pc, #16]	; (78f0 <stdio_redirect_init+0x18>)
    78e0:	4798      	blx	r3
    78e2:	0020      	movs	r0, r4
    78e4:	4b03      	ldr	r3, [pc, #12]	; (78f4 <stdio_redirect_init+0x1c>)
    78e6:	4798      	blx	r3
    78e8:	bd10      	pop	{r4, pc}
    78ea:	46c0      	nop			; (mov r8, r8)
    78ec:	2000099c 	.word	0x2000099c
    78f0:	000020cd 	.word	0x000020cd
    78f4:	00007865 	.word	0x00007865

000078f8 <serial_rx_callback>:

extern bool ACK_received;
extern bool NAK_received;
	
void serial_rx_callback(const struct usart_async_descriptor *const io_descr)
{
    78f8:	b500      	push	{lr}
    78fa:	b083      	sub	sp, #12
	uint8_t ch;

	//	Read a Character
	io_read(&USART_1.io,&ch,1);
    78fc:	2201      	movs	r2, #1
    78fe:	466b      	mov	r3, sp
    7900:	1dd9      	adds	r1, r3, #7
    7902:	483e      	ldr	r0, [pc, #248]	; (79fc <serial_rx_callback+0x104>)
    7904:	4b3e      	ldr	r3, [pc, #248]	; (7a00 <serial_rx_callback+0x108>)
    7906:	4798      	blx	r3

	if (!RX_in_progress)
    7908:	4b3e      	ldr	r3, [pc, #248]	; (7a04 <serial_rx_callback+0x10c>)
    790a:	781b      	ldrb	r3, [r3, #0]
    790c:	2b00      	cmp	r3, #0
    790e:	d106      	bne.n	791e <serial_rx_callback+0x26>
	{
		if (ch == ACK) {
    7910:	466b      	mov	r3, sp
    7912:	3307      	adds	r3, #7
    7914:	781b      	ldrb	r3, [r3, #0]
    7916:	2b06      	cmp	r3, #6
    7918:	d010      	beq.n	793c <serial_rx_callback+0x44>
			ACK_received = true;
			return;
		}
		else if (ch == NAK) {
    791a:	2b15      	cmp	r3, #21
    791c:	d012      	beq.n	7944 <serial_rx_callback+0x4c>
			NAK_received = true;
			return;
		}
	}

	if (!event_report.report_valid)
    791e:	4b3a      	ldr	r3, [pc, #232]	; (7a08 <serial_rx_callback+0x110>)
    7920:	795b      	ldrb	r3, [r3, #5]
    7922:	2b00      	cmp	r3, #0
    7924:	d108      	bne.n	7938 <serial_rx_callback+0x40>
	{
		// Check for first char of Command
		if (!RX_in_progress)
    7926:	4b37      	ldr	r3, [pc, #220]	; (7a04 <serial_rx_callback+0x10c>)
    7928:	781b      	ldrb	r3, [r3, #0]
    792a:	2b00      	cmp	r3, #0
    792c:	d115      	bne.n	795a <serial_rx_callback+0x62>
		{
			if (ch == REPORT_EVENT)
    792e:	466b      	mov	r3, sp
    7930:	3307      	adds	r3, #7
    7932:	781b      	ldrb	r3, [r3, #0]
    7934:	2b07      	cmp	r3, #7
    7936:	d009      	beq.n	794c <serial_rx_callback+0x54>
// 	else			felesleges, az LCD ugysem csinl semmit, a doksi hazudik
// 	{
// 		ch=NAK;
//		io_write(&USART_1.io,&ch,1);
// 	}
}
    7938:	b003      	add	sp, #12
    793a:	bd00      	pop	{pc}
			ACK_received = true;
    793c:	2201      	movs	r2, #1
    793e:	4b33      	ldr	r3, [pc, #204]	; (7a0c <serial_rx_callback+0x114>)
    7940:	701a      	strb	r2, [r3, #0]
			return;
    7942:	e7f9      	b.n	7938 <serial_rx_callback+0x40>
			NAK_received = true;
    7944:	2201      	movs	r2, #1
    7946:	4b32      	ldr	r3, [pc, #200]	; (7a10 <serial_rx_callback+0x118>)
    7948:	701a      	strb	r2, [r3, #0]
			return;
    794a:	e7f5      	b.n	7938 <serial_rx_callback+0x40>
				RX_in_progress = true;
    794c:	4b2d      	ldr	r3, [pc, #180]	; (7a04 <serial_rx_callback+0x10c>)
    794e:	2201      	movs	r2, #1
    7950:	701a      	strb	r2, [r3, #0]
				parameter = 1;
    7952:	705a      	strb	r2, [r3, #1]
				chksum=REPORT_EVENT;
    7954:	3206      	adds	r2, #6
    7956:	709a      	strb	r2, [r3, #2]
    7958:	e7ee      	b.n	7938 <serial_rx_callback+0x40>
			switch (parameter) {
    795a:	4b2a      	ldr	r3, [pc, #168]	; (7a04 <serial_rx_callback+0x10c>)
    795c:	785b      	ldrb	r3, [r3, #1]
    795e:	b2db      	uxtb	r3, r3
    7960:	2b05      	cmp	r3, #5
    7962:	d8e9      	bhi.n	7938 <serial_rx_callback+0x40>
    7964:	009b      	lsls	r3, r3, #2
    7966:	4a2b      	ldr	r2, [pc, #172]	; (7a14 <serial_rx_callback+0x11c>)
    7968:	58d3      	ldr	r3, [r2, r3]
    796a:	469f      	mov	pc, r3
					event_report.object_id=ch;
    796c:	466b      	mov	r3, sp
    796e:	79d9      	ldrb	r1, [r3, #7]
    7970:	4b25      	ldr	r3, [pc, #148]	; (7a08 <serial_rx_callback+0x110>)
    7972:	7019      	strb	r1, [r3, #0]
					chksum^=ch;
    7974:	4a23      	ldr	r2, [pc, #140]	; (7a04 <serial_rx_callback+0x10c>)
    7976:	7893      	ldrb	r3, [r2, #2]
    7978:	404b      	eors	r3, r1
    797a:	7093      	strb	r3, [r2, #2]
					parameter++;
    797c:	7853      	ldrb	r3, [r2, #1]
    797e:	3301      	adds	r3, #1
    7980:	b2db      	uxtb	r3, r3
    7982:	7053      	strb	r3, [r2, #1]
				break;
    7984:	e7d8      	b.n	7938 <serial_rx_callback+0x40>
					event_report.object_index=ch;
    7986:	466b      	mov	r3, sp
    7988:	79d9      	ldrb	r1, [r3, #7]
    798a:	4b1f      	ldr	r3, [pc, #124]	; (7a08 <serial_rx_callback+0x110>)
    798c:	7059      	strb	r1, [r3, #1]
					chksum^=ch;
    798e:	4a1d      	ldr	r2, [pc, #116]	; (7a04 <serial_rx_callback+0x10c>)
    7990:	7893      	ldrb	r3, [r2, #2]
    7992:	404b      	eors	r3, r1
    7994:	7093      	strb	r3, [r2, #2]
					parameter++;
    7996:	7853      	ldrb	r3, [r2, #1]
    7998:	3301      	adds	r3, #1
    799a:	b2db      	uxtb	r3, r3
    799c:	7053      	strb	r3, [r2, #1]
				break;
    799e:	e7cb      	b.n	7938 <serial_rx_callback+0x40>
					event_report.value_msb=ch;
    79a0:	466b      	mov	r3, sp
    79a2:	79d9      	ldrb	r1, [r3, #7]
    79a4:	4b18      	ldr	r3, [pc, #96]	; (7a08 <serial_rx_callback+0x110>)
    79a6:	7099      	strb	r1, [r3, #2]
					chksum^=ch;
    79a8:	4a16      	ldr	r2, [pc, #88]	; (7a04 <serial_rx_callback+0x10c>)
    79aa:	7893      	ldrb	r3, [r2, #2]
    79ac:	404b      	eors	r3, r1
    79ae:	7093      	strb	r3, [r2, #2]
					parameter++;
    79b0:	7853      	ldrb	r3, [r2, #1]
    79b2:	3301      	adds	r3, #1
    79b4:	b2db      	uxtb	r3, r3
    79b6:	7053      	strb	r3, [r2, #1]
				break;
    79b8:	e7be      	b.n	7938 <serial_rx_callback+0x40>
					event_report.value_lsb=ch;
    79ba:	466b      	mov	r3, sp
    79bc:	79d9      	ldrb	r1, [r3, #7]
    79be:	4b12      	ldr	r3, [pc, #72]	; (7a08 <serial_rx_callback+0x110>)
    79c0:	70d9      	strb	r1, [r3, #3]
					chksum^=ch;
    79c2:	4a10      	ldr	r2, [pc, #64]	; (7a04 <serial_rx_callback+0x10c>)
    79c4:	7893      	ldrb	r3, [r2, #2]
    79c6:	404b      	eors	r3, r1
    79c8:	7093      	strb	r3, [r2, #2]
					parameter++;
    79ca:	7853      	ldrb	r3, [r2, #1]
    79cc:	3301      	adds	r3, #1
    79ce:	b2db      	uxtb	r3, r3
    79d0:	7053      	strb	r3, [r2, #1]
				break;
    79d2:	e7b1      	b.n	7938 <serial_rx_callback+0x40>
					event_report.cksum=ch;
    79d4:	466b      	mov	r3, sp
    79d6:	79d9      	ldrb	r1, [r3, #7]
    79d8:	4b0b      	ldr	r3, [pc, #44]	; (7a08 <serial_rx_callback+0x110>)
    79da:	7119      	strb	r1, [r3, #4]
					chksum^=ch;
    79dc:	4b09      	ldr	r3, [pc, #36]	; (7a04 <serial_rx_callback+0x10c>)
    79de:	789a      	ldrb	r2, [r3, #2]
    79e0:	404a      	eors	r2, r1
    79e2:	709a      	strb	r2, [r3, #2]
					if (chksum == 0) {
    79e4:	789b      	ldrb	r3, [r3, #2]
    79e6:	2b00      	cmp	r3, #0
    79e8:	d102      	bne.n	79f0 <serial_rx_callback+0xf8>
						event_report.report_valid=true;
    79ea:	2201      	movs	r2, #1
    79ec:	4b06      	ldr	r3, [pc, #24]	; (7a08 <serial_rx_callback+0x110>)
    79ee:	715a      	strb	r2, [r3, #5]
					parameter=0;
    79f0:	4b04      	ldr	r3, [pc, #16]	; (7a04 <serial_rx_callback+0x10c>)
    79f2:	2200      	movs	r2, #0
    79f4:	705a      	strb	r2, [r3, #1]
					RX_in_progress=false;
    79f6:	701a      	strb	r2, [r3, #0]
				break;
    79f8:	e79e      	b.n	7938 <serial_rx_callback+0x40>
    79fa:	46c0      	nop			; (mov r8, r8)
    79fc:	200009a8 	.word	0x200009a8
    7a00:	00001961 	.word	0x00001961
    7a04:	200007c8 	.word	0x200007c8
    7a08:	20000a34 	.word	0x20000a34
    7a0c:	20000a64 	.word	0x20000a64
    7a10:	20000a7c 	.word	0x20000a7c
    7a14:	0000eb74 	.word	0x0000eb74

00007a18 <send_uart>:

void send_uart(char * message)
{
    7a18:	b570      	push	{r4, r5, r6, lr}
	//    Message different than null
	if (strlen(message) != 0)
    7a1a:	7803      	ldrb	r3, [r0, #0]
    7a1c:	2b00      	cmp	r3, #0
    7a1e:	d00b      	beq.n	7a38 <send_uart+0x20>
	{
		//    Input message into FIFO buffer
		Buffer[storage_txbuffer]=message;
    7a20:	4c1a      	ldr	r4, [pc, #104]	; (7a8c <send_uart+0x74>)
    7a22:	78e3      	ldrb	r3, [r4, #3]
    7a24:	009b      	lsls	r3, r3, #2
    7a26:	18e3      	adds	r3, r4, r3
    7a28:	6058      	str	r0, [r3, #4]
		
		//    Increase tail cursor of circular buffer for next message
		storage_txbuffer = (storage_txbuffer + 1) %25;
    7a2a:	78e0      	ldrb	r0, [r4, #3]
    7a2c:	3001      	adds	r0, #1
    7a2e:	2119      	movs	r1, #25
    7a30:	4b17      	ldr	r3, [pc, #92]	; (7a90 <send_uart+0x78>)
    7a32:	4798      	blx	r3
    7a34:	b2c9      	uxtb	r1, r1
    7a36:	70e1      	strb	r1, [r4, #3]
	}
	
	//    Uart ready to transmit & there is something to transmit (head and tail pointers =/=)
	if (!TX_in_progress && (storage_txbuffer != stage_txbuffer))
    7a38:	2368      	movs	r3, #104	; 0x68
    7a3a:	4a14      	ldr	r2, [pc, #80]	; (7a8c <send_uart+0x74>)
    7a3c:	5cd3      	ldrb	r3, [r2, r3]
    7a3e:	2b00      	cmp	r3, #0
    7a40:	d122      	bne.n	7a88 <send_uart+0x70>
    7a42:	0013      	movs	r3, r2
    7a44:	78d2      	ldrb	r2, [r2, #3]
    7a46:	b2d2      	uxtb	r2, r2
    7a48:	2169      	movs	r1, #105	; 0x69
    7a4a:	5c5b      	ldrb	r3, [r3, r1]
    7a4c:	b2db      	uxtb	r3, r3
    7a4e:	429a      	cmp	r2, r3
    7a50:	d01a      	beq.n	7a88 <send_uart+0x70>
	{
		//    Get length of message
		int length = strlen(Buffer[stage_txbuffer]);
    7a52:	4c0e      	ldr	r4, [pc, #56]	; (7a8c <send_uart+0x74>)
    7a54:	2569      	movs	r5, #105	; 0x69
    7a56:	5d63      	ldrb	r3, [r4, r5]
    7a58:	009b      	lsls	r3, r3, #2
    7a5a:	18e3      	adds	r3, r4, r3
    7a5c:	6858      	ldr	r0, [r3, #4]
    7a5e:	4b0d      	ldr	r3, [pc, #52]	; (7a94 <send_uart+0x7c>)
    7a60:	4798      	blx	r3
		
		//    Set transmitting flag
		TX_in_progress = true;
    7a62:	2201      	movs	r2, #1
    7a64:	2368      	movs	r3, #104	; 0x68
    7a66:	54e2      	strb	r2, [r4, r3]
		
		//    Write message
		io_write(io,(uint8_t*)Buffer[stage_txbuffer],length);
    7a68:	5d63      	ldrb	r3, [r4, r5]
    7a6a:	009b      	lsls	r3, r3, #2
    7a6c:	18e3      	adds	r3, r4, r3
    7a6e:	6859      	ldr	r1, [r3, #4]
    7a70:	b282      	uxth	r2, r0
    7a72:	4b09      	ldr	r3, [pc, #36]	; (7a98 <send_uart+0x80>)
    7a74:	6818      	ldr	r0, [r3, #0]
    7a76:	4b09      	ldr	r3, [pc, #36]	; (7a9c <send_uart+0x84>)
    7a78:	4798      	blx	r3
		
		//    Increase head cursor of circular buffer
		stage_txbuffer = (stage_txbuffer + 1) %25;
    7a7a:	5d60      	ldrb	r0, [r4, r5]
    7a7c:	3001      	adds	r0, #1
    7a7e:	2119      	movs	r1, #25
    7a80:	4b03      	ldr	r3, [pc, #12]	; (7a90 <send_uart+0x78>)
    7a82:	4798      	blx	r3
    7a84:	b2c9      	uxtb	r1, r1
    7a86:	5561      	strb	r1, [r4, r5]
	}
}
    7a88:	bd70      	pop	{r4, r5, r6, pc}
    7a8a:	46c0      	nop			; (mov r8, r8)
    7a8c:	200007c8 	.word	0x200007c8
    7a90:	0000941d 	.word	0x0000941d
    7a94:	000097dd 	.word	0x000097dd
    7a98:	20000ac4 	.word	0x20000ac4
    7a9c:	00001929 	.word	0x00001929

00007aa0 <serial_tx_callback>:

void serial_tx_callback(const struct usart_async_descriptor *const io_descr)
{
    7aa0:	b510      	push	{r4, lr}
	TX_in_progress = false;
    7aa2:	2100      	movs	r1, #0
    7aa4:	2368      	movs	r3, #104	; 0x68
    7aa6:	4a03      	ldr	r2, [pc, #12]	; (7ab4 <serial_tx_callback+0x14>)
    7aa8:	54d1      	strb	r1, [r2, r3]
	send_uart("");
    7aaa:	4803      	ldr	r0, [pc, #12]	; (7ab8 <serial_tx_callback+0x18>)
    7aac:	4b03      	ldr	r3, [pc, #12]	; (7abc <serial_tx_callback+0x1c>)
    7aae:	4798      	blx	r3
}
    7ab0:	bd10      	pop	{r4, pc}
    7ab2:	46c0      	nop			; (mov r8, r8)
    7ab4:	200007c8 	.word	0x200007c8
    7ab8:	0000e294 	.word	0x0000e294
    7abc:	00007a19 	.word	0x00007a19

00007ac0 <uart_init>:

void uart_init()
{
    7ac0:	b570      	push	{r4, r5, r6, lr}
	printf("register rx callback\r\n");
    7ac2:	480c      	ldr	r0, [pc, #48]	; (7af4 <uart_init+0x34>)
    7ac4:	4d0c      	ldr	r5, [pc, #48]	; (7af8 <uart_init+0x38>)
    7ac6:	47a8      	blx	r5
	//	Setup RX callback
	usart_async_register_callback(&USART_1, USART_ASYNC_RXC_CB, serial_rx_callback);
    7ac8:	4c0c      	ldr	r4, [pc, #48]	; (7afc <uart_init+0x3c>)
    7aca:	4a0d      	ldr	r2, [pc, #52]	; (7b00 <uart_init+0x40>)
    7acc:	2100      	movs	r1, #0
    7ace:	0020      	movs	r0, r4
    7ad0:	4e0c      	ldr	r6, [pc, #48]	; (7b04 <uart_init+0x44>)
    7ad2:	47b0      	blx	r6

	printf("register tx callback\r\n");
    7ad4:	480c      	ldr	r0, [pc, #48]	; (7b08 <uart_init+0x48>)
    7ad6:	47a8      	blx	r5
	//	Setup TX callback
	usart_async_register_callback(&USART_1, USART_ASYNC_TXC_CB, serial_tx_callback);
    7ad8:	4a0c      	ldr	r2, [pc, #48]	; (7b0c <uart_init+0x4c>)
    7ada:	2101      	movs	r1, #1
    7adc:	0020      	movs	r0, r4
    7ade:	47b0      	blx	r6
	// 	usart_async_register_callback(&USART_1, USART_ASYNC_ERROR_CB, err_cb);

	//	Setup USART
	usart_async_get_io_descriptor(&USART_1, &io);
    7ae0:	490b      	ldr	r1, [pc, #44]	; (7b10 <uart_init+0x50>)
    7ae2:	0020      	movs	r0, r4
    7ae4:	4b0b      	ldr	r3, [pc, #44]	; (7b14 <uart_init+0x54>)
    7ae6:	4798      	blx	r3
	printf("Enable uart1\r\n");
    7ae8:	480b      	ldr	r0, [pc, #44]	; (7b18 <uart_init+0x58>)
    7aea:	47a8      	blx	r5
	usart_async_enable(&USART_1);
    7aec:	0020      	movs	r0, r4
    7aee:	4b0b      	ldr	r3, [pc, #44]	; (7b1c <uart_init+0x5c>)
    7af0:	4798      	blx	r3
    7af2:	bd70      	pop	{r4, r5, r6, pc}
    7af4:	0000eb8c 	.word	0x0000eb8c
    7af8:	000095f9 	.word	0x000095f9
    7afc:	200009a8 	.word	0x200009a8
    7b00:	000078f9 	.word	0x000078f9
    7b04:	00001f01 	.word	0x00001f01
    7b08:	0000eba4 	.word	0x0000eba4
    7b0c:	00007aa1 	.word	0x00007aa1
    7b10:	20000ac4 	.word	0x20000ac4
    7b14:	00001ed1 	.word	0x00001ed1
    7b18:	0000ebbc 	.word	0x0000ebbc
    7b1c:	00001ea5 	.word	0x00001ea5

00007b20 <cdcdf_acm_get_req>:
    7b20:	b510      	push	{r4, lr}
    7b22:	798b      	ldrb	r3, [r1, #6]
    7b24:	79cc      	ldrb	r4, [r1, #7]
    7b26:	0224      	lsls	r4, r4, #8
    7b28:	431c      	orrs	r4, r3
    7b2a:	2a01      	cmp	r2, #1
    7b2c:	d00a      	beq.n	7b44 <cdcdf_acm_get_req+0x24>
    7b2e:	784b      	ldrb	r3, [r1, #1]
    7b30:	2b21      	cmp	r3, #33	; 0x21
    7b32:	d109      	bne.n	7b48 <cdcdf_acm_get_req+0x28>
    7b34:	2c07      	cmp	r4, #7
    7b36:	d10a      	bne.n	7b4e <cdcdf_acm_get_req+0x2e>
    7b38:	2300      	movs	r3, #0
    7b3a:	0022      	movs	r2, r4
    7b3c:	4905      	ldr	r1, [pc, #20]	; (7b54 <cdcdf_acm_get_req+0x34>)
    7b3e:	4c06      	ldr	r4, [pc, #24]	; (7b58 <cdcdf_acm_get_req+0x38>)
    7b40:	47a0      	blx	r4
    7b42:	bd10      	pop	{r4, pc}
    7b44:	2000      	movs	r0, #0
    7b46:	e7fc      	b.n	7b42 <cdcdf_acm_get_req+0x22>
    7b48:	200d      	movs	r0, #13
    7b4a:	4240      	negs	r0, r0
    7b4c:	e7f9      	b.n	7b42 <cdcdf_acm_get_req+0x22>
    7b4e:	2001      	movs	r0, #1
    7b50:	4240      	negs	r0, r0
    7b52:	e7f6      	b.n	7b42 <cdcdf_acm_get_req+0x22>
    7b54:	20000834 	.word	0x20000834
    7b58:	000085c9 	.word	0x000085c9

00007b5c <cdcdf_acm_set_req>:
    7b5c:	b5f0      	push	{r4, r5, r6, r7, lr}
    7b5e:	b083      	sub	sp, #12
    7b60:	0005      	movs	r5, r0
    7b62:	000f      	movs	r7, r1
    7b64:	0014      	movs	r4, r2
    7b66:	798e      	ldrb	r6, [r1, #6]
    7b68:	79cb      	ldrb	r3, [r1, #7]
    7b6a:	021b      	lsls	r3, r3, #8
    7b6c:	431e      	orrs	r6, r3
    7b6e:	4b23      	ldr	r3, [pc, #140]	; (7bfc <cdcdf_acm_set_req+0xa0>)
    7b70:	4798      	blx	r3
    7b72:	787b      	ldrb	r3, [r7, #1]
    7b74:	2b20      	cmp	r3, #32
    7b76:	d005      	beq.n	7b84 <cdcdf_acm_set_req+0x28>
    7b78:	2b22      	cmp	r3, #34	; 0x22
    7b7a:	d026      	beq.n	7bca <cdcdf_acm_set_req+0x6e>
    7b7c:	200d      	movs	r0, #13
    7b7e:	4240      	negs	r0, r0
    7b80:	b003      	add	sp, #12
    7b82:	bdf0      	pop	{r4, r5, r6, r7, pc}
    7b84:	2e07      	cmp	r6, #7
    7b86:	d131      	bne.n	7bec <cdcdf_acm_set_req+0x90>
    7b88:	2c00      	cmp	r4, #0
    7b8a:	d017      	beq.n	7bbc <cdcdf_acm_set_req+0x60>
    7b8c:	2207      	movs	r2, #7
    7b8e:	0001      	movs	r1, r0
    7b90:	4668      	mov	r0, sp
    7b92:	4b1b      	ldr	r3, [pc, #108]	; (7c00 <cdcdf_acm_set_req+0xa4>)
    7b94:	4798      	blx	r3
    7b96:	4b1b      	ldr	r3, [pc, #108]	; (7c04 <cdcdf_acm_set_req+0xa8>)
    7b98:	689b      	ldr	r3, [r3, #8]
    7b9a:	2b00      	cmp	r3, #0
    7b9c:	d003      	beq.n	7ba6 <cdcdf_acm_set_req+0x4a>
    7b9e:	4668      	mov	r0, sp
    7ba0:	4798      	blx	r3
    7ba2:	2800      	cmp	r0, #0
    7ba4:	d025      	beq.n	7bf2 <cdcdf_acm_set_req+0x96>
    7ba6:	4b17      	ldr	r3, [pc, #92]	; (7c04 <cdcdf_acm_set_req+0xa8>)
    7ba8:	9a00      	ldr	r2, [sp, #0]
    7baa:	601a      	str	r2, [r3, #0]
    7bac:	466a      	mov	r2, sp
    7bae:	8892      	ldrh	r2, [r2, #4]
    7bb0:	809a      	strh	r2, [r3, #4]
    7bb2:	466a      	mov	r2, sp
    7bb4:	7992      	ldrb	r2, [r2, #6]
    7bb6:	719a      	strb	r2, [r3, #6]
    7bb8:	2000      	movs	r0, #0
    7bba:	e7e1      	b.n	7b80 <cdcdf_acm_set_req+0x24>
    7bbc:	2300      	movs	r3, #0
    7bbe:	0032      	movs	r2, r6
    7bc0:	0001      	movs	r1, r0
    7bc2:	0028      	movs	r0, r5
    7bc4:	4c10      	ldr	r4, [pc, #64]	; (7c08 <cdcdf_acm_set_req+0xac>)
    7bc6:	47a0      	blx	r4
    7bc8:	e7da      	b.n	7b80 <cdcdf_acm_set_req+0x24>
    7bca:	2300      	movs	r3, #0
    7bcc:	2200      	movs	r2, #0
    7bce:	2100      	movs	r1, #0
    7bd0:	2000      	movs	r0, #0
    7bd2:	4c0d      	ldr	r4, [pc, #52]	; (7c08 <cdcdf_acm_set_req+0xac>)
    7bd4:	47a0      	blx	r4
    7bd6:	4b0b      	ldr	r3, [pc, #44]	; (7c04 <cdcdf_acm_set_req+0xa8>)
    7bd8:	68db      	ldr	r3, [r3, #12]
    7bda:	2b00      	cmp	r3, #0
    7bdc:	d00b      	beq.n	7bf6 <cdcdf_acm_set_req+0x9a>
    7bde:	78ba      	ldrb	r2, [r7, #2]
    7be0:	78f8      	ldrb	r0, [r7, #3]
    7be2:	0200      	lsls	r0, r0, #8
    7be4:	4310      	orrs	r0, r2
    7be6:	4798      	blx	r3
    7be8:	2000      	movs	r0, #0
    7bea:	e7c9      	b.n	7b80 <cdcdf_acm_set_req+0x24>
    7bec:	2001      	movs	r0, #1
    7bee:	4240      	negs	r0, r0
    7bf0:	e7c6      	b.n	7b80 <cdcdf_acm_set_req+0x24>
    7bf2:	2000      	movs	r0, #0
    7bf4:	e7c4      	b.n	7b80 <cdcdf_acm_set_req+0x24>
    7bf6:	2000      	movs	r0, #0
    7bf8:	e7c2      	b.n	7b80 <cdcdf_acm_set_req+0x24>
    7bfa:	46c0      	nop			; (mov r8, r8)
    7bfc:	00008b55 	.word	0x00008b55
    7c00:	000094e3 	.word	0x000094e3
    7c04:	20000834 	.word	0x20000834
    7c08:	000085c9 	.word	0x000085c9

00007c0c <cdcdf_acm_req>:
    7c0c:	b570      	push	{r4, r5, r6, lr}
    7c0e:	780c      	ldrb	r4, [r1, #0]
    7c10:	0965      	lsrs	r5, r4, #5
    7c12:	2303      	movs	r3, #3
    7c14:	402b      	ands	r3, r5
    7c16:	2b01      	cmp	r3, #1
    7c18:	d114      	bne.n	7c44 <cdcdf_acm_req+0x38>
    7c1a:	790d      	ldrb	r5, [r1, #4]
    7c1c:	794b      	ldrb	r3, [r1, #5]
    7c1e:	021b      	lsls	r3, r3, #8
    7c20:	432b      	orrs	r3, r5
    7c22:	4d0b      	ldr	r5, [pc, #44]	; (7c50 <cdcdf_acm_req+0x44>)
    7c24:	7c2d      	ldrb	r5, [r5, #16]
    7c26:	42ab      	cmp	r3, r5
    7c28:	d003      	beq.n	7c32 <cdcdf_acm_req+0x26>
    7c2a:	4d09      	ldr	r5, [pc, #36]	; (7c50 <cdcdf_acm_req+0x44>)
    7c2c:	7c6d      	ldrb	r5, [r5, #17]
    7c2e:	42ab      	cmp	r3, r5
    7c30:	d10b      	bne.n	7c4a <cdcdf_acm_req+0x3e>
    7c32:	b264      	sxtb	r4, r4
    7c34:	2c00      	cmp	r4, #0
    7c36:	db02      	blt.n	7c3e <cdcdf_acm_req+0x32>
    7c38:	4b06      	ldr	r3, [pc, #24]	; (7c54 <cdcdf_acm_req+0x48>)
    7c3a:	4798      	blx	r3
    7c3c:	bd70      	pop	{r4, r5, r6, pc}
    7c3e:	4b06      	ldr	r3, [pc, #24]	; (7c58 <cdcdf_acm_req+0x4c>)
    7c40:	4798      	blx	r3
    7c42:	e7fb      	b.n	7c3c <cdcdf_acm_req+0x30>
    7c44:	200a      	movs	r0, #10
    7c46:	4240      	negs	r0, r0
    7c48:	e7f8      	b.n	7c3c <cdcdf_acm_req+0x30>
    7c4a:	200a      	movs	r0, #10
    7c4c:	4240      	negs	r0, r0
    7c4e:	e7f5      	b.n	7c3c <cdcdf_acm_req+0x30>
    7c50:	20000834 	.word	0x20000834
    7c54:	00007b5d 	.word	0x00007b5d
    7c58:	00007b21 	.word	0x00007b21

00007c5c <cdcdf_acm_enable>:
    7c5c:	b5f8      	push	{r3, r4, r5, r6, r7, lr}
    7c5e:	46ce      	mov	lr, r9
    7c60:	4647      	mov	r7, r8
    7c62:	b580      	push	{r7, lr}
    7c64:	000e      	movs	r6, r1
    7c66:	6887      	ldr	r7, [r0, #8]
    7c68:	6808      	ldr	r0, [r1, #0]
    7c6a:	2300      	movs	r3, #0
    7c6c:	4698      	mov	r8, r3
    7c6e:	4643      	mov	r3, r8
    7c70:	2b01      	cmp	r3, #1
    7c72:	d845      	bhi.n	7d00 <cdcdf_acm_enable+0xa4>
    7c74:	2800      	cmp	r0, #0
    7c76:	d04b      	beq.n	7d10 <cdcdf_acm_enable+0xb4>
    7c78:	7883      	ldrb	r3, [r0, #2]
    7c7a:	7942      	ldrb	r2, [r0, #5]
    7c7c:	2a02      	cmp	r2, #2
    7c7e:	d001      	beq.n	7c84 <cdcdf_acm_enable+0x28>
    7c80:	2a0a      	cmp	r2, #10
    7c82:	d148      	bne.n	7d16 <cdcdf_acm_enable+0xba>
    7c84:	46c1      	mov	r9, r8
    7c86:	4642      	mov	r2, r8
    7c88:	5cba      	ldrb	r2, [r7, r2]
    7c8a:	4293      	cmp	r3, r2
    7c8c:	d046      	beq.n	7d1c <cdcdf_acm_enable+0xc0>
    7c8e:	2aff      	cmp	r2, #255	; 0xff
    7c90:	d147      	bne.n	7d22 <cdcdf_acm_enable+0xc6>
    7c92:	4642      	mov	r2, r8
    7c94:	54bb      	strb	r3, [r7, r2]
    7c96:	2205      	movs	r2, #5
    7c98:	6871      	ldr	r1, [r6, #4]
    7c9a:	4b25      	ldr	r3, [pc, #148]	; (7d30 <cdcdf_acm_enable+0xd4>)
    7c9c:	4798      	blx	r3
    7c9e:	0004      	movs	r4, r0
    7ca0:	e00c      	b.n	7cbc <cdcdf_acm_enable+0x60>
    7ca2:	464b      	mov	r3, r9
    7ca4:	18fb      	adds	r3, r7, r3
    7ca6:	709d      	strb	r5, [r3, #2]
    7ca8:	0028      	movs	r0, r5
    7caa:	4b22      	ldr	r3, [pc, #136]	; (7d34 <cdcdf_acm_enable+0xd8>)
    7cac:	4798      	blx	r3
    7cae:	6034      	str	r4, [r6, #0]
    7cb0:	7820      	ldrb	r0, [r4, #0]
    7cb2:	1820      	adds	r0, r4, r0
    7cb4:	6871      	ldr	r1, [r6, #4]
    7cb6:	4b20      	ldr	r3, [pc, #128]	; (7d38 <cdcdf_acm_enable+0xdc>)
    7cb8:	4798      	blx	r3
    7cba:	0004      	movs	r4, r0
    7cbc:	2c00      	cmp	r4, #0
    7cbe:	d013      	beq.n	7ce8 <cdcdf_acm_enable+0x8c>
    7cc0:	78a5      	ldrb	r5, [r4, #2]
    7cc2:	78e1      	ldrb	r1, [r4, #3]
    7cc4:	7922      	ldrb	r2, [r4, #4]
    7cc6:	7963      	ldrb	r3, [r4, #5]
    7cc8:	021b      	lsls	r3, r3, #8
    7cca:	18d2      	adds	r2, r2, r3
    7ccc:	b292      	uxth	r2, r2
    7cce:	0028      	movs	r0, r5
    7cd0:	4b1a      	ldr	r3, [pc, #104]	; (7d3c <cdcdf_acm_enable+0xe0>)
    7cd2:	4798      	blx	r3
    7cd4:	2800      	cmp	r0, #0
    7cd6:	d127      	bne.n	7d28 <cdcdf_acm_enable+0xcc>
    7cd8:	b26b      	sxtb	r3, r5
    7cda:	2b00      	cmp	r3, #0
    7cdc:	dbe1      	blt.n	7ca2 <cdcdf_acm_enable+0x46>
    7cde:	713d      	strb	r5, [r7, #4]
    7ce0:	0028      	movs	r0, r5
    7ce2:	4b14      	ldr	r3, [pc, #80]	; (7d34 <cdcdf_acm_enable+0xd8>)
    7ce4:	4798      	blx	r3
    7ce6:	e7e2      	b.n	7cae <cdcdf_acm_enable+0x52>
    7ce8:	6830      	ldr	r0, [r6, #0]
    7cea:	7803      	ldrb	r3, [r0, #0]
    7cec:	18c0      	adds	r0, r0, r3
    7cee:	2204      	movs	r2, #4
    7cf0:	6871      	ldr	r1, [r6, #4]
    7cf2:	4b0f      	ldr	r3, [pc, #60]	; (7d30 <cdcdf_acm_enable+0xd4>)
    7cf4:	4798      	blx	r3
    7cf6:	4643      	mov	r3, r8
    7cf8:	3301      	adds	r3, #1
    7cfa:	b2db      	uxtb	r3, r3
    7cfc:	4698      	mov	r8, r3
    7cfe:	e7b6      	b.n	7c6e <cdcdf_acm_enable+0x12>
    7d00:	2201      	movs	r2, #1
    7d02:	4b0f      	ldr	r3, [pc, #60]	; (7d40 <cdcdf_acm_enable+0xe4>)
    7d04:	755a      	strb	r2, [r3, #21]
    7d06:	2000      	movs	r0, #0
    7d08:	bc0c      	pop	{r2, r3}
    7d0a:	4690      	mov	r8, r2
    7d0c:	4699      	mov	r9, r3
    7d0e:	bdf8      	pop	{r3, r4, r5, r6, r7, pc}
    7d10:	200a      	movs	r0, #10
    7d12:	4240      	negs	r0, r0
    7d14:	e7f8      	b.n	7d08 <cdcdf_acm_enable+0xac>
    7d16:	200a      	movs	r0, #10
    7d18:	4240      	negs	r0, r0
    7d1a:	e7f5      	b.n	7d08 <cdcdf_acm_enable+0xac>
    7d1c:	2012      	movs	r0, #18
    7d1e:	4240      	negs	r0, r0
    7d20:	e7f2      	b.n	7d08 <cdcdf_acm_enable+0xac>
    7d22:	201c      	movs	r0, #28
    7d24:	4240      	negs	r0, r0
    7d26:	e7ef      	b.n	7d08 <cdcdf_acm_enable+0xac>
    7d28:	2014      	movs	r0, #20
    7d2a:	4240      	negs	r0, r0
    7d2c:	e7ec      	b.n	7d08 <cdcdf_acm_enable+0xac>
    7d2e:	46c0      	nop			; (mov r8, r8)
    7d30:	00008b71 	.word	0x00008b71
    7d34:	00002475 	.word	0x00002475
    7d38:	00008b8f 	.word	0x00008b8f
    7d3c:	000023e1 	.word	0x000023e1
    7d40:	20000834 	.word	0x20000834

00007d44 <cdcdf_acm_disable>:
    7d44:	b570      	push	{r4, r5, r6, lr}
    7d46:	6885      	ldr	r5, [r0, #8]
    7d48:	2900      	cmp	r1, #0
    7d4a:	d01a      	beq.n	7d82 <cdcdf_acm_disable+0x3e>
    7d4c:	680b      	ldr	r3, [r1, #0]
    7d4e:	795b      	ldrb	r3, [r3, #5]
    7d50:	2b02      	cmp	r3, #2
    7d52:	d018      	beq.n	7d86 <cdcdf_acm_disable+0x42>
    7d54:	2b0a      	cmp	r3, #10
    7d56:	d124      	bne.n	7da2 <cdcdf_acm_disable+0x5e>
    7d58:	2400      	movs	r4, #0
    7d5a:	e001      	b.n	7d60 <cdcdf_acm_disable+0x1c>
    7d5c:	3401      	adds	r4, #1
    7d5e:	b2e4      	uxtb	r4, r4
    7d60:	2c01      	cmp	r4, #1
    7d62:	d812      	bhi.n	7d8a <cdcdf_acm_disable+0x46>
    7d64:	5d2b      	ldrb	r3, [r5, r4]
    7d66:	2bff      	cmp	r3, #255	; 0xff
    7d68:	d0f8      	beq.n	7d5c <cdcdf_acm_disable+0x18>
    7d6a:	23ff      	movs	r3, #255	; 0xff
    7d6c:	552b      	strb	r3, [r5, r4]
    7d6e:	192b      	adds	r3, r5, r4
    7d70:	7898      	ldrb	r0, [r3, #2]
    7d72:	28ff      	cmp	r0, #255	; 0xff
    7d74:	d0f2      	beq.n	7d5c <cdcdf_acm_disable+0x18>
    7d76:	4b0c      	ldr	r3, [pc, #48]	; (7da8 <cdcdf_acm_disable+0x64>)
    7d78:	4798      	blx	r3
    7d7a:	192e      	adds	r6, r5, r4
    7d7c:	22ff      	movs	r2, #255	; 0xff
    7d7e:	70b2      	strb	r2, [r6, #2]
    7d80:	e7ec      	b.n	7d5c <cdcdf_acm_disable+0x18>
    7d82:	2400      	movs	r4, #0
    7d84:	e7ec      	b.n	7d60 <cdcdf_acm_disable+0x1c>
    7d86:	2400      	movs	r4, #0
    7d88:	e7ea      	b.n	7d60 <cdcdf_acm_disable+0x1c>
    7d8a:	7928      	ldrb	r0, [r5, #4]
    7d8c:	28ff      	cmp	r0, #255	; 0xff
    7d8e:	d003      	beq.n	7d98 <cdcdf_acm_disable+0x54>
    7d90:	4b05      	ldr	r3, [pc, #20]	; (7da8 <cdcdf_acm_disable+0x64>)
    7d92:	4798      	blx	r3
    7d94:	23ff      	movs	r3, #255	; 0xff
    7d96:	712b      	strb	r3, [r5, #4]
    7d98:	2200      	movs	r2, #0
    7d9a:	4b04      	ldr	r3, [pc, #16]	; (7dac <cdcdf_acm_disable+0x68>)
    7d9c:	755a      	strb	r2, [r3, #21]
    7d9e:	2000      	movs	r0, #0
    7da0:	bd70      	pop	{r4, r5, r6, pc}
    7da2:	200a      	movs	r0, #10
    7da4:	4240      	negs	r0, r0
    7da6:	e7fb      	b.n	7da0 <cdcdf_acm_disable+0x5c>
    7da8:	00002449 	.word	0x00002449
    7dac:	20000834 	.word	0x20000834

00007db0 <cdcdf_acm_ctrl>:
    7db0:	b510      	push	{r4, lr}
    7db2:	2901      	cmp	r1, #1
    7db4:	d00a      	beq.n	7dcc <cdcdf_acm_ctrl+0x1c>
    7db6:	2900      	cmp	r1, #0
    7db8:	d004      	beq.n	7dc4 <cdcdf_acm_ctrl+0x14>
    7dba:	2902      	cmp	r1, #2
    7dbc:	d10a      	bne.n	7dd4 <cdcdf_acm_ctrl+0x24>
    7dbe:	201b      	movs	r0, #27
    7dc0:	4240      	negs	r0, r0
    7dc2:	bd10      	pop	{r4, pc}
    7dc4:	0011      	movs	r1, r2
    7dc6:	4b05      	ldr	r3, [pc, #20]	; (7ddc <cdcdf_acm_ctrl+0x2c>)
    7dc8:	4798      	blx	r3
    7dca:	e7fa      	b.n	7dc2 <cdcdf_acm_ctrl+0x12>
    7dcc:	0011      	movs	r1, r2
    7dce:	4b04      	ldr	r3, [pc, #16]	; (7de0 <cdcdf_acm_ctrl+0x30>)
    7dd0:	4798      	blx	r3
    7dd2:	e7f6      	b.n	7dc2 <cdcdf_acm_ctrl+0x12>
    7dd4:	200d      	movs	r0, #13
    7dd6:	4240      	negs	r0, r0
    7dd8:	e7f3      	b.n	7dc2 <cdcdf_acm_ctrl+0x12>
    7dda:	46c0      	nop			; (mov r8, r8)
    7ddc:	00007c5d 	.word	0x00007c5d
    7de0:	00007d45 	.word	0x00007d45

00007de4 <cdcdf_acm_init>:
    7de4:	b510      	push	{r4, lr}
    7de6:	4b0b      	ldr	r3, [pc, #44]	; (7e14 <cdcdf_acm_init+0x30>)
    7de8:	4798      	blx	r3
    7dea:	2801      	cmp	r0, #1
    7dec:	d80e      	bhi.n	7e0c <cdcdf_acm_init+0x28>
    7dee:	480a      	ldr	r0, [pc, #40]	; (7e18 <cdcdf_acm_init+0x34>)
    7df0:	4b0a      	ldr	r3, [pc, #40]	; (7e1c <cdcdf_acm_init+0x38>)
    7df2:	61c3      	str	r3, [r0, #28]
    7df4:	0003      	movs	r3, r0
    7df6:	3310      	adds	r3, #16
    7df8:	6203      	str	r3, [r0, #32]
    7dfa:	3018      	adds	r0, #24
    7dfc:	4b08      	ldr	r3, [pc, #32]	; (7e20 <cdcdf_acm_init+0x3c>)
    7dfe:	4798      	blx	r3
    7e00:	4908      	ldr	r1, [pc, #32]	; (7e24 <cdcdf_acm_init+0x40>)
    7e02:	2001      	movs	r0, #1
    7e04:	4b08      	ldr	r3, [pc, #32]	; (7e28 <cdcdf_acm_init+0x44>)
    7e06:	4798      	blx	r3
    7e08:	2000      	movs	r0, #0
    7e0a:	bd10      	pop	{r4, pc}
    7e0c:	2011      	movs	r0, #17
    7e0e:	4240      	negs	r0, r0
    7e10:	e7fb      	b.n	7e0a <cdcdf_acm_init+0x26>
    7e12:	46c0      	nop			; (mov r8, r8)
    7e14:	00008b61 	.word	0x00008b61
    7e18:	20000834 	.word	0x20000834
    7e1c:	00007db1 	.word	0x00007db1
    7e20:	00008af9 	.word	0x00008af9
    7e24:	2000000c 	.word	0x2000000c
    7e28:	00008a61 	.word	0x00008a61

00007e2c <hid_keyboard_get_desc>:
    7e2c:	b510      	push	{r4, lr}
    7e2e:	78cb      	ldrb	r3, [r1, #3]
    7e30:	2b21      	cmp	r3, #33	; 0x21
    7e32:	d004      	beq.n	7e3e <hid_keyboard_get_desc+0x12>
    7e34:	2b22      	cmp	r3, #34	; 0x22
    7e36:	d009      	beq.n	7e4c <hid_keyboard_get_desc+0x20>
    7e38:	200d      	movs	r0, #13
    7e3a:	4240      	negs	r0, r0
    7e3c:	e005      	b.n	7e4a <hid_keyboard_get_desc+0x1e>
    7e3e:	4b06      	ldr	r3, [pc, #24]	; (7e58 <hid_keyboard_get_desc+0x2c>)
    7e40:	6819      	ldr	r1, [r3, #0]
    7e42:	780a      	ldrb	r2, [r1, #0]
    7e44:	2300      	movs	r3, #0
    7e46:	4c05      	ldr	r4, [pc, #20]	; (7e5c <hid_keyboard_get_desc+0x30>)
    7e48:	47a0      	blx	r4
    7e4a:	bd10      	pop	{r4, pc}
    7e4c:	2300      	movs	r3, #0
    7e4e:	223b      	movs	r2, #59	; 0x3b
    7e50:	4903      	ldr	r1, [pc, #12]	; (7e60 <hid_keyboard_get_desc+0x34>)
    7e52:	4c02      	ldr	r4, [pc, #8]	; (7e5c <hid_keyboard_get_desc+0x30>)
    7e54:	47a0      	blx	r4
    7e56:	e7f8      	b.n	7e4a <hid_keyboard_get_desc+0x1e>
    7e58:	20000858 	.word	0x20000858
    7e5c:	000085c9 	.word	0x000085c9
    7e60:	0000ebcc 	.word	0x0000ebcc

00007e64 <hid_keyboard_req>:
    7e64:	b510      	push	{r4, lr}
    7e66:	780b      	ldrb	r3, [r1, #0]
    7e68:	2b81      	cmp	r3, #129	; 0x81
    7e6a:	d014      	beq.n	7e96 <hid_keyboard_req+0x32>
    7e6c:	095b      	lsrs	r3, r3, #5
    7e6e:	2203      	movs	r2, #3
    7e70:	4013      	ands	r3, r2
    7e72:	2b01      	cmp	r3, #1
    7e74:	d12d      	bne.n	7ed2 <hid_keyboard_req+0x6e>
    7e76:	790a      	ldrb	r2, [r1, #4]
    7e78:	794b      	ldrb	r3, [r1, #5]
    7e7a:	021b      	lsls	r3, r3, #8
    7e7c:	4313      	orrs	r3, r2
    7e7e:	4a18      	ldr	r2, [pc, #96]	; (7ee0 <hid_keyboard_req+0x7c>)
    7e80:	7b12      	ldrb	r2, [r2, #12]
    7e82:	4293      	cmp	r3, r2
    7e84:	d128      	bne.n	7ed8 <hid_keyboard_req+0x74>
    7e86:	784b      	ldrb	r3, [r1, #1]
    7e88:	2b03      	cmp	r3, #3
    7e8a:	d012      	beq.n	7eb2 <hid_keyboard_req+0x4e>
    7e8c:	2b0b      	cmp	r3, #11
    7e8e:	d017      	beq.n	7ec0 <hid_keyboard_req+0x5c>
    7e90:	200d      	movs	r0, #13
    7e92:	4240      	negs	r0, r0
    7e94:	e013      	b.n	7ebe <hid_keyboard_req+0x5a>
    7e96:	784a      	ldrb	r2, [r1, #1]
    7e98:	2a06      	cmp	r2, #6
    7e9a:	d1e7      	bne.n	7e6c <hid_keyboard_req+0x8>
    7e9c:	790c      	ldrb	r4, [r1, #4]
    7e9e:	794a      	ldrb	r2, [r1, #5]
    7ea0:	0212      	lsls	r2, r2, #8
    7ea2:	4322      	orrs	r2, r4
    7ea4:	4c0e      	ldr	r4, [pc, #56]	; (7ee0 <hid_keyboard_req+0x7c>)
    7ea6:	7b24      	ldrb	r4, [r4, #12]
    7ea8:	42a2      	cmp	r2, r4
    7eaa:	d1df      	bne.n	7e6c <hid_keyboard_req+0x8>
    7eac:	4b0d      	ldr	r3, [pc, #52]	; (7ee4 <hid_keyboard_req+0x80>)
    7eae:	4798      	blx	r3
    7eb0:	e005      	b.n	7ebe <hid_keyboard_req+0x5a>
    7eb2:	2300      	movs	r3, #0
    7eb4:	2201      	movs	r2, #1
    7eb6:	490a      	ldr	r1, [pc, #40]	; (7ee0 <hid_keyboard_req+0x7c>)
    7eb8:	310f      	adds	r1, #15
    7eba:	4c0b      	ldr	r4, [pc, #44]	; (7ee8 <hid_keyboard_req+0x84>)
    7ebc:	47a0      	blx	r4
    7ebe:	bd10      	pop	{r4, pc}
    7ec0:	788a      	ldrb	r2, [r1, #2]
    7ec2:	4b07      	ldr	r3, [pc, #28]	; (7ee0 <hid_keyboard_req+0x7c>)
    7ec4:	73da      	strb	r2, [r3, #15]
    7ec6:	2300      	movs	r3, #0
    7ec8:	2200      	movs	r2, #0
    7eca:	2100      	movs	r1, #0
    7ecc:	4c06      	ldr	r4, [pc, #24]	; (7ee8 <hid_keyboard_req+0x84>)
    7ece:	47a0      	blx	r4
    7ed0:	e7f5      	b.n	7ebe <hid_keyboard_req+0x5a>
    7ed2:	200a      	movs	r0, #10
    7ed4:	4240      	negs	r0, r0
    7ed6:	e7f2      	b.n	7ebe <hid_keyboard_req+0x5a>
    7ed8:	200a      	movs	r0, #10
    7eda:	4240      	negs	r0, r0
    7edc:	e7ef      	b.n	7ebe <hid_keyboard_req+0x5a>
    7ede:	46c0      	nop			; (mov r8, r8)
    7ee0:	20000858 	.word	0x20000858
    7ee4:	00007e2d 	.word	0x00007e2d
    7ee8:	000085c9 	.word	0x000085c9

00007eec <hid_keyboard_enable>:
    7eec:	b5f8      	push	{r3, r4, r5, r6, r7, lr}
    7eee:	000e      	movs	r6, r1
    7ef0:	6887      	ldr	r7, [r0, #8]
    7ef2:	680b      	ldr	r3, [r1, #0]
    7ef4:	2b00      	cmp	r3, #0
    7ef6:	d03f      	beq.n	7f78 <hid_keyboard_enable+0x8c>
    7ef8:	789a      	ldrb	r2, [r3, #2]
    7efa:	795b      	ldrb	r3, [r3, #5]
    7efc:	2b03      	cmp	r3, #3
    7efe:	d13e      	bne.n	7f7e <hid_keyboard_enable+0x92>
    7f00:	7b3b      	ldrb	r3, [r7, #12]
    7f02:	429a      	cmp	r2, r3
    7f04:	d03e      	beq.n	7f84 <hid_keyboard_enable+0x98>
    7f06:	2bff      	cmp	r3, #255	; 0xff
    7f08:	d13f      	bne.n	7f8a <hid_keyboard_enable+0x9e>
    7f0a:	733a      	strb	r2, [r7, #12]
    7f0c:	6808      	ldr	r0, [r1, #0]
    7f0e:	7803      	ldrb	r3, [r0, #0]
    7f10:	18c0      	adds	r0, r0, r3
    7f12:	2221      	movs	r2, #33	; 0x21
    7f14:	6849      	ldr	r1, [r1, #4]
    7f16:	4b21      	ldr	r3, [pc, #132]	; (7f9c <hid_keyboard_enable+0xb0>)
    7f18:	4798      	blx	r3
    7f1a:	4b21      	ldr	r3, [pc, #132]	; (7fa0 <hid_keyboard_enable+0xb4>)
    7f1c:	6018      	str	r0, [r3, #0]
    7f1e:	2400      	movs	r4, #0
    7f20:	e005      	b.n	7f2e <hid_keyboard_enable+0x42>
    7f22:	737d      	strb	r5, [r7, #13]
    7f24:	0028      	movs	r0, r5
    7f26:	4b1f      	ldr	r3, [pc, #124]	; (7fa4 <hid_keyboard_enable+0xb8>)
    7f28:	4798      	blx	r3
    7f2a:	3401      	adds	r4, #1
    7f2c:	b2e4      	uxtb	r4, r4
    7f2e:	2c01      	cmp	r4, #1
    7f30:	d81c      	bhi.n	7f6c <hid_keyboard_enable+0x80>
    7f32:	6830      	ldr	r0, [r6, #0]
    7f34:	7803      	ldrb	r3, [r0, #0]
    7f36:	18c0      	adds	r0, r0, r3
    7f38:	6871      	ldr	r1, [r6, #4]
    7f3a:	4b1b      	ldr	r3, [pc, #108]	; (7fa8 <hid_keyboard_enable+0xbc>)
    7f3c:	4798      	blx	r3
    7f3e:	6030      	str	r0, [r6, #0]
    7f40:	2800      	cmp	r0, #0
    7f42:	d025      	beq.n	7f90 <hid_keyboard_enable+0xa4>
    7f44:	7885      	ldrb	r5, [r0, #2]
    7f46:	78c1      	ldrb	r1, [r0, #3]
    7f48:	7902      	ldrb	r2, [r0, #4]
    7f4a:	7943      	ldrb	r3, [r0, #5]
    7f4c:	021b      	lsls	r3, r3, #8
    7f4e:	18d2      	adds	r2, r2, r3
    7f50:	b292      	uxth	r2, r2
    7f52:	0028      	movs	r0, r5
    7f54:	4b15      	ldr	r3, [pc, #84]	; (7fac <hid_keyboard_enable+0xc0>)
    7f56:	4798      	blx	r3
    7f58:	2800      	cmp	r0, #0
    7f5a:	d11c      	bne.n	7f96 <hid_keyboard_enable+0xaa>
    7f5c:	b26b      	sxtb	r3, r5
    7f5e:	2b00      	cmp	r3, #0
    7f60:	dbdf      	blt.n	7f22 <hid_keyboard_enable+0x36>
    7f62:	73bd      	strb	r5, [r7, #14]
    7f64:	0028      	movs	r0, r5
    7f66:	4b0f      	ldr	r3, [pc, #60]	; (7fa4 <hid_keyboard_enable+0xb8>)
    7f68:	4798      	blx	r3
    7f6a:	e7de      	b.n	7f2a <hid_keyboard_enable+0x3e>
    7f6c:	4b0c      	ldr	r3, [pc, #48]	; (7fa0 <hid_keyboard_enable+0xb4>)
    7f6e:	2201      	movs	r2, #1
    7f70:	73da      	strb	r2, [r3, #15]
    7f72:	741a      	strb	r2, [r3, #16]
    7f74:	2000      	movs	r0, #0
    7f76:	bdf8      	pop	{r3, r4, r5, r6, r7, pc}
    7f78:	200a      	movs	r0, #10
    7f7a:	4240      	negs	r0, r0
    7f7c:	e7fb      	b.n	7f76 <hid_keyboard_enable+0x8a>
    7f7e:	200a      	movs	r0, #10
    7f80:	4240      	negs	r0, r0
    7f82:	e7f8      	b.n	7f76 <hid_keyboard_enable+0x8a>
    7f84:	2012      	movs	r0, #18
    7f86:	4240      	negs	r0, r0
    7f88:	e7f5      	b.n	7f76 <hid_keyboard_enable+0x8a>
    7f8a:	201c      	movs	r0, #28
    7f8c:	4240      	negs	r0, r0
    7f8e:	e7f2      	b.n	7f76 <hid_keyboard_enable+0x8a>
    7f90:	200a      	movs	r0, #10
    7f92:	4240      	negs	r0, r0
    7f94:	e7ef      	b.n	7f76 <hid_keyboard_enable+0x8a>
    7f96:	2014      	movs	r0, #20
    7f98:	4240      	negs	r0, r0
    7f9a:	e7ec      	b.n	7f76 <hid_keyboard_enable+0x8a>
    7f9c:	00008b71 	.word	0x00008b71
    7fa0:	20000858 	.word	0x20000858
    7fa4:	00002475 	.word	0x00002475
    7fa8:	00008b8f 	.word	0x00008b8f
    7fac:	000023e1 	.word	0x000023e1

00007fb0 <hid_keyboard_disable>:
    7fb0:	b510      	push	{r4, lr}
    7fb2:	6884      	ldr	r4, [r0, #8]
    7fb4:	2900      	cmp	r1, #0
    7fb6:	d003      	beq.n	7fc0 <hid_keyboard_disable+0x10>
    7fb8:	680b      	ldr	r3, [r1, #0]
    7fba:	795b      	ldrb	r3, [r3, #5]
    7fbc:	2b03      	cmp	r3, #3
    7fbe:	d117      	bne.n	7ff0 <hid_keyboard_disable+0x40>
    7fc0:	7b23      	ldrb	r3, [r4, #12]
    7fc2:	2bff      	cmp	r3, #255	; 0xff
    7fc4:	d001      	beq.n	7fca <hid_keyboard_disable+0x1a>
    7fc6:	23ff      	movs	r3, #255	; 0xff
    7fc8:	7323      	strb	r3, [r4, #12]
    7fca:	7b60      	ldrb	r0, [r4, #13]
    7fcc:	28ff      	cmp	r0, #255	; 0xff
    7fce:	d003      	beq.n	7fd8 <hid_keyboard_disable+0x28>
    7fd0:	4b09      	ldr	r3, [pc, #36]	; (7ff8 <hid_keyboard_disable+0x48>)
    7fd2:	4798      	blx	r3
    7fd4:	23ff      	movs	r3, #255	; 0xff
    7fd6:	7363      	strb	r3, [r4, #13]
    7fd8:	7ba0      	ldrb	r0, [r4, #14]
    7fda:	28ff      	cmp	r0, #255	; 0xff
    7fdc:	d003      	beq.n	7fe6 <hid_keyboard_disable+0x36>
    7fde:	4b06      	ldr	r3, [pc, #24]	; (7ff8 <hid_keyboard_disable+0x48>)
    7fe0:	4798      	blx	r3
    7fe2:	23ff      	movs	r3, #255	; 0xff
    7fe4:	73a3      	strb	r3, [r4, #14]
    7fe6:	2200      	movs	r2, #0
    7fe8:	4b04      	ldr	r3, [pc, #16]	; (7ffc <hid_keyboard_disable+0x4c>)
    7fea:	741a      	strb	r2, [r3, #16]
    7fec:	2000      	movs	r0, #0
    7fee:	bd10      	pop	{r4, pc}
    7ff0:	200a      	movs	r0, #10
    7ff2:	4240      	negs	r0, r0
    7ff4:	e7fb      	b.n	7fee <hid_keyboard_disable+0x3e>
    7ff6:	46c0      	nop			; (mov r8, r8)
    7ff8:	00002449 	.word	0x00002449
    7ffc:	20000858 	.word	0x20000858

00008000 <hid_keyboard_ctrl>:
    8000:	b510      	push	{r4, lr}
    8002:	2901      	cmp	r1, #1
    8004:	d00a      	beq.n	801c <hid_keyboard_ctrl+0x1c>
    8006:	2900      	cmp	r1, #0
    8008:	d004      	beq.n	8014 <hid_keyboard_ctrl+0x14>
    800a:	2902      	cmp	r1, #2
    800c:	d10a      	bne.n	8024 <hid_keyboard_ctrl+0x24>
    800e:	201b      	movs	r0, #27
    8010:	4240      	negs	r0, r0
    8012:	bd10      	pop	{r4, pc}
    8014:	0011      	movs	r1, r2
    8016:	4b05      	ldr	r3, [pc, #20]	; (802c <hid_keyboard_ctrl+0x2c>)
    8018:	4798      	blx	r3
    801a:	e7fa      	b.n	8012 <hid_keyboard_ctrl+0x12>
    801c:	0011      	movs	r1, r2
    801e:	4b04      	ldr	r3, [pc, #16]	; (8030 <hid_keyboard_ctrl+0x30>)
    8020:	4798      	blx	r3
    8022:	e7f6      	b.n	8012 <hid_keyboard_ctrl+0x12>
    8024:	200d      	movs	r0, #13
    8026:	4240      	negs	r0, r0
    8028:	e7f3      	b.n	8012 <hid_keyboard_ctrl+0x12>
    802a:	46c0      	nop			; (mov r8, r8)
    802c:	00007eed 	.word	0x00007eed
    8030:	00007fb1 	.word	0x00007fb1

00008034 <hiddf_keyboard_init>:
    8034:	b510      	push	{r4, lr}
    8036:	4b0a      	ldr	r3, [pc, #40]	; (8060 <hiddf_keyboard_init+0x2c>)
    8038:	4798      	blx	r3
    803a:	2801      	cmp	r0, #1
    803c:	d80c      	bhi.n	8058 <hiddf_keyboard_init+0x24>
    803e:	4809      	ldr	r0, [pc, #36]	; (8064 <hiddf_keyboard_init+0x30>)
    8040:	4b09      	ldr	r3, [pc, #36]	; (8068 <hiddf_keyboard_init+0x34>)
    8042:	6183      	str	r3, [r0, #24]
    8044:	61c0      	str	r0, [r0, #28]
    8046:	3014      	adds	r0, #20
    8048:	4b08      	ldr	r3, [pc, #32]	; (806c <hiddf_keyboard_init+0x38>)
    804a:	4798      	blx	r3
    804c:	4908      	ldr	r1, [pc, #32]	; (8070 <hiddf_keyboard_init+0x3c>)
    804e:	2001      	movs	r0, #1
    8050:	4b08      	ldr	r3, [pc, #32]	; (8074 <hiddf_keyboard_init+0x40>)
    8052:	4798      	blx	r3
    8054:	2000      	movs	r0, #0
    8056:	bd10      	pop	{r4, pc}
    8058:	2011      	movs	r0, #17
    805a:	4240      	negs	r0, r0
    805c:	e7fb      	b.n	8056 <hiddf_keyboard_init+0x22>
    805e:	46c0      	nop			; (mov r8, r8)
    8060:	00008b61 	.word	0x00008b61
    8064:	20000858 	.word	0x20000858
    8068:	00008001 	.word	0x00008001
    806c:	00008af9 	.word	0x00008af9
    8070:	20000014 	.word	0x20000014
    8074:	00008a61 	.word	0x00008a61

00008078 <hiddf_keyboard_is_enabled>:
    8078:	4b01      	ldr	r3, [pc, #4]	; (8080 <hiddf_keyboard_is_enabled+0x8>)
    807a:	7c18      	ldrb	r0, [r3, #16]
    807c:	4770      	bx	lr
    807e:	46c0      	nop			; (mov r8, r8)
    8080:	20000858 	.word	0x20000858

00008084 <hiddf_keyboard_keys_state_change>:
    8084:	b570      	push	{r4, r5, r6, lr}
    8086:	0005      	movs	r5, r0
    8088:	000c      	movs	r4, r1
    808a:	4b25      	ldr	r3, [pc, #148]	; (8120 <hiddf_keyboard_keys_state_change+0x9c>)
    808c:	4798      	blx	r3
    808e:	2800      	cmp	r0, #0
    8090:	d043      	beq.n	811a <hiddf_keyboard_keys_state_change+0x96>
    8092:	2208      	movs	r2, #8
    8094:	2100      	movs	r1, #0
    8096:	4823      	ldr	r0, [pc, #140]	; (8124 <hiddf_keyboard_keys_state_change+0xa0>)
    8098:	3004      	adds	r0, #4
    809a:	4b23      	ldr	r3, [pc, #140]	; (8128 <hiddf_keyboard_keys_state_change+0xa4>)
    809c:	4798      	blx	r3
    809e:	2100      	movs	r1, #0
    80a0:	2300      	movs	r3, #0
    80a2:	e001      	b.n	80a8 <hiddf_keyboard_keys_state_change+0x24>
    80a4:	3301      	adds	r3, #1
    80a6:	b2db      	uxtb	r3, r3
    80a8:	42a3      	cmp	r3, r4
    80aa:	d208      	bcs.n	80be <hiddf_keyboard_keys_state_change+0x3a>
    80ac:	005a      	lsls	r2, r3, #1
    80ae:	18d2      	adds	r2, r2, r3
    80b0:	18aa      	adds	r2, r5, r2
    80b2:	7852      	ldrb	r2, [r2, #1]
    80b4:	2a00      	cmp	r2, #0
    80b6:	d0f5      	beq.n	80a4 <hiddf_keyboard_keys_state_change+0x20>
    80b8:	3101      	adds	r1, #1
    80ba:	b2c9      	uxtb	r1, r1
    80bc:	e7f2      	b.n	80a4 <hiddf_keyboard_keys_state_change+0x20>
    80be:	1a61      	subs	r1, r4, r1
    80c0:	b2c9      	uxtb	r1, r1
    80c2:	2906      	cmp	r1, #6
    80c4:	d802      	bhi.n	80cc <hiddf_keyboard_keys_state_change+0x48>
    80c6:	2300      	movs	r3, #0
    80c8:	2002      	movs	r0, #2
    80ca:	e015      	b.n	80f8 <hiddf_keyboard_keys_state_change+0x74>
    80cc:	2206      	movs	r2, #6
    80ce:	21ff      	movs	r1, #255	; 0xff
    80d0:	4814      	ldr	r0, [pc, #80]	; (8124 <hiddf_keyboard_keys_state_change+0xa0>)
    80d2:	3006      	adds	r0, #6
    80d4:	4b14      	ldr	r3, [pc, #80]	; (8128 <hiddf_keyboard_keys_state_change+0xa4>)
    80d6:	4798      	blx	r3
    80d8:	4b12      	ldr	r3, [pc, #72]	; (8124 <hiddf_keyboard_keys_state_change+0xa0>)
    80da:	1d19      	adds	r1, r3, #4
    80dc:	7b58      	ldrb	r0, [r3, #13]
    80de:	2300      	movs	r3, #0
    80e0:	2208      	movs	r2, #8
    80e2:	4c12      	ldr	r4, [pc, #72]	; (812c <hiddf_keyboard_keys_state_change+0xa8>)
    80e4:	47a0      	blx	r4
    80e6:	bd70      	pop	{r4, r5, r6, pc}
    80e8:	1c41      	adds	r1, r0, #1
    80ea:	7816      	ldrb	r6, [r2, #0]
    80ec:	4a0d      	ldr	r2, [pc, #52]	; (8124 <hiddf_keyboard_keys_state_change+0xa0>)
    80ee:	1812      	adds	r2, r2, r0
    80f0:	7116      	strb	r6, [r2, #4]
    80f2:	b2c8      	uxtb	r0, r1
    80f4:	3301      	adds	r3, #1
    80f6:	b2db      	uxtb	r3, r3
    80f8:	42a3      	cmp	r3, r4
    80fa:	d2ed      	bcs.n	80d8 <hiddf_keyboard_keys_state_change+0x54>
    80fc:	005a      	lsls	r2, r3, #1
    80fe:	18d2      	adds	r2, r2, r3
    8100:	18aa      	adds	r2, r5, r2
    8102:	7891      	ldrb	r1, [r2, #2]
    8104:	2901      	cmp	r1, #1
    8106:	d1f5      	bne.n	80f4 <hiddf_keyboard_keys_state_change+0x70>
    8108:	7851      	ldrb	r1, [r2, #1]
    810a:	2900      	cmp	r1, #0
    810c:	d0ec      	beq.n	80e8 <hiddf_keyboard_keys_state_change+0x64>
    810e:	7811      	ldrb	r1, [r2, #0]
    8110:	4a04      	ldr	r2, [pc, #16]	; (8124 <hiddf_keyboard_keys_state_change+0xa0>)
    8112:	7916      	ldrb	r6, [r2, #4]
    8114:	4331      	orrs	r1, r6
    8116:	7111      	strb	r1, [r2, #4]
    8118:	e7ec      	b.n	80f4 <hiddf_keyboard_keys_state_change+0x70>
    811a:	2011      	movs	r0, #17
    811c:	4240      	negs	r0, r0
    811e:	e7e2      	b.n	80e6 <hiddf_keyboard_keys_state_change+0x62>
    8120:	00008079 	.word	0x00008079
    8124:	20000858 	.word	0x20000858
    8128:	000094f5 	.word	0x000094f5
    812c:	000085c9 	.word	0x000085c9

00008130 <hid_mouse_get_desc>:
    8130:	b510      	push	{r4, lr}
    8132:	78cb      	ldrb	r3, [r1, #3]
    8134:	2b21      	cmp	r3, #33	; 0x21
    8136:	d004      	beq.n	8142 <hid_mouse_get_desc+0x12>
    8138:	2b22      	cmp	r3, #34	; 0x22
    813a:	d009      	beq.n	8150 <hid_mouse_get_desc+0x20>
    813c:	200d      	movs	r0, #13
    813e:	4240      	negs	r0, r0
    8140:	e005      	b.n	814e <hid_mouse_get_desc+0x1e>
    8142:	4b06      	ldr	r3, [pc, #24]	; (815c <hid_mouse_get_desc+0x2c>)
    8144:	6819      	ldr	r1, [r3, #0]
    8146:	780a      	ldrb	r2, [r1, #0]
    8148:	2300      	movs	r3, #0
    814a:	4c05      	ldr	r4, [pc, #20]	; (8160 <hid_mouse_get_desc+0x30>)
    814c:	47a0      	blx	r4
    814e:	bd10      	pop	{r4, pc}
    8150:	2300      	movs	r3, #0
    8152:	2234      	movs	r2, #52	; 0x34
    8154:	4903      	ldr	r1, [pc, #12]	; (8164 <hid_mouse_get_desc+0x34>)
    8156:	4c02      	ldr	r4, [pc, #8]	; (8160 <hid_mouse_get_desc+0x30>)
    8158:	47a0      	blx	r4
    815a:	e7f8      	b.n	814e <hid_mouse_get_desc+0x1e>
    815c:	20000878 	.word	0x20000878
    8160:	000085c9 	.word	0x000085c9
    8164:	0000ec08 	.word	0x0000ec08

00008168 <hid_mouse_req>:
    8168:	b510      	push	{r4, lr}
    816a:	780b      	ldrb	r3, [r1, #0]
    816c:	2b81      	cmp	r3, #129	; 0x81
    816e:	d014      	beq.n	819a <hid_mouse_req+0x32>
    8170:	095b      	lsrs	r3, r3, #5
    8172:	2203      	movs	r2, #3
    8174:	4013      	ands	r3, r2
    8176:	2b01      	cmp	r3, #1
    8178:	d12d      	bne.n	81d6 <hid_mouse_req+0x6e>
    817a:	790a      	ldrb	r2, [r1, #4]
    817c:	794b      	ldrb	r3, [r1, #5]
    817e:	021b      	lsls	r3, r3, #8
    8180:	4313      	orrs	r3, r2
    8182:	4a18      	ldr	r2, [pc, #96]	; (81e4 <hid_mouse_req+0x7c>)
    8184:	7a12      	ldrb	r2, [r2, #8]
    8186:	4293      	cmp	r3, r2
    8188:	d128      	bne.n	81dc <hid_mouse_req+0x74>
    818a:	784b      	ldrb	r3, [r1, #1]
    818c:	2b03      	cmp	r3, #3
    818e:	d012      	beq.n	81b6 <hid_mouse_req+0x4e>
    8190:	2b0b      	cmp	r3, #11
    8192:	d017      	beq.n	81c4 <hid_mouse_req+0x5c>
    8194:	200d      	movs	r0, #13
    8196:	4240      	negs	r0, r0
    8198:	e013      	b.n	81c2 <hid_mouse_req+0x5a>
    819a:	784a      	ldrb	r2, [r1, #1]
    819c:	2a06      	cmp	r2, #6
    819e:	d1e7      	bne.n	8170 <hid_mouse_req+0x8>
    81a0:	790c      	ldrb	r4, [r1, #4]
    81a2:	794a      	ldrb	r2, [r1, #5]
    81a4:	0212      	lsls	r2, r2, #8
    81a6:	4322      	orrs	r2, r4
    81a8:	4c0e      	ldr	r4, [pc, #56]	; (81e4 <hid_mouse_req+0x7c>)
    81aa:	7a24      	ldrb	r4, [r4, #8]
    81ac:	42a2      	cmp	r2, r4
    81ae:	d1df      	bne.n	8170 <hid_mouse_req+0x8>
    81b0:	4b0d      	ldr	r3, [pc, #52]	; (81e8 <hid_mouse_req+0x80>)
    81b2:	4798      	blx	r3
    81b4:	e005      	b.n	81c2 <hid_mouse_req+0x5a>
    81b6:	2300      	movs	r3, #0
    81b8:	2201      	movs	r2, #1
    81ba:	490a      	ldr	r1, [pc, #40]	; (81e4 <hid_mouse_req+0x7c>)
    81bc:	310a      	adds	r1, #10
    81be:	4c0b      	ldr	r4, [pc, #44]	; (81ec <hid_mouse_req+0x84>)
    81c0:	47a0      	blx	r4
    81c2:	bd10      	pop	{r4, pc}
    81c4:	788a      	ldrb	r2, [r1, #2]
    81c6:	4b07      	ldr	r3, [pc, #28]	; (81e4 <hid_mouse_req+0x7c>)
    81c8:	729a      	strb	r2, [r3, #10]
    81ca:	2300      	movs	r3, #0
    81cc:	2200      	movs	r2, #0
    81ce:	2100      	movs	r1, #0
    81d0:	4c06      	ldr	r4, [pc, #24]	; (81ec <hid_mouse_req+0x84>)
    81d2:	47a0      	blx	r4
    81d4:	e7f5      	b.n	81c2 <hid_mouse_req+0x5a>
    81d6:	200a      	movs	r0, #10
    81d8:	4240      	negs	r0, r0
    81da:	e7f2      	b.n	81c2 <hid_mouse_req+0x5a>
    81dc:	200a      	movs	r0, #10
    81de:	4240      	negs	r0, r0
    81e0:	e7ef      	b.n	81c2 <hid_mouse_req+0x5a>
    81e2:	46c0      	nop			; (mov r8, r8)
    81e4:	20000878 	.word	0x20000878
    81e8:	00008131 	.word	0x00008131
    81ec:	000085c9 	.word	0x000085c9

000081f0 <hid_mouse_enable>:
    81f0:	b570      	push	{r4, r5, r6, lr}
    81f2:	000c      	movs	r4, r1
    81f4:	6885      	ldr	r5, [r0, #8]
    81f6:	680b      	ldr	r3, [r1, #0]
    81f8:	2b00      	cmp	r3, #0
    81fa:	d034      	beq.n	8266 <hid_mouse_enable+0x76>
    81fc:	789a      	ldrb	r2, [r3, #2]
    81fe:	795b      	ldrb	r3, [r3, #5]
    8200:	2b03      	cmp	r3, #3
    8202:	d133      	bne.n	826c <hid_mouse_enable+0x7c>
    8204:	7a2b      	ldrb	r3, [r5, #8]
    8206:	429a      	cmp	r2, r3
    8208:	d033      	beq.n	8272 <hid_mouse_enable+0x82>
    820a:	2bff      	cmp	r3, #255	; 0xff
    820c:	d134      	bne.n	8278 <hid_mouse_enable+0x88>
    820e:	722a      	strb	r2, [r5, #8]
    8210:	6808      	ldr	r0, [r1, #0]
    8212:	7803      	ldrb	r3, [r0, #0]
    8214:	18c0      	adds	r0, r0, r3
    8216:	2221      	movs	r2, #33	; 0x21
    8218:	6849      	ldr	r1, [r1, #4]
    821a:	4b1d      	ldr	r3, [pc, #116]	; (8290 <hid_mouse_enable+0xa0>)
    821c:	4798      	blx	r3
    821e:	4b1d      	ldr	r3, [pc, #116]	; (8294 <hid_mouse_enable+0xa4>)
    8220:	6018      	str	r0, [r3, #0]
    8222:	6820      	ldr	r0, [r4, #0]
    8224:	7803      	ldrb	r3, [r0, #0]
    8226:	18c0      	adds	r0, r0, r3
    8228:	6861      	ldr	r1, [r4, #4]
    822a:	4b1b      	ldr	r3, [pc, #108]	; (8298 <hid_mouse_enable+0xa8>)
    822c:	4798      	blx	r3
    822e:	6020      	str	r0, [r4, #0]
    8230:	2800      	cmp	r0, #0
    8232:	d024      	beq.n	827e <hid_mouse_enable+0x8e>
    8234:	7884      	ldrb	r4, [r0, #2]
    8236:	78c1      	ldrb	r1, [r0, #3]
    8238:	7902      	ldrb	r2, [r0, #4]
    823a:	7943      	ldrb	r3, [r0, #5]
    823c:	021b      	lsls	r3, r3, #8
    823e:	18d2      	adds	r2, r2, r3
    8240:	b292      	uxth	r2, r2
    8242:	0020      	movs	r0, r4
    8244:	4b15      	ldr	r3, [pc, #84]	; (829c <hid_mouse_enable+0xac>)
    8246:	4798      	blx	r3
    8248:	1e06      	subs	r6, r0, #0
    824a:	d11b      	bne.n	8284 <hid_mouse_enable+0x94>
    824c:	b263      	sxtb	r3, r4
    824e:	2b00      	cmp	r3, #0
    8250:	da1b      	bge.n	828a <hid_mouse_enable+0x9a>
    8252:	726c      	strb	r4, [r5, #9]
    8254:	0020      	movs	r0, r4
    8256:	4b12      	ldr	r3, [pc, #72]	; (82a0 <hid_mouse_enable+0xb0>)
    8258:	4798      	blx	r3
    825a:	4b0e      	ldr	r3, [pc, #56]	; (8294 <hid_mouse_enable+0xa4>)
    825c:	2201      	movs	r2, #1
    825e:	729a      	strb	r2, [r3, #10]
    8260:	72da      	strb	r2, [r3, #11]
    8262:	0030      	movs	r0, r6
    8264:	bd70      	pop	{r4, r5, r6, pc}
    8266:	260a      	movs	r6, #10
    8268:	4276      	negs	r6, r6
    826a:	e7fa      	b.n	8262 <hid_mouse_enable+0x72>
    826c:	260a      	movs	r6, #10
    826e:	4276      	negs	r6, r6
    8270:	e7f7      	b.n	8262 <hid_mouse_enable+0x72>
    8272:	2612      	movs	r6, #18
    8274:	4276      	negs	r6, r6
    8276:	e7f4      	b.n	8262 <hid_mouse_enable+0x72>
    8278:	261c      	movs	r6, #28
    827a:	4276      	negs	r6, r6
    827c:	e7f1      	b.n	8262 <hid_mouse_enable+0x72>
    827e:	260a      	movs	r6, #10
    8280:	4276      	negs	r6, r6
    8282:	e7ee      	b.n	8262 <hid_mouse_enable+0x72>
    8284:	2614      	movs	r6, #20
    8286:	4276      	negs	r6, r6
    8288:	e7eb      	b.n	8262 <hid_mouse_enable+0x72>
    828a:	2601      	movs	r6, #1
    828c:	4276      	negs	r6, r6
    828e:	e7e8      	b.n	8262 <hid_mouse_enable+0x72>
    8290:	00008b71 	.word	0x00008b71
    8294:	20000878 	.word	0x20000878
    8298:	00008b8f 	.word	0x00008b8f
    829c:	000023e1 	.word	0x000023e1
    82a0:	00002475 	.word	0x00002475

000082a4 <hid_mouse_disable>:
    82a4:	b510      	push	{r4, lr}
    82a6:	6884      	ldr	r4, [r0, #8]
    82a8:	2900      	cmp	r1, #0
    82aa:	d003      	beq.n	82b4 <hid_mouse_disable+0x10>
    82ac:	680b      	ldr	r3, [r1, #0]
    82ae:	795b      	ldrb	r3, [r3, #5]
    82b0:	2b03      	cmp	r3, #3
    82b2:	d110      	bne.n	82d6 <hid_mouse_disable+0x32>
    82b4:	7a23      	ldrb	r3, [r4, #8]
    82b6:	2bff      	cmp	r3, #255	; 0xff
    82b8:	d001      	beq.n	82be <hid_mouse_disable+0x1a>
    82ba:	23ff      	movs	r3, #255	; 0xff
    82bc:	7223      	strb	r3, [r4, #8]
    82be:	7a60      	ldrb	r0, [r4, #9]
    82c0:	28ff      	cmp	r0, #255	; 0xff
    82c2:	d003      	beq.n	82cc <hid_mouse_disable+0x28>
    82c4:	4b05      	ldr	r3, [pc, #20]	; (82dc <hid_mouse_disable+0x38>)
    82c6:	4798      	blx	r3
    82c8:	23ff      	movs	r3, #255	; 0xff
    82ca:	7263      	strb	r3, [r4, #9]
    82cc:	2200      	movs	r2, #0
    82ce:	4b04      	ldr	r3, [pc, #16]	; (82e0 <hid_mouse_disable+0x3c>)
    82d0:	72da      	strb	r2, [r3, #11]
    82d2:	2000      	movs	r0, #0
    82d4:	bd10      	pop	{r4, pc}
    82d6:	200a      	movs	r0, #10
    82d8:	4240      	negs	r0, r0
    82da:	e7fb      	b.n	82d4 <hid_mouse_disable+0x30>
    82dc:	00002449 	.word	0x00002449
    82e0:	20000878 	.word	0x20000878

000082e4 <hid_mouse_ctrl>:
    82e4:	b510      	push	{r4, lr}
    82e6:	2901      	cmp	r1, #1
    82e8:	d00a      	beq.n	8300 <hid_mouse_ctrl+0x1c>
    82ea:	2900      	cmp	r1, #0
    82ec:	d004      	beq.n	82f8 <hid_mouse_ctrl+0x14>
    82ee:	2902      	cmp	r1, #2
    82f0:	d10a      	bne.n	8308 <hid_mouse_ctrl+0x24>
    82f2:	201b      	movs	r0, #27
    82f4:	4240      	negs	r0, r0
    82f6:	bd10      	pop	{r4, pc}
    82f8:	0011      	movs	r1, r2
    82fa:	4b05      	ldr	r3, [pc, #20]	; (8310 <hid_mouse_ctrl+0x2c>)
    82fc:	4798      	blx	r3
    82fe:	e7fa      	b.n	82f6 <hid_mouse_ctrl+0x12>
    8300:	0011      	movs	r1, r2
    8302:	4b04      	ldr	r3, [pc, #16]	; (8314 <hid_mouse_ctrl+0x30>)
    8304:	4798      	blx	r3
    8306:	e7f6      	b.n	82f6 <hid_mouse_ctrl+0x12>
    8308:	200d      	movs	r0, #13
    830a:	4240      	negs	r0, r0
    830c:	e7f3      	b.n	82f6 <hid_mouse_ctrl+0x12>
    830e:	46c0      	nop			; (mov r8, r8)
    8310:	000081f1 	.word	0x000081f1
    8314:	000082a5 	.word	0x000082a5

00008318 <hiddf_mouse_init>:
    8318:	b510      	push	{r4, lr}
    831a:	4b0a      	ldr	r3, [pc, #40]	; (8344 <hiddf_mouse_init+0x2c>)
    831c:	4798      	blx	r3
    831e:	2801      	cmp	r0, #1
    8320:	d80c      	bhi.n	833c <hiddf_mouse_init+0x24>
    8322:	4809      	ldr	r0, [pc, #36]	; (8348 <hiddf_mouse_init+0x30>)
    8324:	4b09      	ldr	r3, [pc, #36]	; (834c <hiddf_mouse_init+0x34>)
    8326:	6103      	str	r3, [r0, #16]
    8328:	6140      	str	r0, [r0, #20]
    832a:	300c      	adds	r0, #12
    832c:	4b08      	ldr	r3, [pc, #32]	; (8350 <hiddf_mouse_init+0x38>)
    832e:	4798      	blx	r3
    8330:	4908      	ldr	r1, [pc, #32]	; (8354 <hiddf_mouse_init+0x3c>)
    8332:	2001      	movs	r0, #1
    8334:	4b08      	ldr	r3, [pc, #32]	; (8358 <hiddf_mouse_init+0x40>)
    8336:	4798      	blx	r3
    8338:	2000      	movs	r0, #0
    833a:	bd10      	pop	{r4, pc}
    833c:	2011      	movs	r0, #17
    833e:	4240      	negs	r0, r0
    8340:	e7fb      	b.n	833a <hiddf_mouse_init+0x22>
    8342:	46c0      	nop			; (mov r8, r8)
    8344:	00008b61 	.word	0x00008b61
    8348:	20000878 	.word	0x20000878
    834c:	000082e5 	.word	0x000082e5
    8350:	00008af9 	.word	0x00008af9
    8354:	2000001c 	.word	0x2000001c
    8358:	00008a61 	.word	0x00008a61

0000835c <usbdc_unconfig>:
    835c:	b510      	push	{r4, lr}
    835e:	4b06      	ldr	r3, [pc, #24]	; (8378 <usbdc_unconfig+0x1c>)
    8360:	691c      	ldr	r4, [r3, #16]
    8362:	e005      	b.n	8370 <usbdc_unconfig+0x14>
    8364:	2200      	movs	r2, #0
    8366:	2101      	movs	r1, #1
    8368:	0020      	movs	r0, r4
    836a:	6863      	ldr	r3, [r4, #4]
    836c:	4798      	blx	r3
    836e:	6824      	ldr	r4, [r4, #0]
    8370:	2c00      	cmp	r4, #0
    8372:	d1f7      	bne.n	8364 <usbdc_unconfig+0x8>
    8374:	bd10      	pop	{r4, pc}
    8376:	46c0      	nop			; (mov r8, r8)
    8378:	20000890 	.word	0x20000890

0000837c <usbdc_sof_notify>:
    837c:	b510      	push	{r4, lr}
    837e:	4b06      	ldr	r3, [pc, #24]	; (8398 <usbdc_sof_notify+0x1c>)
    8380:	685c      	ldr	r4, [r3, #4]
    8382:	e000      	b.n	8386 <usbdc_sof_notify+0xa>
    8384:	6824      	ldr	r4, [r4, #0]
    8386:	2c00      	cmp	r4, #0
    8388:	d004      	beq.n	8394 <usbdc_sof_notify+0x18>
    838a:	6863      	ldr	r3, [r4, #4]
    838c:	2b00      	cmp	r3, #0
    838e:	d0f9      	beq.n	8384 <usbdc_sof_notify+0x8>
    8390:	4798      	blx	r3
    8392:	e7f7      	b.n	8384 <usbdc_sof_notify+0x8>
    8394:	bd10      	pop	{r4, pc}
    8396:	46c0      	nop			; (mov r8, r8)
    8398:	20000890 	.word	0x20000890

0000839c <usbdc_change_notify>:
    839c:	b570      	push	{r4, r5, r6, lr}
    839e:	0006      	movs	r6, r0
    83a0:	000d      	movs	r5, r1
    83a2:	4b07      	ldr	r3, [pc, #28]	; (83c0 <usbdc_change_notify+0x24>)
    83a4:	68dc      	ldr	r4, [r3, #12]
    83a6:	e000      	b.n	83aa <usbdc_change_notify+0xe>
    83a8:	6824      	ldr	r4, [r4, #0]
    83aa:	2c00      	cmp	r4, #0
    83ac:	d006      	beq.n	83bc <usbdc_change_notify+0x20>
    83ae:	6863      	ldr	r3, [r4, #4]
    83b0:	2b00      	cmp	r3, #0
    83b2:	d0f9      	beq.n	83a8 <usbdc_change_notify+0xc>
    83b4:	0029      	movs	r1, r5
    83b6:	0030      	movs	r0, r6
    83b8:	4798      	blx	r3
    83ba:	e7f5      	b.n	83a8 <usbdc_change_notify+0xc>
    83bc:	bd70      	pop	{r4, r5, r6, pc}
    83be:	46c0      	nop			; (mov r8, r8)
    83c0:	20000890 	.word	0x20000890

000083c4 <usbdc_request_handler>:
    83c4:	b5f8      	push	{r3, r4, r5, r6, r7, lr}
    83c6:	0007      	movs	r7, r0
    83c8:	000e      	movs	r6, r1
    83ca:	0015      	movs	r5, r2
    83cc:	4b0b      	ldr	r3, [pc, #44]	; (83fc <usbdc_request_handler+0x38>)
    83ce:	689c      	ldr	r4, [r3, #8]
    83d0:	e000      	b.n	83d4 <usbdc_request_handler+0x10>
    83d2:	6824      	ldr	r4, [r4, #0]
    83d4:	2c00      	cmp	r4, #0
    83d6:	d00d      	beq.n	83f4 <usbdc_request_handler+0x30>
    83d8:	6863      	ldr	r3, [r4, #4]
    83da:	2b00      	cmp	r3, #0
    83dc:	d0f9      	beq.n	83d2 <usbdc_request_handler+0xe>
    83de:	002a      	movs	r2, r5
    83e0:	0031      	movs	r1, r6
    83e2:	0038      	movs	r0, r7
    83e4:	4798      	blx	r3
    83e6:	2800      	cmp	r0, #0
    83e8:	d006      	beq.n	83f8 <usbdc_request_handler+0x34>
    83ea:	300a      	adds	r0, #10
    83ec:	d0f1      	beq.n	83d2 <usbdc_request_handler+0xe>
    83ee:	2001      	movs	r0, #1
    83f0:	4240      	negs	r0, r0
    83f2:	e000      	b.n	83f6 <usbdc_request_handler+0x32>
    83f4:	2000      	movs	r0, #0
    83f6:	bdf8      	pop	{r3, r4, r5, r6, r7, pc}
    83f8:	2001      	movs	r0, #1
    83fa:	e7fc      	b.n	83f6 <usbdc_request_handler+0x32>
    83fc:	20000890 	.word	0x20000890

00008400 <usbd_sof_cb>:
    8400:	b510      	push	{r4, lr}
    8402:	4b01      	ldr	r3, [pc, #4]	; (8408 <usbd_sof_cb+0x8>)
    8404:	4798      	blx	r3
    8406:	bd10      	pop	{r4, pc}
    8408:	0000837d 	.word	0x0000837d

0000840c <usbdc_ctrl_data_end>:
    840c:	b510      	push	{r4, lr}
    840e:	0001      	movs	r1, r0
    8410:	2201      	movs	r2, #1
    8412:	2000      	movs	r0, #0
    8414:	4b01      	ldr	r3, [pc, #4]	; (841c <usbdc_ctrl_data_end+0x10>)
    8416:	4798      	blx	r3
    8418:	2000      	movs	r0, #0
    841a:	bd10      	pop	{r4, pc}
    841c:	000083c5 	.word	0x000083c5

00008420 <usbdc_set_address>:
    8420:	b510      	push	{r4, lr}
    8422:	4b01      	ldr	r3, [pc, #4]	; (8428 <usbdc_set_address+0x8>)
    8424:	4798      	blx	r3
    8426:	bd10      	pop	{r4, pc}
    8428:	000023d5 	.word	0x000023d5

0000842c <usbdc_ctrl_status_end>:
    842c:	b510      	push	{r4, lr}
    842e:	0004      	movs	r4, r0
    8430:	7803      	ldrb	r3, [r0, #0]
    8432:	2b00      	cmp	r3, #0
    8434:	d112      	bne.n	845c <usbdc_ctrl_status_end+0x30>
    8436:	7843      	ldrb	r3, [r0, #1]
    8438:	2b05      	cmp	r3, #5
    843a:	d012      	beq.n	8462 <usbdc_ctrl_status_end+0x36>
    843c:	2b09      	cmp	r3, #9
    843e:	d10d      	bne.n	845c <usbdc_ctrl_status_end+0x30>
    8440:	7882      	ldrb	r2, [r0, #2]
    8442:	4b10      	ldr	r3, [pc, #64]	; (8484 <usbdc_ctrl_status_end+0x58>)
    8444:	76da      	strb	r2, [r3, #27]
    8446:	7882      	ldrb	r2, [r0, #2]
    8448:	78c3      	ldrb	r3, [r0, #3]
    844a:	021b      	lsls	r3, r3, #8
    844c:	4313      	orrs	r3, r2
    844e:	d106      	bne.n	845e <usbdc_ctrl_status_end+0x32>
    8450:	2103      	movs	r1, #3
    8452:	4b0c      	ldr	r3, [pc, #48]	; (8484 <usbdc_ctrl_status_end+0x58>)
    8454:	7699      	strb	r1, [r3, #26]
    8456:	2001      	movs	r0, #1
    8458:	4b0b      	ldr	r3, [pc, #44]	; (8488 <usbdc_ctrl_status_end+0x5c>)
    845a:	4798      	blx	r3
    845c:	bd10      	pop	{r4, pc}
    845e:	2104      	movs	r1, #4
    8460:	e7f7      	b.n	8452 <usbdc_ctrl_status_end+0x26>
    8462:	7880      	ldrb	r0, [r0, #2]
    8464:	4b09      	ldr	r3, [pc, #36]	; (848c <usbdc_ctrl_status_end+0x60>)
    8466:	4798      	blx	r3
    8468:	78a2      	ldrb	r2, [r4, #2]
    846a:	78e3      	ldrb	r3, [r4, #3]
    846c:	021b      	lsls	r3, r3, #8
    846e:	4313      	orrs	r3, r2
    8470:	d006      	beq.n	8480 <usbdc_ctrl_status_end+0x54>
    8472:	2103      	movs	r1, #3
    8474:	4b03      	ldr	r3, [pc, #12]	; (8484 <usbdc_ctrl_status_end+0x58>)
    8476:	7699      	strb	r1, [r3, #26]
    8478:	2001      	movs	r0, #1
    847a:	4b03      	ldr	r3, [pc, #12]	; (8488 <usbdc_ctrl_status_end+0x5c>)
    847c:	4798      	blx	r3
    847e:	e7ed      	b.n	845c <usbdc_ctrl_status_end+0x30>
    8480:	2102      	movs	r1, #2
    8482:	e7f7      	b.n	8474 <usbdc_ctrl_status_end+0x48>
    8484:	20000890 	.word	0x20000890
    8488:	0000839d 	.word	0x0000839d
    848c:	00008421 	.word	0x00008421

00008490 <usbdc_cb_ctl_done>:
    8490:	b510      	push	{r4, lr}
    8492:	2900      	cmp	r1, #0
    8494:	d003      	beq.n	849e <usbdc_cb_ctl_done+0xe>
    8496:	2901      	cmp	r1, #1
    8498:	d006      	beq.n	84a8 <usbdc_cb_ctl_done+0x18>
    849a:	2000      	movs	r0, #0
    849c:	e003      	b.n	84a6 <usbdc_cb_ctl_done+0x16>
    849e:	0010      	movs	r0, r2
    84a0:	4b03      	ldr	r3, [pc, #12]	; (84b0 <usbdc_cb_ctl_done+0x20>)
    84a2:	4798      	blx	r3
    84a4:	2000      	movs	r0, #0
    84a6:	bd10      	pop	{r4, pc}
    84a8:	0010      	movs	r0, r2
    84aa:	4b02      	ldr	r3, [pc, #8]	; (84b4 <usbdc_cb_ctl_done+0x24>)
    84ac:	4798      	blx	r3
    84ae:	e7fa      	b.n	84a6 <usbdc_cb_ctl_done+0x16>
    84b0:	0000842d 	.word	0x0000842d
    84b4:	0000840d 	.word	0x0000840d

000084b8 <usbdc_set_config>:
    84b8:	b530      	push	{r4, r5, lr}
    84ba:	b083      	sub	sp, #12
    84bc:	1e02      	subs	r2, r0, #0
    84be:	d014      	beq.n	84ea <usbdc_set_config+0x32>
    84c0:	4b1e      	ldr	r3, [pc, #120]	; (853c <usbdc_set_config+0x84>)
    84c2:	681b      	ldr	r3, [r3, #0]
    84c4:	6818      	ldr	r0, [r3, #0]
    84c6:	6859      	ldr	r1, [r3, #4]
    84c8:	4b1d      	ldr	r3, [pc, #116]	; (8540 <usbdc_set_config+0x88>)
    84ca:	4798      	blx	r3
    84cc:	2800      	cmp	r0, #0
    84ce:	d032      	beq.n	8536 <usbdc_set_config+0x7e>
    84d0:	7881      	ldrb	r1, [r0, #2]
    84d2:	78c3      	ldrb	r3, [r0, #3]
    84d4:	021b      	lsls	r3, r3, #8
    84d6:	18c9      	adds	r1, r1, r3
    84d8:	b289      	uxth	r1, r1
    84da:	1841      	adds	r1, r0, r1
    84dc:	9101      	str	r1, [sp, #4]
    84de:	2204      	movs	r2, #4
    84e0:	4b18      	ldr	r3, [pc, #96]	; (8544 <usbdc_set_config+0x8c>)
    84e2:	4798      	blx	r3
    84e4:	9000      	str	r0, [sp, #0]
    84e6:	24ff      	movs	r4, #255	; 0xff
    84e8:	e00d      	b.n	8506 <usbdc_set_config+0x4e>
    84ea:	4b17      	ldr	r3, [pc, #92]	; (8548 <usbdc_set_config+0x90>)
    84ec:	4798      	blx	r3
    84ee:	2001      	movs	r0, #1
    84f0:	e01f      	b.n	8532 <usbdc_set_config+0x7a>
    84f2:	002c      	movs	r4, r5
    84f4:	9800      	ldr	r0, [sp, #0]
    84f6:	7803      	ldrb	r3, [r0, #0]
    84f8:	18c0      	adds	r0, r0, r3
    84fa:	9000      	str	r0, [sp, #0]
    84fc:	2204      	movs	r2, #4
    84fe:	9901      	ldr	r1, [sp, #4]
    8500:	4b10      	ldr	r3, [pc, #64]	; (8544 <usbdc_set_config+0x8c>)
    8502:	4798      	blx	r3
    8504:	9000      	str	r0, [sp, #0]
    8506:	9b00      	ldr	r3, [sp, #0]
    8508:	2b00      	cmp	r3, #0
    850a:	d011      	beq.n	8530 <usbdc_set_config+0x78>
    850c:	789d      	ldrb	r5, [r3, #2]
    850e:	42ac      	cmp	r4, r5
    8510:	d0f0      	beq.n	84f4 <usbdc_set_config+0x3c>
    8512:	4b0a      	ldr	r3, [pc, #40]	; (853c <usbdc_set_config+0x84>)
    8514:	691c      	ldr	r4, [r3, #16]
    8516:	2c00      	cmp	r4, #0
    8518:	d0eb      	beq.n	84f2 <usbdc_set_config+0x3a>
    851a:	466a      	mov	r2, sp
    851c:	2100      	movs	r1, #0
    851e:	0020      	movs	r0, r4
    8520:	6863      	ldr	r3, [r4, #4]
    8522:	4798      	blx	r3
    8524:	2800      	cmp	r0, #0
    8526:	d001      	beq.n	852c <usbdc_set_config+0x74>
    8528:	6824      	ldr	r4, [r4, #0]
    852a:	e7f4      	b.n	8516 <usbdc_set_config+0x5e>
    852c:	002c      	movs	r4, r5
    852e:	e7e1      	b.n	84f4 <usbdc_set_config+0x3c>
    8530:	2001      	movs	r0, #1
    8532:	b003      	add	sp, #12
    8534:	bd30      	pop	{r4, r5, pc}
    8536:	2000      	movs	r0, #0
    8538:	e7fb      	b.n	8532 <usbdc_set_config+0x7a>
    853a:	46c0      	nop			; (mov r8, r8)
    853c:	20000890 	.word	0x20000890
    8540:	00008bb5 	.word	0x00008bb5
    8544:	00008b71 	.word	0x00008b71
    8548:	0000835d 	.word	0x0000835d

0000854c <usbdc_reset>:
    854c:	b510      	push	{r4, lr}
    854e:	4b0d      	ldr	r3, [pc, #52]	; (8584 <usbdc_reset+0x38>)
    8550:	4798      	blx	r3
    8552:	4c0d      	ldr	r4, [pc, #52]	; (8588 <usbdc_reset+0x3c>)
    8554:	2302      	movs	r3, #2
    8556:	76a3      	strb	r3, [r4, #26]
    8558:	2300      	movs	r3, #0
    855a:	76e3      	strb	r3, [r4, #27]
    855c:	7763      	strb	r3, [r4, #29]
    855e:	2000      	movs	r0, #0
    8560:	4b0a      	ldr	r3, [pc, #40]	; (858c <usbdc_reset+0x40>)
    8562:	4798      	blx	r3
    8564:	7f20      	ldrb	r0, [r4, #28]
    8566:	4b0a      	ldr	r3, [pc, #40]	; (8590 <usbdc_reset+0x44>)
    8568:	4798      	blx	r3
    856a:	4a0a      	ldr	r2, [pc, #40]	; (8594 <usbdc_reset+0x48>)
    856c:	2100      	movs	r1, #0
    856e:	2000      	movs	r0, #0
    8570:	4c09      	ldr	r4, [pc, #36]	; (8598 <usbdc_reset+0x4c>)
    8572:	47a0      	blx	r4
    8574:	4a09      	ldr	r2, [pc, #36]	; (859c <usbdc_reset+0x50>)
    8576:	2102      	movs	r1, #2
    8578:	2000      	movs	r0, #0
    857a:	47a0      	blx	r4
    857c:	2000      	movs	r0, #0
    857e:	4b08      	ldr	r3, [pc, #32]	; (85a0 <usbdc_reset+0x54>)
    8580:	4798      	blx	r3
    8582:	bd10      	pop	{r4, pc}
    8584:	0000835d 	.word	0x0000835d
    8588:	20000890 	.word	0x20000890
    858c:	00002449 	.word	0x00002449
    8590:	00002435 	.word	0x00002435
    8594:	00008a15 	.word	0x00008a15
    8598:	00002651 	.word	0x00002651
    859c:	00008491 	.word	0x00008491
    85a0:	00002475 	.word	0x00002475

000085a4 <usbd_event_cb>:
    85a4:	b510      	push	{r4, lr}
    85a6:	2800      	cmp	r0, #0
    85a8:	d002      	beq.n	85b0 <usbd_event_cb+0xc>
    85aa:	2801      	cmp	r0, #1
    85ac:	d004      	beq.n	85b8 <usbd_event_cb+0x14>
    85ae:	bd10      	pop	{r4, pc}
    85b0:	2000      	movs	r0, #0
    85b2:	4b03      	ldr	r3, [pc, #12]	; (85c0 <usbd_event_cb+0x1c>)
    85b4:	4798      	blx	r3
    85b6:	e7fa      	b.n	85ae <usbd_event_cb+0xa>
    85b8:	4b02      	ldr	r3, [pc, #8]	; (85c4 <usbd_event_cb+0x20>)
    85ba:	4798      	blx	r3
    85bc:	e7f7      	b.n	85ae <usbd_event_cb+0xa>
    85be:	46c0      	nop			; (mov r8, r8)
    85c0:	0000839d 	.word	0x0000839d
    85c4:	0000854d 	.word	0x0000854d

000085c8 <usbdc_xfer>:
    85c8:	b510      	push	{r4, lr}
    85ca:	b084      	sub	sp, #16
    85cc:	ac01      	add	r4, sp, #4
    85ce:	9101      	str	r1, [sp, #4]
    85d0:	9202      	str	r2, [sp, #8]
    85d2:	7220      	strb	r0, [r4, #8]
    85d4:	7263      	strb	r3, [r4, #9]
    85d6:	0020      	movs	r0, r4
    85d8:	4b01      	ldr	r3, [pc, #4]	; (85e0 <usbdc_xfer+0x18>)
    85da:	4798      	blx	r3
    85dc:	b004      	add	sp, #16
    85de:	bd10      	pop	{r4, pc}
    85e0:	000024c5 	.word	0x000024c5

000085e4 <usbdc_clear_ftr_req>:
    85e4:	b510      	push	{r4, lr}
    85e6:	0004      	movs	r4, r0
    85e8:	780a      	ldrb	r2, [r1, #0]
    85ea:	231f      	movs	r3, #31
    85ec:	4013      	ands	r3, r2
    85ee:	2b02      	cmp	r3, #2
    85f0:	d112      	bne.n	8618 <usbdc_clear_ftr_req+0x34>
    85f2:	798a      	ldrb	r2, [r1, #6]
    85f4:	79cb      	ldrb	r3, [r1, #7]
    85f6:	021b      	lsls	r3, r3, #8
    85f8:	4313      	orrs	r3, r2
    85fa:	d001      	beq.n	8600 <usbdc_clear_ftr_req+0x1c>
    85fc:	2000      	movs	r0, #0
    85fe:	e00c      	b.n	861a <usbdc_clear_ftr_req+0x36>
    8600:	7908      	ldrb	r0, [r1, #4]
    8602:	2100      	movs	r1, #0
    8604:	4b05      	ldr	r3, [pc, #20]	; (861c <usbdc_clear_ftr_req+0x38>)
    8606:	4798      	blx	r3
    8608:	2301      	movs	r3, #1
    860a:	2200      	movs	r2, #0
    860c:	2100      	movs	r1, #0
    860e:	0020      	movs	r0, r4
    8610:	4c03      	ldr	r4, [pc, #12]	; (8620 <usbdc_clear_ftr_req+0x3c>)
    8612:	47a0      	blx	r4
    8614:	2001      	movs	r0, #1
    8616:	e000      	b.n	861a <usbdc_clear_ftr_req+0x36>
    8618:	2000      	movs	r0, #0
    861a:	bd10      	pop	{r4, pc}
    861c:	000025e9 	.word	0x000025e9
    8620:	000085c9 	.word	0x000085c9

00008624 <usbdc_set_ftr_req>:
    8624:	b510      	push	{r4, lr}
    8626:	0004      	movs	r4, r0
    8628:	780a      	ldrb	r2, [r1, #0]
    862a:	231f      	movs	r3, #31
    862c:	4013      	ands	r3, r2
    862e:	2b02      	cmp	r3, #2
    8630:	d112      	bne.n	8658 <usbdc_set_ftr_req+0x34>
    8632:	798a      	ldrb	r2, [r1, #6]
    8634:	79cb      	ldrb	r3, [r1, #7]
    8636:	021b      	lsls	r3, r3, #8
    8638:	4313      	orrs	r3, r2
    863a:	d001      	beq.n	8640 <usbdc_set_ftr_req+0x1c>
    863c:	2000      	movs	r0, #0
    863e:	e00c      	b.n	865a <usbdc_set_ftr_req+0x36>
    8640:	7908      	ldrb	r0, [r1, #4]
    8642:	2101      	movs	r1, #1
    8644:	4b05      	ldr	r3, [pc, #20]	; (865c <usbdc_set_ftr_req+0x38>)
    8646:	4798      	blx	r3
    8648:	2301      	movs	r3, #1
    864a:	2200      	movs	r2, #0
    864c:	2100      	movs	r1, #0
    864e:	0020      	movs	r0, r4
    8650:	4c03      	ldr	r4, [pc, #12]	; (8660 <usbdc_set_ftr_req+0x3c>)
    8652:	47a0      	blx	r4
    8654:	2001      	movs	r0, #1
    8656:	e000      	b.n	865a <usbdc_set_ftr_req+0x36>
    8658:	2000      	movs	r0, #0
    865a:	bd10      	pop	{r4, pc}
    865c:	000025e9 	.word	0x000025e9
    8660:	000085c9 	.word	0x000085c9

00008664 <usbdc_set_interface>:
    8664:	b570      	push	{r4, r5, r6, lr}
    8666:	b082      	sub	sp, #8
    8668:	0005      	movs	r5, r0
    866a:	000c      	movs	r4, r1
    866c:	4b2a      	ldr	r3, [pc, #168]	; (8718 <usbdc_set_interface+0xb4>)
    866e:	681a      	ldr	r2, [r3, #0]
    8670:	6810      	ldr	r0, [r2, #0]
    8672:	6851      	ldr	r1, [r2, #4]
    8674:	7eda      	ldrb	r2, [r3, #27]
    8676:	4b29      	ldr	r3, [pc, #164]	; (871c <usbdc_set_interface+0xb8>)
    8678:	4798      	blx	r3
    867a:	2800      	cmp	r0, #0
    867c:	d045      	beq.n	870a <usbdc_set_interface+0xa6>
    867e:	9000      	str	r0, [sp, #0]
    8680:	7881      	ldrb	r1, [r0, #2]
    8682:	78c3      	ldrb	r3, [r0, #3]
    8684:	021b      	lsls	r3, r3, #8
    8686:	18c9      	adds	r1, r1, r3
    8688:	b289      	uxth	r1, r1
    868a:	1841      	adds	r1, r0, r1
    868c:	9101      	str	r1, [sp, #4]
    868e:	2204      	movs	r2, #4
    8690:	4b23      	ldr	r3, [pc, #140]	; (8720 <usbdc_set_interface+0xbc>)
    8692:	4798      	blx	r3
    8694:	2800      	cmp	r0, #0
    8696:	d10b      	bne.n	86b0 <usbdc_set_interface+0x4c>
    8698:	2000      	movs	r0, #0
    869a:	e039      	b.n	8710 <usbdc_set_interface+0xac>
    869c:	9800      	ldr	r0, [sp, #0]
    869e:	7803      	ldrb	r3, [r0, #0]
    86a0:	18c0      	adds	r0, r0, r3
    86a2:	9000      	str	r0, [sp, #0]
    86a4:	2204      	movs	r2, #4
    86a6:	9901      	ldr	r1, [sp, #4]
    86a8:	4b1d      	ldr	r3, [pc, #116]	; (8720 <usbdc_set_interface+0xbc>)
    86aa:	4798      	blx	r3
    86ac:	2800      	cmp	r0, #0
    86ae:	d02e      	beq.n	870e <usbdc_set_interface+0xaa>
    86b0:	7883      	ldrb	r3, [r0, #2]
    86b2:	42a3      	cmp	r3, r4
    86b4:	d1f2      	bne.n	869c <usbdc_set_interface+0x38>
    86b6:	78c3      	ldrb	r3, [r0, #3]
    86b8:	42ab      	cmp	r3, r5
    86ba:	d1ef      	bne.n	869c <usbdc_set_interface+0x38>
    86bc:	9000      	str	r0, [sp, #0]
    86be:	4b16      	ldr	r3, [pc, #88]	; (8718 <usbdc_set_interface+0xb4>)
    86c0:	691e      	ldr	r6, [r3, #16]
    86c2:	2e00      	cmp	r6, #0
    86c4:	d01f      	beq.n	8706 <usbdc_set_interface+0xa2>
    86c6:	466a      	mov	r2, sp
    86c8:	2101      	movs	r1, #1
    86ca:	0030      	movs	r0, r6
    86cc:	6873      	ldr	r3, [r6, #4]
    86ce:	4798      	blx	r3
    86d0:	2800      	cmp	r0, #0
    86d2:	d001      	beq.n	86d8 <usbdc_set_interface+0x74>
    86d4:	6836      	ldr	r6, [r6, #0]
    86d6:	e7f4      	b.n	86c2 <usbdc_set_interface+0x5e>
    86d8:	6873      	ldr	r3, [r6, #4]
    86da:	466a      	mov	r2, sp
    86dc:	2100      	movs	r1, #0
    86de:	0030      	movs	r0, r6
    86e0:	4798      	blx	r3
    86e2:	2800      	cmp	r0, #0
    86e4:	d116      	bne.n	8714 <usbdc_set_interface+0xb0>
    86e6:	2d00      	cmp	r5, #0
    86e8:	d005      	beq.n	86f6 <usbdc_set_interface+0x92>
    86ea:	2201      	movs	r2, #1
    86ec:	40a2      	lsls	r2, r4
    86ee:	490a      	ldr	r1, [pc, #40]	; (8718 <usbdc_set_interface+0xb4>)
    86f0:	7f4b      	ldrb	r3, [r1, #29]
    86f2:	4313      	orrs	r3, r2
    86f4:	774b      	strb	r3, [r1, #29]
    86f6:	2300      	movs	r3, #0
    86f8:	2200      	movs	r2, #0
    86fa:	2100      	movs	r1, #0
    86fc:	2000      	movs	r0, #0
    86fe:	4c09      	ldr	r4, [pc, #36]	; (8724 <usbdc_set_interface+0xc0>)
    8700:	47a0      	blx	r4
    8702:	2001      	movs	r0, #1
    8704:	e004      	b.n	8710 <usbdc_set_interface+0xac>
    8706:	2000      	movs	r0, #0
    8708:	e002      	b.n	8710 <usbdc_set_interface+0xac>
    870a:	2000      	movs	r0, #0
    870c:	e000      	b.n	8710 <usbdc_set_interface+0xac>
    870e:	2000      	movs	r0, #0
    8710:	b002      	add	sp, #8
    8712:	bd70      	pop	{r4, r5, r6, pc}
    8714:	2000      	movs	r0, #0
    8716:	e7fb      	b.n	8710 <usbdc_set_interface+0xac>
    8718:	20000890 	.word	0x20000890
    871c:	00008bb5 	.word	0x00008bb5
    8720:	00008b71 	.word	0x00008b71
    8724:	000085c9 	.word	0x000085c9

00008728 <usbdc_set_req>:
    8728:	b510      	push	{r4, lr}
    872a:	0004      	movs	r4, r0
    872c:	784b      	ldrb	r3, [r1, #1]
    872e:	2b0b      	cmp	r3, #11
    8730:	d82d      	bhi.n	878e <usbdc_set_req+0x66>
    8732:	009b      	lsls	r3, r3, #2
    8734:	4a17      	ldr	r2, [pc, #92]	; (8794 <usbdc_set_req+0x6c>)
    8736:	58d3      	ldr	r3, [r2, r3]
    8738:	469f      	mov	pc, r3
    873a:	2301      	movs	r3, #1
    873c:	2200      	movs	r2, #0
    873e:	2100      	movs	r1, #0
    8740:	4c15      	ldr	r4, [pc, #84]	; (8798 <usbdc_set_req+0x70>)
    8742:	47a0      	blx	r4
    8744:	4243      	negs	r3, r0
    8746:	4158      	adcs	r0, r3
    8748:	b2c0      	uxtb	r0, r0
    874a:	bd10      	pop	{r4, pc}
    874c:	7888      	ldrb	r0, [r1, #2]
    874e:	4b13      	ldr	r3, [pc, #76]	; (879c <usbdc_set_req+0x74>)
    8750:	4798      	blx	r3
    8752:	2800      	cmp	r0, #0
    8754:	d0f9      	beq.n	874a <usbdc_set_req+0x22>
    8756:	2301      	movs	r3, #1
    8758:	2200      	movs	r2, #0
    875a:	2100      	movs	r1, #0
    875c:	0020      	movs	r0, r4
    875e:	4c0e      	ldr	r4, [pc, #56]	; (8798 <usbdc_set_req+0x70>)
    8760:	47a0      	blx	r4
    8762:	4243      	negs	r3, r0
    8764:	4158      	adcs	r0, r3
    8766:	b2c0      	uxtb	r0, r0
    8768:	e7ef      	b.n	874a <usbdc_set_req+0x22>
    876a:	4b0d      	ldr	r3, [pc, #52]	; (87a0 <usbdc_set_req+0x78>)
    876c:	4798      	blx	r3
    876e:	e7ec      	b.n	874a <usbdc_set_req+0x22>
    8770:	4b0c      	ldr	r3, [pc, #48]	; (87a4 <usbdc_set_req+0x7c>)
    8772:	4798      	blx	r3
    8774:	e7e9      	b.n	874a <usbdc_set_req+0x22>
    8776:	790a      	ldrb	r2, [r1, #4]
    8778:	794b      	ldrb	r3, [r1, #5]
    877a:	021b      	lsls	r3, r3, #8
    877c:	4313      	orrs	r3, r2
    877e:	788a      	ldrb	r2, [r1, #2]
    8780:	78c8      	ldrb	r0, [r1, #3]
    8782:	0200      	lsls	r0, r0, #8
    8784:	4310      	orrs	r0, r2
    8786:	0019      	movs	r1, r3
    8788:	4b07      	ldr	r3, [pc, #28]	; (87a8 <usbdc_set_req+0x80>)
    878a:	4798      	blx	r3
    878c:	e7dd      	b.n	874a <usbdc_set_req+0x22>
    878e:	2000      	movs	r0, #0
    8790:	e7db      	b.n	874a <usbdc_set_req+0x22>
    8792:	46c0      	nop			; (mov r8, r8)
    8794:	0000ec3c 	.word	0x0000ec3c
    8798:	000085c9 	.word	0x000085c9
    879c:	000084b9 	.word	0x000084b9
    87a0:	000085e5 	.word	0x000085e5
    87a4:	00008625 	.word	0x00008625
    87a8:	00008665 	.word	0x00008665

000087ac <usbdc_get_dev_desc>:
    87ac:	b570      	push	{r4, r5, r6, lr}
    87ae:	0005      	movs	r5, r0
    87b0:	798b      	ldrb	r3, [r1, #6]
    87b2:	79cc      	ldrb	r4, [r1, #7]
    87b4:	0224      	lsls	r4, r4, #8
    87b6:	431c      	orrs	r4, r3
    87b8:	2c12      	cmp	r4, #18
    87ba:	d900      	bls.n	87be <usbdc_get_dev_desc+0x12>
    87bc:	2412      	movs	r4, #18
    87be:	4b0b      	ldr	r3, [pc, #44]	; (87ec <usbdc_get_dev_desc+0x40>)
    87c0:	681b      	ldr	r3, [r3, #0]
    87c2:	6818      	ldr	r0, [r3, #0]
    87c4:	6859      	ldr	r1, [r3, #4]
    87c6:	2201      	movs	r2, #1
    87c8:	4b09      	ldr	r3, [pc, #36]	; (87f0 <usbdc_get_dev_desc+0x44>)
    87ca:	4798      	blx	r3
    87cc:	2800      	cmp	r0, #0
    87ce:	d00b      	beq.n	87e8 <usbdc_get_dev_desc+0x3c>
    87d0:	2300      	movs	r3, #0
    87d2:	0022      	movs	r2, r4
    87d4:	0001      	movs	r1, r0
    87d6:	0028      	movs	r0, r5
    87d8:	4c06      	ldr	r4, [pc, #24]	; (87f4 <usbdc_get_dev_desc+0x48>)
    87da:	47a0      	blx	r4
    87dc:	2800      	cmp	r0, #0
    87de:	d101      	bne.n	87e4 <usbdc_get_dev_desc+0x38>
    87e0:	2001      	movs	r0, #1
    87e2:	bd70      	pop	{r4, r5, r6, pc}
    87e4:	2000      	movs	r0, #0
    87e6:	e7fc      	b.n	87e2 <usbdc_get_dev_desc+0x36>
    87e8:	2000      	movs	r0, #0
    87ea:	e7fa      	b.n	87e2 <usbdc_get_dev_desc+0x36>
    87ec:	20000890 	.word	0x20000890
    87f0:	00008b71 	.word	0x00008b71
    87f4:	000085c9 	.word	0x000085c9

000087f8 <usbdc_get_cfg_desc>:
    87f8:	b570      	push	{r4, r5, r6, lr}
    87fa:	0005      	movs	r5, r0
    87fc:	798b      	ldrb	r3, [r1, #6]
    87fe:	79ce      	ldrb	r6, [r1, #7]
    8800:	0236      	lsls	r6, r6, #8
    8802:	431e      	orrs	r6, r3
    8804:	788a      	ldrb	r2, [r1, #2]
    8806:	4b13      	ldr	r3, [pc, #76]	; (8854 <usbdc_get_cfg_desc+0x5c>)
    8808:	7f1c      	ldrb	r4, [r3, #28]
    880a:	3c01      	subs	r4, #1
    880c:	4034      	ands	r4, r6
    880e:	4261      	negs	r1, r4
    8810:	414c      	adcs	r4, r1
    8812:	b2e4      	uxtb	r4, r4
    8814:	681b      	ldr	r3, [r3, #0]
    8816:	6818      	ldr	r0, [r3, #0]
    8818:	6859      	ldr	r1, [r3, #4]
    881a:	3201      	adds	r2, #1
    881c:	b2d2      	uxtb	r2, r2
    881e:	4b0e      	ldr	r3, [pc, #56]	; (8858 <usbdc_get_cfg_desc+0x60>)
    8820:	4798      	blx	r3
    8822:	2800      	cmp	r0, #0
    8824:	d013      	beq.n	884e <usbdc_get_cfg_desc+0x56>
    8826:	7882      	ldrb	r2, [r0, #2]
    8828:	78c3      	ldrb	r3, [r0, #3]
    882a:	021b      	lsls	r3, r3, #8
    882c:	18d2      	adds	r2, r2, r3
    882e:	b292      	uxth	r2, r2
    8830:	4296      	cmp	r6, r2
    8832:	d801      	bhi.n	8838 <usbdc_get_cfg_desc+0x40>
    8834:	0032      	movs	r2, r6
    8836:	2400      	movs	r4, #0
    8838:	0023      	movs	r3, r4
    883a:	0001      	movs	r1, r0
    883c:	0028      	movs	r0, r5
    883e:	4c07      	ldr	r4, [pc, #28]	; (885c <usbdc_get_cfg_desc+0x64>)
    8840:	47a0      	blx	r4
    8842:	2800      	cmp	r0, #0
    8844:	d101      	bne.n	884a <usbdc_get_cfg_desc+0x52>
    8846:	2001      	movs	r0, #1
    8848:	bd70      	pop	{r4, r5, r6, pc}
    884a:	2000      	movs	r0, #0
    884c:	e7fc      	b.n	8848 <usbdc_get_cfg_desc+0x50>
    884e:	2000      	movs	r0, #0
    8850:	e7fa      	b.n	8848 <usbdc_get_cfg_desc+0x50>
    8852:	46c0      	nop			; (mov r8, r8)
    8854:	20000890 	.word	0x20000890
    8858:	00008bb5 	.word	0x00008bb5
    885c:	000085c9 	.word	0x000085c9

00008860 <usbdc_get_str_desc>:
    8860:	b570      	push	{r4, r5, r6, lr}
    8862:	0005      	movs	r5, r0
    8864:	798b      	ldrb	r3, [r1, #6]
    8866:	79ce      	ldrb	r6, [r1, #7]
    8868:	0236      	lsls	r6, r6, #8
    886a:	431e      	orrs	r6, r3
    886c:	788a      	ldrb	r2, [r1, #2]
    886e:	4b10      	ldr	r3, [pc, #64]	; (88b0 <usbdc_get_str_desc+0x50>)
    8870:	7f1c      	ldrb	r4, [r3, #28]
    8872:	3c01      	subs	r4, #1
    8874:	4034      	ands	r4, r6
    8876:	4261      	negs	r1, r4
    8878:	414c      	adcs	r4, r1
    887a:	b2e4      	uxtb	r4, r4
    887c:	681b      	ldr	r3, [r3, #0]
    887e:	6818      	ldr	r0, [r3, #0]
    8880:	6859      	ldr	r1, [r3, #4]
    8882:	4b0c      	ldr	r3, [pc, #48]	; (88b4 <usbdc_get_str_desc+0x54>)
    8884:	4798      	blx	r3
    8886:	2800      	cmp	r0, #0
    8888:	d00f      	beq.n	88aa <usbdc_get_str_desc+0x4a>
    888a:	7802      	ldrb	r2, [r0, #0]
    888c:	4296      	cmp	r6, r2
    888e:	d801      	bhi.n	8894 <usbdc_get_str_desc+0x34>
    8890:	0032      	movs	r2, r6
    8892:	2400      	movs	r4, #0
    8894:	0023      	movs	r3, r4
    8896:	0001      	movs	r1, r0
    8898:	0028      	movs	r0, r5
    889a:	4c07      	ldr	r4, [pc, #28]	; (88b8 <usbdc_get_str_desc+0x58>)
    889c:	47a0      	blx	r4
    889e:	2800      	cmp	r0, #0
    88a0:	d101      	bne.n	88a6 <usbdc_get_str_desc+0x46>
    88a2:	2001      	movs	r0, #1
    88a4:	bd70      	pop	{r4, r5, r6, pc}
    88a6:	2000      	movs	r0, #0
    88a8:	e7fc      	b.n	88a4 <usbdc_get_str_desc+0x44>
    88aa:	2000      	movs	r0, #0
    88ac:	e7fa      	b.n	88a4 <usbdc_get_str_desc+0x44>
    88ae:	46c0      	nop			; (mov r8, r8)
    88b0:	20000890 	.word	0x20000890
    88b4:	00008bf9 	.word	0x00008bf9
    88b8:	000085c9 	.word	0x000085c9

000088bc <usbdc_get_desc_req>:
    88bc:	b510      	push	{r4, lr}
    88be:	78cb      	ldrb	r3, [r1, #3]
    88c0:	2b02      	cmp	r3, #2
    88c2:	d008      	beq.n	88d6 <usbdc_get_desc_req+0x1a>
    88c4:	2b03      	cmp	r3, #3
    88c6:	d009      	beq.n	88dc <usbdc_get_desc_req+0x20>
    88c8:	2b01      	cmp	r3, #1
    88ca:	d001      	beq.n	88d0 <usbdc_get_desc_req+0x14>
    88cc:	2000      	movs	r0, #0
    88ce:	e001      	b.n	88d4 <usbdc_get_desc_req+0x18>
    88d0:	4b04      	ldr	r3, [pc, #16]	; (88e4 <usbdc_get_desc_req+0x28>)
    88d2:	4798      	blx	r3
    88d4:	bd10      	pop	{r4, pc}
    88d6:	4b04      	ldr	r3, [pc, #16]	; (88e8 <usbdc_get_desc_req+0x2c>)
    88d8:	4798      	blx	r3
    88da:	e7fb      	b.n	88d4 <usbdc_get_desc_req+0x18>
    88dc:	4b03      	ldr	r3, [pc, #12]	; (88ec <usbdc_get_desc_req+0x30>)
    88de:	4798      	blx	r3
    88e0:	e7f8      	b.n	88d4 <usbdc_get_desc_req+0x18>
    88e2:	46c0      	nop			; (mov r8, r8)
    88e4:	000087ad 	.word	0x000087ad
    88e8:	000087f9 	.word	0x000087f9
    88ec:	00008861 	.word	0x00008861

000088f0 <usbdc_get_status_req>:
    88f0:	b530      	push	{r4, r5, lr}
    88f2:	b083      	sub	sp, #12
    88f4:	0004      	movs	r4, r0
    88f6:	780a      	ldrb	r2, [r1, #0]
    88f8:	231f      	movs	r3, #31
    88fa:	4013      	ands	r3, r2
    88fc:	b2da      	uxtb	r2, r3
    88fe:	2a01      	cmp	r2, #1
    8900:	d903      	bls.n	890a <usbdc_get_status_req+0x1a>
    8902:	2b02      	cmp	r3, #2
    8904:	d012      	beq.n	892c <usbdc_get_status_req+0x3c>
    8906:	2000      	movs	r0, #0
    8908:	e00e      	b.n	8928 <usbdc_get_status_req+0x38>
    890a:	2300      	movs	r3, #0
    890c:	9301      	str	r3, [sp, #4]
    890e:	4d0d      	ldr	r5, [pc, #52]	; (8944 <usbdc_get_status_req+0x54>)
    8910:	2202      	movs	r2, #2
    8912:	a901      	add	r1, sp, #4
    8914:	6968      	ldr	r0, [r5, #20]
    8916:	4b0c      	ldr	r3, [pc, #48]	; (8948 <usbdc_get_status_req+0x58>)
    8918:	4798      	blx	r3
    891a:	6969      	ldr	r1, [r5, #20]
    891c:	2300      	movs	r3, #0
    891e:	2202      	movs	r2, #2
    8920:	0020      	movs	r0, r4
    8922:	4c0a      	ldr	r4, [pc, #40]	; (894c <usbdc_get_status_req+0x5c>)
    8924:	47a0      	blx	r4
    8926:	2001      	movs	r0, #1
    8928:	b003      	add	sp, #12
    892a:	bd30      	pop	{r4, r5, pc}
    892c:	7908      	ldrb	r0, [r1, #4]
    892e:	2102      	movs	r1, #2
    8930:	4b07      	ldr	r3, [pc, #28]	; (8950 <usbdc_get_status_req+0x60>)
    8932:	4798      	blx	r3
    8934:	2800      	cmp	r0, #0
    8936:	db03      	blt.n	8940 <usbdc_get_status_req+0x50>
    8938:	2301      	movs	r3, #1
    893a:	4018      	ands	r0, r3
    893c:	9001      	str	r0, [sp, #4]
    893e:	e7e6      	b.n	890e <usbdc_get_status_req+0x1e>
    8940:	2000      	movs	r0, #0
    8942:	e7f1      	b.n	8928 <usbdc_get_status_req+0x38>
    8944:	20000890 	.word	0x20000890
    8948:	000094e3 	.word	0x000094e3
    894c:	000085c9 	.word	0x000085c9
    8950:	000025e9 	.word	0x000025e9

00008954 <usbdc_get_interface>:
    8954:	b570      	push	{r4, r5, r6, lr}
    8956:	0005      	movs	r5, r0
    8958:	4b16      	ldr	r3, [pc, #88]	; (89b4 <usbdc_get_interface+0x60>)
    895a:	691c      	ldr	r4, [r3, #16]
    895c:	7f5a      	ldrb	r2, [r3, #29]
    895e:	7901      	ldrb	r1, [r0, #4]
    8960:	7943      	ldrb	r3, [r0, #5]
    8962:	021b      	lsls	r3, r3, #8
    8964:	430b      	orrs	r3, r1
    8966:	411a      	asrs	r2, r3
    8968:	07d3      	lsls	r3, r2, #31
    896a:	d50a      	bpl.n	8982 <usbdc_get_interface+0x2e>
    896c:	2c00      	cmp	r4, #0
    896e:	d01f      	beq.n	89b0 <usbdc_get_interface+0x5c>
    8970:	002a      	movs	r2, r5
    8972:	2102      	movs	r1, #2
    8974:	0020      	movs	r0, r4
    8976:	6863      	ldr	r3, [r4, #4]
    8978:	4798      	blx	r3
    897a:	2800      	cmp	r0, #0
    897c:	da0d      	bge.n	899a <usbdc_get_interface+0x46>
    897e:	6824      	ldr	r4, [r4, #0]
    8980:	e7f4      	b.n	896c <usbdc_get_interface+0x18>
    8982:	4b0c      	ldr	r3, [pc, #48]	; (89b4 <usbdc_get_interface+0x60>)
    8984:	2200      	movs	r2, #0
    8986:	6959      	ldr	r1, [r3, #20]
    8988:	700a      	strb	r2, [r1, #0]
    898a:	6959      	ldr	r1, [r3, #20]
    898c:	2300      	movs	r3, #0
    898e:	3201      	adds	r2, #1
    8990:	2000      	movs	r0, #0
    8992:	4c09      	ldr	r4, [pc, #36]	; (89b8 <usbdc_get_interface+0x64>)
    8994:	47a0      	blx	r4
    8996:	2001      	movs	r0, #1
    8998:	e00b      	b.n	89b2 <usbdc_get_interface+0x5e>
    899a:	4b06      	ldr	r3, [pc, #24]	; (89b4 <usbdc_get_interface+0x60>)
    899c:	695a      	ldr	r2, [r3, #20]
    899e:	7010      	strb	r0, [r2, #0]
    89a0:	6959      	ldr	r1, [r3, #20]
    89a2:	2300      	movs	r3, #0
    89a4:	2201      	movs	r2, #1
    89a6:	2000      	movs	r0, #0
    89a8:	4c03      	ldr	r4, [pc, #12]	; (89b8 <usbdc_get_interface+0x64>)
    89aa:	47a0      	blx	r4
    89ac:	2001      	movs	r0, #1
    89ae:	e000      	b.n	89b2 <usbdc_get_interface+0x5e>
    89b0:	2000      	movs	r0, #0
    89b2:	bd70      	pop	{r4, r5, r6, pc}
    89b4:	20000890 	.word	0x20000890
    89b8:	000085c9 	.word	0x000085c9

000089bc <usbdc_get_req>:
    89bc:	b510      	push	{r4, lr}
    89be:	784b      	ldrb	r3, [r1, #1]
    89c0:	2b06      	cmp	r3, #6
    89c2:	d00d      	beq.n	89e0 <usbdc_get_req+0x24>
    89c4:	d907      	bls.n	89d6 <usbdc_get_req+0x1a>
    89c6:	2b08      	cmp	r3, #8
    89c8:	d00d      	beq.n	89e6 <usbdc_get_req+0x2a>
    89ca:	2b0a      	cmp	r3, #10
    89cc:	d116      	bne.n	89fc <usbdc_get_req+0x40>
    89ce:	0008      	movs	r0, r1
    89d0:	4b0b      	ldr	r3, [pc, #44]	; (8a00 <usbdc_get_req+0x44>)
    89d2:	4798      	blx	r3
    89d4:	e006      	b.n	89e4 <usbdc_get_req+0x28>
    89d6:	2b00      	cmp	r3, #0
    89d8:	d110      	bne.n	89fc <usbdc_get_req+0x40>
    89da:	4b0a      	ldr	r3, [pc, #40]	; (8a04 <usbdc_get_req+0x48>)
    89dc:	4798      	blx	r3
    89de:	e001      	b.n	89e4 <usbdc_get_req+0x28>
    89e0:	4b09      	ldr	r3, [pc, #36]	; (8a08 <usbdc_get_req+0x4c>)
    89e2:	4798      	blx	r3
    89e4:	bd10      	pop	{r4, pc}
    89e6:	4b09      	ldr	r3, [pc, #36]	; (8a0c <usbdc_get_req+0x50>)
    89e8:	7eda      	ldrb	r2, [r3, #27]
    89ea:	6959      	ldr	r1, [r3, #20]
    89ec:	700a      	strb	r2, [r1, #0]
    89ee:	6959      	ldr	r1, [r3, #20]
    89f0:	2300      	movs	r3, #0
    89f2:	2201      	movs	r2, #1
    89f4:	4c06      	ldr	r4, [pc, #24]	; (8a10 <usbdc_get_req+0x54>)
    89f6:	47a0      	blx	r4
    89f8:	2001      	movs	r0, #1
    89fa:	e7f3      	b.n	89e4 <usbdc_get_req+0x28>
    89fc:	2000      	movs	r0, #0
    89fe:	e7f1      	b.n	89e4 <usbdc_get_req+0x28>
    8a00:	00008955 	.word	0x00008955
    8a04:	000088f1 	.word	0x000088f1
    8a08:	000088bd 	.word	0x000088bd
    8a0c:	20000890 	.word	0x20000890
    8a10:	000085c9 	.word	0x000085c9

00008a14 <usbdc_cb_ctl_req>:
    8a14:	b570      	push	{r4, r5, r6, lr}
    8a16:	0005      	movs	r5, r0
    8a18:	000c      	movs	r4, r1
    8a1a:	2200      	movs	r2, #0
    8a1c:	4b0d      	ldr	r3, [pc, #52]	; (8a54 <usbdc_cb_ctl_req+0x40>)
    8a1e:	4798      	blx	r3
    8a20:	1c43      	adds	r3, r0, #1
    8a22:	d014      	beq.n	8a4e <usbdc_cb_ctl_req+0x3a>
    8a24:	2801      	cmp	r0, #1
    8a26:	d013      	beq.n	8a50 <usbdc_cb_ctl_req+0x3c>
    8a28:	7823      	ldrb	r3, [r4, #0]
    8a2a:	221f      	movs	r2, #31
    8a2c:	4393      	bics	r3, r2
    8a2e:	d004      	beq.n	8a3a <usbdc_cb_ctl_req+0x26>
    8a30:	b2db      	uxtb	r3, r3
    8a32:	2b80      	cmp	r3, #128	; 0x80
    8a34:	d006      	beq.n	8a44 <usbdc_cb_ctl_req+0x30>
    8a36:	2000      	movs	r0, #0
    8a38:	e00a      	b.n	8a50 <usbdc_cb_ctl_req+0x3c>
    8a3a:	0021      	movs	r1, r4
    8a3c:	0028      	movs	r0, r5
    8a3e:	4b06      	ldr	r3, [pc, #24]	; (8a58 <usbdc_cb_ctl_req+0x44>)
    8a40:	4798      	blx	r3
    8a42:	e005      	b.n	8a50 <usbdc_cb_ctl_req+0x3c>
    8a44:	0021      	movs	r1, r4
    8a46:	0028      	movs	r0, r5
    8a48:	4b04      	ldr	r3, [pc, #16]	; (8a5c <usbdc_cb_ctl_req+0x48>)
    8a4a:	4798      	blx	r3
    8a4c:	e000      	b.n	8a50 <usbdc_cb_ctl_req+0x3c>
    8a4e:	2000      	movs	r0, #0
    8a50:	bd70      	pop	{r4, r5, r6, pc}
    8a52:	46c0      	nop			; (mov r8, r8)
    8a54:	000083c5 	.word	0x000083c5
    8a58:	00008729 	.word	0x00008729
    8a5c:	000089bd 	.word	0x000089bd

00008a60 <usbdc_register_handler>:
    8a60:	b510      	push	{r4, lr}
    8a62:	2801      	cmp	r0, #1
    8a64:	d009      	beq.n	8a7a <usbdc_register_handler+0x1a>
    8a66:	2800      	cmp	r0, #0
    8a68:	d002      	beq.n	8a70 <usbdc_register_handler+0x10>
    8a6a:	2802      	cmp	r0, #2
    8a6c:	d00a      	beq.n	8a84 <usbdc_register_handler+0x24>
    8a6e:	bd10      	pop	{r4, pc}
    8a70:	4807      	ldr	r0, [pc, #28]	; (8a90 <usbdc_register_handler+0x30>)
    8a72:	3004      	adds	r0, #4
    8a74:	4b07      	ldr	r3, [pc, #28]	; (8a94 <usbdc_register_handler+0x34>)
    8a76:	4798      	blx	r3
    8a78:	e7f9      	b.n	8a6e <usbdc_register_handler+0xe>
    8a7a:	4805      	ldr	r0, [pc, #20]	; (8a90 <usbdc_register_handler+0x30>)
    8a7c:	3008      	adds	r0, #8
    8a7e:	4b05      	ldr	r3, [pc, #20]	; (8a94 <usbdc_register_handler+0x34>)
    8a80:	4798      	blx	r3
    8a82:	e7f4      	b.n	8a6e <usbdc_register_handler+0xe>
    8a84:	4802      	ldr	r0, [pc, #8]	; (8a90 <usbdc_register_handler+0x30>)
    8a86:	300c      	adds	r0, #12
    8a88:	4b02      	ldr	r3, [pc, #8]	; (8a94 <usbdc_register_handler+0x34>)
    8a8a:	4798      	blx	r3
    8a8c:	e7ef      	b.n	8a6e <usbdc_register_handler+0xe>
    8a8e:	46c0      	nop			; (mov r8, r8)
    8a90:	20000890 	.word	0x20000890
    8a94:	000026f5 	.word	0x000026f5

00008a98 <usbdc_init>:
    8a98:	b570      	push	{r4, r5, r6, lr}
    8a9a:	0004      	movs	r4, r0
    8a9c:	1e43      	subs	r3, r0, #1
    8a9e:	4198      	sbcs	r0, r3
    8aa0:	b2c0      	uxtb	r0, r0
    8aa2:	4a0c      	ldr	r2, [pc, #48]	; (8ad4 <usbdc_init+0x3c>)
    8aa4:	490c      	ldr	r1, [pc, #48]	; (8ad8 <usbdc_init+0x40>)
    8aa6:	4b0d      	ldr	r3, [pc, #52]	; (8adc <usbdc_init+0x44>)
    8aa8:	4798      	blx	r3
    8aaa:	4b0d      	ldr	r3, [pc, #52]	; (8ae0 <usbdc_init+0x48>)
    8aac:	4798      	blx	r3
    8aae:	2800      	cmp	r0, #0
    8ab0:	db0e      	blt.n	8ad0 <usbdc_init+0x38>
    8ab2:	4d0c      	ldr	r5, [pc, #48]	; (8ae4 <usbdc_init+0x4c>)
    8ab4:	2220      	movs	r2, #32
    8ab6:	2100      	movs	r1, #0
    8ab8:	0028      	movs	r0, r5
    8aba:	4b0b      	ldr	r3, [pc, #44]	; (8ae8 <usbdc_init+0x50>)
    8abc:	4798      	blx	r3
    8abe:	616c      	str	r4, [r5, #20]
    8ac0:	490a      	ldr	r1, [pc, #40]	; (8aec <usbdc_init+0x54>)
    8ac2:	2000      	movs	r0, #0
    8ac4:	4c0a      	ldr	r4, [pc, #40]	; (8af0 <usbdc_init+0x58>)
    8ac6:	47a0      	blx	r4
    8ac8:	490a      	ldr	r1, [pc, #40]	; (8af4 <usbdc_init+0x5c>)
    8aca:	2001      	movs	r0, #1
    8acc:	47a0      	blx	r4
    8ace:	2000      	movs	r0, #0
    8ad0:	bd70      	pop	{r4, r5, r6, pc}
    8ad2:	46c0      	nop			; (mov r8, r8)
    8ad4:	00000355 	.word	0x00000355
    8ad8:	0000ec6c 	.word	0x0000ec6c
    8adc:	000026a1 	.word	0x000026a1
    8ae0:	00002345 	.word	0x00002345
    8ae4:	20000890 	.word	0x20000890
    8ae8:	000094f5 	.word	0x000094f5
    8aec:	00008401 	.word	0x00008401
    8af0:	000023b1 	.word	0x000023b1
    8af4:	000085a5 	.word	0x000085a5

00008af8 <usbdc_register_function>:
    8af8:	b510      	push	{r4, lr}
    8afa:	0001      	movs	r1, r0
    8afc:	4802      	ldr	r0, [pc, #8]	; (8b08 <usbdc_register_function+0x10>)
    8afe:	3010      	adds	r0, #16
    8b00:	4b02      	ldr	r3, [pc, #8]	; (8b0c <usbdc_register_function+0x14>)
    8b02:	4798      	blx	r3
    8b04:	bd10      	pop	{r4, pc}
    8b06:	46c0      	nop			; (mov r8, r8)
    8b08:	20000890 	.word	0x20000890
    8b0c:	000026f5 	.word	0x000026f5

00008b10 <usbdc_start>:
    8b10:	b510      	push	{r4, lr}
    8b12:	4b0b      	ldr	r3, [pc, #44]	; (8b40 <usbdc_start+0x30>)
    8b14:	7e9b      	ldrb	r3, [r3, #26]
    8b16:	2b00      	cmp	r3, #0
    8b18:	d10c      	bne.n	8b34 <usbdc_start+0x24>
    8b1a:	2800      	cmp	r0, #0
    8b1c:	d00d      	beq.n	8b3a <usbdc_start+0x2a>
    8b1e:	4b08      	ldr	r3, [pc, #32]	; (8b40 <usbdc_start+0x30>)
    8b20:	6018      	str	r0, [r3, #0]
    8b22:	6802      	ldr	r2, [r0, #0]
    8b24:	79d2      	ldrb	r2, [r2, #7]
    8b26:	771a      	strb	r2, [r3, #28]
    8b28:	2201      	movs	r2, #1
    8b2a:	769a      	strb	r2, [r3, #26]
    8b2c:	4b05      	ldr	r3, [pc, #20]	; (8b44 <usbdc_start+0x34>)
    8b2e:	4798      	blx	r3
    8b30:	2000      	movs	r0, #0
    8b32:	bd10      	pop	{r4, pc}
    8b34:	2004      	movs	r0, #4
    8b36:	4240      	negs	r0, r0
    8b38:	e7fb      	b.n	8b32 <usbdc_start+0x22>
    8b3a:	2009      	movs	r0, #9
    8b3c:	4240      	negs	r0, r0
    8b3e:	e7f8      	b.n	8b32 <usbdc_start+0x22>
    8b40:	20000890 	.word	0x20000890
    8b44:	000023bd 	.word	0x000023bd

00008b48 <usbdc_attach>:
    8b48:	b510      	push	{r4, lr}
    8b4a:	4b01      	ldr	r3, [pc, #4]	; (8b50 <usbdc_attach+0x8>)
    8b4c:	4798      	blx	r3
    8b4e:	bd10      	pop	{r4, pc}
    8b50:	000023c9 	.word	0x000023c9

00008b54 <usbdc_get_ctrl_buffer>:
    8b54:	4b01      	ldr	r3, [pc, #4]	; (8b5c <usbdc_get_ctrl_buffer+0x8>)
    8b56:	6958      	ldr	r0, [r3, #20]
    8b58:	4770      	bx	lr
    8b5a:	46c0      	nop			; (mov r8, r8)
    8b5c:	20000890 	.word	0x20000890

00008b60 <usbdc_get_state>:
    8b60:	4b02      	ldr	r3, [pc, #8]	; (8b6c <usbdc_get_state+0xc>)
    8b62:	7e98      	ldrb	r0, [r3, #26]
    8b64:	06c3      	lsls	r3, r0, #27
    8b66:	d500      	bpl.n	8b6a <usbdc_get_state+0xa>
    8b68:	2010      	movs	r0, #16
    8b6a:	4770      	bx	lr
    8b6c:	20000890 	.word	0x20000890

00008b70 <usb_find_desc>:
    8b70:	b510      	push	{r4, lr}
    8b72:	4288      	cmp	r0, r1
    8b74:	d207      	bcs.n	8b86 <usb_find_desc+0x16>
    8b76:	7803      	ldrb	r3, [r0, #0]
    8b78:	2b01      	cmp	r3, #1
    8b7a:	d906      	bls.n	8b8a <usb_find_desc+0x1a>
    8b7c:	7844      	ldrb	r4, [r0, #1]
    8b7e:	4294      	cmp	r4, r2
    8b80:	d002      	beq.n	8b88 <usb_find_desc+0x18>
    8b82:	18c0      	adds	r0, r0, r3
    8b84:	e7f5      	b.n	8b72 <usb_find_desc+0x2>
    8b86:	2000      	movs	r0, #0
    8b88:	bd10      	pop	{r4, pc}
    8b8a:	2000      	movs	r0, #0
    8b8c:	e7fc      	b.n	8b88 <usb_find_desc+0x18>

00008b8e <usb_find_ep_desc>:
    8b8e:	4288      	cmp	r0, r1
    8b90:	d209      	bcs.n	8ba6 <usb_find_ep_desc+0x18>
    8b92:	7803      	ldrb	r3, [r0, #0]
    8b94:	2b01      	cmp	r3, #1
    8b96:	d908      	bls.n	8baa <usb_find_ep_desc+0x1c>
    8b98:	7842      	ldrb	r2, [r0, #1]
    8b9a:	2a04      	cmp	r2, #4
    8b9c:	d007      	beq.n	8bae <usb_find_ep_desc+0x20>
    8b9e:	2a05      	cmp	r2, #5
    8ba0:	d002      	beq.n	8ba8 <usb_find_ep_desc+0x1a>
    8ba2:	18c0      	adds	r0, r0, r3
    8ba4:	e7f3      	b.n	8b8e <usb_find_ep_desc>
    8ba6:	2000      	movs	r0, #0
    8ba8:	4770      	bx	lr
    8baa:	2000      	movs	r0, #0
    8bac:	e7fc      	b.n	8ba8 <usb_find_ep_desc+0x1a>
    8bae:	2000      	movs	r0, #0
    8bb0:	e7fa      	b.n	8ba8 <usb_find_ep_desc+0x1a>
	...

00008bb4 <usb_find_cfg_desc>:
    8bb4:	b570      	push	{r4, r5, r6, lr}
    8bb6:	000c      	movs	r4, r1
    8bb8:	0015      	movs	r5, r2
    8bba:	2202      	movs	r2, #2
    8bbc:	4b0d      	ldr	r3, [pc, #52]	; (8bf4 <usb_find_cfg_desc+0x40>)
    8bbe:	4798      	blx	r3
    8bc0:	2800      	cmp	r0, #0
    8bc2:	d012      	beq.n	8bea <usb_find_cfg_desc+0x36>
    8bc4:	42a0      	cmp	r0, r4
    8bc6:	d20f      	bcs.n	8be8 <usb_find_cfg_desc+0x34>
    8bc8:	7803      	ldrb	r3, [r0, #0]
    8bca:	2b01      	cmp	r3, #1
    8bcc:	d90e      	bls.n	8bec <usb_find_cfg_desc+0x38>
    8bce:	7843      	ldrb	r3, [r0, #1]
    8bd0:	2b02      	cmp	r3, #2
    8bd2:	d10d      	bne.n	8bf0 <usb_find_cfg_desc+0x3c>
    8bd4:	7943      	ldrb	r3, [r0, #5]
    8bd6:	42ab      	cmp	r3, r5
    8bd8:	d007      	beq.n	8bea <usb_find_cfg_desc+0x36>
    8bda:	7883      	ldrb	r3, [r0, #2]
    8bdc:	78c2      	ldrb	r2, [r0, #3]
    8bde:	0212      	lsls	r2, r2, #8
    8be0:	189b      	adds	r3, r3, r2
    8be2:	b29b      	uxth	r3, r3
    8be4:	18c0      	adds	r0, r0, r3
    8be6:	e7ed      	b.n	8bc4 <usb_find_cfg_desc+0x10>
    8be8:	2000      	movs	r0, #0
    8bea:	bd70      	pop	{r4, r5, r6, pc}
    8bec:	2000      	movs	r0, #0
    8bee:	e7fc      	b.n	8bea <usb_find_cfg_desc+0x36>
    8bf0:	2000      	movs	r0, #0
    8bf2:	e7fa      	b.n	8bea <usb_find_cfg_desc+0x36>
    8bf4:	00008b71 	.word	0x00008b71

00008bf8 <usb_find_str_desc>:
    8bf8:	b570      	push	{r4, r5, r6, lr}
    8bfa:	000d      	movs	r5, r1
    8bfc:	0016      	movs	r6, r2
    8bfe:	2400      	movs	r4, #0
    8c00:	42a8      	cmp	r0, r5
    8c02:	d20e      	bcs.n	8c22 <usb_find_str_desc+0x2a>
    8c04:	2203      	movs	r2, #3
    8c06:	0029      	movs	r1, r5
    8c08:	4b08      	ldr	r3, [pc, #32]	; (8c2c <usb_find_str_desc+0x34>)
    8c0a:	4798      	blx	r3
    8c0c:	2800      	cmp	r0, #0
    8c0e:	d009      	beq.n	8c24 <usb_find_str_desc+0x2c>
    8c10:	7803      	ldrb	r3, [r0, #0]
    8c12:	2b01      	cmp	r3, #1
    8c14:	d907      	bls.n	8c26 <usb_find_str_desc+0x2e>
    8c16:	42b4      	cmp	r4, r6
    8c18:	d004      	beq.n	8c24 <usb_find_str_desc+0x2c>
    8c1a:	3401      	adds	r4, #1
    8c1c:	b2e4      	uxtb	r4, r4
    8c1e:	18c0      	adds	r0, r0, r3
    8c20:	e7ee      	b.n	8c00 <usb_find_str_desc+0x8>
    8c22:	2000      	movs	r0, #0
    8c24:	bd70      	pop	{r4, r5, r6, pc}
    8c26:	2000      	movs	r0, #0
    8c28:	e7fc      	b.n	8c24 <usb_find_str_desc+0x2c>
    8c2a:	46c0      	nop			; (mov r8, r8)
    8c2c:	00008b71 	.word	0x00008b71

00008c30 <hiddf_sof_event>:
	cdcdf_demo_buf = bulk_packet_buffer;
	cdcdf_acm_register_callback(CDCDF_ACM_CB_STATE_C, (FUNC_PTR)cdcdf_demo_cb_state_c);
}

static void hiddf_sof_event(void)
{
    8c30:	b510      	push	{r4, lr}
    8c32:	b084      	sub	sp, #16
	if (repress_delay){
    8c34:	4bc0      	ldr	r3, [pc, #768]	; (8f38 <hiddf_sof_event+0x308>)
    8c36:	791b      	ldrb	r3, [r3, #4]
    8c38:	2b00      	cmp	r3, #0
    8c3a:	d002      	beq.n	8c42 <hiddf_sof_event+0x12>
		repress_delay --;
    8c3c:	3b01      	subs	r3, #1
    8c3e:	4abe      	ldr	r2, [pc, #760]	; (8f38 <hiddf_sof_event+0x308>)
    8c40:	7113      	strb	r3, [r2, #4]
	}
	if (usb_disconnected){
    8c42:	4bbe      	ldr	r3, [pc, #760]	; (8f3c <hiddf_sof_event+0x30c>)
    8c44:	881b      	ldrh	r3, [r3, #0]
    8c46:	2b00      	cmp	r3, #0
    8c48:	d002      	beq.n	8c50 <hiddf_sof_event+0x20>
		usb_disconnected --;
    8c4a:	3b01      	subs	r3, #1
    8c4c:	4abb      	ldr	r2, [pc, #748]	; (8f3c <hiddf_sof_event+0x30c>)
    8c4e:	8013      	strh	r3, [r2, #0]
	}
	
	if (session_data.session_running) {		
    8c50:	4bbb      	ldr	r3, [pc, #748]	; (8f40 <hiddf_sof_event+0x310>)
    8c52:	789b      	ldrb	r3, [r3, #2]
    8c54:	2b00      	cmp	r3, #0
    8c56:	d100      	bne.n	8c5a <hiddf_sof_event+0x2a>
    8c58:	e108      	b.n	8e6c <hiddf_sof_event+0x23c>

		if (session_data.trigger){
    8c5a:	4bb9      	ldr	r3, [pc, #740]	; (8f40 <hiddf_sof_event+0x310>)
    8c5c:	795b      	ldrb	r3, [r3, #5]
    8c5e:	2b00      	cmp	r3, #0
    8c60:	d019      	beq.n	8c96 <hiddf_sof_event+0x66>
			if (key_array[4].state == HID_KB_KEY_UP){
    8c62:	4bb8      	ldr	r3, [pc, #736]	; (8f44 <hiddf_sof_event+0x314>)
    8c64:	7b9b      	ldrb	r3, [r3, #14]
    8c66:	2b00      	cmp	r3, #0
    8c68:	d108      	bne.n	8c7c <hiddf_sof_event+0x4c>
				key_array[4].state = HID_KB_KEY_DOWN;
    8c6a:	3301      	adds	r3, #1
    8c6c:	4ab5      	ldr	r2, [pc, #724]	; (8f44 <hiddf_sof_event+0x314>)
    8c6e:	7393      	strb	r3, [r2, #14]
				key_changed=true;
    8c70:	4ab1      	ldr	r2, [pc, #708]	; (8f38 <hiddf_sof_event+0x308>)
    8c72:	7153      	strb	r3, [r2, #5]
				sync_beep_length = SYNC_BEEP_LENGTH;
    8c74:	4ab4      	ldr	r2, [pc, #720]	; (8f48 <hiddf_sof_event+0x318>)
    8c76:	4bb5      	ldr	r3, [pc, #724]	; (8f4c <hiddf_sof_event+0x31c>)
    8c78:	801a      	strh	r2, [r3, #0]
    8c7a:	e014      	b.n	8ca6 <hiddf_sof_event+0x76>
			}
			else{
				trigger_delay += 1;
    8c7c:	4aae      	ldr	r2, [pc, #696]	; (8f38 <hiddf_sof_event+0x308>)
    8c7e:	7993      	ldrb	r3, [r2, #6]
    8c80:	3301      	adds	r3, #1
    8c82:	b2db      	uxtb	r3, r3
    8c84:	7193      	strb	r3, [r2, #6]
				if (trigger_delay > 10){
    8c86:	2b0a      	cmp	r3, #10
    8c88:	d90d      	bls.n	8ca6 <hiddf_sof_event+0x76>
					session_data.trigger = false;
    8c8a:	2300      	movs	r3, #0
    8c8c:	4aac      	ldr	r2, [pc, #688]	; (8f40 <hiddf_sof_event+0x310>)
    8c8e:	7153      	strb	r3, [r2, #5]
					trigger_delay = 0;
    8c90:	4aa9      	ldr	r2, [pc, #676]	; (8f38 <hiddf_sof_event+0x308>)
    8c92:	7193      	strb	r3, [r2, #6]
    8c94:	e007      	b.n	8ca6 <hiddf_sof_event+0x76>
				}
			}
		}			
				
		else if (key_array[4].state == HID_KB_KEY_DOWN){
    8c96:	4bab      	ldr	r3, [pc, #684]	; (8f44 <hiddf_sof_event+0x314>)
    8c98:	7b9b      	ldrb	r3, [r3, #14]
    8c9a:	2b01      	cmp	r3, #1
    8c9c:	d00a      	beq.n	8cb4 <hiddf_sof_event+0x84>
			key_array[3].state = HID_KB_KEY_UP;
			key_changed=true;
			repress_delay=10;
		}				
					
		else if (!repress_delay){ 
    8c9e:	4ba6      	ldr	r3, [pc, #664]	; (8f38 <hiddf_sof_event+0x308>)
    8ca0:	791b      	ldrb	r3, [r3, #4]
    8ca2:	2b00      	cmp	r3, #0
    8ca4:	d013      	beq.n	8cce <hiddf_sof_event+0x9e>
			key_array[4].state = HID_KB_KEY_UP;
			key_changed=true;			
		}
	}
	
	if (key_changed) {
    8ca6:	4ba4      	ldr	r3, [pc, #656]	; (8f38 <hiddf_sof_event+0x308>)
    8ca8:	795b      	ldrb	r3, [r3, #5]
    8caa:	2b00      	cmp	r3, #0
    8cac:	d000      	beq.n	8cb0 <hiddf_sof_event+0x80>
    8cae:	e1d5      	b.n	905c <hiddf_sof_event+0x42c>
		hiddf_keyboard_keys_state_change(key_array, 5);
		key_changed = false;
	}
}
    8cb0:	b004      	add	sp, #16
    8cb2:	bd10      	pop	{r4, pc}
			key_array[4].state = HID_KB_KEY_UP;
    8cb4:	4ba3      	ldr	r3, [pc, #652]	; (8f44 <hiddf_sof_event+0x314>)
    8cb6:	2200      	movs	r2, #0
    8cb8:	739a      	strb	r2, [r3, #14]
			key_array[0].state = HID_KB_KEY_UP;
    8cba:	709a      	strb	r2, [r3, #2]
			key_array[1].state = HID_KB_KEY_UP;
    8cbc:	715a      	strb	r2, [r3, #5]
			key_array[2].state = HID_KB_KEY_UP;
    8cbe:	721a      	strb	r2, [r3, #8]
			key_array[3].state = HID_KB_KEY_UP;
    8cc0:	72da      	strb	r2, [r3, #11]
			key_changed=true;
    8cc2:	4b9d      	ldr	r3, [pc, #628]	; (8f38 <hiddf_sof_event+0x308>)
    8cc4:	3201      	adds	r2, #1
    8cc6:	715a      	strb	r2, [r3, #5]
			repress_delay=10;
    8cc8:	3209      	adds	r2, #9
    8cca:	711a      	strb	r2, [r3, #4]
    8ccc:	e7eb      	b.n	8ca6 <hiddf_sof_event+0x76>
 */
static inline uint32_t _gpio_get_level(const enum gpio_port port)
{
	uint32_t tmp;

	CRITICAL_SECTION_ENTER();
    8cce:	4668      	mov	r0, sp
    8cd0:	4b9f      	ldr	r3, [pc, #636]	; (8f50 <hiddf_sof_event+0x320>)
    8cd2:	4798      	blx	r3
	return ((Port *)hw)->Group[submodule_index].DIR.reg;
    8cd4:	23c0      	movs	r3, #192	; 0xc0
    8cd6:	05db      	lsls	r3, r3, #23
    8cd8:	2280      	movs	r2, #128	; 0x80
    8cda:	589c      	ldr	r4, [r3, r2]
	return tmp;
}

static inline hri_port_in_reg_t hri_port_read_IN_reg(const void *const hw, uint8_t submodule_index)
{
	return ((Port *)hw)->Group[submodule_index].IN.reg;
    8cdc:	3220      	adds	r2, #32
    8cde:	499d      	ldr	r1, [pc, #628]	; (8f54 <hiddf_sof_event+0x324>)
    8ce0:	588a      	ldr	r2, [r1, r2]
	return ((Port *)hw)->Group[submodule_index].OUT.reg;
    8ce2:	2190      	movs	r1, #144	; 0x90
    8ce4:	585b      	ldr	r3, [r3, r1]

	uint32_t dir_tmp = hri_port_read_DIR_reg(PORT_IOBUS, port);

	tmp = hri_port_read_IN_reg(PORT, port) & ~dir_tmp;
	tmp |= hri_port_read_OUT_reg(PORT_IOBUS, port) & dir_tmp;
    8ce6:	4053      	eors	r3, r2
    8ce8:	401c      	ands	r4, r3
    8cea:	4054      	eors	r4, r2

	CRITICAL_SECTION_LEAVE();
    8cec:	4668      	mov	r0, sp
    8cee:	4b9a      	ldr	r3, [pc, #616]	; (8f58 <hiddf_sof_event+0x328>)
    8cf0:	4798      	blx	r3
			if (gpio_get_pin_level(I1) == true){
    8cf2:	05e3      	lsls	r3, r4, #23
    8cf4:	d513      	bpl.n	8d1e <hiddf_sof_event+0xee>
				if ((key_array[0].state == HID_KB_KEY_UP) && (key_array[4].state == HID_KB_KEY_UP)){		//****************************** ksleltets!!!!!!!!!!!!!!!!!!!!!
    8cf6:	4b93      	ldr	r3, [pc, #588]	; (8f44 <hiddf_sof_event+0x314>)
    8cf8:	789b      	ldrb	r3, [r3, #2]
    8cfa:	2b00      	cmp	r3, #0
    8cfc:	d113      	bne.n	8d26 <hiddf_sof_event+0xf6>
    8cfe:	4b91      	ldr	r3, [pc, #580]	; (8f44 <hiddf_sof_event+0x314>)
    8d00:	7b9b      	ldrb	r3, [r3, #14]
    8d02:	2b00      	cmp	r3, #0
    8d04:	d10f      	bne.n	8d26 <hiddf_sof_event+0xf6>
					key_array[0].state = HID_KB_KEY_DOWN;
    8d06:	3301      	adds	r3, #1
    8d08:	4a8e      	ldr	r2, [pc, #568]	; (8f44 <hiddf_sof_event+0x314>)
    8d0a:	7093      	strb	r3, [r2, #2]
					session_data.simulated_A=false;
    8d0c:	2100      	movs	r1, #0
    8d0e:	4a8c      	ldr	r2, [pc, #560]	; (8f40 <hiddf_sof_event+0x310>)
    8d10:	7191      	strb	r1, [r2, #6]
					key_changed=true;
    8d12:	4a89      	ldr	r2, [pc, #548]	; (8f38 <hiddf_sof_event+0x308>)
    8d14:	7153      	strb	r3, [r2, #5]
					beep_sound_length = BEEP_SOUND_LENGTH;
    8d16:	4a91      	ldr	r2, [pc, #580]	; (8f5c <hiddf_sof_event+0x32c>)
    8d18:	4b91      	ldr	r3, [pc, #580]	; (8f60 <hiddf_sof_event+0x330>)
    8d1a:	801a      	strh	r2, [r3, #0]
    8d1c:	e003      	b.n	8d26 <hiddf_sof_event+0xf6>
				if (key_array[0].state == HID_KB_KEY_DOWN){
    8d1e:	4b89      	ldr	r3, [pc, #548]	; (8f44 <hiddf_sof_event+0x314>)
    8d20:	789b      	ldrb	r3, [r3, #2]
    8d22:	2b01      	cmp	r3, #1
    8d24:	d027      	beq.n	8d76 <hiddf_sof_event+0x146>
	CRITICAL_SECTION_ENTER();
    8d26:	a801      	add	r0, sp, #4
    8d28:	4b89      	ldr	r3, [pc, #548]	; (8f50 <hiddf_sof_event+0x320>)
    8d2a:	4798      	blx	r3
	return ((Port *)hw)->Group[submodule_index].DIR.reg;
    8d2c:	23c0      	movs	r3, #192	; 0xc0
    8d2e:	05db      	lsls	r3, r3, #23
    8d30:	2280      	movs	r2, #128	; 0x80
    8d32:	589c      	ldr	r4, [r3, r2]
	return ((Port *)hw)->Group[submodule_index].IN.reg;
    8d34:	3220      	adds	r2, #32
    8d36:	4987      	ldr	r1, [pc, #540]	; (8f54 <hiddf_sof_event+0x324>)
    8d38:	588a      	ldr	r2, [r1, r2]
	return ((Port *)hw)->Group[submodule_index].OUT.reg;
    8d3a:	2190      	movs	r1, #144	; 0x90
    8d3c:	585b      	ldr	r3, [r3, r1]
	tmp |= hri_port_read_OUT_reg(PORT_IOBUS, port) & dir_tmp;
    8d3e:	4053      	eors	r3, r2
    8d40:	401c      	ands	r4, r3
    8d42:	4054      	eors	r4, r2
	CRITICAL_SECTION_LEAVE();
    8d44:	a801      	add	r0, sp, #4
    8d46:	4b84      	ldr	r3, [pc, #528]	; (8f58 <hiddf_sof_event+0x328>)
    8d48:	4798      	blx	r3
			if (gpio_get_pin_level(I2) == true){
    8d4a:	0423      	lsls	r3, r4, #16
    8d4c:	d51a      	bpl.n	8d84 <hiddf_sof_event+0x154>
				if ((key_array[1].state == HID_KB_KEY_UP) && (key_array[4].state == HID_KB_KEY_UP)){		//****************************** ksleltets!!!!!!!!!!!!!!!!!!!!!
    8d4e:	4b7d      	ldr	r3, [pc, #500]	; (8f44 <hiddf_sof_event+0x314>)
    8d50:	795b      	ldrb	r3, [r3, #5]
    8d52:	2b00      	cmp	r3, #0
    8d54:	d11a      	bne.n	8d8c <hiddf_sof_event+0x15c>
    8d56:	4b7b      	ldr	r3, [pc, #492]	; (8f44 <hiddf_sof_event+0x314>)
    8d58:	7b9b      	ldrb	r3, [r3, #14]
    8d5a:	2b00      	cmp	r3, #0
    8d5c:	d116      	bne.n	8d8c <hiddf_sof_event+0x15c>
					key_array[1].state = HID_KB_KEY_DOWN;
    8d5e:	3301      	adds	r3, #1
    8d60:	4a78      	ldr	r2, [pc, #480]	; (8f44 <hiddf_sof_event+0x314>)
    8d62:	7153      	strb	r3, [r2, #5]
					session_data.simulated_B=false;
    8d64:	2100      	movs	r1, #0
    8d66:	4a76      	ldr	r2, [pc, #472]	; (8f40 <hiddf_sof_event+0x310>)
    8d68:	71d1      	strb	r1, [r2, #7]
					key_changed=true;
    8d6a:	4a73      	ldr	r2, [pc, #460]	; (8f38 <hiddf_sof_event+0x308>)
    8d6c:	7153      	strb	r3, [r2, #5]
					beep_sound_length = BEEP_SOUND_LENGTH;
    8d6e:	4a7b      	ldr	r2, [pc, #492]	; (8f5c <hiddf_sof_event+0x32c>)
    8d70:	4b7b      	ldr	r3, [pc, #492]	; (8f60 <hiddf_sof_event+0x330>)
    8d72:	801a      	strh	r2, [r3, #0]
    8d74:	e00a      	b.n	8d8c <hiddf_sof_event+0x15c>
					key_array[0].state = HID_KB_KEY_UP;				//****************************** ksleltets!!!!!!!!!!!!!!!!!!!!!
    8d76:	2200      	movs	r2, #0
    8d78:	4b72      	ldr	r3, [pc, #456]	; (8f44 <hiddf_sof_event+0x314>)
    8d7a:	709a      	strb	r2, [r3, #2]
					key_changed=true;
    8d7c:	3201      	adds	r2, #1
    8d7e:	4b6e      	ldr	r3, [pc, #440]	; (8f38 <hiddf_sof_event+0x308>)
    8d80:	715a      	strb	r2, [r3, #5]
    8d82:	e7d0      	b.n	8d26 <hiddf_sof_event+0xf6>
				if (key_array[1].state == HID_KB_KEY_DOWN){
    8d84:	4b6f      	ldr	r3, [pc, #444]	; (8f44 <hiddf_sof_event+0x314>)
    8d86:	795b      	ldrb	r3, [r3, #5]
    8d88:	2b01      	cmp	r3, #1
    8d8a:	d027      	beq.n	8ddc <hiddf_sof_event+0x1ac>
	CRITICAL_SECTION_ENTER();
    8d8c:	a802      	add	r0, sp, #8
    8d8e:	4b70      	ldr	r3, [pc, #448]	; (8f50 <hiddf_sof_event+0x320>)
    8d90:	4798      	blx	r3
	return ((Port *)hw)->Group[submodule_index].DIR.reg;
    8d92:	23c0      	movs	r3, #192	; 0xc0
    8d94:	05db      	lsls	r3, r3, #23
    8d96:	2280      	movs	r2, #128	; 0x80
    8d98:	589c      	ldr	r4, [r3, r2]
	return ((Port *)hw)->Group[submodule_index].IN.reg;
    8d9a:	3220      	adds	r2, #32
    8d9c:	496d      	ldr	r1, [pc, #436]	; (8f54 <hiddf_sof_event+0x324>)
    8d9e:	588a      	ldr	r2, [r1, r2]
	return ((Port *)hw)->Group[submodule_index].OUT.reg;
    8da0:	2190      	movs	r1, #144	; 0x90
    8da2:	585b      	ldr	r3, [r3, r1]
	tmp |= hri_port_read_OUT_reg(PORT_IOBUS, port) & dir_tmp;
    8da4:	4053      	eors	r3, r2
    8da6:	401c      	ands	r4, r3
    8da8:	4054      	eors	r4, r2
	CRITICAL_SECTION_LEAVE();
    8daa:	a802      	add	r0, sp, #8
    8dac:	4b6a      	ldr	r3, [pc, #424]	; (8f58 <hiddf_sof_event+0x328>)
    8dae:	4798      	blx	r3
				if (gpio_get_pin_level(I3) == true){
    8db0:	05a3      	lsls	r3, r4, #22
    8db2:	d51a      	bpl.n	8dea <hiddf_sof_event+0x1ba>
					if ((key_array[2].state == HID_KB_KEY_UP) && (key_array[4].state == HID_KB_KEY_UP)){
    8db4:	4b63      	ldr	r3, [pc, #396]	; (8f44 <hiddf_sof_event+0x314>)
    8db6:	7a1b      	ldrb	r3, [r3, #8]
    8db8:	2b00      	cmp	r3, #0
    8dba:	d11a      	bne.n	8df2 <hiddf_sof_event+0x1c2>
    8dbc:	4b61      	ldr	r3, [pc, #388]	; (8f44 <hiddf_sof_event+0x314>)
    8dbe:	7b9b      	ldrb	r3, [r3, #14]
    8dc0:	2b00      	cmp	r3, #0
    8dc2:	d116      	bne.n	8df2 <hiddf_sof_event+0x1c2>
						key_array[2].state = HID_KB_KEY_DOWN;
    8dc4:	3301      	adds	r3, #1
    8dc6:	4a5f      	ldr	r2, [pc, #380]	; (8f44 <hiddf_sof_event+0x314>)
    8dc8:	7213      	strb	r3, [r2, #8]
						session_data.simulated_C=false;
    8dca:	2100      	movs	r1, #0
    8dcc:	4a5c      	ldr	r2, [pc, #368]	; (8f40 <hiddf_sof_event+0x310>)
    8dce:	7211      	strb	r1, [r2, #8]
						key_changed=true;
    8dd0:	4a59      	ldr	r2, [pc, #356]	; (8f38 <hiddf_sof_event+0x308>)
    8dd2:	7153      	strb	r3, [r2, #5]
						beep_sound_length = BEEP_SOUND_LENGTH;
    8dd4:	4a61      	ldr	r2, [pc, #388]	; (8f5c <hiddf_sof_event+0x32c>)
    8dd6:	4b62      	ldr	r3, [pc, #392]	; (8f60 <hiddf_sof_event+0x330>)
    8dd8:	801a      	strh	r2, [r3, #0]
    8dda:	e00a      	b.n	8df2 <hiddf_sof_event+0x1c2>
					key_array[1].state = HID_KB_KEY_UP;				//****************************** ksleltets!!!!!!!!!!!!!!!!!!!!!
    8ddc:	2200      	movs	r2, #0
    8dde:	4b59      	ldr	r3, [pc, #356]	; (8f44 <hiddf_sof_event+0x314>)
    8de0:	715a      	strb	r2, [r3, #5]
					key_changed=true;
    8de2:	3201      	adds	r2, #1
    8de4:	4b54      	ldr	r3, [pc, #336]	; (8f38 <hiddf_sof_event+0x308>)
    8de6:	715a      	strb	r2, [r3, #5]
    8de8:	e7d0      	b.n	8d8c <hiddf_sof_event+0x15c>
					if (key_array[2].state == HID_KB_KEY_DOWN){
    8dea:	4b56      	ldr	r3, [pc, #344]	; (8f44 <hiddf_sof_event+0x314>)
    8dec:	7a1b      	ldrb	r3, [r3, #8]
    8dee:	2b01      	cmp	r3, #1
    8df0:	d029      	beq.n	8e46 <hiddf_sof_event+0x216>
	CRITICAL_SECTION_ENTER();
    8df2:	a803      	add	r0, sp, #12
    8df4:	4b56      	ldr	r3, [pc, #344]	; (8f50 <hiddf_sof_event+0x320>)
    8df6:	4798      	blx	r3
	return ((Port *)hw)->Group[submodule_index].DIR.reg;
    8df8:	23c0      	movs	r3, #192	; 0xc0
    8dfa:	05db      	lsls	r3, r3, #23
    8dfc:	2280      	movs	r2, #128	; 0x80
    8dfe:	589c      	ldr	r4, [r3, r2]
	return ((Port *)hw)->Group[submodule_index].IN.reg;
    8e00:	3220      	adds	r2, #32
    8e02:	4954      	ldr	r1, [pc, #336]	; (8f54 <hiddf_sof_event+0x324>)
    8e04:	588a      	ldr	r2, [r1, r2]
	return ((Port *)hw)->Group[submodule_index].OUT.reg;
    8e06:	2190      	movs	r1, #144	; 0x90
    8e08:	585b      	ldr	r3, [r3, r1]
	tmp |= hri_port_read_OUT_reg(PORT_IOBUS, port) & dir_tmp;
    8e0a:	4053      	eors	r3, r2
    8e0c:	401c      	ands	r4, r3
    8e0e:	4054      	eors	r4, r2
	CRITICAL_SECTION_LEAVE();
    8e10:	a803      	add	r0, sp, #12
    8e12:	4b51      	ldr	r3, [pc, #324]	; (8f58 <hiddf_sof_event+0x328>)
    8e14:	4798      	blx	r3
			if (gpio_get_pin_level(I4) == true){
    8e16:	0463      	lsls	r3, r4, #17
    8e18:	d51c      	bpl.n	8e54 <hiddf_sof_event+0x224>
				if ((key_array[3].state == HID_KB_KEY_UP) && (key_array[4].state == HID_KB_KEY_UP)){
    8e1a:	4b4a      	ldr	r3, [pc, #296]	; (8f44 <hiddf_sof_event+0x314>)
    8e1c:	7adb      	ldrb	r3, [r3, #11]
    8e1e:	2b00      	cmp	r3, #0
    8e20:	d000      	beq.n	8e24 <hiddf_sof_event+0x1f4>
    8e22:	e740      	b.n	8ca6 <hiddf_sof_event+0x76>
    8e24:	4b47      	ldr	r3, [pc, #284]	; (8f44 <hiddf_sof_event+0x314>)
    8e26:	7b9b      	ldrb	r3, [r3, #14]
    8e28:	2b00      	cmp	r3, #0
    8e2a:	d000      	beq.n	8e2e <hiddf_sof_event+0x1fe>
    8e2c:	e73b      	b.n	8ca6 <hiddf_sof_event+0x76>
					key_array[3].state = HID_KB_KEY_DOWN;
    8e2e:	3301      	adds	r3, #1
    8e30:	4a44      	ldr	r2, [pc, #272]	; (8f44 <hiddf_sof_event+0x314>)
    8e32:	72d3      	strb	r3, [r2, #11]
					session_data.simulated_D=false;
    8e34:	2100      	movs	r1, #0
    8e36:	4a42      	ldr	r2, [pc, #264]	; (8f40 <hiddf_sof_event+0x310>)
    8e38:	7251      	strb	r1, [r2, #9]
					key_changed=true;
    8e3a:	4a3f      	ldr	r2, [pc, #252]	; (8f38 <hiddf_sof_event+0x308>)
    8e3c:	7153      	strb	r3, [r2, #5]
					beep_sound_length = BEEP_SOUND_LENGTH;
    8e3e:	4a47      	ldr	r2, [pc, #284]	; (8f5c <hiddf_sof_event+0x32c>)
    8e40:	4b47      	ldr	r3, [pc, #284]	; (8f60 <hiddf_sof_event+0x330>)
    8e42:	801a      	strh	r2, [r3, #0]
    8e44:	e72f      	b.n	8ca6 <hiddf_sof_event+0x76>
						key_array[2].state = HID_KB_KEY_UP;
    8e46:	2200      	movs	r2, #0
    8e48:	4b3e      	ldr	r3, [pc, #248]	; (8f44 <hiddf_sof_event+0x314>)
    8e4a:	721a      	strb	r2, [r3, #8]
						key_changed=true;
    8e4c:	3201      	adds	r2, #1
    8e4e:	4b3a      	ldr	r3, [pc, #232]	; (8f38 <hiddf_sof_event+0x308>)
    8e50:	715a      	strb	r2, [r3, #5]
    8e52:	e7ce      	b.n	8df2 <hiddf_sof_event+0x1c2>
				if (key_array[3].state == HID_KB_KEY_DOWN){
    8e54:	4b3b      	ldr	r3, [pc, #236]	; (8f44 <hiddf_sof_event+0x314>)
    8e56:	7adb      	ldrb	r3, [r3, #11]
    8e58:	2b01      	cmp	r3, #1
    8e5a:	d000      	beq.n	8e5e <hiddf_sof_event+0x22e>
    8e5c:	e723      	b.n	8ca6 <hiddf_sof_event+0x76>
					key_array[3].state = HID_KB_KEY_UP;
    8e5e:	2200      	movs	r2, #0
    8e60:	4b38      	ldr	r3, [pc, #224]	; (8f44 <hiddf_sof_event+0x314>)
    8e62:	72da      	strb	r2, [r3, #11]
					key_changed=true;
    8e64:	3201      	adds	r2, #1
    8e66:	4b34      	ldr	r3, [pc, #208]	; (8f38 <hiddf_sof_event+0x308>)
    8e68:	715a      	strb	r2, [r3, #5]
    8e6a:	e71c      	b.n	8ca6 <hiddf_sof_event+0x76>
	else if ((session_data.manual_trigger) || (session_data.simulation_mode)) {		
    8e6c:	4b34      	ldr	r3, [pc, #208]	; (8f40 <hiddf_sof_event+0x310>)
    8e6e:	791b      	ldrb	r3, [r3, #4]
    8e70:	2b00      	cmp	r3, #0
    8e72:	d104      	bne.n	8e7e <hiddf_sof_event+0x24e>
    8e74:	4b32      	ldr	r3, [pc, #200]	; (8f40 <hiddf_sof_event+0x310>)
    8e76:	78db      	ldrb	r3, [r3, #3]
    8e78:	2b00      	cmp	r3, #0
    8e7a:	d100      	bne.n	8e7e <hiddf_sof_event+0x24e>
    8e7c:	e0b6      	b.n	8fec <hiddf_sof_event+0x3bc>
		if (session_data.trigger){
    8e7e:	4b30      	ldr	r3, [pc, #192]	; (8f40 <hiddf_sof_event+0x310>)
    8e80:	795b      	ldrb	r3, [r3, #5]
    8e82:	2b00      	cmp	r3, #0
    8e84:	d017      	beq.n	8eb6 <hiddf_sof_event+0x286>
			if (key_array[4].state == HID_KB_KEY_UP){
    8e86:	4b2f      	ldr	r3, [pc, #188]	; (8f44 <hiddf_sof_event+0x314>)
    8e88:	7b9b      	ldrb	r3, [r3, #14]
    8e8a:	2b00      	cmp	r3, #0
    8e8c:	d105      	bne.n	8e9a <hiddf_sof_event+0x26a>
				key_array[4].state = HID_KB_KEY_DOWN;
    8e8e:	3301      	adds	r3, #1
    8e90:	4a2c      	ldr	r2, [pc, #176]	; (8f44 <hiddf_sof_event+0x314>)
    8e92:	7393      	strb	r3, [r2, #14]
				key_changed=true;
    8e94:	4a28      	ldr	r2, [pc, #160]	; (8f38 <hiddf_sof_event+0x308>)
    8e96:	7153      	strb	r3, [r2, #5]
    8e98:	e705      	b.n	8ca6 <hiddf_sof_event+0x76>
				trigger_delay += 1;
    8e9a:	4a27      	ldr	r2, [pc, #156]	; (8f38 <hiddf_sof_event+0x308>)
    8e9c:	7993      	ldrb	r3, [r2, #6]
    8e9e:	3301      	adds	r3, #1
    8ea0:	b2db      	uxtb	r3, r3
    8ea2:	7193      	strb	r3, [r2, #6]
				if (trigger_delay > 10){
    8ea4:	2b0a      	cmp	r3, #10
    8ea6:	d800      	bhi.n	8eaa <hiddf_sof_event+0x27a>
    8ea8:	e6fd      	b.n	8ca6 <hiddf_sof_event+0x76>
					session_data.trigger = false;
    8eaa:	2300      	movs	r3, #0
    8eac:	4a24      	ldr	r2, [pc, #144]	; (8f40 <hiddf_sof_event+0x310>)
    8eae:	7153      	strb	r3, [r2, #5]
					trigger_delay = 0;
    8eb0:	4a21      	ldr	r2, [pc, #132]	; (8f38 <hiddf_sof_event+0x308>)
    8eb2:	7193      	strb	r3, [r2, #6]
    8eb4:	e6f7      	b.n	8ca6 <hiddf_sof_event+0x76>
		else if (key_array[4].state == HID_KB_KEY_DOWN){
    8eb6:	4b23      	ldr	r3, [pc, #140]	; (8f44 <hiddf_sof_event+0x314>)
    8eb8:	7b9b      	ldrb	r3, [r3, #14]
    8eba:	2b01      	cmp	r3, #1
    8ebc:	d014      	beq.n	8ee8 <hiddf_sof_event+0x2b8>
		else if (!repress_delay){ 
    8ebe:	4a1e      	ldr	r2, [pc, #120]	; (8f38 <hiddf_sof_event+0x308>)
    8ec0:	7912      	ldrb	r2, [r2, #4]
    8ec2:	2a00      	cmp	r2, #0
    8ec4:	d000      	beq.n	8ec8 <hiddf_sof_event+0x298>
    8ec6:	e6ee      	b.n	8ca6 <hiddf_sof_event+0x76>
			if  (session_data.simulated_A){
    8ec8:	4a1d      	ldr	r2, [pc, #116]	; (8f40 <hiddf_sof_event+0x310>)
    8eca:	7992      	ldrb	r2, [r2, #6]
    8ecc:	2a00      	cmp	r2, #0
    8ece:	d018      	beq.n	8f02 <hiddf_sof_event+0x2d2>
				if ((key_array[0].state == HID_KB_KEY_UP) && (key_array[4].state == HID_KB_KEY_UP)){		//****************************** ksleltets!!!!!!!!!!!!!!!!!!!!!
    8ed0:	4a1c      	ldr	r2, [pc, #112]	; (8f44 <hiddf_sof_event+0x314>)
    8ed2:	7892      	ldrb	r2, [r2, #2]
    8ed4:	2a00      	cmp	r2, #0
    8ed6:	d118      	bne.n	8f0a <hiddf_sof_event+0x2da>
    8ed8:	2b00      	cmp	r3, #0
    8eda:	d116      	bne.n	8f0a <hiddf_sof_event+0x2da>
					key_array[0].state = HID_KB_KEY_DOWN;
    8edc:	3201      	adds	r2, #1
    8ede:	4919      	ldr	r1, [pc, #100]	; (8f44 <hiddf_sof_event+0x314>)
    8ee0:	708a      	strb	r2, [r1, #2]
					key_changed=true;
    8ee2:	4915      	ldr	r1, [pc, #84]	; (8f38 <hiddf_sof_event+0x308>)
    8ee4:	714a      	strb	r2, [r1, #5]
    8ee6:	e010      	b.n	8f0a <hiddf_sof_event+0x2da>
			key_array[4].state = HID_KB_KEY_UP;
    8ee8:	4b16      	ldr	r3, [pc, #88]	; (8f44 <hiddf_sof_event+0x314>)
    8eea:	2200      	movs	r2, #0
    8eec:	739a      	strb	r2, [r3, #14]
			key_array[0].state = HID_KB_KEY_UP;
    8eee:	709a      	strb	r2, [r3, #2]
			key_array[1].state = HID_KB_KEY_UP;
    8ef0:	715a      	strb	r2, [r3, #5]
			key_array[2].state = HID_KB_KEY_UP;
    8ef2:	721a      	strb	r2, [r3, #8]
			key_array[3].state = HID_KB_KEY_UP;
    8ef4:	72da      	strb	r2, [r3, #11]
			key_changed=true;
    8ef6:	4b10      	ldr	r3, [pc, #64]	; (8f38 <hiddf_sof_event+0x308>)
    8ef8:	3201      	adds	r2, #1
    8efa:	715a      	strb	r2, [r3, #5]
			repress_delay=10;
    8efc:	3209      	adds	r2, #9
    8efe:	711a      	strb	r2, [r3, #4]
    8f00:	e6d1      	b.n	8ca6 <hiddf_sof_event+0x76>
				if (key_array[0].state == HID_KB_KEY_DOWN){
    8f02:	4a10      	ldr	r2, [pc, #64]	; (8f44 <hiddf_sof_event+0x314>)
    8f04:	7892      	ldrb	r2, [r2, #2]
    8f06:	2a01      	cmp	r2, #1
    8f08:	d00f      	beq.n	8f2a <hiddf_sof_event+0x2fa>
			if (session_data.simulated_B){
    8f0a:	4a0d      	ldr	r2, [pc, #52]	; (8f40 <hiddf_sof_event+0x310>)
    8f0c:	79d2      	ldrb	r2, [r2, #7]
    8f0e:	2a00      	cmp	r2, #0
    8f10:	d028      	beq.n	8f64 <hiddf_sof_event+0x334>
				if ((key_array[1].state == HID_KB_KEY_UP) && (key_array[4].state == HID_KB_KEY_UP)){		//****************************** ksleltets!!!!!!!!!!!!!!!!!!!!!
    8f12:	4a0c      	ldr	r2, [pc, #48]	; (8f44 <hiddf_sof_event+0x314>)
    8f14:	7952      	ldrb	r2, [r2, #5]
    8f16:	2a00      	cmp	r2, #0
    8f18:	d128      	bne.n	8f6c <hiddf_sof_event+0x33c>
    8f1a:	2b00      	cmp	r3, #0
    8f1c:	d126      	bne.n	8f6c <hiddf_sof_event+0x33c>
					key_array[1].state = HID_KB_KEY_DOWN;
    8f1e:	3201      	adds	r2, #1
    8f20:	4908      	ldr	r1, [pc, #32]	; (8f44 <hiddf_sof_event+0x314>)
    8f22:	714a      	strb	r2, [r1, #5]
					key_changed=true;
    8f24:	4904      	ldr	r1, [pc, #16]	; (8f38 <hiddf_sof_event+0x308>)
    8f26:	714a      	strb	r2, [r1, #5]
    8f28:	e020      	b.n	8f6c <hiddf_sof_event+0x33c>
					key_array[0].state = HID_KB_KEY_UP;				//****************************** ksleltets!!!!!!!!!!!!!!!!!!!!!
    8f2a:	2100      	movs	r1, #0
    8f2c:	4a05      	ldr	r2, [pc, #20]	; (8f44 <hiddf_sof_event+0x314>)
    8f2e:	7091      	strb	r1, [r2, #2]
					key_changed=true;
    8f30:	3101      	adds	r1, #1
    8f32:	4a01      	ldr	r2, [pc, #4]	; (8f38 <hiddf_sof_event+0x308>)
    8f34:	7151      	strb	r1, [r2, #5]
    8f36:	e7e8      	b.n	8f0a <hiddf_sof_event+0x2da>
    8f38:	200008b0 	.word	0x200008b0
    8f3c:	20000180 	.word	0x20000180
    8f40:	20000a3c 	.word	0x20000a3c
    8f44:	20000024 	.word	0x20000024
    8f48:	000003d6 	.word	0x000003d6
    8f4c:	20000182 	.word	0x20000182
    8f50:	00001271 	.word	0x00001271
    8f54:	41004400 	.word	0x41004400
    8f58:	0000127f 	.word	0x0000127f
    8f5c:	0000047c 	.word	0x0000047c
    8f60:	20000184 	.word	0x20000184
				if (key_array[1].state == HID_KB_KEY_DOWN){
    8f64:	4a41      	ldr	r2, [pc, #260]	; (906c <hiddf_sof_event+0x43c>)
    8f66:	7952      	ldrb	r2, [r2, #5]
    8f68:	2a01      	cmp	r2, #1
    8f6a:	d00f      	beq.n	8f8c <hiddf_sof_event+0x35c>
				if (session_data.simulated_C){
    8f6c:	4a40      	ldr	r2, [pc, #256]	; (9070 <hiddf_sof_event+0x440>)
    8f6e:	7a12      	ldrb	r2, [r2, #8]
    8f70:	2a00      	cmp	r2, #0
    8f72:	d012      	beq.n	8f9a <hiddf_sof_event+0x36a>
					if ((key_array[2].state == HID_KB_KEY_UP) && (key_array[4].state == HID_KB_KEY_UP)){
    8f74:	4a3d      	ldr	r2, [pc, #244]	; (906c <hiddf_sof_event+0x43c>)
    8f76:	7a12      	ldrb	r2, [r2, #8]
    8f78:	2a00      	cmp	r2, #0
    8f7a:	d112      	bne.n	8fa2 <hiddf_sof_event+0x372>
    8f7c:	2b00      	cmp	r3, #0
    8f7e:	d110      	bne.n	8fa2 <hiddf_sof_event+0x372>
						key_array[2].state = HID_KB_KEY_DOWN;
    8f80:	3201      	adds	r2, #1
    8f82:	493a      	ldr	r1, [pc, #232]	; (906c <hiddf_sof_event+0x43c>)
    8f84:	720a      	strb	r2, [r1, #8]
						key_changed=true;
    8f86:	493b      	ldr	r1, [pc, #236]	; (9074 <hiddf_sof_event+0x444>)
    8f88:	714a      	strb	r2, [r1, #5]
    8f8a:	e00a      	b.n	8fa2 <hiddf_sof_event+0x372>
					key_array[1].state = HID_KB_KEY_UP;				//****************************** ksleltets!!!!!!!!!!!!!!!!!!!!!
    8f8c:	2100      	movs	r1, #0
    8f8e:	4a37      	ldr	r2, [pc, #220]	; (906c <hiddf_sof_event+0x43c>)
    8f90:	7151      	strb	r1, [r2, #5]
					key_changed=true;
    8f92:	3101      	adds	r1, #1
    8f94:	4a37      	ldr	r2, [pc, #220]	; (9074 <hiddf_sof_event+0x444>)
    8f96:	7151      	strb	r1, [r2, #5]
    8f98:	e7e8      	b.n	8f6c <hiddf_sof_event+0x33c>
					if (key_array[2].state == HID_KB_KEY_DOWN){
    8f9a:	4a34      	ldr	r2, [pc, #208]	; (906c <hiddf_sof_event+0x43c>)
    8f9c:	7a12      	ldrb	r2, [r2, #8]
    8f9e:	2a01      	cmp	r2, #1
    8fa0:	d011      	beq.n	8fc6 <hiddf_sof_event+0x396>
			if (session_data.simulated_D){
    8fa2:	4a33      	ldr	r2, [pc, #204]	; (9070 <hiddf_sof_event+0x440>)
    8fa4:	7a52      	ldrb	r2, [r2, #9]
    8fa6:	2a00      	cmp	r2, #0
    8fa8:	d014      	beq.n	8fd4 <hiddf_sof_event+0x3a4>
				if ((key_array[3].state == HID_KB_KEY_UP) && (key_array[4].state == HID_KB_KEY_UP)){
    8faa:	4a30      	ldr	r2, [pc, #192]	; (906c <hiddf_sof_event+0x43c>)
    8fac:	7ad2      	ldrb	r2, [r2, #11]
    8fae:	2a00      	cmp	r2, #0
    8fb0:	d000      	beq.n	8fb4 <hiddf_sof_event+0x384>
    8fb2:	e678      	b.n	8ca6 <hiddf_sof_event+0x76>
    8fb4:	2b00      	cmp	r3, #0
    8fb6:	d000      	beq.n	8fba <hiddf_sof_event+0x38a>
    8fb8:	e675      	b.n	8ca6 <hiddf_sof_event+0x76>
					key_array[3].state = HID_KB_KEY_DOWN;
    8fba:	3301      	adds	r3, #1
    8fbc:	4a2b      	ldr	r2, [pc, #172]	; (906c <hiddf_sof_event+0x43c>)
    8fbe:	72d3      	strb	r3, [r2, #11]
					key_changed=true;
    8fc0:	4a2c      	ldr	r2, [pc, #176]	; (9074 <hiddf_sof_event+0x444>)
    8fc2:	7153      	strb	r3, [r2, #5]
    8fc4:	e66f      	b.n	8ca6 <hiddf_sof_event+0x76>
						key_array[2].state = HID_KB_KEY_UP;
    8fc6:	2100      	movs	r1, #0
    8fc8:	4a28      	ldr	r2, [pc, #160]	; (906c <hiddf_sof_event+0x43c>)
    8fca:	7211      	strb	r1, [r2, #8]
						key_changed=true;
    8fcc:	3101      	adds	r1, #1
    8fce:	4a29      	ldr	r2, [pc, #164]	; (9074 <hiddf_sof_event+0x444>)
    8fd0:	7151      	strb	r1, [r2, #5]
    8fd2:	e7e6      	b.n	8fa2 <hiddf_sof_event+0x372>
				if (key_array[3].state == HID_KB_KEY_DOWN){
    8fd4:	4b25      	ldr	r3, [pc, #148]	; (906c <hiddf_sof_event+0x43c>)
    8fd6:	7adb      	ldrb	r3, [r3, #11]
    8fd8:	2b01      	cmp	r3, #1
    8fda:	d000      	beq.n	8fde <hiddf_sof_event+0x3ae>
    8fdc:	e663      	b.n	8ca6 <hiddf_sof_event+0x76>
					key_array[3].state = HID_KB_KEY_UP;
    8fde:	2200      	movs	r2, #0
    8fe0:	4b22      	ldr	r3, [pc, #136]	; (906c <hiddf_sof_event+0x43c>)
    8fe2:	72da      	strb	r2, [r3, #11]
					key_changed=true;
    8fe4:	3201      	adds	r2, #1
    8fe6:	4b23      	ldr	r3, [pc, #140]	; (9074 <hiddf_sof_event+0x444>)
    8fe8:	715a      	strb	r2, [r3, #5]
    8fea:	e65c      	b.n	8ca6 <hiddf_sof_event+0x76>
		if (key_array[0].state == HID_KB_KEY_DOWN){
    8fec:	4b1f      	ldr	r3, [pc, #124]	; (906c <hiddf_sof_event+0x43c>)
    8fee:	789b      	ldrb	r3, [r3, #2]
    8ff0:	2b01      	cmp	r3, #1
    8ff2:	d017      	beq.n	9024 <hiddf_sof_event+0x3f4>
		if (key_array[1].state == HID_KB_KEY_DOWN){
    8ff4:	4b1d      	ldr	r3, [pc, #116]	; (906c <hiddf_sof_event+0x43c>)
    8ff6:	795b      	ldrb	r3, [r3, #5]
    8ff8:	2b01      	cmp	r3, #1
    8ffa:	d01a      	beq.n	9032 <hiddf_sof_event+0x402>
		if (key_array[2].state == HID_KB_KEY_DOWN){
    8ffc:	4b1b      	ldr	r3, [pc, #108]	; (906c <hiddf_sof_event+0x43c>)
    8ffe:	7a1b      	ldrb	r3, [r3, #8]
    9000:	2b01      	cmp	r3, #1
    9002:	d01d      	beq.n	9040 <hiddf_sof_event+0x410>
		if (key_array[3].state == HID_KB_KEY_DOWN){
    9004:	4b19      	ldr	r3, [pc, #100]	; (906c <hiddf_sof_event+0x43c>)
    9006:	7adb      	ldrb	r3, [r3, #11]
    9008:	2b01      	cmp	r3, #1
    900a:	d020      	beq.n	904e <hiddf_sof_event+0x41e>
		if (key_array[4].state == HID_KB_KEY_DOWN){
    900c:	4b17      	ldr	r3, [pc, #92]	; (906c <hiddf_sof_event+0x43c>)
    900e:	7b9b      	ldrb	r3, [r3, #14]
    9010:	2b01      	cmp	r3, #1
    9012:	d000      	beq.n	9016 <hiddf_sof_event+0x3e6>
    9014:	e647      	b.n	8ca6 <hiddf_sof_event+0x76>
			key_array[4].state = HID_KB_KEY_UP;
    9016:	2200      	movs	r2, #0
    9018:	4b14      	ldr	r3, [pc, #80]	; (906c <hiddf_sof_event+0x43c>)
    901a:	739a      	strb	r2, [r3, #14]
			key_changed=true;			
    901c:	3201      	adds	r2, #1
    901e:	4b15      	ldr	r3, [pc, #84]	; (9074 <hiddf_sof_event+0x444>)
    9020:	715a      	strb	r2, [r3, #5]
    9022:	e640      	b.n	8ca6 <hiddf_sof_event+0x76>
			key_array[0].state = HID_KB_KEY_UP;
    9024:	2200      	movs	r2, #0
    9026:	4b11      	ldr	r3, [pc, #68]	; (906c <hiddf_sof_event+0x43c>)
    9028:	709a      	strb	r2, [r3, #2]
			key_changed=true;
    902a:	3201      	adds	r2, #1
    902c:	4b11      	ldr	r3, [pc, #68]	; (9074 <hiddf_sof_event+0x444>)
    902e:	715a      	strb	r2, [r3, #5]
    9030:	e7e0      	b.n	8ff4 <hiddf_sof_event+0x3c4>
			key_array[1].state = HID_KB_KEY_UP;
    9032:	2200      	movs	r2, #0
    9034:	4b0d      	ldr	r3, [pc, #52]	; (906c <hiddf_sof_event+0x43c>)
    9036:	715a      	strb	r2, [r3, #5]
			key_changed=true;
    9038:	3201      	adds	r2, #1
    903a:	4b0e      	ldr	r3, [pc, #56]	; (9074 <hiddf_sof_event+0x444>)
    903c:	715a      	strb	r2, [r3, #5]
    903e:	e7dd      	b.n	8ffc <hiddf_sof_event+0x3cc>
			key_array[2].state = HID_KB_KEY_UP;
    9040:	2200      	movs	r2, #0
    9042:	4b0a      	ldr	r3, [pc, #40]	; (906c <hiddf_sof_event+0x43c>)
    9044:	721a      	strb	r2, [r3, #8]
			key_changed=true;
    9046:	3201      	adds	r2, #1
    9048:	4b0a      	ldr	r3, [pc, #40]	; (9074 <hiddf_sof_event+0x444>)
    904a:	715a      	strb	r2, [r3, #5]
    904c:	e7da      	b.n	9004 <hiddf_sof_event+0x3d4>
			key_array[3].state = HID_KB_KEY_UP;
    904e:	2200      	movs	r2, #0
    9050:	4b06      	ldr	r3, [pc, #24]	; (906c <hiddf_sof_event+0x43c>)
    9052:	72da      	strb	r2, [r3, #11]
			key_changed=true;			
    9054:	3201      	adds	r2, #1
    9056:	4b07      	ldr	r3, [pc, #28]	; (9074 <hiddf_sof_event+0x444>)
    9058:	715a      	strb	r2, [r3, #5]
    905a:	e7d7      	b.n	900c <hiddf_sof_event+0x3dc>
		hiddf_keyboard_keys_state_change(key_array, 5);
    905c:	2105      	movs	r1, #5
    905e:	4803      	ldr	r0, [pc, #12]	; (906c <hiddf_sof_event+0x43c>)
    9060:	4b05      	ldr	r3, [pc, #20]	; (9078 <hiddf_sof_event+0x448>)
    9062:	4798      	blx	r3
		key_changed = false;
    9064:	2200      	movs	r2, #0
    9066:	4b03      	ldr	r3, [pc, #12]	; (9074 <hiddf_sof_event+0x444>)
    9068:	715a      	strb	r2, [r3, #5]
}
    906a:	e621      	b.n	8cb0 <hiddf_sof_event+0x80>
    906c:	20000024 	.word	0x20000024
    9070:	20000a3c 	.word	0x20000a3c
    9074:	200008b0 	.word	0x200008b0
    9078:	00008085 	.word	0x00008085

0000907c <hiddf_init>:


static struct usbdc_handler hiddf_sof_event_h = {NULL, (FUNC_PTR)hiddf_sof_event};

void hiddf_init()
{
    907c:	b510      	push	{r4, lr}
	usbdc_register_handler(USBDC_HDL_SOF, &hiddf_sof_event_h);
    907e:	4903      	ldr	r1, [pc, #12]	; (908c <hiddf_init+0x10>)
    9080:	3110      	adds	r1, #16
    9082:	2000      	movs	r0, #0
    9084:	4b02      	ldr	r3, [pc, #8]	; (9090 <hiddf_init+0x14>)
    9086:	4798      	blx	r3
}
    9088:	bd10      	pop	{r4, pc}
    908a:	46c0      	nop			; (mov r8, r8)
    908c:	20000024 	.word	0x20000024
    9090:	00008a61 	.word	0x00008a61

00009094 <composite_device_init>:

void composite_device_init(void)
{
    9094:	b570      	push	{r4, r5, r6, lr}
	printf("\r\nusbdc init\r\n");
    9096:	480b      	ldr	r0, [pc, #44]	; (90c4 <composite_device_init+0x30>)
    9098:	4c0b      	ldr	r4, [pc, #44]	; (90c8 <composite_device_init+0x34>)
    909a:	47a0      	blx	r4
	/* usb stack init */
	usbdc_init(ctrl_buffer);
    909c:	4d0b      	ldr	r5, [pc, #44]	; (90cc <composite_device_init+0x38>)
    909e:	0028      	movs	r0, r5
    90a0:	3008      	adds	r0, #8
    90a2:	4b0b      	ldr	r3, [pc, #44]	; (90d0 <composite_device_init+0x3c>)
    90a4:	4798      	blx	r3

	/* usbdc_register_funcion inside */
	printf("\r\ncdcf_acm init\r\n");
    90a6:	480b      	ldr	r0, [pc, #44]	; (90d4 <composite_device_init+0x40>)
    90a8:	47a0      	blx	r4
	cdcdf_acm_init();
    90aa:	4b0b      	ldr	r3, [pc, #44]	; (90d8 <composite_device_init+0x44>)
    90ac:	4798      	blx	r3

	hiddf_mouse_init(); //kell!!!!!!
    90ae:	4b0b      	ldr	r3, [pc, #44]	; (90dc <composite_device_init+0x48>)
    90b0:	4798      	blx	r3
	printf("\r\nkeyboard init\r\n");
    90b2:	480b      	ldr	r0, [pc, #44]	; (90e0 <composite_device_init+0x4c>)
    90b4:	47a0      	blx	r4
	key_changed=false;
    90b6:	2300      	movs	r3, #0
    90b8:	716b      	strb	r3, [r5, #5]
	hiddf_keyboard_init();
    90ba:	4b0a      	ldr	r3, [pc, #40]	; (90e4 <composite_device_init+0x50>)
    90bc:	4798      	blx	r3
	hiddf_init();
    90be:	4b0a      	ldr	r3, [pc, #40]	; (90e8 <composite_device_init+0x54>)
    90c0:	4798      	blx	r3
}
    90c2:	bd70      	pop	{r4, r5, r6, pc}
    90c4:	0000ec84 	.word	0x0000ec84
    90c8:	000095f9 	.word	0x000095f9
    90cc:	200008b0 	.word	0x200008b0
    90d0:	00008a99 	.word	0x00008a99
    90d4:	0000ec94 	.word	0x0000ec94
    90d8:	00007de5 	.word	0x00007de5
    90dc:	00008319 	.word	0x00008319
    90e0:	0000eca8 	.word	0x0000eca8
    90e4:	00008035 	.word	0x00008035
    90e8:	0000907d 	.word	0x0000907d

000090ec <composite_device_start>:

void composite_device_start(void)
{
    90ec:	b510      	push	{r4, lr}
	printf("\r\nusbdc start\r\n");
    90ee:	4806      	ldr	r0, [pc, #24]	; (9108 <composite_device_start+0x1c>)
    90f0:	4c06      	ldr	r4, [pc, #24]	; (910c <composite_device_start+0x20>)
    90f2:	47a0      	blx	r4
	usbdc_start(multi_desc);
    90f4:	4806      	ldr	r0, [pc, #24]	; (9110 <composite_device_start+0x24>)
    90f6:	3018      	adds	r0, #24
    90f8:	4b06      	ldr	r3, [pc, #24]	; (9114 <composite_device_start+0x28>)
    90fa:	4798      	blx	r3
	printf("\r\nusbdc attach\r\n");
    90fc:	4806      	ldr	r0, [pc, #24]	; (9118 <composite_device_start+0x2c>)
    90fe:	47a0      	blx	r4
	usbdc_attach();
    9100:	4b06      	ldr	r3, [pc, #24]	; (911c <composite_device_start+0x30>)
    9102:	4798      	blx	r3
}
    9104:	bd10      	pop	{r4, pc}
    9106:	46c0      	nop			; (mov r8, r8)
    9108:	0000ecbc 	.word	0x0000ecbc
    910c:	000095f9 	.word	0x000095f9
    9110:	20000024 	.word	0x20000024
    9114:	00008b11 	.word	0x00008b11
    9118:	0000eccc 	.word	0x0000eccc
    911c:	00008b49 	.word	0x00008b49

00009120 <usb_init>:

void usb_init(void)
{
    9120:	b510      	push	{r4, lr}
	printf("\r\ncomposite device init\r\n");
    9122:	4803      	ldr	r0, [pc, #12]	; (9130 <usb_init+0x10>)
    9124:	4b03      	ldr	r3, [pc, #12]	; (9134 <usb_init+0x14>)
    9126:	4798      	blx	r3
	composite_device_init();
    9128:	4b03      	ldr	r3, [pc, #12]	; (9138 <usb_init+0x18>)
    912a:	4798      	blx	r3
}
    912c:	bd10      	pop	{r4, pc}
    912e:	46c0      	nop			; (mov r8, r8)
    9130:	0000ecdc 	.word	0x0000ecdc
    9134:	000095f9 	.word	0x000095f9
    9138:	00009095 	.word	0x00009095

0000913c <__udivsi3>:
    913c:	2200      	movs	r2, #0
    913e:	0843      	lsrs	r3, r0, #1
    9140:	428b      	cmp	r3, r1
    9142:	d374      	bcc.n	922e <__udivsi3+0xf2>
    9144:	0903      	lsrs	r3, r0, #4
    9146:	428b      	cmp	r3, r1
    9148:	d35f      	bcc.n	920a <__udivsi3+0xce>
    914a:	0a03      	lsrs	r3, r0, #8
    914c:	428b      	cmp	r3, r1
    914e:	d344      	bcc.n	91da <__udivsi3+0x9e>
    9150:	0b03      	lsrs	r3, r0, #12
    9152:	428b      	cmp	r3, r1
    9154:	d328      	bcc.n	91a8 <__udivsi3+0x6c>
    9156:	0c03      	lsrs	r3, r0, #16
    9158:	428b      	cmp	r3, r1
    915a:	d30d      	bcc.n	9178 <__udivsi3+0x3c>
    915c:	22ff      	movs	r2, #255	; 0xff
    915e:	0209      	lsls	r1, r1, #8
    9160:	ba12      	rev	r2, r2
    9162:	0c03      	lsrs	r3, r0, #16
    9164:	428b      	cmp	r3, r1
    9166:	d302      	bcc.n	916e <__udivsi3+0x32>
    9168:	1212      	asrs	r2, r2, #8
    916a:	0209      	lsls	r1, r1, #8
    916c:	d065      	beq.n	923a <__udivsi3+0xfe>
    916e:	0b03      	lsrs	r3, r0, #12
    9170:	428b      	cmp	r3, r1
    9172:	d319      	bcc.n	91a8 <__udivsi3+0x6c>
    9174:	e000      	b.n	9178 <__udivsi3+0x3c>
    9176:	0a09      	lsrs	r1, r1, #8
    9178:	0bc3      	lsrs	r3, r0, #15
    917a:	428b      	cmp	r3, r1
    917c:	d301      	bcc.n	9182 <__udivsi3+0x46>
    917e:	03cb      	lsls	r3, r1, #15
    9180:	1ac0      	subs	r0, r0, r3
    9182:	4152      	adcs	r2, r2
    9184:	0b83      	lsrs	r3, r0, #14
    9186:	428b      	cmp	r3, r1
    9188:	d301      	bcc.n	918e <__udivsi3+0x52>
    918a:	038b      	lsls	r3, r1, #14
    918c:	1ac0      	subs	r0, r0, r3
    918e:	4152      	adcs	r2, r2
    9190:	0b43      	lsrs	r3, r0, #13
    9192:	428b      	cmp	r3, r1
    9194:	d301      	bcc.n	919a <__udivsi3+0x5e>
    9196:	034b      	lsls	r3, r1, #13
    9198:	1ac0      	subs	r0, r0, r3
    919a:	4152      	adcs	r2, r2
    919c:	0b03      	lsrs	r3, r0, #12
    919e:	428b      	cmp	r3, r1
    91a0:	d301      	bcc.n	91a6 <__udivsi3+0x6a>
    91a2:	030b      	lsls	r3, r1, #12
    91a4:	1ac0      	subs	r0, r0, r3
    91a6:	4152      	adcs	r2, r2
    91a8:	0ac3      	lsrs	r3, r0, #11
    91aa:	428b      	cmp	r3, r1
    91ac:	d301      	bcc.n	91b2 <__udivsi3+0x76>
    91ae:	02cb      	lsls	r3, r1, #11
    91b0:	1ac0      	subs	r0, r0, r3
    91b2:	4152      	adcs	r2, r2
    91b4:	0a83      	lsrs	r3, r0, #10
    91b6:	428b      	cmp	r3, r1
    91b8:	d301      	bcc.n	91be <__udivsi3+0x82>
    91ba:	028b      	lsls	r3, r1, #10
    91bc:	1ac0      	subs	r0, r0, r3
    91be:	4152      	adcs	r2, r2
    91c0:	0a43      	lsrs	r3, r0, #9
    91c2:	428b      	cmp	r3, r1
    91c4:	d301      	bcc.n	91ca <__udivsi3+0x8e>
    91c6:	024b      	lsls	r3, r1, #9
    91c8:	1ac0      	subs	r0, r0, r3
    91ca:	4152      	adcs	r2, r2
    91cc:	0a03      	lsrs	r3, r0, #8
    91ce:	428b      	cmp	r3, r1
    91d0:	d301      	bcc.n	91d6 <__udivsi3+0x9a>
    91d2:	020b      	lsls	r3, r1, #8
    91d4:	1ac0      	subs	r0, r0, r3
    91d6:	4152      	adcs	r2, r2
    91d8:	d2cd      	bcs.n	9176 <__udivsi3+0x3a>
    91da:	09c3      	lsrs	r3, r0, #7
    91dc:	428b      	cmp	r3, r1
    91de:	d301      	bcc.n	91e4 <__udivsi3+0xa8>
    91e0:	01cb      	lsls	r3, r1, #7
    91e2:	1ac0      	subs	r0, r0, r3
    91e4:	4152      	adcs	r2, r2
    91e6:	0983      	lsrs	r3, r0, #6
    91e8:	428b      	cmp	r3, r1
    91ea:	d301      	bcc.n	91f0 <__udivsi3+0xb4>
    91ec:	018b      	lsls	r3, r1, #6
    91ee:	1ac0      	subs	r0, r0, r3
    91f0:	4152      	adcs	r2, r2
    91f2:	0943      	lsrs	r3, r0, #5
    91f4:	428b      	cmp	r3, r1
    91f6:	d301      	bcc.n	91fc <__udivsi3+0xc0>
    91f8:	014b      	lsls	r3, r1, #5
    91fa:	1ac0      	subs	r0, r0, r3
    91fc:	4152      	adcs	r2, r2
    91fe:	0903      	lsrs	r3, r0, #4
    9200:	428b      	cmp	r3, r1
    9202:	d301      	bcc.n	9208 <__udivsi3+0xcc>
    9204:	010b      	lsls	r3, r1, #4
    9206:	1ac0      	subs	r0, r0, r3
    9208:	4152      	adcs	r2, r2
    920a:	08c3      	lsrs	r3, r0, #3
    920c:	428b      	cmp	r3, r1
    920e:	d301      	bcc.n	9214 <__udivsi3+0xd8>
    9210:	00cb      	lsls	r3, r1, #3
    9212:	1ac0      	subs	r0, r0, r3
    9214:	4152      	adcs	r2, r2
    9216:	0883      	lsrs	r3, r0, #2
    9218:	428b      	cmp	r3, r1
    921a:	d301      	bcc.n	9220 <__udivsi3+0xe4>
    921c:	008b      	lsls	r3, r1, #2
    921e:	1ac0      	subs	r0, r0, r3
    9220:	4152      	adcs	r2, r2
    9222:	0843      	lsrs	r3, r0, #1
    9224:	428b      	cmp	r3, r1
    9226:	d301      	bcc.n	922c <__udivsi3+0xf0>
    9228:	004b      	lsls	r3, r1, #1
    922a:	1ac0      	subs	r0, r0, r3
    922c:	4152      	adcs	r2, r2
    922e:	1a41      	subs	r1, r0, r1
    9230:	d200      	bcs.n	9234 <__udivsi3+0xf8>
    9232:	4601      	mov	r1, r0
    9234:	4152      	adcs	r2, r2
    9236:	4610      	mov	r0, r2
    9238:	4770      	bx	lr
    923a:	e7ff      	b.n	923c <__udivsi3+0x100>
    923c:	b501      	push	{r0, lr}
    923e:	2000      	movs	r0, #0
    9240:	f000 f8f0 	bl	9424 <__aeabi_idiv0>
    9244:	bd02      	pop	{r1, pc}
    9246:	46c0      	nop			; (mov r8, r8)

00009248 <__aeabi_uidivmod>:
    9248:	2900      	cmp	r1, #0
    924a:	d0f7      	beq.n	923c <__udivsi3+0x100>
    924c:	e776      	b.n	913c <__udivsi3>
    924e:	4770      	bx	lr

00009250 <__divsi3>:
    9250:	4603      	mov	r3, r0
    9252:	430b      	orrs	r3, r1
    9254:	d47f      	bmi.n	9356 <__divsi3+0x106>
    9256:	2200      	movs	r2, #0
    9258:	0843      	lsrs	r3, r0, #1
    925a:	428b      	cmp	r3, r1
    925c:	d374      	bcc.n	9348 <__divsi3+0xf8>
    925e:	0903      	lsrs	r3, r0, #4
    9260:	428b      	cmp	r3, r1
    9262:	d35f      	bcc.n	9324 <__divsi3+0xd4>
    9264:	0a03      	lsrs	r3, r0, #8
    9266:	428b      	cmp	r3, r1
    9268:	d344      	bcc.n	92f4 <__divsi3+0xa4>
    926a:	0b03      	lsrs	r3, r0, #12
    926c:	428b      	cmp	r3, r1
    926e:	d328      	bcc.n	92c2 <__divsi3+0x72>
    9270:	0c03      	lsrs	r3, r0, #16
    9272:	428b      	cmp	r3, r1
    9274:	d30d      	bcc.n	9292 <__divsi3+0x42>
    9276:	22ff      	movs	r2, #255	; 0xff
    9278:	0209      	lsls	r1, r1, #8
    927a:	ba12      	rev	r2, r2
    927c:	0c03      	lsrs	r3, r0, #16
    927e:	428b      	cmp	r3, r1
    9280:	d302      	bcc.n	9288 <__divsi3+0x38>
    9282:	1212      	asrs	r2, r2, #8
    9284:	0209      	lsls	r1, r1, #8
    9286:	d065      	beq.n	9354 <__divsi3+0x104>
    9288:	0b03      	lsrs	r3, r0, #12
    928a:	428b      	cmp	r3, r1
    928c:	d319      	bcc.n	92c2 <__divsi3+0x72>
    928e:	e000      	b.n	9292 <__divsi3+0x42>
    9290:	0a09      	lsrs	r1, r1, #8
    9292:	0bc3      	lsrs	r3, r0, #15
    9294:	428b      	cmp	r3, r1
    9296:	d301      	bcc.n	929c <__divsi3+0x4c>
    9298:	03cb      	lsls	r3, r1, #15
    929a:	1ac0      	subs	r0, r0, r3
    929c:	4152      	adcs	r2, r2
    929e:	0b83      	lsrs	r3, r0, #14
    92a0:	428b      	cmp	r3, r1
    92a2:	d301      	bcc.n	92a8 <__divsi3+0x58>
    92a4:	038b      	lsls	r3, r1, #14
    92a6:	1ac0      	subs	r0, r0, r3
    92a8:	4152      	adcs	r2, r2
    92aa:	0b43      	lsrs	r3, r0, #13
    92ac:	428b      	cmp	r3, r1
    92ae:	d301      	bcc.n	92b4 <__divsi3+0x64>
    92b0:	034b      	lsls	r3, r1, #13
    92b2:	1ac0      	subs	r0, r0, r3
    92b4:	4152      	adcs	r2, r2
    92b6:	0b03      	lsrs	r3, r0, #12
    92b8:	428b      	cmp	r3, r1
    92ba:	d301      	bcc.n	92c0 <__divsi3+0x70>
    92bc:	030b      	lsls	r3, r1, #12
    92be:	1ac0      	subs	r0, r0, r3
    92c0:	4152      	adcs	r2, r2
    92c2:	0ac3      	lsrs	r3, r0, #11
    92c4:	428b      	cmp	r3, r1
    92c6:	d301      	bcc.n	92cc <__divsi3+0x7c>
    92c8:	02cb      	lsls	r3, r1, #11
    92ca:	1ac0      	subs	r0, r0, r3
    92cc:	4152      	adcs	r2, r2
    92ce:	0a83      	lsrs	r3, r0, #10
    92d0:	428b      	cmp	r3, r1
    92d2:	d301      	bcc.n	92d8 <__divsi3+0x88>
    92d4:	028b      	lsls	r3, r1, #10
    92d6:	1ac0      	subs	r0, r0, r3
    92d8:	4152      	adcs	r2, r2
    92da:	0a43      	lsrs	r3, r0, #9
    92dc:	428b      	cmp	r3, r1
    92de:	d301      	bcc.n	92e4 <__divsi3+0x94>
    92e0:	024b      	lsls	r3, r1, #9
    92e2:	1ac0      	subs	r0, r0, r3
    92e4:	4152      	adcs	r2, r2
    92e6:	0a03      	lsrs	r3, r0, #8
    92e8:	428b      	cmp	r3, r1
    92ea:	d301      	bcc.n	92f0 <__divsi3+0xa0>
    92ec:	020b      	lsls	r3, r1, #8
    92ee:	1ac0      	subs	r0, r0, r3
    92f0:	4152      	adcs	r2, r2
    92f2:	d2cd      	bcs.n	9290 <__divsi3+0x40>
    92f4:	09c3      	lsrs	r3, r0, #7
    92f6:	428b      	cmp	r3, r1
    92f8:	d301      	bcc.n	92fe <__divsi3+0xae>
    92fa:	01cb      	lsls	r3, r1, #7
    92fc:	1ac0      	subs	r0, r0, r3
    92fe:	4152      	adcs	r2, r2
    9300:	0983      	lsrs	r3, r0, #6
    9302:	428b      	cmp	r3, r1
    9304:	d301      	bcc.n	930a <__divsi3+0xba>
    9306:	018b      	lsls	r3, r1, #6
    9308:	1ac0      	subs	r0, r0, r3
    930a:	4152      	adcs	r2, r2
    930c:	0943      	lsrs	r3, r0, #5
    930e:	428b      	cmp	r3, r1
    9310:	d301      	bcc.n	9316 <__divsi3+0xc6>
    9312:	014b      	lsls	r3, r1, #5
    9314:	1ac0      	subs	r0, r0, r3
    9316:	4152      	adcs	r2, r2
    9318:	0903      	lsrs	r3, r0, #4
    931a:	428b      	cmp	r3, r1
    931c:	d301      	bcc.n	9322 <__divsi3+0xd2>
    931e:	010b      	lsls	r3, r1, #4
    9320:	1ac0      	subs	r0, r0, r3
    9322:	4152      	adcs	r2, r2
    9324:	08c3      	lsrs	r3, r0, #3
    9326:	428b      	cmp	r3, r1
    9328:	d301      	bcc.n	932e <__divsi3+0xde>
    932a:	00cb      	lsls	r3, r1, #3
    932c:	1ac0      	subs	r0, r0, r3
    932e:	4152      	adcs	r2, r2
    9330:	0883      	lsrs	r3, r0, #2
    9332:	428b      	cmp	r3, r1
    9334:	d301      	bcc.n	933a <__divsi3+0xea>
    9336:	008b      	lsls	r3, r1, #2
    9338:	1ac0      	subs	r0, r0, r3
    933a:	4152      	adcs	r2, r2
    933c:	0843      	lsrs	r3, r0, #1
    933e:	428b      	cmp	r3, r1
    9340:	d301      	bcc.n	9346 <__divsi3+0xf6>
    9342:	004b      	lsls	r3, r1, #1
    9344:	1ac0      	subs	r0, r0, r3
    9346:	4152      	adcs	r2, r2
    9348:	1a41      	subs	r1, r0, r1
    934a:	d200      	bcs.n	934e <__divsi3+0xfe>
    934c:	4601      	mov	r1, r0
    934e:	4152      	adcs	r2, r2
    9350:	4610      	mov	r0, r2
    9352:	4770      	bx	lr
    9354:	e05d      	b.n	9412 <__divsi3+0x1c2>
    9356:	0fca      	lsrs	r2, r1, #31
    9358:	d000      	beq.n	935c <__divsi3+0x10c>
    935a:	4249      	negs	r1, r1
    935c:	1003      	asrs	r3, r0, #32
    935e:	d300      	bcc.n	9362 <__divsi3+0x112>
    9360:	4240      	negs	r0, r0
    9362:	4053      	eors	r3, r2
    9364:	2200      	movs	r2, #0
    9366:	469c      	mov	ip, r3
    9368:	0903      	lsrs	r3, r0, #4
    936a:	428b      	cmp	r3, r1
    936c:	d32d      	bcc.n	93ca <__divsi3+0x17a>
    936e:	0a03      	lsrs	r3, r0, #8
    9370:	428b      	cmp	r3, r1
    9372:	d312      	bcc.n	939a <__divsi3+0x14a>
    9374:	22fc      	movs	r2, #252	; 0xfc
    9376:	0189      	lsls	r1, r1, #6
    9378:	ba12      	rev	r2, r2
    937a:	0a03      	lsrs	r3, r0, #8
    937c:	428b      	cmp	r3, r1
    937e:	d30c      	bcc.n	939a <__divsi3+0x14a>
    9380:	0189      	lsls	r1, r1, #6
    9382:	1192      	asrs	r2, r2, #6
    9384:	428b      	cmp	r3, r1
    9386:	d308      	bcc.n	939a <__divsi3+0x14a>
    9388:	0189      	lsls	r1, r1, #6
    938a:	1192      	asrs	r2, r2, #6
    938c:	428b      	cmp	r3, r1
    938e:	d304      	bcc.n	939a <__divsi3+0x14a>
    9390:	0189      	lsls	r1, r1, #6
    9392:	d03a      	beq.n	940a <__divsi3+0x1ba>
    9394:	1192      	asrs	r2, r2, #6
    9396:	e000      	b.n	939a <__divsi3+0x14a>
    9398:	0989      	lsrs	r1, r1, #6
    939a:	09c3      	lsrs	r3, r0, #7
    939c:	428b      	cmp	r3, r1
    939e:	d301      	bcc.n	93a4 <__divsi3+0x154>
    93a0:	01cb      	lsls	r3, r1, #7
    93a2:	1ac0      	subs	r0, r0, r3
    93a4:	4152      	adcs	r2, r2
    93a6:	0983      	lsrs	r3, r0, #6
    93a8:	428b      	cmp	r3, r1
    93aa:	d301      	bcc.n	93b0 <__divsi3+0x160>
    93ac:	018b      	lsls	r3, r1, #6
    93ae:	1ac0      	subs	r0, r0, r3
    93b0:	4152      	adcs	r2, r2
    93b2:	0943      	lsrs	r3, r0, #5
    93b4:	428b      	cmp	r3, r1
    93b6:	d301      	bcc.n	93bc <__divsi3+0x16c>
    93b8:	014b      	lsls	r3, r1, #5
    93ba:	1ac0      	subs	r0, r0, r3
    93bc:	4152      	adcs	r2, r2
    93be:	0903      	lsrs	r3, r0, #4
    93c0:	428b      	cmp	r3, r1
    93c2:	d301      	bcc.n	93c8 <__divsi3+0x178>
    93c4:	010b      	lsls	r3, r1, #4
    93c6:	1ac0      	subs	r0, r0, r3
    93c8:	4152      	adcs	r2, r2
    93ca:	08c3      	lsrs	r3, r0, #3
    93cc:	428b      	cmp	r3, r1
    93ce:	d301      	bcc.n	93d4 <__divsi3+0x184>
    93d0:	00cb      	lsls	r3, r1, #3
    93d2:	1ac0      	subs	r0, r0, r3
    93d4:	4152      	adcs	r2, r2
    93d6:	0883      	lsrs	r3, r0, #2
    93d8:	428b      	cmp	r3, r1
    93da:	d301      	bcc.n	93e0 <__divsi3+0x190>
    93dc:	008b      	lsls	r3, r1, #2
    93de:	1ac0      	subs	r0, r0, r3
    93e0:	4152      	adcs	r2, r2
    93e2:	d2d9      	bcs.n	9398 <__divsi3+0x148>
    93e4:	0843      	lsrs	r3, r0, #1
    93e6:	428b      	cmp	r3, r1
    93e8:	d301      	bcc.n	93ee <__divsi3+0x19e>
    93ea:	004b      	lsls	r3, r1, #1
    93ec:	1ac0      	subs	r0, r0, r3
    93ee:	4152      	adcs	r2, r2
    93f0:	1a41      	subs	r1, r0, r1
    93f2:	d200      	bcs.n	93f6 <__divsi3+0x1a6>
    93f4:	4601      	mov	r1, r0
    93f6:	4663      	mov	r3, ip
    93f8:	4152      	adcs	r2, r2
    93fa:	105b      	asrs	r3, r3, #1
    93fc:	4610      	mov	r0, r2
    93fe:	d301      	bcc.n	9404 <__divsi3+0x1b4>
    9400:	4240      	negs	r0, r0
    9402:	2b00      	cmp	r3, #0
    9404:	d500      	bpl.n	9408 <__divsi3+0x1b8>
    9406:	4249      	negs	r1, r1
    9408:	4770      	bx	lr
    940a:	4663      	mov	r3, ip
    940c:	105b      	asrs	r3, r3, #1
    940e:	d300      	bcc.n	9412 <__divsi3+0x1c2>
    9410:	4240      	negs	r0, r0
    9412:	b501      	push	{r0, lr}
    9414:	2000      	movs	r0, #0
    9416:	f000 f805 	bl	9424 <__aeabi_idiv0>
    941a:	bd02      	pop	{r1, pc}

0000941c <__aeabi_idivmod>:
    941c:	2900      	cmp	r1, #0
    941e:	d0f8      	beq.n	9412 <__divsi3+0x1c2>
    9420:	e716      	b.n	9250 <__divsi3>
    9422:	4770      	bx	lr

00009424 <__aeabi_idiv0>:
    9424:	4770      	bx	lr
    9426:	46c0      	nop			; (mov r8, r8)

00009428 <__ffssi2>:
    9428:	b510      	push	{r4, lr}
    942a:	2300      	movs	r3, #0
    942c:	2800      	cmp	r0, #0
    942e:	d002      	beq.n	9436 <__ffssi2+0xe>
    9430:	f000 f804 	bl	943c <__ctzsi2>
    9434:	1c43      	adds	r3, r0, #1
    9436:	0018      	movs	r0, r3
    9438:	bd10      	pop	{r4, pc}
    943a:	46c0      	nop			; (mov r8, r8)

0000943c <__ctzsi2>:
    943c:	4241      	negs	r1, r0
    943e:	4008      	ands	r0, r1
    9440:	211c      	movs	r1, #28
    9442:	2301      	movs	r3, #1
    9444:	041b      	lsls	r3, r3, #16
    9446:	4298      	cmp	r0, r3
    9448:	d301      	bcc.n	944e <__ctzsi2+0x12>
    944a:	0c00      	lsrs	r0, r0, #16
    944c:	3910      	subs	r1, #16
    944e:	0a1b      	lsrs	r3, r3, #8
    9450:	4298      	cmp	r0, r3
    9452:	d301      	bcc.n	9458 <__ctzsi2+0x1c>
    9454:	0a00      	lsrs	r0, r0, #8
    9456:	3908      	subs	r1, #8
    9458:	091b      	lsrs	r3, r3, #4
    945a:	4298      	cmp	r0, r3
    945c:	d301      	bcc.n	9462 <__ctzsi2+0x26>
    945e:	0900      	lsrs	r0, r0, #4
    9460:	3904      	subs	r1, #4
    9462:	a202      	add	r2, pc, #8	; (adr r2, 946c <__ctzsi2+0x30>)
    9464:	5c10      	ldrb	r0, [r2, r0]
    9466:	1a40      	subs	r0, r0, r1
    9468:	4770      	bx	lr
    946a:	46c0      	nop			; (mov r8, r8)
    946c:	1d1d1c1b 	.word	0x1d1d1c1b
    9470:	1e1e1e1e 	.word	0x1e1e1e1e
    9474:	1f1f1f1f 	.word	0x1f1f1f1f
    9478:	1f1f1f1f 	.word	0x1f1f1f1f

0000947c <__libc_init_array>:
    947c:	b570      	push	{r4, r5, r6, lr}
    947e:	2600      	movs	r6, #0
    9480:	4d0c      	ldr	r5, [pc, #48]	; (94b4 <__libc_init_array+0x38>)
    9482:	4c0d      	ldr	r4, [pc, #52]	; (94b8 <__libc_init_array+0x3c>)
    9484:	1b64      	subs	r4, r4, r5
    9486:	10a4      	asrs	r4, r4, #2
    9488:	42a6      	cmp	r6, r4
    948a:	d109      	bne.n	94a0 <__libc_init_array+0x24>
    948c:	2600      	movs	r6, #0
    948e:	f005 fc7f 	bl	ed90 <_init>
    9492:	4d0a      	ldr	r5, [pc, #40]	; (94bc <__libc_init_array+0x40>)
    9494:	4c0a      	ldr	r4, [pc, #40]	; (94c0 <__libc_init_array+0x44>)
    9496:	1b64      	subs	r4, r4, r5
    9498:	10a4      	asrs	r4, r4, #2
    949a:	42a6      	cmp	r6, r4
    949c:	d105      	bne.n	94aa <__libc_init_array+0x2e>
    949e:	bd70      	pop	{r4, r5, r6, pc}
    94a0:	00b3      	lsls	r3, r6, #2
    94a2:	58eb      	ldr	r3, [r5, r3]
    94a4:	4798      	blx	r3
    94a6:	3601      	adds	r6, #1
    94a8:	e7ee      	b.n	9488 <__libc_init_array+0xc>
    94aa:	00b3      	lsls	r3, r6, #2
    94ac:	58eb      	ldr	r3, [r5, r3]
    94ae:	4798      	blx	r3
    94b0:	3601      	adds	r6, #1
    94b2:	e7f2      	b.n	949a <__libc_init_array+0x1e>
    94b4:	0000ed9c 	.word	0x0000ed9c
    94b8:	0000ed9c 	.word	0x0000ed9c
    94bc:	0000ed9c 	.word	0x0000ed9c
    94c0:	0000eda0 	.word	0x0000eda0

000094c4 <memcmp>:
    94c4:	b530      	push	{r4, r5, lr}
    94c6:	2400      	movs	r4, #0
    94c8:	42a2      	cmp	r2, r4
    94ca:	d101      	bne.n	94d0 <memcmp+0xc>
    94cc:	2000      	movs	r0, #0
    94ce:	e005      	b.n	94dc <memcmp+0x18>
    94d0:	5d03      	ldrb	r3, [r0, r4]
    94d2:	1c65      	adds	r5, r4, #1
    94d4:	5d0c      	ldrb	r4, [r1, r4]
    94d6:	42a3      	cmp	r3, r4
    94d8:	d001      	beq.n	94de <memcmp+0x1a>
    94da:	1b18      	subs	r0, r3, r4
    94dc:	bd30      	pop	{r4, r5, pc}
    94de:	002c      	movs	r4, r5
    94e0:	e7f2      	b.n	94c8 <memcmp+0x4>

000094e2 <memcpy>:
    94e2:	2300      	movs	r3, #0
    94e4:	b510      	push	{r4, lr}
    94e6:	429a      	cmp	r2, r3
    94e8:	d100      	bne.n	94ec <memcpy+0xa>
    94ea:	bd10      	pop	{r4, pc}
    94ec:	5ccc      	ldrb	r4, [r1, r3]
    94ee:	54c4      	strb	r4, [r0, r3]
    94f0:	3301      	adds	r3, #1
    94f2:	e7f8      	b.n	94e6 <memcpy+0x4>

000094f4 <memset>:
    94f4:	0003      	movs	r3, r0
    94f6:	1882      	adds	r2, r0, r2
    94f8:	4293      	cmp	r3, r2
    94fa:	d100      	bne.n	94fe <memset+0xa>
    94fc:	4770      	bx	lr
    94fe:	7019      	strb	r1, [r3, #0]
    9500:	3301      	adds	r3, #1
    9502:	e7f9      	b.n	94f8 <memset+0x4>

00009504 <iprintf>:
    9504:	b40f      	push	{r0, r1, r2, r3}
    9506:	4b0b      	ldr	r3, [pc, #44]	; (9534 <iprintf+0x30>)
    9508:	b513      	push	{r0, r1, r4, lr}
    950a:	681c      	ldr	r4, [r3, #0]
    950c:	2c00      	cmp	r4, #0
    950e:	d005      	beq.n	951c <iprintf+0x18>
    9510:	69a3      	ldr	r3, [r4, #24]
    9512:	2b00      	cmp	r3, #0
    9514:	d102      	bne.n	951c <iprintf+0x18>
    9516:	0020      	movs	r0, r4
    9518:	f000 fb2c 	bl	9b74 <__sinit>
    951c:	ab05      	add	r3, sp, #20
    951e:	9a04      	ldr	r2, [sp, #16]
    9520:	68a1      	ldr	r1, [r4, #8]
    9522:	0020      	movs	r0, r4
    9524:	9301      	str	r3, [sp, #4]
    9526:	f000 fe67 	bl	a1f8 <_vfiprintf_r>
    952a:	bc16      	pop	{r1, r2, r4}
    952c:	bc08      	pop	{r3}
    952e:	b004      	add	sp, #16
    9530:	4718      	bx	r3
    9532:	46c0      	nop			; (mov r8, r8)
    9534:	200000dc 	.word	0x200000dc

00009538 <_puts_r>:
    9538:	b570      	push	{r4, r5, r6, lr}
    953a:	0005      	movs	r5, r0
    953c:	000e      	movs	r6, r1
    953e:	2800      	cmp	r0, #0
    9540:	d004      	beq.n	954c <_puts_r+0x14>
    9542:	6983      	ldr	r3, [r0, #24]
    9544:	2b00      	cmp	r3, #0
    9546:	d101      	bne.n	954c <_puts_r+0x14>
    9548:	f000 fb14 	bl	9b74 <__sinit>
    954c:	69ab      	ldr	r3, [r5, #24]
    954e:	68ac      	ldr	r4, [r5, #8]
    9550:	2b00      	cmp	r3, #0
    9552:	d102      	bne.n	955a <_puts_r+0x22>
    9554:	0028      	movs	r0, r5
    9556:	f000 fb0d 	bl	9b74 <__sinit>
    955a:	4b24      	ldr	r3, [pc, #144]	; (95ec <_puts_r+0xb4>)
    955c:	429c      	cmp	r4, r3
    955e:	d10f      	bne.n	9580 <_puts_r+0x48>
    9560:	686c      	ldr	r4, [r5, #4]
    9562:	89a3      	ldrh	r3, [r4, #12]
    9564:	071b      	lsls	r3, r3, #28
    9566:	d502      	bpl.n	956e <_puts_r+0x36>
    9568:	6923      	ldr	r3, [r4, #16]
    956a:	2b00      	cmp	r3, #0
    956c:	d120      	bne.n	95b0 <_puts_r+0x78>
    956e:	0021      	movs	r1, r4
    9570:	0028      	movs	r0, r5
    9572:	f000 f991 	bl	9898 <__swsetup_r>
    9576:	2800      	cmp	r0, #0
    9578:	d01a      	beq.n	95b0 <_puts_r+0x78>
    957a:	2001      	movs	r0, #1
    957c:	4240      	negs	r0, r0
    957e:	bd70      	pop	{r4, r5, r6, pc}
    9580:	4b1b      	ldr	r3, [pc, #108]	; (95f0 <_puts_r+0xb8>)
    9582:	429c      	cmp	r4, r3
    9584:	d101      	bne.n	958a <_puts_r+0x52>
    9586:	68ac      	ldr	r4, [r5, #8]
    9588:	e7eb      	b.n	9562 <_puts_r+0x2a>
    958a:	4b1a      	ldr	r3, [pc, #104]	; (95f4 <_puts_r+0xbc>)
    958c:	429c      	cmp	r4, r3
    958e:	d1e8      	bne.n	9562 <_puts_r+0x2a>
    9590:	68ec      	ldr	r4, [r5, #12]
    9592:	e7e6      	b.n	9562 <_puts_r+0x2a>
    9594:	3b01      	subs	r3, #1
    9596:	3601      	adds	r6, #1
    9598:	60a3      	str	r3, [r4, #8]
    959a:	2b00      	cmp	r3, #0
    959c:	da04      	bge.n	95a8 <_puts_r+0x70>
    959e:	69a2      	ldr	r2, [r4, #24]
    95a0:	4293      	cmp	r3, r2
    95a2:	db16      	blt.n	95d2 <_puts_r+0x9a>
    95a4:	290a      	cmp	r1, #10
    95a6:	d014      	beq.n	95d2 <_puts_r+0x9a>
    95a8:	6823      	ldr	r3, [r4, #0]
    95aa:	1c5a      	adds	r2, r3, #1
    95ac:	6022      	str	r2, [r4, #0]
    95ae:	7019      	strb	r1, [r3, #0]
    95b0:	7831      	ldrb	r1, [r6, #0]
    95b2:	68a3      	ldr	r3, [r4, #8]
    95b4:	2900      	cmp	r1, #0
    95b6:	d1ed      	bne.n	9594 <_puts_r+0x5c>
    95b8:	3b01      	subs	r3, #1
    95ba:	60a3      	str	r3, [r4, #8]
    95bc:	2b00      	cmp	r3, #0
    95be:	da0f      	bge.n	95e0 <_puts_r+0xa8>
    95c0:	0022      	movs	r2, r4
    95c2:	310a      	adds	r1, #10
    95c4:	0028      	movs	r0, r5
    95c6:	f000 f911 	bl	97ec <__swbuf_r>
    95ca:	1c43      	adds	r3, r0, #1
    95cc:	d0d5      	beq.n	957a <_puts_r+0x42>
    95ce:	200a      	movs	r0, #10
    95d0:	e7d5      	b.n	957e <_puts_r+0x46>
    95d2:	0022      	movs	r2, r4
    95d4:	0028      	movs	r0, r5
    95d6:	f000 f909 	bl	97ec <__swbuf_r>
    95da:	1c43      	adds	r3, r0, #1
    95dc:	d1e8      	bne.n	95b0 <_puts_r+0x78>
    95de:	e7cc      	b.n	957a <_puts_r+0x42>
    95e0:	200a      	movs	r0, #10
    95e2:	6823      	ldr	r3, [r4, #0]
    95e4:	1c5a      	adds	r2, r3, #1
    95e6:	6022      	str	r2, [r4, #0]
    95e8:	7018      	strb	r0, [r3, #0]
    95ea:	e7c8      	b.n	957e <_puts_r+0x46>
    95ec:	0000ed1c 	.word	0x0000ed1c
    95f0:	0000ed3c 	.word	0x0000ed3c
    95f4:	0000ecfc 	.word	0x0000ecfc

000095f8 <puts>:
    95f8:	b510      	push	{r4, lr}
    95fa:	4b03      	ldr	r3, [pc, #12]	; (9608 <puts+0x10>)
    95fc:	0001      	movs	r1, r0
    95fe:	6818      	ldr	r0, [r3, #0]
    9600:	f7ff ff9a 	bl	9538 <_puts_r>
    9604:	bd10      	pop	{r4, pc}
    9606:	46c0      	nop			; (mov r8, r8)
    9608:	200000dc 	.word	0x200000dc

0000960c <setbuf>:
    960c:	424a      	negs	r2, r1
    960e:	414a      	adcs	r2, r1
    9610:	2380      	movs	r3, #128	; 0x80
    9612:	b510      	push	{r4, lr}
    9614:	0052      	lsls	r2, r2, #1
    9616:	00db      	lsls	r3, r3, #3
    9618:	f000 f802 	bl	9620 <setvbuf>
    961c:	bd10      	pop	{r4, pc}
	...

00009620 <setvbuf>:
    9620:	b5f0      	push	{r4, r5, r6, r7, lr}
    9622:	001d      	movs	r5, r3
    9624:	4b4f      	ldr	r3, [pc, #316]	; (9764 <setvbuf+0x144>)
    9626:	b085      	sub	sp, #20
    9628:	681e      	ldr	r6, [r3, #0]
    962a:	0004      	movs	r4, r0
    962c:	000f      	movs	r7, r1
    962e:	9200      	str	r2, [sp, #0]
    9630:	2e00      	cmp	r6, #0
    9632:	d005      	beq.n	9640 <setvbuf+0x20>
    9634:	69b3      	ldr	r3, [r6, #24]
    9636:	2b00      	cmp	r3, #0
    9638:	d102      	bne.n	9640 <setvbuf+0x20>
    963a:	0030      	movs	r0, r6
    963c:	f000 fa9a 	bl	9b74 <__sinit>
    9640:	4b49      	ldr	r3, [pc, #292]	; (9768 <setvbuf+0x148>)
    9642:	429c      	cmp	r4, r3
    9644:	d150      	bne.n	96e8 <setvbuf+0xc8>
    9646:	6874      	ldr	r4, [r6, #4]
    9648:	9b00      	ldr	r3, [sp, #0]
    964a:	2b02      	cmp	r3, #2
    964c:	d005      	beq.n	965a <setvbuf+0x3a>
    964e:	2b01      	cmp	r3, #1
    9650:	d900      	bls.n	9654 <setvbuf+0x34>
    9652:	e084      	b.n	975e <setvbuf+0x13e>
    9654:	2d00      	cmp	r5, #0
    9656:	da00      	bge.n	965a <setvbuf+0x3a>
    9658:	e081      	b.n	975e <setvbuf+0x13e>
    965a:	0021      	movs	r1, r4
    965c:	0030      	movs	r0, r6
    965e:	f000 fa1b 	bl	9a98 <_fflush_r>
    9662:	6b61      	ldr	r1, [r4, #52]	; 0x34
    9664:	2900      	cmp	r1, #0
    9666:	d008      	beq.n	967a <setvbuf+0x5a>
    9668:	0023      	movs	r3, r4
    966a:	3344      	adds	r3, #68	; 0x44
    966c:	4299      	cmp	r1, r3
    966e:	d002      	beq.n	9676 <setvbuf+0x56>
    9670:	0030      	movs	r0, r6
    9672:	f000 fb8b 	bl	9d8c <_free_r>
    9676:	2300      	movs	r3, #0
    9678:	6363      	str	r3, [r4, #52]	; 0x34
    967a:	2300      	movs	r3, #0
    967c:	61a3      	str	r3, [r4, #24]
    967e:	6063      	str	r3, [r4, #4]
    9680:	89a3      	ldrh	r3, [r4, #12]
    9682:	061b      	lsls	r3, r3, #24
    9684:	d503      	bpl.n	968e <setvbuf+0x6e>
    9686:	6921      	ldr	r1, [r4, #16]
    9688:	0030      	movs	r0, r6
    968a:	f000 fb7f 	bl	9d8c <_free_r>
    968e:	89a3      	ldrh	r3, [r4, #12]
    9690:	4a36      	ldr	r2, [pc, #216]	; (976c <setvbuf+0x14c>)
    9692:	4013      	ands	r3, r2
    9694:	81a3      	strh	r3, [r4, #12]
    9696:	9b00      	ldr	r3, [sp, #0]
    9698:	2b02      	cmp	r3, #2
    969a:	d05a      	beq.n	9752 <setvbuf+0x132>
    969c:	ab03      	add	r3, sp, #12
    969e:	aa02      	add	r2, sp, #8
    96a0:	0021      	movs	r1, r4
    96a2:	0030      	movs	r0, r6
    96a4:	f000 fafc 	bl	9ca0 <__swhatbuf_r>
    96a8:	89a3      	ldrh	r3, [r4, #12]
    96aa:	4318      	orrs	r0, r3
    96ac:	81a0      	strh	r0, [r4, #12]
    96ae:	2d00      	cmp	r5, #0
    96b0:	d124      	bne.n	96fc <setvbuf+0xdc>
    96b2:	9d02      	ldr	r5, [sp, #8]
    96b4:	0028      	movs	r0, r5
    96b6:	f000 fb5f 	bl	9d78 <malloc>
    96ba:	9501      	str	r5, [sp, #4]
    96bc:	1e07      	subs	r7, r0, #0
    96be:	d142      	bne.n	9746 <setvbuf+0x126>
    96c0:	9b02      	ldr	r3, [sp, #8]
    96c2:	9301      	str	r3, [sp, #4]
    96c4:	42ab      	cmp	r3, r5
    96c6:	d139      	bne.n	973c <setvbuf+0x11c>
    96c8:	2001      	movs	r0, #1
    96ca:	4240      	negs	r0, r0
    96cc:	2302      	movs	r3, #2
    96ce:	89a2      	ldrh	r2, [r4, #12]
    96d0:	4313      	orrs	r3, r2
    96d2:	81a3      	strh	r3, [r4, #12]
    96d4:	2300      	movs	r3, #0
    96d6:	60a3      	str	r3, [r4, #8]
    96d8:	0023      	movs	r3, r4
    96da:	3347      	adds	r3, #71	; 0x47
    96dc:	6023      	str	r3, [r4, #0]
    96de:	6123      	str	r3, [r4, #16]
    96e0:	2301      	movs	r3, #1
    96e2:	6163      	str	r3, [r4, #20]
    96e4:	b005      	add	sp, #20
    96e6:	bdf0      	pop	{r4, r5, r6, r7, pc}
    96e8:	4b21      	ldr	r3, [pc, #132]	; (9770 <setvbuf+0x150>)
    96ea:	429c      	cmp	r4, r3
    96ec:	d101      	bne.n	96f2 <setvbuf+0xd2>
    96ee:	68b4      	ldr	r4, [r6, #8]
    96f0:	e7aa      	b.n	9648 <setvbuf+0x28>
    96f2:	4b20      	ldr	r3, [pc, #128]	; (9774 <setvbuf+0x154>)
    96f4:	429c      	cmp	r4, r3
    96f6:	d1a7      	bne.n	9648 <setvbuf+0x28>
    96f8:	68f4      	ldr	r4, [r6, #12]
    96fa:	e7a5      	b.n	9648 <setvbuf+0x28>
    96fc:	2f00      	cmp	r7, #0
    96fe:	d0d9      	beq.n	96b4 <setvbuf+0x94>
    9700:	69b3      	ldr	r3, [r6, #24]
    9702:	2b00      	cmp	r3, #0
    9704:	d102      	bne.n	970c <setvbuf+0xec>
    9706:	0030      	movs	r0, r6
    9708:	f000 fa34 	bl	9b74 <__sinit>
    970c:	9b00      	ldr	r3, [sp, #0]
    970e:	2b01      	cmp	r3, #1
    9710:	d103      	bne.n	971a <setvbuf+0xfa>
    9712:	89a3      	ldrh	r3, [r4, #12]
    9714:	9a00      	ldr	r2, [sp, #0]
    9716:	431a      	orrs	r2, r3
    9718:	81a2      	strh	r2, [r4, #12]
    971a:	2008      	movs	r0, #8
    971c:	89a3      	ldrh	r3, [r4, #12]
    971e:	6027      	str	r7, [r4, #0]
    9720:	6127      	str	r7, [r4, #16]
    9722:	6165      	str	r5, [r4, #20]
    9724:	4018      	ands	r0, r3
    9726:	d018      	beq.n	975a <setvbuf+0x13a>
    9728:	2001      	movs	r0, #1
    972a:	4018      	ands	r0, r3
    972c:	2300      	movs	r3, #0
    972e:	4298      	cmp	r0, r3
    9730:	d011      	beq.n	9756 <setvbuf+0x136>
    9732:	426d      	negs	r5, r5
    9734:	60a3      	str	r3, [r4, #8]
    9736:	61a5      	str	r5, [r4, #24]
    9738:	0018      	movs	r0, r3
    973a:	e7d3      	b.n	96e4 <setvbuf+0xc4>
    973c:	9801      	ldr	r0, [sp, #4]
    973e:	f000 fb1b 	bl	9d78 <malloc>
    9742:	1e07      	subs	r7, r0, #0
    9744:	d0c0      	beq.n	96c8 <setvbuf+0xa8>
    9746:	2380      	movs	r3, #128	; 0x80
    9748:	89a2      	ldrh	r2, [r4, #12]
    974a:	9d01      	ldr	r5, [sp, #4]
    974c:	4313      	orrs	r3, r2
    974e:	81a3      	strh	r3, [r4, #12]
    9750:	e7d6      	b.n	9700 <setvbuf+0xe0>
    9752:	2000      	movs	r0, #0
    9754:	e7ba      	b.n	96cc <setvbuf+0xac>
    9756:	60a5      	str	r5, [r4, #8]
    9758:	e7c4      	b.n	96e4 <setvbuf+0xc4>
    975a:	60a0      	str	r0, [r4, #8]
    975c:	e7c2      	b.n	96e4 <setvbuf+0xc4>
    975e:	2001      	movs	r0, #1
    9760:	4240      	negs	r0, r0
    9762:	e7bf      	b.n	96e4 <setvbuf+0xc4>
    9764:	200000dc 	.word	0x200000dc
    9768:	0000ed1c 	.word	0x0000ed1c
    976c:	fffff35c 	.word	0xfffff35c
    9770:	0000ed3c 	.word	0x0000ed3c
    9774:	0000ecfc 	.word	0x0000ecfc

00009778 <sniprintf>:
    9778:	b40c      	push	{r2, r3}
    977a:	b530      	push	{r4, r5, lr}
    977c:	4b16      	ldr	r3, [pc, #88]	; (97d8 <sniprintf+0x60>)
    977e:	b09d      	sub	sp, #116	; 0x74
    9780:	1e0c      	subs	r4, r1, #0
    9782:	681d      	ldr	r5, [r3, #0]
    9784:	da08      	bge.n	9798 <sniprintf+0x20>
    9786:	238b      	movs	r3, #139	; 0x8b
    9788:	2001      	movs	r0, #1
    978a:	602b      	str	r3, [r5, #0]
    978c:	4240      	negs	r0, r0
    978e:	b01d      	add	sp, #116	; 0x74
    9790:	bc30      	pop	{r4, r5}
    9792:	bc08      	pop	{r3}
    9794:	b002      	add	sp, #8
    9796:	4718      	bx	r3
    9798:	2382      	movs	r3, #130	; 0x82
    979a:	a902      	add	r1, sp, #8
    979c:	009b      	lsls	r3, r3, #2
    979e:	818b      	strh	r3, [r1, #12]
    97a0:	2300      	movs	r3, #0
    97a2:	9002      	str	r0, [sp, #8]
    97a4:	6108      	str	r0, [r1, #16]
    97a6:	429c      	cmp	r4, r3
    97a8:	d000      	beq.n	97ac <sniprintf+0x34>
    97aa:	1e63      	subs	r3, r4, #1
    97ac:	608b      	str	r3, [r1, #8]
    97ae:	614b      	str	r3, [r1, #20]
    97b0:	2301      	movs	r3, #1
    97b2:	425b      	negs	r3, r3
    97b4:	81cb      	strh	r3, [r1, #14]
    97b6:	9a20      	ldr	r2, [sp, #128]	; 0x80
    97b8:	ab21      	add	r3, sp, #132	; 0x84
    97ba:	0028      	movs	r0, r5
    97bc:	9301      	str	r3, [sp, #4]
    97be:	f000 fbef 	bl	9fa0 <_svfiprintf_r>
    97c2:	1c43      	adds	r3, r0, #1
    97c4:	da01      	bge.n	97ca <sniprintf+0x52>
    97c6:	238b      	movs	r3, #139	; 0x8b
    97c8:	602b      	str	r3, [r5, #0]
    97ca:	2c00      	cmp	r4, #0
    97cc:	d0df      	beq.n	978e <sniprintf+0x16>
    97ce:	2300      	movs	r3, #0
    97d0:	9a02      	ldr	r2, [sp, #8]
    97d2:	7013      	strb	r3, [r2, #0]
    97d4:	e7db      	b.n	978e <sniprintf+0x16>
    97d6:	46c0      	nop			; (mov r8, r8)
    97d8:	200000dc 	.word	0x200000dc

000097dc <strlen>:
    97dc:	2300      	movs	r3, #0
    97de:	5cc2      	ldrb	r2, [r0, r3]
    97e0:	3301      	adds	r3, #1
    97e2:	2a00      	cmp	r2, #0
    97e4:	d1fb      	bne.n	97de <strlen+0x2>
    97e6:	1e58      	subs	r0, r3, #1
    97e8:	4770      	bx	lr
	...

000097ec <__swbuf_r>:
    97ec:	b5f8      	push	{r3, r4, r5, r6, r7, lr}
    97ee:	0005      	movs	r5, r0
    97f0:	000e      	movs	r6, r1
    97f2:	0014      	movs	r4, r2
    97f4:	2800      	cmp	r0, #0
    97f6:	d004      	beq.n	9802 <__swbuf_r+0x16>
    97f8:	6983      	ldr	r3, [r0, #24]
    97fa:	2b00      	cmp	r3, #0
    97fc:	d101      	bne.n	9802 <__swbuf_r+0x16>
    97fe:	f000 f9b9 	bl	9b74 <__sinit>
    9802:	4b22      	ldr	r3, [pc, #136]	; (988c <__swbuf_r+0xa0>)
    9804:	429c      	cmp	r4, r3
    9806:	d12d      	bne.n	9864 <__swbuf_r+0x78>
    9808:	686c      	ldr	r4, [r5, #4]
    980a:	69a3      	ldr	r3, [r4, #24]
    980c:	60a3      	str	r3, [r4, #8]
    980e:	89a3      	ldrh	r3, [r4, #12]
    9810:	071b      	lsls	r3, r3, #28
    9812:	d531      	bpl.n	9878 <__swbuf_r+0x8c>
    9814:	6923      	ldr	r3, [r4, #16]
    9816:	2b00      	cmp	r3, #0
    9818:	d02e      	beq.n	9878 <__swbuf_r+0x8c>
    981a:	6823      	ldr	r3, [r4, #0]
    981c:	6922      	ldr	r2, [r4, #16]
    981e:	b2f7      	uxtb	r7, r6
    9820:	1a98      	subs	r0, r3, r2
    9822:	6963      	ldr	r3, [r4, #20]
    9824:	b2f6      	uxtb	r6, r6
    9826:	4298      	cmp	r0, r3
    9828:	db05      	blt.n	9836 <__swbuf_r+0x4a>
    982a:	0021      	movs	r1, r4
    982c:	0028      	movs	r0, r5
    982e:	f000 f933 	bl	9a98 <_fflush_r>
    9832:	2800      	cmp	r0, #0
    9834:	d126      	bne.n	9884 <__swbuf_r+0x98>
    9836:	68a3      	ldr	r3, [r4, #8]
    9838:	3001      	adds	r0, #1
    983a:	3b01      	subs	r3, #1
    983c:	60a3      	str	r3, [r4, #8]
    983e:	6823      	ldr	r3, [r4, #0]
    9840:	1c5a      	adds	r2, r3, #1
    9842:	6022      	str	r2, [r4, #0]
    9844:	701f      	strb	r7, [r3, #0]
    9846:	6963      	ldr	r3, [r4, #20]
    9848:	4298      	cmp	r0, r3
    984a:	d004      	beq.n	9856 <__swbuf_r+0x6a>
    984c:	89a3      	ldrh	r3, [r4, #12]
    984e:	07db      	lsls	r3, r3, #31
    9850:	d51a      	bpl.n	9888 <__swbuf_r+0x9c>
    9852:	2e0a      	cmp	r6, #10
    9854:	d118      	bne.n	9888 <__swbuf_r+0x9c>
    9856:	0021      	movs	r1, r4
    9858:	0028      	movs	r0, r5
    985a:	f000 f91d 	bl	9a98 <_fflush_r>
    985e:	2800      	cmp	r0, #0
    9860:	d012      	beq.n	9888 <__swbuf_r+0x9c>
    9862:	e00f      	b.n	9884 <__swbuf_r+0x98>
    9864:	4b0a      	ldr	r3, [pc, #40]	; (9890 <__swbuf_r+0xa4>)
    9866:	429c      	cmp	r4, r3
    9868:	d101      	bne.n	986e <__swbuf_r+0x82>
    986a:	68ac      	ldr	r4, [r5, #8]
    986c:	e7cd      	b.n	980a <__swbuf_r+0x1e>
    986e:	4b09      	ldr	r3, [pc, #36]	; (9894 <__swbuf_r+0xa8>)
    9870:	429c      	cmp	r4, r3
    9872:	d1ca      	bne.n	980a <__swbuf_r+0x1e>
    9874:	68ec      	ldr	r4, [r5, #12]
    9876:	e7c8      	b.n	980a <__swbuf_r+0x1e>
    9878:	0021      	movs	r1, r4
    987a:	0028      	movs	r0, r5
    987c:	f000 f80c 	bl	9898 <__swsetup_r>
    9880:	2800      	cmp	r0, #0
    9882:	d0ca      	beq.n	981a <__swbuf_r+0x2e>
    9884:	2601      	movs	r6, #1
    9886:	4276      	negs	r6, r6
    9888:	0030      	movs	r0, r6
    988a:	bdf8      	pop	{r3, r4, r5, r6, r7, pc}
    988c:	0000ed1c 	.word	0x0000ed1c
    9890:	0000ed3c 	.word	0x0000ed3c
    9894:	0000ecfc 	.word	0x0000ecfc

00009898 <__swsetup_r>:
    9898:	4b36      	ldr	r3, [pc, #216]	; (9974 <__swsetup_r+0xdc>)
    989a:	b570      	push	{r4, r5, r6, lr}
    989c:	681d      	ldr	r5, [r3, #0]
    989e:	0006      	movs	r6, r0
    98a0:	000c      	movs	r4, r1
    98a2:	2d00      	cmp	r5, #0
    98a4:	d005      	beq.n	98b2 <__swsetup_r+0x1a>
    98a6:	69ab      	ldr	r3, [r5, #24]
    98a8:	2b00      	cmp	r3, #0
    98aa:	d102      	bne.n	98b2 <__swsetup_r+0x1a>
    98ac:	0028      	movs	r0, r5
    98ae:	f000 f961 	bl	9b74 <__sinit>
    98b2:	4b31      	ldr	r3, [pc, #196]	; (9978 <__swsetup_r+0xe0>)
    98b4:	429c      	cmp	r4, r3
    98b6:	d10f      	bne.n	98d8 <__swsetup_r+0x40>
    98b8:	686c      	ldr	r4, [r5, #4]
    98ba:	230c      	movs	r3, #12
    98bc:	5ee2      	ldrsh	r2, [r4, r3]
    98be:	b293      	uxth	r3, r2
    98c0:	0719      	lsls	r1, r3, #28
    98c2:	d42d      	bmi.n	9920 <__swsetup_r+0x88>
    98c4:	06d9      	lsls	r1, r3, #27
    98c6:	d411      	bmi.n	98ec <__swsetup_r+0x54>
    98c8:	2309      	movs	r3, #9
    98ca:	2001      	movs	r0, #1
    98cc:	6033      	str	r3, [r6, #0]
    98ce:	3337      	adds	r3, #55	; 0x37
    98d0:	4313      	orrs	r3, r2
    98d2:	81a3      	strh	r3, [r4, #12]
    98d4:	4240      	negs	r0, r0
    98d6:	bd70      	pop	{r4, r5, r6, pc}
    98d8:	4b28      	ldr	r3, [pc, #160]	; (997c <__swsetup_r+0xe4>)
    98da:	429c      	cmp	r4, r3
    98dc:	d101      	bne.n	98e2 <__swsetup_r+0x4a>
    98de:	68ac      	ldr	r4, [r5, #8]
    98e0:	e7eb      	b.n	98ba <__swsetup_r+0x22>
    98e2:	4b27      	ldr	r3, [pc, #156]	; (9980 <__swsetup_r+0xe8>)
    98e4:	429c      	cmp	r4, r3
    98e6:	d1e8      	bne.n	98ba <__swsetup_r+0x22>
    98e8:	68ec      	ldr	r4, [r5, #12]
    98ea:	e7e6      	b.n	98ba <__swsetup_r+0x22>
    98ec:	075b      	lsls	r3, r3, #29
    98ee:	d513      	bpl.n	9918 <__swsetup_r+0x80>
    98f0:	6b61      	ldr	r1, [r4, #52]	; 0x34
    98f2:	2900      	cmp	r1, #0
    98f4:	d008      	beq.n	9908 <__swsetup_r+0x70>
    98f6:	0023      	movs	r3, r4
    98f8:	3344      	adds	r3, #68	; 0x44
    98fa:	4299      	cmp	r1, r3
    98fc:	d002      	beq.n	9904 <__swsetup_r+0x6c>
    98fe:	0030      	movs	r0, r6
    9900:	f000 fa44 	bl	9d8c <_free_r>
    9904:	2300      	movs	r3, #0
    9906:	6363      	str	r3, [r4, #52]	; 0x34
    9908:	2224      	movs	r2, #36	; 0x24
    990a:	89a3      	ldrh	r3, [r4, #12]
    990c:	4393      	bics	r3, r2
    990e:	81a3      	strh	r3, [r4, #12]
    9910:	2300      	movs	r3, #0
    9912:	6063      	str	r3, [r4, #4]
    9914:	6923      	ldr	r3, [r4, #16]
    9916:	6023      	str	r3, [r4, #0]
    9918:	2308      	movs	r3, #8
    991a:	89a2      	ldrh	r2, [r4, #12]
    991c:	4313      	orrs	r3, r2
    991e:	81a3      	strh	r3, [r4, #12]
    9920:	6923      	ldr	r3, [r4, #16]
    9922:	2b00      	cmp	r3, #0
    9924:	d10b      	bne.n	993e <__swsetup_r+0xa6>
    9926:	21a0      	movs	r1, #160	; 0xa0
    9928:	2280      	movs	r2, #128	; 0x80
    992a:	89a3      	ldrh	r3, [r4, #12]
    992c:	0089      	lsls	r1, r1, #2
    992e:	0092      	lsls	r2, r2, #2
    9930:	400b      	ands	r3, r1
    9932:	4293      	cmp	r3, r2
    9934:	d003      	beq.n	993e <__swsetup_r+0xa6>
    9936:	0021      	movs	r1, r4
    9938:	0030      	movs	r0, r6
    993a:	f000 f9d9 	bl	9cf0 <__smakebuf_r>
    993e:	2301      	movs	r3, #1
    9940:	89a2      	ldrh	r2, [r4, #12]
    9942:	4013      	ands	r3, r2
    9944:	d011      	beq.n	996a <__swsetup_r+0xd2>
    9946:	2300      	movs	r3, #0
    9948:	60a3      	str	r3, [r4, #8]
    994a:	6963      	ldr	r3, [r4, #20]
    994c:	425b      	negs	r3, r3
    994e:	61a3      	str	r3, [r4, #24]
    9950:	2000      	movs	r0, #0
    9952:	6923      	ldr	r3, [r4, #16]
    9954:	4283      	cmp	r3, r0
    9956:	d1be      	bne.n	98d6 <__swsetup_r+0x3e>
    9958:	230c      	movs	r3, #12
    995a:	5ee2      	ldrsh	r2, [r4, r3]
    995c:	0613      	lsls	r3, r2, #24
    995e:	d5ba      	bpl.n	98d6 <__swsetup_r+0x3e>
    9960:	2340      	movs	r3, #64	; 0x40
    9962:	4313      	orrs	r3, r2
    9964:	81a3      	strh	r3, [r4, #12]
    9966:	3801      	subs	r0, #1
    9968:	e7b5      	b.n	98d6 <__swsetup_r+0x3e>
    996a:	0792      	lsls	r2, r2, #30
    996c:	d400      	bmi.n	9970 <__swsetup_r+0xd8>
    996e:	6963      	ldr	r3, [r4, #20]
    9970:	60a3      	str	r3, [r4, #8]
    9972:	e7ed      	b.n	9950 <__swsetup_r+0xb8>
    9974:	200000dc 	.word	0x200000dc
    9978:	0000ed1c 	.word	0x0000ed1c
    997c:	0000ed3c 	.word	0x0000ed3c
    9980:	0000ecfc 	.word	0x0000ecfc

00009984 <__sflush_r>:
    9984:	b5f7      	push	{r0, r1, r2, r4, r5, r6, r7, lr}
    9986:	898a      	ldrh	r2, [r1, #12]
    9988:	0005      	movs	r5, r0
    998a:	000c      	movs	r4, r1
    998c:	0713      	lsls	r3, r2, #28
    998e:	d460      	bmi.n	9a52 <__sflush_r+0xce>
    9990:	684b      	ldr	r3, [r1, #4]
    9992:	2b00      	cmp	r3, #0
    9994:	dc04      	bgt.n	99a0 <__sflush_r+0x1c>
    9996:	6c0b      	ldr	r3, [r1, #64]	; 0x40
    9998:	2b00      	cmp	r3, #0
    999a:	dc01      	bgt.n	99a0 <__sflush_r+0x1c>
    999c:	2000      	movs	r0, #0
    999e:	bdfe      	pop	{r1, r2, r3, r4, r5, r6, r7, pc}
    99a0:	6ae7      	ldr	r7, [r4, #44]	; 0x2c
    99a2:	2f00      	cmp	r7, #0
    99a4:	d0fa      	beq.n	999c <__sflush_r+0x18>
    99a6:	2300      	movs	r3, #0
    99a8:	682e      	ldr	r6, [r5, #0]
    99aa:	602b      	str	r3, [r5, #0]
    99ac:	2380      	movs	r3, #128	; 0x80
    99ae:	015b      	lsls	r3, r3, #5
    99b0:	401a      	ands	r2, r3
    99b2:	d034      	beq.n	9a1e <__sflush_r+0x9a>
    99b4:	6d60      	ldr	r0, [r4, #84]	; 0x54
    99b6:	89a3      	ldrh	r3, [r4, #12]
    99b8:	075b      	lsls	r3, r3, #29
    99ba:	d506      	bpl.n	99ca <__sflush_r+0x46>
    99bc:	6863      	ldr	r3, [r4, #4]
    99be:	1ac0      	subs	r0, r0, r3
    99c0:	6b63      	ldr	r3, [r4, #52]	; 0x34
    99c2:	2b00      	cmp	r3, #0
    99c4:	d001      	beq.n	99ca <__sflush_r+0x46>
    99c6:	6c23      	ldr	r3, [r4, #64]	; 0x40
    99c8:	1ac0      	subs	r0, r0, r3
    99ca:	0002      	movs	r2, r0
    99cc:	6a21      	ldr	r1, [r4, #32]
    99ce:	2300      	movs	r3, #0
    99d0:	0028      	movs	r0, r5
    99d2:	6ae7      	ldr	r7, [r4, #44]	; 0x2c
    99d4:	47b8      	blx	r7
    99d6:	89a1      	ldrh	r1, [r4, #12]
    99d8:	1c43      	adds	r3, r0, #1
    99da:	d106      	bne.n	99ea <__sflush_r+0x66>
    99dc:	682b      	ldr	r3, [r5, #0]
    99de:	2b1d      	cmp	r3, #29
    99e0:	d831      	bhi.n	9a46 <__sflush_r+0xc2>
    99e2:	4a2c      	ldr	r2, [pc, #176]	; (9a94 <__sflush_r+0x110>)
    99e4:	40da      	lsrs	r2, r3
    99e6:	07d3      	lsls	r3, r2, #31
    99e8:	d52d      	bpl.n	9a46 <__sflush_r+0xc2>
    99ea:	2300      	movs	r3, #0
    99ec:	6063      	str	r3, [r4, #4]
    99ee:	6923      	ldr	r3, [r4, #16]
    99f0:	6023      	str	r3, [r4, #0]
    99f2:	04cb      	lsls	r3, r1, #19
    99f4:	d505      	bpl.n	9a02 <__sflush_r+0x7e>
    99f6:	1c43      	adds	r3, r0, #1
    99f8:	d102      	bne.n	9a00 <__sflush_r+0x7c>
    99fa:	682b      	ldr	r3, [r5, #0]
    99fc:	2b00      	cmp	r3, #0
    99fe:	d100      	bne.n	9a02 <__sflush_r+0x7e>
    9a00:	6560      	str	r0, [r4, #84]	; 0x54
    9a02:	6b61      	ldr	r1, [r4, #52]	; 0x34
    9a04:	602e      	str	r6, [r5, #0]
    9a06:	2900      	cmp	r1, #0
    9a08:	d0c8      	beq.n	999c <__sflush_r+0x18>
    9a0a:	0023      	movs	r3, r4
    9a0c:	3344      	adds	r3, #68	; 0x44
    9a0e:	4299      	cmp	r1, r3
    9a10:	d002      	beq.n	9a18 <__sflush_r+0x94>
    9a12:	0028      	movs	r0, r5
    9a14:	f000 f9ba 	bl	9d8c <_free_r>
    9a18:	2000      	movs	r0, #0
    9a1a:	6360      	str	r0, [r4, #52]	; 0x34
    9a1c:	e7bf      	b.n	999e <__sflush_r+0x1a>
    9a1e:	2301      	movs	r3, #1
    9a20:	6a21      	ldr	r1, [r4, #32]
    9a22:	0028      	movs	r0, r5
    9a24:	47b8      	blx	r7
    9a26:	1c43      	adds	r3, r0, #1
    9a28:	d1c5      	bne.n	99b6 <__sflush_r+0x32>
    9a2a:	682b      	ldr	r3, [r5, #0]
    9a2c:	2b00      	cmp	r3, #0
    9a2e:	d0c2      	beq.n	99b6 <__sflush_r+0x32>
    9a30:	2b1d      	cmp	r3, #29
    9a32:	d001      	beq.n	9a38 <__sflush_r+0xb4>
    9a34:	2b16      	cmp	r3, #22
    9a36:	d101      	bne.n	9a3c <__sflush_r+0xb8>
    9a38:	602e      	str	r6, [r5, #0]
    9a3a:	e7af      	b.n	999c <__sflush_r+0x18>
    9a3c:	2340      	movs	r3, #64	; 0x40
    9a3e:	89a2      	ldrh	r2, [r4, #12]
    9a40:	4313      	orrs	r3, r2
    9a42:	81a3      	strh	r3, [r4, #12]
    9a44:	e7ab      	b.n	999e <__sflush_r+0x1a>
    9a46:	2340      	movs	r3, #64	; 0x40
    9a48:	430b      	orrs	r3, r1
    9a4a:	2001      	movs	r0, #1
    9a4c:	81a3      	strh	r3, [r4, #12]
    9a4e:	4240      	negs	r0, r0
    9a50:	e7a5      	b.n	999e <__sflush_r+0x1a>
    9a52:	690f      	ldr	r7, [r1, #16]
    9a54:	2f00      	cmp	r7, #0
    9a56:	d0a1      	beq.n	999c <__sflush_r+0x18>
    9a58:	680b      	ldr	r3, [r1, #0]
    9a5a:	600f      	str	r7, [r1, #0]
    9a5c:	1bdb      	subs	r3, r3, r7
    9a5e:	9301      	str	r3, [sp, #4]
    9a60:	2300      	movs	r3, #0
    9a62:	0792      	lsls	r2, r2, #30
    9a64:	d100      	bne.n	9a68 <__sflush_r+0xe4>
    9a66:	694b      	ldr	r3, [r1, #20]
    9a68:	60a3      	str	r3, [r4, #8]
    9a6a:	9b01      	ldr	r3, [sp, #4]
    9a6c:	2b00      	cmp	r3, #0
    9a6e:	dc00      	bgt.n	9a72 <__sflush_r+0xee>
    9a70:	e794      	b.n	999c <__sflush_r+0x18>
    9a72:	9b01      	ldr	r3, [sp, #4]
    9a74:	003a      	movs	r2, r7
    9a76:	6a21      	ldr	r1, [r4, #32]
    9a78:	0028      	movs	r0, r5
    9a7a:	6aa6      	ldr	r6, [r4, #40]	; 0x28
    9a7c:	47b0      	blx	r6
    9a7e:	2800      	cmp	r0, #0
    9a80:	dc03      	bgt.n	9a8a <__sflush_r+0x106>
    9a82:	2340      	movs	r3, #64	; 0x40
    9a84:	89a2      	ldrh	r2, [r4, #12]
    9a86:	4313      	orrs	r3, r2
    9a88:	e7df      	b.n	9a4a <__sflush_r+0xc6>
    9a8a:	9b01      	ldr	r3, [sp, #4]
    9a8c:	183f      	adds	r7, r7, r0
    9a8e:	1a1b      	subs	r3, r3, r0
    9a90:	9301      	str	r3, [sp, #4]
    9a92:	e7ea      	b.n	9a6a <__sflush_r+0xe6>
    9a94:	20400001 	.word	0x20400001

00009a98 <_fflush_r>:
    9a98:	690b      	ldr	r3, [r1, #16]
    9a9a:	b570      	push	{r4, r5, r6, lr}
    9a9c:	0005      	movs	r5, r0
    9a9e:	000c      	movs	r4, r1
    9aa0:	2b00      	cmp	r3, #0
    9aa2:	d101      	bne.n	9aa8 <_fflush_r+0x10>
    9aa4:	2000      	movs	r0, #0
    9aa6:	bd70      	pop	{r4, r5, r6, pc}
    9aa8:	2800      	cmp	r0, #0
    9aaa:	d004      	beq.n	9ab6 <_fflush_r+0x1e>
    9aac:	6983      	ldr	r3, [r0, #24]
    9aae:	2b00      	cmp	r3, #0
    9ab0:	d101      	bne.n	9ab6 <_fflush_r+0x1e>
    9ab2:	f000 f85f 	bl	9b74 <__sinit>
    9ab6:	4b0b      	ldr	r3, [pc, #44]	; (9ae4 <_fflush_r+0x4c>)
    9ab8:	429c      	cmp	r4, r3
    9aba:	d109      	bne.n	9ad0 <_fflush_r+0x38>
    9abc:	686c      	ldr	r4, [r5, #4]
    9abe:	220c      	movs	r2, #12
    9ac0:	5ea3      	ldrsh	r3, [r4, r2]
    9ac2:	2b00      	cmp	r3, #0
    9ac4:	d0ee      	beq.n	9aa4 <_fflush_r+0xc>
    9ac6:	0021      	movs	r1, r4
    9ac8:	0028      	movs	r0, r5
    9aca:	f7ff ff5b 	bl	9984 <__sflush_r>
    9ace:	e7ea      	b.n	9aa6 <_fflush_r+0xe>
    9ad0:	4b05      	ldr	r3, [pc, #20]	; (9ae8 <_fflush_r+0x50>)
    9ad2:	429c      	cmp	r4, r3
    9ad4:	d101      	bne.n	9ada <_fflush_r+0x42>
    9ad6:	68ac      	ldr	r4, [r5, #8]
    9ad8:	e7f1      	b.n	9abe <_fflush_r+0x26>
    9ada:	4b04      	ldr	r3, [pc, #16]	; (9aec <_fflush_r+0x54>)
    9adc:	429c      	cmp	r4, r3
    9ade:	d1ee      	bne.n	9abe <_fflush_r+0x26>
    9ae0:	68ec      	ldr	r4, [r5, #12]
    9ae2:	e7ec      	b.n	9abe <_fflush_r+0x26>
    9ae4:	0000ed1c 	.word	0x0000ed1c
    9ae8:	0000ed3c 	.word	0x0000ed3c
    9aec:	0000ecfc 	.word	0x0000ecfc

00009af0 <_cleanup_r>:
    9af0:	b510      	push	{r4, lr}
    9af2:	4902      	ldr	r1, [pc, #8]	; (9afc <_cleanup_r+0xc>)
    9af4:	f000 f8b2 	bl	9c5c <_fwalk_reent>
    9af8:	bd10      	pop	{r4, pc}
    9afa:	46c0      	nop			; (mov r8, r8)
    9afc:	00009a99 	.word	0x00009a99

00009b00 <std.isra.0>:
    9b00:	2300      	movs	r3, #0
    9b02:	b510      	push	{r4, lr}
    9b04:	0004      	movs	r4, r0
    9b06:	6003      	str	r3, [r0, #0]
    9b08:	6043      	str	r3, [r0, #4]
    9b0a:	6083      	str	r3, [r0, #8]
    9b0c:	8181      	strh	r1, [r0, #12]
    9b0e:	6643      	str	r3, [r0, #100]	; 0x64
    9b10:	81c2      	strh	r2, [r0, #14]
    9b12:	6103      	str	r3, [r0, #16]
    9b14:	6143      	str	r3, [r0, #20]
    9b16:	6183      	str	r3, [r0, #24]
    9b18:	0019      	movs	r1, r3
    9b1a:	2208      	movs	r2, #8
    9b1c:	305c      	adds	r0, #92	; 0x5c
    9b1e:	f7ff fce9 	bl	94f4 <memset>
    9b22:	4b05      	ldr	r3, [pc, #20]	; (9b38 <std.isra.0+0x38>)
    9b24:	6224      	str	r4, [r4, #32]
    9b26:	6263      	str	r3, [r4, #36]	; 0x24
    9b28:	4b04      	ldr	r3, [pc, #16]	; (9b3c <std.isra.0+0x3c>)
    9b2a:	62a3      	str	r3, [r4, #40]	; 0x28
    9b2c:	4b04      	ldr	r3, [pc, #16]	; (9b40 <std.isra.0+0x40>)
    9b2e:	62e3      	str	r3, [r4, #44]	; 0x2c
    9b30:	4b04      	ldr	r3, [pc, #16]	; (9b44 <std.isra.0+0x44>)
    9b32:	6323      	str	r3, [r4, #48]	; 0x30
    9b34:	bd10      	pop	{r4, pc}
    9b36:	46c0      	nop			; (mov r8, r8)
    9b38:	0000a765 	.word	0x0000a765
    9b3c:	0000a78d 	.word	0x0000a78d
    9b40:	0000a7c5 	.word	0x0000a7c5
    9b44:	0000a7f1 	.word	0x0000a7f1

00009b48 <__sfmoreglue>:
    9b48:	b570      	push	{r4, r5, r6, lr}
    9b4a:	2568      	movs	r5, #104	; 0x68
    9b4c:	1e4a      	subs	r2, r1, #1
    9b4e:	4355      	muls	r5, r2
    9b50:	000e      	movs	r6, r1
    9b52:	0029      	movs	r1, r5
    9b54:	3174      	adds	r1, #116	; 0x74
    9b56:	f000 f963 	bl	9e20 <_malloc_r>
    9b5a:	1e04      	subs	r4, r0, #0
    9b5c:	d008      	beq.n	9b70 <__sfmoreglue+0x28>
    9b5e:	2100      	movs	r1, #0
    9b60:	002a      	movs	r2, r5
    9b62:	6001      	str	r1, [r0, #0]
    9b64:	6046      	str	r6, [r0, #4]
    9b66:	300c      	adds	r0, #12
    9b68:	60a0      	str	r0, [r4, #8]
    9b6a:	3268      	adds	r2, #104	; 0x68
    9b6c:	f7ff fcc2 	bl	94f4 <memset>
    9b70:	0020      	movs	r0, r4
    9b72:	bd70      	pop	{r4, r5, r6, pc}

00009b74 <__sinit>:
    9b74:	6983      	ldr	r3, [r0, #24]
    9b76:	b513      	push	{r0, r1, r4, lr}
    9b78:	0004      	movs	r4, r0
    9b7a:	2b00      	cmp	r3, #0
    9b7c:	d128      	bne.n	9bd0 <__sinit+0x5c>
    9b7e:	6483      	str	r3, [r0, #72]	; 0x48
    9b80:	64c3      	str	r3, [r0, #76]	; 0x4c
    9b82:	6503      	str	r3, [r0, #80]	; 0x50
    9b84:	4b13      	ldr	r3, [pc, #76]	; (9bd4 <__sinit+0x60>)
    9b86:	4a14      	ldr	r2, [pc, #80]	; (9bd8 <__sinit+0x64>)
    9b88:	681b      	ldr	r3, [r3, #0]
    9b8a:	6282      	str	r2, [r0, #40]	; 0x28
    9b8c:	9301      	str	r3, [sp, #4]
    9b8e:	4298      	cmp	r0, r3
    9b90:	d101      	bne.n	9b96 <__sinit+0x22>
    9b92:	2301      	movs	r3, #1
    9b94:	6183      	str	r3, [r0, #24]
    9b96:	0020      	movs	r0, r4
    9b98:	f000 f820 	bl	9bdc <__sfp>
    9b9c:	6060      	str	r0, [r4, #4]
    9b9e:	0020      	movs	r0, r4
    9ba0:	f000 f81c 	bl	9bdc <__sfp>
    9ba4:	60a0      	str	r0, [r4, #8]
    9ba6:	0020      	movs	r0, r4
    9ba8:	f000 f818 	bl	9bdc <__sfp>
    9bac:	2200      	movs	r2, #0
    9bae:	60e0      	str	r0, [r4, #12]
    9bb0:	2104      	movs	r1, #4
    9bb2:	6860      	ldr	r0, [r4, #4]
    9bb4:	f7ff ffa4 	bl	9b00 <std.isra.0>
    9bb8:	2201      	movs	r2, #1
    9bba:	2109      	movs	r1, #9
    9bbc:	68a0      	ldr	r0, [r4, #8]
    9bbe:	f7ff ff9f 	bl	9b00 <std.isra.0>
    9bc2:	2202      	movs	r2, #2
    9bc4:	2112      	movs	r1, #18
    9bc6:	68e0      	ldr	r0, [r4, #12]
    9bc8:	f7ff ff9a 	bl	9b00 <std.isra.0>
    9bcc:	2301      	movs	r3, #1
    9bce:	61a3      	str	r3, [r4, #24]
    9bd0:	bd13      	pop	{r0, r1, r4, pc}
    9bd2:	46c0      	nop			; (mov r8, r8)
    9bd4:	0000ecf8 	.word	0x0000ecf8
    9bd8:	00009af1 	.word	0x00009af1

00009bdc <__sfp>:
    9bdc:	b5f8      	push	{r3, r4, r5, r6, r7, lr}
    9bde:	4b1e      	ldr	r3, [pc, #120]	; (9c58 <__sfp+0x7c>)
    9be0:	0007      	movs	r7, r0
    9be2:	681e      	ldr	r6, [r3, #0]
    9be4:	69b3      	ldr	r3, [r6, #24]
    9be6:	2b00      	cmp	r3, #0
    9be8:	d102      	bne.n	9bf0 <__sfp+0x14>
    9bea:	0030      	movs	r0, r6
    9bec:	f7ff ffc2 	bl	9b74 <__sinit>
    9bf0:	3648      	adds	r6, #72	; 0x48
    9bf2:	68b4      	ldr	r4, [r6, #8]
    9bf4:	6873      	ldr	r3, [r6, #4]
    9bf6:	3b01      	subs	r3, #1
    9bf8:	d504      	bpl.n	9c04 <__sfp+0x28>
    9bfa:	6833      	ldr	r3, [r6, #0]
    9bfc:	2b00      	cmp	r3, #0
    9bfe:	d007      	beq.n	9c10 <__sfp+0x34>
    9c00:	6836      	ldr	r6, [r6, #0]
    9c02:	e7f6      	b.n	9bf2 <__sfp+0x16>
    9c04:	220c      	movs	r2, #12
    9c06:	5ea5      	ldrsh	r5, [r4, r2]
    9c08:	2d00      	cmp	r5, #0
    9c0a:	d00d      	beq.n	9c28 <__sfp+0x4c>
    9c0c:	3468      	adds	r4, #104	; 0x68
    9c0e:	e7f2      	b.n	9bf6 <__sfp+0x1a>
    9c10:	2104      	movs	r1, #4
    9c12:	0038      	movs	r0, r7
    9c14:	f7ff ff98 	bl	9b48 <__sfmoreglue>
    9c18:	6030      	str	r0, [r6, #0]
    9c1a:	2800      	cmp	r0, #0
    9c1c:	d1f0      	bne.n	9c00 <__sfp+0x24>
    9c1e:	230c      	movs	r3, #12
    9c20:	0004      	movs	r4, r0
    9c22:	603b      	str	r3, [r7, #0]
    9c24:	0020      	movs	r0, r4
    9c26:	bdf8      	pop	{r3, r4, r5, r6, r7, pc}
    9c28:	2301      	movs	r3, #1
    9c2a:	0020      	movs	r0, r4
    9c2c:	425b      	negs	r3, r3
    9c2e:	81e3      	strh	r3, [r4, #14]
    9c30:	3302      	adds	r3, #2
    9c32:	81a3      	strh	r3, [r4, #12]
    9c34:	6665      	str	r5, [r4, #100]	; 0x64
    9c36:	6025      	str	r5, [r4, #0]
    9c38:	60a5      	str	r5, [r4, #8]
    9c3a:	6065      	str	r5, [r4, #4]
    9c3c:	6125      	str	r5, [r4, #16]
    9c3e:	6165      	str	r5, [r4, #20]
    9c40:	61a5      	str	r5, [r4, #24]
    9c42:	2208      	movs	r2, #8
    9c44:	0029      	movs	r1, r5
    9c46:	305c      	adds	r0, #92	; 0x5c
    9c48:	f7ff fc54 	bl	94f4 <memset>
    9c4c:	6365      	str	r5, [r4, #52]	; 0x34
    9c4e:	63a5      	str	r5, [r4, #56]	; 0x38
    9c50:	64a5      	str	r5, [r4, #72]	; 0x48
    9c52:	64e5      	str	r5, [r4, #76]	; 0x4c
    9c54:	e7e6      	b.n	9c24 <__sfp+0x48>
    9c56:	46c0      	nop			; (mov r8, r8)
    9c58:	0000ecf8 	.word	0x0000ecf8

00009c5c <_fwalk_reent>:
    9c5c:	b5f7      	push	{r0, r1, r2, r4, r5, r6, r7, lr}
    9c5e:	0004      	movs	r4, r0
    9c60:	0007      	movs	r7, r0
    9c62:	2600      	movs	r6, #0
    9c64:	9101      	str	r1, [sp, #4]
    9c66:	3448      	adds	r4, #72	; 0x48
    9c68:	2c00      	cmp	r4, #0
    9c6a:	d101      	bne.n	9c70 <_fwalk_reent+0x14>
    9c6c:	0030      	movs	r0, r6
    9c6e:	bdfe      	pop	{r1, r2, r3, r4, r5, r6, r7, pc}
    9c70:	6863      	ldr	r3, [r4, #4]
    9c72:	68a5      	ldr	r5, [r4, #8]
    9c74:	9300      	str	r3, [sp, #0]
    9c76:	9b00      	ldr	r3, [sp, #0]
    9c78:	3b01      	subs	r3, #1
    9c7a:	9300      	str	r3, [sp, #0]
    9c7c:	d501      	bpl.n	9c82 <_fwalk_reent+0x26>
    9c7e:	6824      	ldr	r4, [r4, #0]
    9c80:	e7f2      	b.n	9c68 <_fwalk_reent+0xc>
    9c82:	89ab      	ldrh	r3, [r5, #12]
    9c84:	2b01      	cmp	r3, #1
    9c86:	d908      	bls.n	9c9a <_fwalk_reent+0x3e>
    9c88:	220e      	movs	r2, #14
    9c8a:	5eab      	ldrsh	r3, [r5, r2]
    9c8c:	3301      	adds	r3, #1
    9c8e:	d004      	beq.n	9c9a <_fwalk_reent+0x3e>
    9c90:	0029      	movs	r1, r5
    9c92:	0038      	movs	r0, r7
    9c94:	9b01      	ldr	r3, [sp, #4]
    9c96:	4798      	blx	r3
    9c98:	4306      	orrs	r6, r0
    9c9a:	3568      	adds	r5, #104	; 0x68
    9c9c:	e7eb      	b.n	9c76 <_fwalk_reent+0x1a>
	...

00009ca0 <__swhatbuf_r>:
    9ca0:	b570      	push	{r4, r5, r6, lr}
    9ca2:	000e      	movs	r6, r1
    9ca4:	001d      	movs	r5, r3
    9ca6:	230e      	movs	r3, #14
    9ca8:	5ec9      	ldrsh	r1, [r1, r3]
    9caa:	b090      	sub	sp, #64	; 0x40
    9cac:	0014      	movs	r4, r2
    9cae:	2900      	cmp	r1, #0
    9cb0:	da07      	bge.n	9cc2 <__swhatbuf_r+0x22>
    9cb2:	2300      	movs	r3, #0
    9cb4:	602b      	str	r3, [r5, #0]
    9cb6:	89b3      	ldrh	r3, [r6, #12]
    9cb8:	061b      	lsls	r3, r3, #24
    9cba:	d411      	bmi.n	9ce0 <__swhatbuf_r+0x40>
    9cbc:	2380      	movs	r3, #128	; 0x80
    9cbe:	00db      	lsls	r3, r3, #3
    9cc0:	e00f      	b.n	9ce2 <__swhatbuf_r+0x42>
    9cc2:	aa01      	add	r2, sp, #4
    9cc4:	f000 fdc0 	bl	a848 <_fstat_r>
    9cc8:	2800      	cmp	r0, #0
    9cca:	dbf2      	blt.n	9cb2 <__swhatbuf_r+0x12>
    9ccc:	22f0      	movs	r2, #240	; 0xf0
    9cce:	9b02      	ldr	r3, [sp, #8]
    9cd0:	0212      	lsls	r2, r2, #8
    9cd2:	4013      	ands	r3, r2
    9cd4:	4a05      	ldr	r2, [pc, #20]	; (9cec <__swhatbuf_r+0x4c>)
    9cd6:	189b      	adds	r3, r3, r2
    9cd8:	425a      	negs	r2, r3
    9cda:	4153      	adcs	r3, r2
    9cdc:	602b      	str	r3, [r5, #0]
    9cde:	e7ed      	b.n	9cbc <__swhatbuf_r+0x1c>
    9ce0:	2340      	movs	r3, #64	; 0x40
    9ce2:	2000      	movs	r0, #0
    9ce4:	6023      	str	r3, [r4, #0]
    9ce6:	b010      	add	sp, #64	; 0x40
    9ce8:	bd70      	pop	{r4, r5, r6, pc}
    9cea:	46c0      	nop			; (mov r8, r8)
    9cec:	ffffe000 	.word	0xffffe000

00009cf0 <__smakebuf_r>:
    9cf0:	b5f7      	push	{r0, r1, r2, r4, r5, r6, r7, lr}
    9cf2:	2602      	movs	r6, #2
    9cf4:	898b      	ldrh	r3, [r1, #12]
    9cf6:	0005      	movs	r5, r0
    9cf8:	000c      	movs	r4, r1
    9cfa:	4233      	tst	r3, r6
    9cfc:	d006      	beq.n	9d0c <__smakebuf_r+0x1c>
    9cfe:	0023      	movs	r3, r4
    9d00:	3347      	adds	r3, #71	; 0x47
    9d02:	6023      	str	r3, [r4, #0]
    9d04:	6123      	str	r3, [r4, #16]
    9d06:	2301      	movs	r3, #1
    9d08:	6163      	str	r3, [r4, #20]
    9d0a:	bdf7      	pop	{r0, r1, r2, r4, r5, r6, r7, pc}
    9d0c:	ab01      	add	r3, sp, #4
    9d0e:	466a      	mov	r2, sp
    9d10:	f7ff ffc6 	bl	9ca0 <__swhatbuf_r>
    9d14:	9900      	ldr	r1, [sp, #0]
    9d16:	0007      	movs	r7, r0
    9d18:	0028      	movs	r0, r5
    9d1a:	f000 f881 	bl	9e20 <_malloc_r>
    9d1e:	2800      	cmp	r0, #0
    9d20:	d108      	bne.n	9d34 <__smakebuf_r+0x44>
    9d22:	220c      	movs	r2, #12
    9d24:	5ea3      	ldrsh	r3, [r4, r2]
    9d26:	059a      	lsls	r2, r3, #22
    9d28:	d4ef      	bmi.n	9d0a <__smakebuf_r+0x1a>
    9d2a:	2203      	movs	r2, #3
    9d2c:	4393      	bics	r3, r2
    9d2e:	431e      	orrs	r6, r3
    9d30:	81a6      	strh	r6, [r4, #12]
    9d32:	e7e4      	b.n	9cfe <__smakebuf_r+0xe>
    9d34:	4b0f      	ldr	r3, [pc, #60]	; (9d74 <__smakebuf_r+0x84>)
    9d36:	62ab      	str	r3, [r5, #40]	; 0x28
    9d38:	2380      	movs	r3, #128	; 0x80
    9d3a:	89a2      	ldrh	r2, [r4, #12]
    9d3c:	6020      	str	r0, [r4, #0]
    9d3e:	4313      	orrs	r3, r2
    9d40:	81a3      	strh	r3, [r4, #12]
    9d42:	9b00      	ldr	r3, [sp, #0]
    9d44:	6120      	str	r0, [r4, #16]
    9d46:	6163      	str	r3, [r4, #20]
    9d48:	9b01      	ldr	r3, [sp, #4]
    9d4a:	2b00      	cmp	r3, #0
    9d4c:	d00d      	beq.n	9d6a <__smakebuf_r+0x7a>
    9d4e:	230e      	movs	r3, #14
    9d50:	5ee1      	ldrsh	r1, [r4, r3]
    9d52:	0028      	movs	r0, r5
    9d54:	f000 fd8a 	bl	a86c <_isatty_r>
    9d58:	2800      	cmp	r0, #0
    9d5a:	d006      	beq.n	9d6a <__smakebuf_r+0x7a>
    9d5c:	2203      	movs	r2, #3
    9d5e:	89a3      	ldrh	r3, [r4, #12]
    9d60:	4393      	bics	r3, r2
    9d62:	001a      	movs	r2, r3
    9d64:	2301      	movs	r3, #1
    9d66:	4313      	orrs	r3, r2
    9d68:	81a3      	strh	r3, [r4, #12]
    9d6a:	89a0      	ldrh	r0, [r4, #12]
    9d6c:	4338      	orrs	r0, r7
    9d6e:	81a0      	strh	r0, [r4, #12]
    9d70:	e7cb      	b.n	9d0a <__smakebuf_r+0x1a>
    9d72:	46c0      	nop			; (mov r8, r8)
    9d74:	00009af1 	.word	0x00009af1

00009d78 <malloc>:
    9d78:	b510      	push	{r4, lr}
    9d7a:	4b03      	ldr	r3, [pc, #12]	; (9d88 <malloc+0x10>)
    9d7c:	0001      	movs	r1, r0
    9d7e:	6818      	ldr	r0, [r3, #0]
    9d80:	f000 f84e 	bl	9e20 <_malloc_r>
    9d84:	bd10      	pop	{r4, pc}
    9d86:	46c0      	nop			; (mov r8, r8)
    9d88:	200000dc 	.word	0x200000dc

00009d8c <_free_r>:
    9d8c:	b570      	push	{r4, r5, r6, lr}
    9d8e:	0005      	movs	r5, r0
    9d90:	2900      	cmp	r1, #0
    9d92:	d010      	beq.n	9db6 <_free_r+0x2a>
    9d94:	1f0c      	subs	r4, r1, #4
    9d96:	6823      	ldr	r3, [r4, #0]
    9d98:	2b00      	cmp	r3, #0
    9d9a:	da00      	bge.n	9d9e <_free_r+0x12>
    9d9c:	18e4      	adds	r4, r4, r3
    9d9e:	0028      	movs	r0, r5
    9da0:	f000 fda7 	bl	a8f2 <__malloc_lock>
    9da4:	4a1d      	ldr	r2, [pc, #116]	; (9e1c <_free_r+0x90>)
    9da6:	6813      	ldr	r3, [r2, #0]
    9da8:	2b00      	cmp	r3, #0
    9daa:	d105      	bne.n	9db8 <_free_r+0x2c>
    9dac:	6063      	str	r3, [r4, #4]
    9dae:	6014      	str	r4, [r2, #0]
    9db0:	0028      	movs	r0, r5
    9db2:	f000 fd9f 	bl	a8f4 <__malloc_unlock>
    9db6:	bd70      	pop	{r4, r5, r6, pc}
    9db8:	42a3      	cmp	r3, r4
    9dba:	d909      	bls.n	9dd0 <_free_r+0x44>
    9dbc:	6821      	ldr	r1, [r4, #0]
    9dbe:	1860      	adds	r0, r4, r1
    9dc0:	4283      	cmp	r3, r0
    9dc2:	d1f3      	bne.n	9dac <_free_r+0x20>
    9dc4:	6818      	ldr	r0, [r3, #0]
    9dc6:	685b      	ldr	r3, [r3, #4]
    9dc8:	1841      	adds	r1, r0, r1
    9dca:	6021      	str	r1, [r4, #0]
    9dcc:	e7ee      	b.n	9dac <_free_r+0x20>
    9dce:	0013      	movs	r3, r2
    9dd0:	685a      	ldr	r2, [r3, #4]
    9dd2:	2a00      	cmp	r2, #0
    9dd4:	d001      	beq.n	9dda <_free_r+0x4e>
    9dd6:	42a2      	cmp	r2, r4
    9dd8:	d9f9      	bls.n	9dce <_free_r+0x42>
    9dda:	6819      	ldr	r1, [r3, #0]
    9ddc:	1858      	adds	r0, r3, r1
    9dde:	42a0      	cmp	r0, r4
    9de0:	d10b      	bne.n	9dfa <_free_r+0x6e>
    9de2:	6820      	ldr	r0, [r4, #0]
    9de4:	1809      	adds	r1, r1, r0
    9de6:	1858      	adds	r0, r3, r1
    9de8:	6019      	str	r1, [r3, #0]
    9dea:	4282      	cmp	r2, r0
    9dec:	d1e0      	bne.n	9db0 <_free_r+0x24>
    9dee:	6810      	ldr	r0, [r2, #0]
    9df0:	6852      	ldr	r2, [r2, #4]
    9df2:	1841      	adds	r1, r0, r1
    9df4:	6019      	str	r1, [r3, #0]
    9df6:	605a      	str	r2, [r3, #4]
    9df8:	e7da      	b.n	9db0 <_free_r+0x24>
    9dfa:	42a0      	cmp	r0, r4
    9dfc:	d902      	bls.n	9e04 <_free_r+0x78>
    9dfe:	230c      	movs	r3, #12
    9e00:	602b      	str	r3, [r5, #0]
    9e02:	e7d5      	b.n	9db0 <_free_r+0x24>
    9e04:	6821      	ldr	r1, [r4, #0]
    9e06:	1860      	adds	r0, r4, r1
    9e08:	4282      	cmp	r2, r0
    9e0a:	d103      	bne.n	9e14 <_free_r+0x88>
    9e0c:	6810      	ldr	r0, [r2, #0]
    9e0e:	6852      	ldr	r2, [r2, #4]
    9e10:	1841      	adds	r1, r0, r1
    9e12:	6021      	str	r1, [r4, #0]
    9e14:	6062      	str	r2, [r4, #4]
    9e16:	605c      	str	r4, [r3, #4]
    9e18:	e7ca      	b.n	9db0 <_free_r+0x24>
    9e1a:	46c0      	nop			; (mov r8, r8)
    9e1c:	200008f8 	.word	0x200008f8

00009e20 <_malloc_r>:
    9e20:	2303      	movs	r3, #3
    9e22:	b570      	push	{r4, r5, r6, lr}
    9e24:	1ccd      	adds	r5, r1, #3
    9e26:	439d      	bics	r5, r3
    9e28:	3508      	adds	r5, #8
    9e2a:	0006      	movs	r6, r0
    9e2c:	2d0c      	cmp	r5, #12
    9e2e:	d21e      	bcs.n	9e6e <_malloc_r+0x4e>
    9e30:	250c      	movs	r5, #12
    9e32:	42a9      	cmp	r1, r5
    9e34:	d81d      	bhi.n	9e72 <_malloc_r+0x52>
    9e36:	0030      	movs	r0, r6
    9e38:	f000 fd5b 	bl	a8f2 <__malloc_lock>
    9e3c:	4a25      	ldr	r2, [pc, #148]	; (9ed4 <_malloc_r+0xb4>)
    9e3e:	6814      	ldr	r4, [r2, #0]
    9e40:	0021      	movs	r1, r4
    9e42:	2900      	cmp	r1, #0
    9e44:	d119      	bne.n	9e7a <_malloc_r+0x5a>
    9e46:	4c24      	ldr	r4, [pc, #144]	; (9ed8 <_malloc_r+0xb8>)
    9e48:	6823      	ldr	r3, [r4, #0]
    9e4a:	2b00      	cmp	r3, #0
    9e4c:	d103      	bne.n	9e56 <_malloc_r+0x36>
    9e4e:	0030      	movs	r0, r6
    9e50:	f000 fc76 	bl	a740 <_sbrk_r>
    9e54:	6020      	str	r0, [r4, #0]
    9e56:	0029      	movs	r1, r5
    9e58:	0030      	movs	r0, r6
    9e5a:	f000 fc71 	bl	a740 <_sbrk_r>
    9e5e:	1c43      	adds	r3, r0, #1
    9e60:	d12c      	bne.n	9ebc <_malloc_r+0x9c>
    9e62:	230c      	movs	r3, #12
    9e64:	0030      	movs	r0, r6
    9e66:	6033      	str	r3, [r6, #0]
    9e68:	f000 fd44 	bl	a8f4 <__malloc_unlock>
    9e6c:	e003      	b.n	9e76 <_malloc_r+0x56>
    9e6e:	2d00      	cmp	r5, #0
    9e70:	dadf      	bge.n	9e32 <_malloc_r+0x12>
    9e72:	230c      	movs	r3, #12
    9e74:	6033      	str	r3, [r6, #0]
    9e76:	2000      	movs	r0, #0
    9e78:	bd70      	pop	{r4, r5, r6, pc}
    9e7a:	680b      	ldr	r3, [r1, #0]
    9e7c:	1b5b      	subs	r3, r3, r5
    9e7e:	d41a      	bmi.n	9eb6 <_malloc_r+0x96>
    9e80:	2b0b      	cmp	r3, #11
    9e82:	d903      	bls.n	9e8c <_malloc_r+0x6c>
    9e84:	600b      	str	r3, [r1, #0]
    9e86:	18cc      	adds	r4, r1, r3
    9e88:	6025      	str	r5, [r4, #0]
    9e8a:	e003      	b.n	9e94 <_malloc_r+0x74>
    9e8c:	428c      	cmp	r4, r1
    9e8e:	d10e      	bne.n	9eae <_malloc_r+0x8e>
    9e90:	6863      	ldr	r3, [r4, #4]
    9e92:	6013      	str	r3, [r2, #0]
    9e94:	0030      	movs	r0, r6
    9e96:	f000 fd2d 	bl	a8f4 <__malloc_unlock>
    9e9a:	0020      	movs	r0, r4
    9e9c:	2207      	movs	r2, #7
    9e9e:	300b      	adds	r0, #11
    9ea0:	1d23      	adds	r3, r4, #4
    9ea2:	4390      	bics	r0, r2
    9ea4:	1ac3      	subs	r3, r0, r3
    9ea6:	d0e7      	beq.n	9e78 <_malloc_r+0x58>
    9ea8:	425a      	negs	r2, r3
    9eaa:	50e2      	str	r2, [r4, r3]
    9eac:	e7e4      	b.n	9e78 <_malloc_r+0x58>
    9eae:	684b      	ldr	r3, [r1, #4]
    9eb0:	6063      	str	r3, [r4, #4]
    9eb2:	000c      	movs	r4, r1
    9eb4:	e7ee      	b.n	9e94 <_malloc_r+0x74>
    9eb6:	000c      	movs	r4, r1
    9eb8:	6849      	ldr	r1, [r1, #4]
    9eba:	e7c2      	b.n	9e42 <_malloc_r+0x22>
    9ebc:	2303      	movs	r3, #3
    9ebe:	1cc4      	adds	r4, r0, #3
    9ec0:	439c      	bics	r4, r3
    9ec2:	42a0      	cmp	r0, r4
    9ec4:	d0e0      	beq.n	9e88 <_malloc_r+0x68>
    9ec6:	1a21      	subs	r1, r4, r0
    9ec8:	0030      	movs	r0, r6
    9eca:	f000 fc39 	bl	a740 <_sbrk_r>
    9ece:	1c43      	adds	r3, r0, #1
    9ed0:	d1da      	bne.n	9e88 <_malloc_r+0x68>
    9ed2:	e7c6      	b.n	9e62 <_malloc_r+0x42>
    9ed4:	200008f8 	.word	0x200008f8
    9ed8:	200008fc 	.word	0x200008fc

00009edc <__ssputs_r>:
    9edc:	b5f0      	push	{r4, r5, r6, r7, lr}
    9ede:	688e      	ldr	r6, [r1, #8]
    9ee0:	b085      	sub	sp, #20
    9ee2:	0007      	movs	r7, r0
    9ee4:	000c      	movs	r4, r1
    9ee6:	9203      	str	r2, [sp, #12]
    9ee8:	9301      	str	r3, [sp, #4]
    9eea:	429e      	cmp	r6, r3
    9eec:	d839      	bhi.n	9f62 <__ssputs_r+0x86>
    9eee:	2390      	movs	r3, #144	; 0x90
    9ef0:	898a      	ldrh	r2, [r1, #12]
    9ef2:	00db      	lsls	r3, r3, #3
    9ef4:	421a      	tst	r2, r3
    9ef6:	d034      	beq.n	9f62 <__ssputs_r+0x86>
    9ef8:	2503      	movs	r5, #3
    9efa:	6909      	ldr	r1, [r1, #16]
    9efc:	6823      	ldr	r3, [r4, #0]
    9efe:	1a5b      	subs	r3, r3, r1
    9f00:	9302      	str	r3, [sp, #8]
    9f02:	6963      	ldr	r3, [r4, #20]
    9f04:	9802      	ldr	r0, [sp, #8]
    9f06:	435d      	muls	r5, r3
    9f08:	0feb      	lsrs	r3, r5, #31
    9f0a:	195d      	adds	r5, r3, r5
    9f0c:	9b01      	ldr	r3, [sp, #4]
    9f0e:	106d      	asrs	r5, r5, #1
    9f10:	3301      	adds	r3, #1
    9f12:	181b      	adds	r3, r3, r0
    9f14:	42ab      	cmp	r3, r5
    9f16:	d900      	bls.n	9f1a <__ssputs_r+0x3e>
    9f18:	001d      	movs	r5, r3
    9f1a:	0553      	lsls	r3, r2, #21
    9f1c:	d532      	bpl.n	9f84 <__ssputs_r+0xa8>
    9f1e:	0029      	movs	r1, r5
    9f20:	0038      	movs	r0, r7
    9f22:	f7ff ff7d 	bl	9e20 <_malloc_r>
    9f26:	1e06      	subs	r6, r0, #0
    9f28:	d109      	bne.n	9f3e <__ssputs_r+0x62>
    9f2a:	230c      	movs	r3, #12
    9f2c:	603b      	str	r3, [r7, #0]
    9f2e:	2340      	movs	r3, #64	; 0x40
    9f30:	2001      	movs	r0, #1
    9f32:	89a2      	ldrh	r2, [r4, #12]
    9f34:	4240      	negs	r0, r0
    9f36:	4313      	orrs	r3, r2
    9f38:	81a3      	strh	r3, [r4, #12]
    9f3a:	b005      	add	sp, #20
    9f3c:	bdf0      	pop	{r4, r5, r6, r7, pc}
    9f3e:	9a02      	ldr	r2, [sp, #8]
    9f40:	6921      	ldr	r1, [r4, #16]
    9f42:	f7ff face 	bl	94e2 <memcpy>
    9f46:	89a3      	ldrh	r3, [r4, #12]
    9f48:	4a14      	ldr	r2, [pc, #80]	; (9f9c <__ssputs_r+0xc0>)
    9f4a:	401a      	ands	r2, r3
    9f4c:	2380      	movs	r3, #128	; 0x80
    9f4e:	4313      	orrs	r3, r2
    9f50:	81a3      	strh	r3, [r4, #12]
    9f52:	9b02      	ldr	r3, [sp, #8]
    9f54:	6126      	str	r6, [r4, #16]
    9f56:	18f6      	adds	r6, r6, r3
    9f58:	6026      	str	r6, [r4, #0]
    9f5a:	6165      	str	r5, [r4, #20]
    9f5c:	9e01      	ldr	r6, [sp, #4]
    9f5e:	1aed      	subs	r5, r5, r3
    9f60:	60a5      	str	r5, [r4, #8]
    9f62:	9b01      	ldr	r3, [sp, #4]
    9f64:	42b3      	cmp	r3, r6
    9f66:	d200      	bcs.n	9f6a <__ssputs_r+0x8e>
    9f68:	001e      	movs	r6, r3
    9f6a:	0032      	movs	r2, r6
    9f6c:	9903      	ldr	r1, [sp, #12]
    9f6e:	6820      	ldr	r0, [r4, #0]
    9f70:	f000 fcad 	bl	a8ce <memmove>
    9f74:	68a3      	ldr	r3, [r4, #8]
    9f76:	2000      	movs	r0, #0
    9f78:	1b9b      	subs	r3, r3, r6
    9f7a:	60a3      	str	r3, [r4, #8]
    9f7c:	6823      	ldr	r3, [r4, #0]
    9f7e:	199e      	adds	r6, r3, r6
    9f80:	6026      	str	r6, [r4, #0]
    9f82:	e7da      	b.n	9f3a <__ssputs_r+0x5e>
    9f84:	002a      	movs	r2, r5
    9f86:	0038      	movs	r0, r7
    9f88:	f000 fcb5 	bl	a8f6 <_realloc_r>
    9f8c:	1e06      	subs	r6, r0, #0
    9f8e:	d1e0      	bne.n	9f52 <__ssputs_r+0x76>
    9f90:	6921      	ldr	r1, [r4, #16]
    9f92:	0038      	movs	r0, r7
    9f94:	f7ff fefa 	bl	9d8c <_free_r>
    9f98:	e7c7      	b.n	9f2a <__ssputs_r+0x4e>
    9f9a:	46c0      	nop			; (mov r8, r8)
    9f9c:	fffffb7f 	.word	0xfffffb7f

00009fa0 <_svfiprintf_r>:
    9fa0:	b5f0      	push	{r4, r5, r6, r7, lr}
    9fa2:	b09f      	sub	sp, #124	; 0x7c
    9fa4:	9002      	str	r0, [sp, #8]
    9fa6:	9305      	str	r3, [sp, #20]
    9fa8:	898b      	ldrh	r3, [r1, #12]
    9faa:	000f      	movs	r7, r1
    9fac:	0016      	movs	r6, r2
    9fae:	061b      	lsls	r3, r3, #24
    9fb0:	d511      	bpl.n	9fd6 <_svfiprintf_r+0x36>
    9fb2:	690b      	ldr	r3, [r1, #16]
    9fb4:	2b00      	cmp	r3, #0
    9fb6:	d10e      	bne.n	9fd6 <_svfiprintf_r+0x36>
    9fb8:	2140      	movs	r1, #64	; 0x40
    9fba:	f7ff ff31 	bl	9e20 <_malloc_r>
    9fbe:	6038      	str	r0, [r7, #0]
    9fc0:	6138      	str	r0, [r7, #16]
    9fc2:	2800      	cmp	r0, #0
    9fc4:	d105      	bne.n	9fd2 <_svfiprintf_r+0x32>
    9fc6:	230c      	movs	r3, #12
    9fc8:	9a02      	ldr	r2, [sp, #8]
    9fca:	3801      	subs	r0, #1
    9fcc:	6013      	str	r3, [r2, #0]
    9fce:	b01f      	add	sp, #124	; 0x7c
    9fd0:	bdf0      	pop	{r4, r5, r6, r7, pc}
    9fd2:	2340      	movs	r3, #64	; 0x40
    9fd4:	617b      	str	r3, [r7, #20]
    9fd6:	2300      	movs	r3, #0
    9fd8:	ad06      	add	r5, sp, #24
    9fda:	616b      	str	r3, [r5, #20]
    9fdc:	3320      	adds	r3, #32
    9fde:	766b      	strb	r3, [r5, #25]
    9fe0:	3310      	adds	r3, #16
    9fe2:	76ab      	strb	r3, [r5, #26]
    9fe4:	0034      	movs	r4, r6
    9fe6:	7823      	ldrb	r3, [r4, #0]
    9fe8:	2b00      	cmp	r3, #0
    9fea:	d147      	bne.n	a07c <_svfiprintf_r+0xdc>
    9fec:	1ba3      	subs	r3, r4, r6
    9fee:	9304      	str	r3, [sp, #16]
    9ff0:	d00d      	beq.n	a00e <_svfiprintf_r+0x6e>
    9ff2:	1ba3      	subs	r3, r4, r6
    9ff4:	0032      	movs	r2, r6
    9ff6:	0039      	movs	r1, r7
    9ff8:	9802      	ldr	r0, [sp, #8]
    9ffa:	f7ff ff6f 	bl	9edc <__ssputs_r>
    9ffe:	1c43      	adds	r3, r0, #1
    a000:	d100      	bne.n	a004 <_svfiprintf_r+0x64>
    a002:	e0b5      	b.n	a170 <_svfiprintf_r+0x1d0>
    a004:	696a      	ldr	r2, [r5, #20]
    a006:	9b04      	ldr	r3, [sp, #16]
    a008:	4694      	mov	ip, r2
    a00a:	4463      	add	r3, ip
    a00c:	616b      	str	r3, [r5, #20]
    a00e:	7823      	ldrb	r3, [r4, #0]
    a010:	2b00      	cmp	r3, #0
    a012:	d100      	bne.n	a016 <_svfiprintf_r+0x76>
    a014:	e0ac      	b.n	a170 <_svfiprintf_r+0x1d0>
    a016:	2201      	movs	r2, #1
    a018:	2300      	movs	r3, #0
    a01a:	4252      	negs	r2, r2
    a01c:	606a      	str	r2, [r5, #4]
    a01e:	a902      	add	r1, sp, #8
    a020:	3254      	adds	r2, #84	; 0x54
    a022:	1852      	adds	r2, r2, r1
    a024:	3401      	adds	r4, #1
    a026:	602b      	str	r3, [r5, #0]
    a028:	60eb      	str	r3, [r5, #12]
    a02a:	60ab      	str	r3, [r5, #8]
    a02c:	7013      	strb	r3, [r2, #0]
    a02e:	65ab      	str	r3, [r5, #88]	; 0x58
    a030:	4e58      	ldr	r6, [pc, #352]	; (a194 <_svfiprintf_r+0x1f4>)
    a032:	2205      	movs	r2, #5
    a034:	7821      	ldrb	r1, [r4, #0]
    a036:	0030      	movs	r0, r6
    a038:	f000 fc3e 	bl	a8b8 <memchr>
    a03c:	1c62      	adds	r2, r4, #1
    a03e:	2800      	cmp	r0, #0
    a040:	d120      	bne.n	a084 <_svfiprintf_r+0xe4>
    a042:	6829      	ldr	r1, [r5, #0]
    a044:	06cb      	lsls	r3, r1, #27
    a046:	d504      	bpl.n	a052 <_svfiprintf_r+0xb2>
    a048:	2353      	movs	r3, #83	; 0x53
    a04a:	ae02      	add	r6, sp, #8
    a04c:	3020      	adds	r0, #32
    a04e:	199b      	adds	r3, r3, r6
    a050:	7018      	strb	r0, [r3, #0]
    a052:	070b      	lsls	r3, r1, #28
    a054:	d504      	bpl.n	a060 <_svfiprintf_r+0xc0>
    a056:	2353      	movs	r3, #83	; 0x53
    a058:	202b      	movs	r0, #43	; 0x2b
    a05a:	ae02      	add	r6, sp, #8
    a05c:	199b      	adds	r3, r3, r6
    a05e:	7018      	strb	r0, [r3, #0]
    a060:	7823      	ldrb	r3, [r4, #0]
    a062:	2b2a      	cmp	r3, #42	; 0x2a
    a064:	d016      	beq.n	a094 <_svfiprintf_r+0xf4>
    a066:	2000      	movs	r0, #0
    a068:	210a      	movs	r1, #10
    a06a:	9b09      	ldr	r3, [sp, #36]	; 0x24
    a06c:	7822      	ldrb	r2, [r4, #0]
    a06e:	3a30      	subs	r2, #48	; 0x30
    a070:	2a09      	cmp	r2, #9
    a072:	d955      	bls.n	a120 <_svfiprintf_r+0x180>
    a074:	2800      	cmp	r0, #0
    a076:	d015      	beq.n	a0a4 <_svfiprintf_r+0x104>
    a078:	9309      	str	r3, [sp, #36]	; 0x24
    a07a:	e013      	b.n	a0a4 <_svfiprintf_r+0x104>
    a07c:	2b25      	cmp	r3, #37	; 0x25
    a07e:	d0b5      	beq.n	9fec <_svfiprintf_r+0x4c>
    a080:	3401      	adds	r4, #1
    a082:	e7b0      	b.n	9fe6 <_svfiprintf_r+0x46>
    a084:	2301      	movs	r3, #1
    a086:	1b80      	subs	r0, r0, r6
    a088:	4083      	lsls	r3, r0
    a08a:	6829      	ldr	r1, [r5, #0]
    a08c:	0014      	movs	r4, r2
    a08e:	430b      	orrs	r3, r1
    a090:	602b      	str	r3, [r5, #0]
    a092:	e7cd      	b.n	a030 <_svfiprintf_r+0x90>
    a094:	9b05      	ldr	r3, [sp, #20]
    a096:	1d18      	adds	r0, r3, #4
    a098:	681b      	ldr	r3, [r3, #0]
    a09a:	9005      	str	r0, [sp, #20]
    a09c:	2b00      	cmp	r3, #0
    a09e:	db39      	blt.n	a114 <_svfiprintf_r+0x174>
    a0a0:	9309      	str	r3, [sp, #36]	; 0x24
    a0a2:	0014      	movs	r4, r2
    a0a4:	7823      	ldrb	r3, [r4, #0]
    a0a6:	2b2e      	cmp	r3, #46	; 0x2e
    a0a8:	d10b      	bne.n	a0c2 <_svfiprintf_r+0x122>
    a0aa:	7863      	ldrb	r3, [r4, #1]
    a0ac:	1c62      	adds	r2, r4, #1
    a0ae:	2b2a      	cmp	r3, #42	; 0x2a
    a0b0:	d13e      	bne.n	a130 <_svfiprintf_r+0x190>
    a0b2:	9b05      	ldr	r3, [sp, #20]
    a0b4:	3402      	adds	r4, #2
    a0b6:	1d1a      	adds	r2, r3, #4
    a0b8:	681b      	ldr	r3, [r3, #0]
    a0ba:	9205      	str	r2, [sp, #20]
    a0bc:	2b00      	cmp	r3, #0
    a0be:	db34      	blt.n	a12a <_svfiprintf_r+0x18a>
    a0c0:	9307      	str	r3, [sp, #28]
    a0c2:	4e35      	ldr	r6, [pc, #212]	; (a198 <_svfiprintf_r+0x1f8>)
    a0c4:	7821      	ldrb	r1, [r4, #0]
    a0c6:	2203      	movs	r2, #3
    a0c8:	0030      	movs	r0, r6
    a0ca:	f000 fbf5 	bl	a8b8 <memchr>
    a0ce:	2800      	cmp	r0, #0
    a0d0:	d006      	beq.n	a0e0 <_svfiprintf_r+0x140>
    a0d2:	2340      	movs	r3, #64	; 0x40
    a0d4:	1b80      	subs	r0, r0, r6
    a0d6:	4083      	lsls	r3, r0
    a0d8:	682a      	ldr	r2, [r5, #0]
    a0da:	3401      	adds	r4, #1
    a0dc:	4313      	orrs	r3, r2
    a0de:	602b      	str	r3, [r5, #0]
    a0e0:	7821      	ldrb	r1, [r4, #0]
    a0e2:	2206      	movs	r2, #6
    a0e4:	482d      	ldr	r0, [pc, #180]	; (a19c <_svfiprintf_r+0x1fc>)
    a0e6:	1c66      	adds	r6, r4, #1
    a0e8:	7629      	strb	r1, [r5, #24]
    a0ea:	f000 fbe5 	bl	a8b8 <memchr>
    a0ee:	2800      	cmp	r0, #0
    a0f0:	d046      	beq.n	a180 <_svfiprintf_r+0x1e0>
    a0f2:	4b2b      	ldr	r3, [pc, #172]	; (a1a0 <_svfiprintf_r+0x200>)
    a0f4:	2b00      	cmp	r3, #0
    a0f6:	d12f      	bne.n	a158 <_svfiprintf_r+0x1b8>
    a0f8:	6829      	ldr	r1, [r5, #0]
    a0fa:	9b05      	ldr	r3, [sp, #20]
    a0fc:	2207      	movs	r2, #7
    a0fe:	05c9      	lsls	r1, r1, #23
    a100:	d528      	bpl.n	a154 <_svfiprintf_r+0x1b4>
    a102:	189b      	adds	r3, r3, r2
    a104:	4393      	bics	r3, r2
    a106:	3308      	adds	r3, #8
    a108:	9305      	str	r3, [sp, #20]
    a10a:	696b      	ldr	r3, [r5, #20]
    a10c:	9a03      	ldr	r2, [sp, #12]
    a10e:	189b      	adds	r3, r3, r2
    a110:	616b      	str	r3, [r5, #20]
    a112:	e767      	b.n	9fe4 <_svfiprintf_r+0x44>
    a114:	425b      	negs	r3, r3
    a116:	60eb      	str	r3, [r5, #12]
    a118:	2302      	movs	r3, #2
    a11a:	430b      	orrs	r3, r1
    a11c:	602b      	str	r3, [r5, #0]
    a11e:	e7c0      	b.n	a0a2 <_svfiprintf_r+0x102>
    a120:	434b      	muls	r3, r1
    a122:	3401      	adds	r4, #1
    a124:	189b      	adds	r3, r3, r2
    a126:	2001      	movs	r0, #1
    a128:	e7a0      	b.n	a06c <_svfiprintf_r+0xcc>
    a12a:	2301      	movs	r3, #1
    a12c:	425b      	negs	r3, r3
    a12e:	e7c7      	b.n	a0c0 <_svfiprintf_r+0x120>
    a130:	2300      	movs	r3, #0
    a132:	0014      	movs	r4, r2
    a134:	200a      	movs	r0, #10
    a136:	001a      	movs	r2, r3
    a138:	606b      	str	r3, [r5, #4]
    a13a:	7821      	ldrb	r1, [r4, #0]
    a13c:	3930      	subs	r1, #48	; 0x30
    a13e:	2909      	cmp	r1, #9
    a140:	d903      	bls.n	a14a <_svfiprintf_r+0x1aa>
    a142:	2b00      	cmp	r3, #0
    a144:	d0bd      	beq.n	a0c2 <_svfiprintf_r+0x122>
    a146:	9207      	str	r2, [sp, #28]
    a148:	e7bb      	b.n	a0c2 <_svfiprintf_r+0x122>
    a14a:	4342      	muls	r2, r0
    a14c:	3401      	adds	r4, #1
    a14e:	1852      	adds	r2, r2, r1
    a150:	2301      	movs	r3, #1
    a152:	e7f2      	b.n	a13a <_svfiprintf_r+0x19a>
    a154:	3307      	adds	r3, #7
    a156:	e7d5      	b.n	a104 <_svfiprintf_r+0x164>
    a158:	ab05      	add	r3, sp, #20
    a15a:	9300      	str	r3, [sp, #0]
    a15c:	003a      	movs	r2, r7
    a15e:	4b11      	ldr	r3, [pc, #68]	; (a1a4 <_svfiprintf_r+0x204>)
    a160:	0029      	movs	r1, r5
    a162:	9802      	ldr	r0, [sp, #8]
    a164:	e000      	b.n	a168 <_svfiprintf_r+0x1c8>
    a166:	bf00      	nop
    a168:	9003      	str	r0, [sp, #12]
    a16a:	9b03      	ldr	r3, [sp, #12]
    a16c:	3301      	adds	r3, #1
    a16e:	d1cc      	bne.n	a10a <_svfiprintf_r+0x16a>
    a170:	89bb      	ldrh	r3, [r7, #12]
    a172:	980b      	ldr	r0, [sp, #44]	; 0x2c
    a174:	065b      	lsls	r3, r3, #25
    a176:	d400      	bmi.n	a17a <_svfiprintf_r+0x1da>
    a178:	e729      	b.n	9fce <_svfiprintf_r+0x2e>
    a17a:	2001      	movs	r0, #1
    a17c:	4240      	negs	r0, r0
    a17e:	e726      	b.n	9fce <_svfiprintf_r+0x2e>
    a180:	ab05      	add	r3, sp, #20
    a182:	9300      	str	r3, [sp, #0]
    a184:	003a      	movs	r2, r7
    a186:	4b07      	ldr	r3, [pc, #28]	; (a1a4 <_svfiprintf_r+0x204>)
    a188:	0029      	movs	r1, r5
    a18a:	9802      	ldr	r0, [sp, #8]
    a18c:	f000 f9be 	bl	a50c <_printf_i>
    a190:	e7ea      	b.n	a168 <_svfiprintf_r+0x1c8>
    a192:	46c0      	nop			; (mov r8, r8)
    a194:	0000ed5c 	.word	0x0000ed5c
    a198:	0000ed62 	.word	0x0000ed62
    a19c:	0000ed66 	.word	0x0000ed66
    a1a0:	00000000 	.word	0x00000000
    a1a4:	00009edd 	.word	0x00009edd

0000a1a8 <__sfputc_r>:
    a1a8:	6893      	ldr	r3, [r2, #8]
    a1aa:	b510      	push	{r4, lr}
    a1ac:	3b01      	subs	r3, #1
    a1ae:	6093      	str	r3, [r2, #8]
    a1b0:	2b00      	cmp	r3, #0
    a1b2:	da05      	bge.n	a1c0 <__sfputc_r+0x18>
    a1b4:	6994      	ldr	r4, [r2, #24]
    a1b6:	42a3      	cmp	r3, r4
    a1b8:	db08      	blt.n	a1cc <__sfputc_r+0x24>
    a1ba:	b2cb      	uxtb	r3, r1
    a1bc:	2b0a      	cmp	r3, #10
    a1be:	d005      	beq.n	a1cc <__sfputc_r+0x24>
    a1c0:	6813      	ldr	r3, [r2, #0]
    a1c2:	1c58      	adds	r0, r3, #1
    a1c4:	6010      	str	r0, [r2, #0]
    a1c6:	7019      	strb	r1, [r3, #0]
    a1c8:	b2c8      	uxtb	r0, r1
    a1ca:	bd10      	pop	{r4, pc}
    a1cc:	f7ff fb0e 	bl	97ec <__swbuf_r>
    a1d0:	e7fb      	b.n	a1ca <__sfputc_r+0x22>

0000a1d2 <__sfputs_r>:
    a1d2:	b5f8      	push	{r3, r4, r5, r6, r7, lr}
    a1d4:	0006      	movs	r6, r0
    a1d6:	000f      	movs	r7, r1
    a1d8:	0014      	movs	r4, r2
    a1da:	18d5      	adds	r5, r2, r3
    a1dc:	42ac      	cmp	r4, r5
    a1de:	d101      	bne.n	a1e4 <__sfputs_r+0x12>
    a1e0:	2000      	movs	r0, #0
    a1e2:	e007      	b.n	a1f4 <__sfputs_r+0x22>
    a1e4:	7821      	ldrb	r1, [r4, #0]
    a1e6:	003a      	movs	r2, r7
    a1e8:	0030      	movs	r0, r6
    a1ea:	f7ff ffdd 	bl	a1a8 <__sfputc_r>
    a1ee:	3401      	adds	r4, #1
    a1f0:	1c43      	adds	r3, r0, #1
    a1f2:	d1f3      	bne.n	a1dc <__sfputs_r+0xa>
    a1f4:	bdf8      	pop	{r3, r4, r5, r6, r7, pc}
	...

0000a1f8 <_vfiprintf_r>:
    a1f8:	b5f0      	push	{r4, r5, r6, r7, lr}
    a1fa:	b09f      	sub	sp, #124	; 0x7c
    a1fc:	0006      	movs	r6, r0
    a1fe:	000f      	movs	r7, r1
    a200:	0014      	movs	r4, r2
    a202:	9305      	str	r3, [sp, #20]
    a204:	2800      	cmp	r0, #0
    a206:	d004      	beq.n	a212 <_vfiprintf_r+0x1a>
    a208:	6983      	ldr	r3, [r0, #24]
    a20a:	2b00      	cmp	r3, #0
    a20c:	d101      	bne.n	a212 <_vfiprintf_r+0x1a>
    a20e:	f7ff fcb1 	bl	9b74 <__sinit>
    a212:	4b7f      	ldr	r3, [pc, #508]	; (a410 <_vfiprintf_r+0x218>)
    a214:	429f      	cmp	r7, r3
    a216:	d15c      	bne.n	a2d2 <_vfiprintf_r+0xda>
    a218:	6877      	ldr	r7, [r6, #4]
    a21a:	89bb      	ldrh	r3, [r7, #12]
    a21c:	071b      	lsls	r3, r3, #28
    a21e:	d562      	bpl.n	a2e6 <_vfiprintf_r+0xee>
    a220:	693b      	ldr	r3, [r7, #16]
    a222:	2b00      	cmp	r3, #0
    a224:	d05f      	beq.n	a2e6 <_vfiprintf_r+0xee>
    a226:	2300      	movs	r3, #0
    a228:	ad06      	add	r5, sp, #24
    a22a:	616b      	str	r3, [r5, #20]
    a22c:	3320      	adds	r3, #32
    a22e:	766b      	strb	r3, [r5, #25]
    a230:	3310      	adds	r3, #16
    a232:	76ab      	strb	r3, [r5, #26]
    a234:	9402      	str	r4, [sp, #8]
    a236:	9c02      	ldr	r4, [sp, #8]
    a238:	7823      	ldrb	r3, [r4, #0]
    a23a:	2b00      	cmp	r3, #0
    a23c:	d15d      	bne.n	a2fa <_vfiprintf_r+0x102>
    a23e:	9b02      	ldr	r3, [sp, #8]
    a240:	1ae3      	subs	r3, r4, r3
    a242:	9304      	str	r3, [sp, #16]
    a244:	d00d      	beq.n	a262 <_vfiprintf_r+0x6a>
    a246:	9b04      	ldr	r3, [sp, #16]
    a248:	9a02      	ldr	r2, [sp, #8]
    a24a:	0039      	movs	r1, r7
    a24c:	0030      	movs	r0, r6
    a24e:	f7ff ffc0 	bl	a1d2 <__sfputs_r>
    a252:	1c43      	adds	r3, r0, #1
    a254:	d100      	bne.n	a258 <_vfiprintf_r+0x60>
    a256:	e0cc      	b.n	a3f2 <_vfiprintf_r+0x1fa>
    a258:	696a      	ldr	r2, [r5, #20]
    a25a:	9b04      	ldr	r3, [sp, #16]
    a25c:	4694      	mov	ip, r2
    a25e:	4463      	add	r3, ip
    a260:	616b      	str	r3, [r5, #20]
    a262:	7823      	ldrb	r3, [r4, #0]
    a264:	2b00      	cmp	r3, #0
    a266:	d100      	bne.n	a26a <_vfiprintf_r+0x72>
    a268:	e0c3      	b.n	a3f2 <_vfiprintf_r+0x1fa>
    a26a:	2201      	movs	r2, #1
    a26c:	2300      	movs	r3, #0
    a26e:	4252      	negs	r2, r2
    a270:	606a      	str	r2, [r5, #4]
    a272:	a902      	add	r1, sp, #8
    a274:	3254      	adds	r2, #84	; 0x54
    a276:	1852      	adds	r2, r2, r1
    a278:	3401      	adds	r4, #1
    a27a:	602b      	str	r3, [r5, #0]
    a27c:	60eb      	str	r3, [r5, #12]
    a27e:	60ab      	str	r3, [r5, #8]
    a280:	7013      	strb	r3, [r2, #0]
    a282:	65ab      	str	r3, [r5, #88]	; 0x58
    a284:	7821      	ldrb	r1, [r4, #0]
    a286:	2205      	movs	r2, #5
    a288:	4862      	ldr	r0, [pc, #392]	; (a414 <_vfiprintf_r+0x21c>)
    a28a:	f000 fb15 	bl	a8b8 <memchr>
    a28e:	1c63      	adds	r3, r4, #1
    a290:	469c      	mov	ip, r3
    a292:	2800      	cmp	r0, #0
    a294:	d135      	bne.n	a302 <_vfiprintf_r+0x10a>
    a296:	6829      	ldr	r1, [r5, #0]
    a298:	06cb      	lsls	r3, r1, #27
    a29a:	d504      	bpl.n	a2a6 <_vfiprintf_r+0xae>
    a29c:	2353      	movs	r3, #83	; 0x53
    a29e:	aa02      	add	r2, sp, #8
    a2a0:	3020      	adds	r0, #32
    a2a2:	189b      	adds	r3, r3, r2
    a2a4:	7018      	strb	r0, [r3, #0]
    a2a6:	070b      	lsls	r3, r1, #28
    a2a8:	d504      	bpl.n	a2b4 <_vfiprintf_r+0xbc>
    a2aa:	2353      	movs	r3, #83	; 0x53
    a2ac:	202b      	movs	r0, #43	; 0x2b
    a2ae:	aa02      	add	r2, sp, #8
    a2b0:	189b      	adds	r3, r3, r2
    a2b2:	7018      	strb	r0, [r3, #0]
    a2b4:	7823      	ldrb	r3, [r4, #0]
    a2b6:	2b2a      	cmp	r3, #42	; 0x2a
    a2b8:	d02c      	beq.n	a314 <_vfiprintf_r+0x11c>
    a2ba:	2000      	movs	r0, #0
    a2bc:	210a      	movs	r1, #10
    a2be:	9b09      	ldr	r3, [sp, #36]	; 0x24
    a2c0:	7822      	ldrb	r2, [r4, #0]
    a2c2:	3a30      	subs	r2, #48	; 0x30
    a2c4:	2a09      	cmp	r2, #9
    a2c6:	d800      	bhi.n	a2ca <_vfiprintf_r+0xd2>
    a2c8:	e06b      	b.n	a3a2 <_vfiprintf_r+0x1aa>
    a2ca:	2800      	cmp	r0, #0
    a2cc:	d02a      	beq.n	a324 <_vfiprintf_r+0x12c>
    a2ce:	9309      	str	r3, [sp, #36]	; 0x24
    a2d0:	e028      	b.n	a324 <_vfiprintf_r+0x12c>
    a2d2:	4b51      	ldr	r3, [pc, #324]	; (a418 <_vfiprintf_r+0x220>)
    a2d4:	429f      	cmp	r7, r3
    a2d6:	d101      	bne.n	a2dc <_vfiprintf_r+0xe4>
    a2d8:	68b7      	ldr	r7, [r6, #8]
    a2da:	e79e      	b.n	a21a <_vfiprintf_r+0x22>
    a2dc:	4b4f      	ldr	r3, [pc, #316]	; (a41c <_vfiprintf_r+0x224>)
    a2de:	429f      	cmp	r7, r3
    a2e0:	d19b      	bne.n	a21a <_vfiprintf_r+0x22>
    a2e2:	68f7      	ldr	r7, [r6, #12]
    a2e4:	e799      	b.n	a21a <_vfiprintf_r+0x22>
    a2e6:	0039      	movs	r1, r7
    a2e8:	0030      	movs	r0, r6
    a2ea:	f7ff fad5 	bl	9898 <__swsetup_r>
    a2ee:	2800      	cmp	r0, #0
    a2f0:	d099      	beq.n	a226 <_vfiprintf_r+0x2e>
    a2f2:	2001      	movs	r0, #1
    a2f4:	4240      	negs	r0, r0
    a2f6:	b01f      	add	sp, #124	; 0x7c
    a2f8:	bdf0      	pop	{r4, r5, r6, r7, pc}
    a2fa:	2b25      	cmp	r3, #37	; 0x25
    a2fc:	d09f      	beq.n	a23e <_vfiprintf_r+0x46>
    a2fe:	3401      	adds	r4, #1
    a300:	e79a      	b.n	a238 <_vfiprintf_r+0x40>
    a302:	4b44      	ldr	r3, [pc, #272]	; (a414 <_vfiprintf_r+0x21c>)
    a304:	6829      	ldr	r1, [r5, #0]
    a306:	1ac0      	subs	r0, r0, r3
    a308:	2301      	movs	r3, #1
    a30a:	4083      	lsls	r3, r0
    a30c:	430b      	orrs	r3, r1
    a30e:	602b      	str	r3, [r5, #0]
    a310:	4664      	mov	r4, ip
    a312:	e7b7      	b.n	a284 <_vfiprintf_r+0x8c>
    a314:	9b05      	ldr	r3, [sp, #20]
    a316:	1d18      	adds	r0, r3, #4
    a318:	681b      	ldr	r3, [r3, #0]
    a31a:	9005      	str	r0, [sp, #20]
    a31c:	2b00      	cmp	r3, #0
    a31e:	db3a      	blt.n	a396 <_vfiprintf_r+0x19e>
    a320:	9309      	str	r3, [sp, #36]	; 0x24
    a322:	4664      	mov	r4, ip
    a324:	7823      	ldrb	r3, [r4, #0]
    a326:	2b2e      	cmp	r3, #46	; 0x2e
    a328:	d10b      	bne.n	a342 <_vfiprintf_r+0x14a>
    a32a:	7863      	ldrb	r3, [r4, #1]
    a32c:	1c62      	adds	r2, r4, #1
    a32e:	2b2a      	cmp	r3, #42	; 0x2a
    a330:	d13f      	bne.n	a3b2 <_vfiprintf_r+0x1ba>
    a332:	9b05      	ldr	r3, [sp, #20]
    a334:	3402      	adds	r4, #2
    a336:	1d1a      	adds	r2, r3, #4
    a338:	681b      	ldr	r3, [r3, #0]
    a33a:	9205      	str	r2, [sp, #20]
    a33c:	2b00      	cmp	r3, #0
    a33e:	db35      	blt.n	a3ac <_vfiprintf_r+0x1b4>
    a340:	9307      	str	r3, [sp, #28]
    a342:	7821      	ldrb	r1, [r4, #0]
    a344:	2203      	movs	r2, #3
    a346:	4836      	ldr	r0, [pc, #216]	; (a420 <_vfiprintf_r+0x228>)
    a348:	f000 fab6 	bl	a8b8 <memchr>
    a34c:	2800      	cmp	r0, #0
    a34e:	d007      	beq.n	a360 <_vfiprintf_r+0x168>
    a350:	4b33      	ldr	r3, [pc, #204]	; (a420 <_vfiprintf_r+0x228>)
    a352:	682a      	ldr	r2, [r5, #0]
    a354:	1ac0      	subs	r0, r0, r3
    a356:	2340      	movs	r3, #64	; 0x40
    a358:	4083      	lsls	r3, r0
    a35a:	4313      	orrs	r3, r2
    a35c:	602b      	str	r3, [r5, #0]
    a35e:	3401      	adds	r4, #1
    a360:	7821      	ldrb	r1, [r4, #0]
    a362:	1c63      	adds	r3, r4, #1
    a364:	2206      	movs	r2, #6
    a366:	482f      	ldr	r0, [pc, #188]	; (a424 <_vfiprintf_r+0x22c>)
    a368:	9302      	str	r3, [sp, #8]
    a36a:	7629      	strb	r1, [r5, #24]
    a36c:	f000 faa4 	bl	a8b8 <memchr>
    a370:	2800      	cmp	r0, #0
    a372:	d044      	beq.n	a3fe <_vfiprintf_r+0x206>
    a374:	4b2c      	ldr	r3, [pc, #176]	; (a428 <_vfiprintf_r+0x230>)
    a376:	2b00      	cmp	r3, #0
    a378:	d12f      	bne.n	a3da <_vfiprintf_r+0x1e2>
    a37a:	6829      	ldr	r1, [r5, #0]
    a37c:	9b05      	ldr	r3, [sp, #20]
    a37e:	2207      	movs	r2, #7
    a380:	05c9      	lsls	r1, r1, #23
    a382:	d528      	bpl.n	a3d6 <_vfiprintf_r+0x1de>
    a384:	189b      	adds	r3, r3, r2
    a386:	4393      	bics	r3, r2
    a388:	3308      	adds	r3, #8
    a38a:	9305      	str	r3, [sp, #20]
    a38c:	696b      	ldr	r3, [r5, #20]
    a38e:	9a03      	ldr	r2, [sp, #12]
    a390:	189b      	adds	r3, r3, r2
    a392:	616b      	str	r3, [r5, #20]
    a394:	e74f      	b.n	a236 <_vfiprintf_r+0x3e>
    a396:	425b      	negs	r3, r3
    a398:	60eb      	str	r3, [r5, #12]
    a39a:	2302      	movs	r3, #2
    a39c:	430b      	orrs	r3, r1
    a39e:	602b      	str	r3, [r5, #0]
    a3a0:	e7bf      	b.n	a322 <_vfiprintf_r+0x12a>
    a3a2:	434b      	muls	r3, r1
    a3a4:	3401      	adds	r4, #1
    a3a6:	189b      	adds	r3, r3, r2
    a3a8:	2001      	movs	r0, #1
    a3aa:	e789      	b.n	a2c0 <_vfiprintf_r+0xc8>
    a3ac:	2301      	movs	r3, #1
    a3ae:	425b      	negs	r3, r3
    a3b0:	e7c6      	b.n	a340 <_vfiprintf_r+0x148>
    a3b2:	2300      	movs	r3, #0
    a3b4:	0014      	movs	r4, r2
    a3b6:	200a      	movs	r0, #10
    a3b8:	001a      	movs	r2, r3
    a3ba:	606b      	str	r3, [r5, #4]
    a3bc:	7821      	ldrb	r1, [r4, #0]
    a3be:	3930      	subs	r1, #48	; 0x30
    a3c0:	2909      	cmp	r1, #9
    a3c2:	d903      	bls.n	a3cc <_vfiprintf_r+0x1d4>
    a3c4:	2b00      	cmp	r3, #0
    a3c6:	d0bc      	beq.n	a342 <_vfiprintf_r+0x14a>
    a3c8:	9207      	str	r2, [sp, #28]
    a3ca:	e7ba      	b.n	a342 <_vfiprintf_r+0x14a>
    a3cc:	4342      	muls	r2, r0
    a3ce:	3401      	adds	r4, #1
    a3d0:	1852      	adds	r2, r2, r1
    a3d2:	2301      	movs	r3, #1
    a3d4:	e7f2      	b.n	a3bc <_vfiprintf_r+0x1c4>
    a3d6:	3307      	adds	r3, #7
    a3d8:	e7d5      	b.n	a386 <_vfiprintf_r+0x18e>
    a3da:	ab05      	add	r3, sp, #20
    a3dc:	9300      	str	r3, [sp, #0]
    a3de:	003a      	movs	r2, r7
    a3e0:	4b12      	ldr	r3, [pc, #72]	; (a42c <_vfiprintf_r+0x234>)
    a3e2:	0029      	movs	r1, r5
    a3e4:	0030      	movs	r0, r6
    a3e6:	e000      	b.n	a3ea <_vfiprintf_r+0x1f2>
    a3e8:	bf00      	nop
    a3ea:	9003      	str	r0, [sp, #12]
    a3ec:	9b03      	ldr	r3, [sp, #12]
    a3ee:	3301      	adds	r3, #1
    a3f0:	d1cc      	bne.n	a38c <_vfiprintf_r+0x194>
    a3f2:	89bb      	ldrh	r3, [r7, #12]
    a3f4:	065b      	lsls	r3, r3, #25
    a3f6:	d500      	bpl.n	a3fa <_vfiprintf_r+0x202>
    a3f8:	e77b      	b.n	a2f2 <_vfiprintf_r+0xfa>
    a3fa:	980b      	ldr	r0, [sp, #44]	; 0x2c
    a3fc:	e77b      	b.n	a2f6 <_vfiprintf_r+0xfe>
    a3fe:	ab05      	add	r3, sp, #20
    a400:	9300      	str	r3, [sp, #0]
    a402:	003a      	movs	r2, r7
    a404:	4b09      	ldr	r3, [pc, #36]	; (a42c <_vfiprintf_r+0x234>)
    a406:	0029      	movs	r1, r5
    a408:	0030      	movs	r0, r6
    a40a:	f000 f87f 	bl	a50c <_printf_i>
    a40e:	e7ec      	b.n	a3ea <_vfiprintf_r+0x1f2>
    a410:	0000ed1c 	.word	0x0000ed1c
    a414:	0000ed5c 	.word	0x0000ed5c
    a418:	0000ed3c 	.word	0x0000ed3c
    a41c:	0000ecfc 	.word	0x0000ecfc
    a420:	0000ed62 	.word	0x0000ed62
    a424:	0000ed66 	.word	0x0000ed66
    a428:	00000000 	.word	0x00000000
    a42c:	0000a1d3 	.word	0x0000a1d3

0000a430 <_printf_common>:
    a430:	b5f7      	push	{r0, r1, r2, r4, r5, r6, r7, lr}
    a432:	0015      	movs	r5, r2
    a434:	9301      	str	r3, [sp, #4]
    a436:	688a      	ldr	r2, [r1, #8]
    a438:	690b      	ldr	r3, [r1, #16]
    a43a:	9000      	str	r0, [sp, #0]
    a43c:	000c      	movs	r4, r1
    a43e:	4293      	cmp	r3, r2
    a440:	da00      	bge.n	a444 <_printf_common+0x14>
    a442:	0013      	movs	r3, r2
    a444:	0022      	movs	r2, r4
    a446:	602b      	str	r3, [r5, #0]
    a448:	3243      	adds	r2, #67	; 0x43
    a44a:	7812      	ldrb	r2, [r2, #0]
    a44c:	2a00      	cmp	r2, #0
    a44e:	d001      	beq.n	a454 <_printf_common+0x24>
    a450:	3301      	adds	r3, #1
    a452:	602b      	str	r3, [r5, #0]
    a454:	6823      	ldr	r3, [r4, #0]
    a456:	069b      	lsls	r3, r3, #26
    a458:	d502      	bpl.n	a460 <_printf_common+0x30>
    a45a:	682b      	ldr	r3, [r5, #0]
    a45c:	3302      	adds	r3, #2
    a45e:	602b      	str	r3, [r5, #0]
    a460:	2706      	movs	r7, #6
    a462:	6823      	ldr	r3, [r4, #0]
    a464:	401f      	ands	r7, r3
    a466:	d027      	beq.n	a4b8 <_printf_common+0x88>
    a468:	0023      	movs	r3, r4
    a46a:	3343      	adds	r3, #67	; 0x43
    a46c:	781b      	ldrb	r3, [r3, #0]
    a46e:	1e5a      	subs	r2, r3, #1
    a470:	4193      	sbcs	r3, r2
    a472:	6822      	ldr	r2, [r4, #0]
    a474:	0692      	lsls	r2, r2, #26
    a476:	d430      	bmi.n	a4da <_printf_common+0xaa>
    a478:	0022      	movs	r2, r4
    a47a:	9901      	ldr	r1, [sp, #4]
    a47c:	3243      	adds	r2, #67	; 0x43
    a47e:	9800      	ldr	r0, [sp, #0]
    a480:	9e08      	ldr	r6, [sp, #32]
    a482:	47b0      	blx	r6
    a484:	1c43      	adds	r3, r0, #1
    a486:	d025      	beq.n	a4d4 <_printf_common+0xa4>
    a488:	2306      	movs	r3, #6
    a48a:	6820      	ldr	r0, [r4, #0]
    a48c:	682a      	ldr	r2, [r5, #0]
    a48e:	68e1      	ldr	r1, [r4, #12]
    a490:	4003      	ands	r3, r0
    a492:	2500      	movs	r5, #0
    a494:	2b04      	cmp	r3, #4
    a496:	d103      	bne.n	a4a0 <_printf_common+0x70>
    a498:	1a8d      	subs	r5, r1, r2
    a49a:	43eb      	mvns	r3, r5
    a49c:	17db      	asrs	r3, r3, #31
    a49e:	401d      	ands	r5, r3
    a4a0:	68a3      	ldr	r3, [r4, #8]
    a4a2:	6922      	ldr	r2, [r4, #16]
    a4a4:	4293      	cmp	r3, r2
    a4a6:	dd01      	ble.n	a4ac <_printf_common+0x7c>
    a4a8:	1a9b      	subs	r3, r3, r2
    a4aa:	18ed      	adds	r5, r5, r3
    a4ac:	2700      	movs	r7, #0
    a4ae:	42bd      	cmp	r5, r7
    a4b0:	d120      	bne.n	a4f4 <_printf_common+0xc4>
    a4b2:	2000      	movs	r0, #0
    a4b4:	e010      	b.n	a4d8 <_printf_common+0xa8>
    a4b6:	3701      	adds	r7, #1
    a4b8:	68e3      	ldr	r3, [r4, #12]
    a4ba:	682a      	ldr	r2, [r5, #0]
    a4bc:	1a9b      	subs	r3, r3, r2
    a4be:	429f      	cmp	r7, r3
    a4c0:	dad2      	bge.n	a468 <_printf_common+0x38>
    a4c2:	0022      	movs	r2, r4
    a4c4:	2301      	movs	r3, #1
    a4c6:	3219      	adds	r2, #25
    a4c8:	9901      	ldr	r1, [sp, #4]
    a4ca:	9800      	ldr	r0, [sp, #0]
    a4cc:	9e08      	ldr	r6, [sp, #32]
    a4ce:	47b0      	blx	r6
    a4d0:	1c43      	adds	r3, r0, #1
    a4d2:	d1f0      	bne.n	a4b6 <_printf_common+0x86>
    a4d4:	2001      	movs	r0, #1
    a4d6:	4240      	negs	r0, r0
    a4d8:	bdfe      	pop	{r1, r2, r3, r4, r5, r6, r7, pc}
    a4da:	2030      	movs	r0, #48	; 0x30
    a4dc:	18e1      	adds	r1, r4, r3
    a4de:	3143      	adds	r1, #67	; 0x43
    a4e0:	7008      	strb	r0, [r1, #0]
    a4e2:	0021      	movs	r1, r4
    a4e4:	1c5a      	adds	r2, r3, #1
    a4e6:	3145      	adds	r1, #69	; 0x45
    a4e8:	7809      	ldrb	r1, [r1, #0]
    a4ea:	18a2      	adds	r2, r4, r2
    a4ec:	3243      	adds	r2, #67	; 0x43
    a4ee:	3302      	adds	r3, #2
    a4f0:	7011      	strb	r1, [r2, #0]
    a4f2:	e7c1      	b.n	a478 <_printf_common+0x48>
    a4f4:	0022      	movs	r2, r4
    a4f6:	2301      	movs	r3, #1
    a4f8:	321a      	adds	r2, #26
    a4fa:	9901      	ldr	r1, [sp, #4]
    a4fc:	9800      	ldr	r0, [sp, #0]
    a4fe:	9e08      	ldr	r6, [sp, #32]
    a500:	47b0      	blx	r6
    a502:	1c43      	adds	r3, r0, #1
    a504:	d0e6      	beq.n	a4d4 <_printf_common+0xa4>
    a506:	3701      	adds	r7, #1
    a508:	e7d1      	b.n	a4ae <_printf_common+0x7e>
	...

0000a50c <_printf_i>:
    a50c:	b5f0      	push	{r4, r5, r6, r7, lr}
    a50e:	b08b      	sub	sp, #44	; 0x2c
    a510:	9206      	str	r2, [sp, #24]
    a512:	000a      	movs	r2, r1
    a514:	3243      	adds	r2, #67	; 0x43
    a516:	9307      	str	r3, [sp, #28]
    a518:	9005      	str	r0, [sp, #20]
    a51a:	9204      	str	r2, [sp, #16]
    a51c:	7e0a      	ldrb	r2, [r1, #24]
    a51e:	000c      	movs	r4, r1
    a520:	9b10      	ldr	r3, [sp, #64]	; 0x40
    a522:	2a6e      	cmp	r2, #110	; 0x6e
    a524:	d100      	bne.n	a528 <_printf_i+0x1c>
    a526:	e08f      	b.n	a648 <_printf_i+0x13c>
    a528:	d817      	bhi.n	a55a <_printf_i+0x4e>
    a52a:	2a63      	cmp	r2, #99	; 0x63
    a52c:	d02c      	beq.n	a588 <_printf_i+0x7c>
    a52e:	d808      	bhi.n	a542 <_printf_i+0x36>
    a530:	2a00      	cmp	r2, #0
    a532:	d100      	bne.n	a536 <_printf_i+0x2a>
    a534:	e099      	b.n	a66a <_printf_i+0x15e>
    a536:	2a58      	cmp	r2, #88	; 0x58
    a538:	d054      	beq.n	a5e4 <_printf_i+0xd8>
    a53a:	0026      	movs	r6, r4
    a53c:	3642      	adds	r6, #66	; 0x42
    a53e:	7032      	strb	r2, [r6, #0]
    a540:	e029      	b.n	a596 <_printf_i+0x8a>
    a542:	2a64      	cmp	r2, #100	; 0x64
    a544:	d001      	beq.n	a54a <_printf_i+0x3e>
    a546:	2a69      	cmp	r2, #105	; 0x69
    a548:	d1f7      	bne.n	a53a <_printf_i+0x2e>
    a54a:	6821      	ldr	r1, [r4, #0]
    a54c:	681a      	ldr	r2, [r3, #0]
    a54e:	0608      	lsls	r0, r1, #24
    a550:	d523      	bpl.n	a59a <_printf_i+0x8e>
    a552:	1d11      	adds	r1, r2, #4
    a554:	6019      	str	r1, [r3, #0]
    a556:	6815      	ldr	r5, [r2, #0]
    a558:	e025      	b.n	a5a6 <_printf_i+0x9a>
    a55a:	2a73      	cmp	r2, #115	; 0x73
    a55c:	d100      	bne.n	a560 <_printf_i+0x54>
    a55e:	e088      	b.n	a672 <_printf_i+0x166>
    a560:	d808      	bhi.n	a574 <_printf_i+0x68>
    a562:	2a6f      	cmp	r2, #111	; 0x6f
    a564:	d029      	beq.n	a5ba <_printf_i+0xae>
    a566:	2a70      	cmp	r2, #112	; 0x70
    a568:	d1e7      	bne.n	a53a <_printf_i+0x2e>
    a56a:	2220      	movs	r2, #32
    a56c:	6809      	ldr	r1, [r1, #0]
    a56e:	430a      	orrs	r2, r1
    a570:	6022      	str	r2, [r4, #0]
    a572:	e003      	b.n	a57c <_printf_i+0x70>
    a574:	2a75      	cmp	r2, #117	; 0x75
    a576:	d020      	beq.n	a5ba <_printf_i+0xae>
    a578:	2a78      	cmp	r2, #120	; 0x78
    a57a:	d1de      	bne.n	a53a <_printf_i+0x2e>
    a57c:	0022      	movs	r2, r4
    a57e:	2178      	movs	r1, #120	; 0x78
    a580:	3245      	adds	r2, #69	; 0x45
    a582:	7011      	strb	r1, [r2, #0]
    a584:	4a6c      	ldr	r2, [pc, #432]	; (a738 <_printf_i+0x22c>)
    a586:	e030      	b.n	a5ea <_printf_i+0xde>
    a588:	000e      	movs	r6, r1
    a58a:	681a      	ldr	r2, [r3, #0]
    a58c:	3642      	adds	r6, #66	; 0x42
    a58e:	1d11      	adds	r1, r2, #4
    a590:	6019      	str	r1, [r3, #0]
    a592:	6813      	ldr	r3, [r2, #0]
    a594:	7033      	strb	r3, [r6, #0]
    a596:	2301      	movs	r3, #1
    a598:	e079      	b.n	a68e <_printf_i+0x182>
    a59a:	0649      	lsls	r1, r1, #25
    a59c:	d5d9      	bpl.n	a552 <_printf_i+0x46>
    a59e:	1d11      	adds	r1, r2, #4
    a5a0:	6019      	str	r1, [r3, #0]
    a5a2:	2300      	movs	r3, #0
    a5a4:	5ed5      	ldrsh	r5, [r2, r3]
    a5a6:	2d00      	cmp	r5, #0
    a5a8:	da03      	bge.n	a5b2 <_printf_i+0xa6>
    a5aa:	232d      	movs	r3, #45	; 0x2d
    a5ac:	9a04      	ldr	r2, [sp, #16]
    a5ae:	426d      	negs	r5, r5
    a5b0:	7013      	strb	r3, [r2, #0]
    a5b2:	4b62      	ldr	r3, [pc, #392]	; (a73c <_printf_i+0x230>)
    a5b4:	270a      	movs	r7, #10
    a5b6:	9303      	str	r3, [sp, #12]
    a5b8:	e02f      	b.n	a61a <_printf_i+0x10e>
    a5ba:	6820      	ldr	r0, [r4, #0]
    a5bc:	6819      	ldr	r1, [r3, #0]
    a5be:	0605      	lsls	r5, r0, #24
    a5c0:	d503      	bpl.n	a5ca <_printf_i+0xbe>
    a5c2:	1d08      	adds	r0, r1, #4
    a5c4:	6018      	str	r0, [r3, #0]
    a5c6:	680d      	ldr	r5, [r1, #0]
    a5c8:	e005      	b.n	a5d6 <_printf_i+0xca>
    a5ca:	0640      	lsls	r0, r0, #25
    a5cc:	d5f9      	bpl.n	a5c2 <_printf_i+0xb6>
    a5ce:	680d      	ldr	r5, [r1, #0]
    a5d0:	1d08      	adds	r0, r1, #4
    a5d2:	6018      	str	r0, [r3, #0]
    a5d4:	b2ad      	uxth	r5, r5
    a5d6:	4b59      	ldr	r3, [pc, #356]	; (a73c <_printf_i+0x230>)
    a5d8:	2708      	movs	r7, #8
    a5da:	9303      	str	r3, [sp, #12]
    a5dc:	2a6f      	cmp	r2, #111	; 0x6f
    a5de:	d018      	beq.n	a612 <_printf_i+0x106>
    a5e0:	270a      	movs	r7, #10
    a5e2:	e016      	b.n	a612 <_printf_i+0x106>
    a5e4:	3145      	adds	r1, #69	; 0x45
    a5e6:	700a      	strb	r2, [r1, #0]
    a5e8:	4a54      	ldr	r2, [pc, #336]	; (a73c <_printf_i+0x230>)
    a5ea:	9203      	str	r2, [sp, #12]
    a5ec:	681a      	ldr	r2, [r3, #0]
    a5ee:	6821      	ldr	r1, [r4, #0]
    a5f0:	1d10      	adds	r0, r2, #4
    a5f2:	6018      	str	r0, [r3, #0]
    a5f4:	6815      	ldr	r5, [r2, #0]
    a5f6:	0608      	lsls	r0, r1, #24
    a5f8:	d522      	bpl.n	a640 <_printf_i+0x134>
    a5fa:	07cb      	lsls	r3, r1, #31
    a5fc:	d502      	bpl.n	a604 <_printf_i+0xf8>
    a5fe:	2320      	movs	r3, #32
    a600:	4319      	orrs	r1, r3
    a602:	6021      	str	r1, [r4, #0]
    a604:	2710      	movs	r7, #16
    a606:	2d00      	cmp	r5, #0
    a608:	d103      	bne.n	a612 <_printf_i+0x106>
    a60a:	2320      	movs	r3, #32
    a60c:	6822      	ldr	r2, [r4, #0]
    a60e:	439a      	bics	r2, r3
    a610:	6022      	str	r2, [r4, #0]
    a612:	0023      	movs	r3, r4
    a614:	2200      	movs	r2, #0
    a616:	3343      	adds	r3, #67	; 0x43
    a618:	701a      	strb	r2, [r3, #0]
    a61a:	6863      	ldr	r3, [r4, #4]
    a61c:	60a3      	str	r3, [r4, #8]
    a61e:	2b00      	cmp	r3, #0
    a620:	db5c      	blt.n	a6dc <_printf_i+0x1d0>
    a622:	2204      	movs	r2, #4
    a624:	6821      	ldr	r1, [r4, #0]
    a626:	4391      	bics	r1, r2
    a628:	6021      	str	r1, [r4, #0]
    a62a:	2d00      	cmp	r5, #0
    a62c:	d158      	bne.n	a6e0 <_printf_i+0x1d4>
    a62e:	9e04      	ldr	r6, [sp, #16]
    a630:	2b00      	cmp	r3, #0
    a632:	d064      	beq.n	a6fe <_printf_i+0x1f2>
    a634:	0026      	movs	r6, r4
    a636:	9b03      	ldr	r3, [sp, #12]
    a638:	3642      	adds	r6, #66	; 0x42
    a63a:	781b      	ldrb	r3, [r3, #0]
    a63c:	7033      	strb	r3, [r6, #0]
    a63e:	e05e      	b.n	a6fe <_printf_i+0x1f2>
    a640:	0648      	lsls	r0, r1, #25
    a642:	d5da      	bpl.n	a5fa <_printf_i+0xee>
    a644:	b2ad      	uxth	r5, r5
    a646:	e7d8      	b.n	a5fa <_printf_i+0xee>
    a648:	6809      	ldr	r1, [r1, #0]
    a64a:	681a      	ldr	r2, [r3, #0]
    a64c:	0608      	lsls	r0, r1, #24
    a64e:	d505      	bpl.n	a65c <_printf_i+0x150>
    a650:	1d11      	adds	r1, r2, #4
    a652:	6019      	str	r1, [r3, #0]
    a654:	6813      	ldr	r3, [r2, #0]
    a656:	6962      	ldr	r2, [r4, #20]
    a658:	601a      	str	r2, [r3, #0]
    a65a:	e006      	b.n	a66a <_printf_i+0x15e>
    a65c:	0649      	lsls	r1, r1, #25
    a65e:	d5f7      	bpl.n	a650 <_printf_i+0x144>
    a660:	1d11      	adds	r1, r2, #4
    a662:	6019      	str	r1, [r3, #0]
    a664:	6813      	ldr	r3, [r2, #0]
    a666:	8aa2      	ldrh	r2, [r4, #20]
    a668:	801a      	strh	r2, [r3, #0]
    a66a:	2300      	movs	r3, #0
    a66c:	9e04      	ldr	r6, [sp, #16]
    a66e:	6123      	str	r3, [r4, #16]
    a670:	e054      	b.n	a71c <_printf_i+0x210>
    a672:	681a      	ldr	r2, [r3, #0]
    a674:	1d11      	adds	r1, r2, #4
    a676:	6019      	str	r1, [r3, #0]
    a678:	6816      	ldr	r6, [r2, #0]
    a67a:	2100      	movs	r1, #0
    a67c:	6862      	ldr	r2, [r4, #4]
    a67e:	0030      	movs	r0, r6
    a680:	f000 f91a 	bl	a8b8 <memchr>
    a684:	2800      	cmp	r0, #0
    a686:	d001      	beq.n	a68c <_printf_i+0x180>
    a688:	1b80      	subs	r0, r0, r6
    a68a:	6060      	str	r0, [r4, #4]
    a68c:	6863      	ldr	r3, [r4, #4]
    a68e:	6123      	str	r3, [r4, #16]
    a690:	2300      	movs	r3, #0
    a692:	9a04      	ldr	r2, [sp, #16]
    a694:	7013      	strb	r3, [r2, #0]
    a696:	e041      	b.n	a71c <_printf_i+0x210>
    a698:	6923      	ldr	r3, [r4, #16]
    a69a:	0032      	movs	r2, r6
    a69c:	9906      	ldr	r1, [sp, #24]
    a69e:	9805      	ldr	r0, [sp, #20]
    a6a0:	9d07      	ldr	r5, [sp, #28]
    a6a2:	47a8      	blx	r5
    a6a4:	1c43      	adds	r3, r0, #1
    a6a6:	d043      	beq.n	a730 <_printf_i+0x224>
    a6a8:	6823      	ldr	r3, [r4, #0]
    a6aa:	2500      	movs	r5, #0
    a6ac:	079b      	lsls	r3, r3, #30
    a6ae:	d40f      	bmi.n	a6d0 <_printf_i+0x1c4>
    a6b0:	9b09      	ldr	r3, [sp, #36]	; 0x24
    a6b2:	68e0      	ldr	r0, [r4, #12]
    a6b4:	4298      	cmp	r0, r3
    a6b6:	da3d      	bge.n	a734 <_printf_i+0x228>
    a6b8:	0018      	movs	r0, r3
    a6ba:	e03b      	b.n	a734 <_printf_i+0x228>
    a6bc:	0022      	movs	r2, r4
    a6be:	2301      	movs	r3, #1
    a6c0:	3219      	adds	r2, #25
    a6c2:	9906      	ldr	r1, [sp, #24]
    a6c4:	9805      	ldr	r0, [sp, #20]
    a6c6:	9e07      	ldr	r6, [sp, #28]
    a6c8:	47b0      	blx	r6
    a6ca:	1c43      	adds	r3, r0, #1
    a6cc:	d030      	beq.n	a730 <_printf_i+0x224>
    a6ce:	3501      	adds	r5, #1
    a6d0:	68e3      	ldr	r3, [r4, #12]
    a6d2:	9a09      	ldr	r2, [sp, #36]	; 0x24
    a6d4:	1a9b      	subs	r3, r3, r2
    a6d6:	429d      	cmp	r5, r3
    a6d8:	dbf0      	blt.n	a6bc <_printf_i+0x1b0>
    a6da:	e7e9      	b.n	a6b0 <_printf_i+0x1a4>
    a6dc:	2d00      	cmp	r5, #0
    a6de:	d0a9      	beq.n	a634 <_printf_i+0x128>
    a6e0:	9e04      	ldr	r6, [sp, #16]
    a6e2:	0028      	movs	r0, r5
    a6e4:	0039      	movs	r1, r7
    a6e6:	f7fe fdaf 	bl	9248 <__aeabi_uidivmod>
    a6ea:	9b03      	ldr	r3, [sp, #12]
    a6ec:	3e01      	subs	r6, #1
    a6ee:	5c5b      	ldrb	r3, [r3, r1]
    a6f0:	0028      	movs	r0, r5
    a6f2:	7033      	strb	r3, [r6, #0]
    a6f4:	0039      	movs	r1, r7
    a6f6:	f7fe fd21 	bl	913c <__udivsi3>
    a6fa:	1e05      	subs	r5, r0, #0
    a6fc:	d1f1      	bne.n	a6e2 <_printf_i+0x1d6>
    a6fe:	2f08      	cmp	r7, #8
    a700:	d109      	bne.n	a716 <_printf_i+0x20a>
    a702:	6823      	ldr	r3, [r4, #0]
    a704:	07db      	lsls	r3, r3, #31
    a706:	d506      	bpl.n	a716 <_printf_i+0x20a>
    a708:	6863      	ldr	r3, [r4, #4]
    a70a:	6922      	ldr	r2, [r4, #16]
    a70c:	4293      	cmp	r3, r2
    a70e:	dc02      	bgt.n	a716 <_printf_i+0x20a>
    a710:	2330      	movs	r3, #48	; 0x30
    a712:	3e01      	subs	r6, #1
    a714:	7033      	strb	r3, [r6, #0]
    a716:	9b04      	ldr	r3, [sp, #16]
    a718:	1b9b      	subs	r3, r3, r6
    a71a:	6123      	str	r3, [r4, #16]
    a71c:	9b07      	ldr	r3, [sp, #28]
    a71e:	aa09      	add	r2, sp, #36	; 0x24
    a720:	9300      	str	r3, [sp, #0]
    a722:	0021      	movs	r1, r4
    a724:	9b06      	ldr	r3, [sp, #24]
    a726:	9805      	ldr	r0, [sp, #20]
    a728:	f7ff fe82 	bl	a430 <_printf_common>
    a72c:	1c43      	adds	r3, r0, #1
    a72e:	d1b3      	bne.n	a698 <_printf_i+0x18c>
    a730:	2001      	movs	r0, #1
    a732:	4240      	negs	r0, r0
    a734:	b00b      	add	sp, #44	; 0x2c
    a736:	bdf0      	pop	{r4, r5, r6, r7, pc}
    a738:	0000ed7e 	.word	0x0000ed7e
    a73c:	0000ed6d 	.word	0x0000ed6d

0000a740 <_sbrk_r>:
    a740:	2300      	movs	r3, #0
    a742:	b570      	push	{r4, r5, r6, lr}
    a744:	4c06      	ldr	r4, [pc, #24]	; (a760 <_sbrk_r+0x20>)
    a746:	0005      	movs	r5, r0
    a748:	0008      	movs	r0, r1
    a74a:	6023      	str	r3, [r4, #0]
    a74c:	f7f8 f87a 	bl	2844 <_sbrk>
    a750:	1c43      	adds	r3, r0, #1
    a752:	d103      	bne.n	a75c <_sbrk_r+0x1c>
    a754:	6823      	ldr	r3, [r4, #0]
    a756:	2b00      	cmp	r3, #0
    a758:	d000      	beq.n	a75c <_sbrk_r+0x1c>
    a75a:	602b      	str	r3, [r5, #0]
    a75c:	bd70      	pop	{r4, r5, r6, pc}
    a75e:	46c0      	nop			; (mov r8, r8)
    a760:	20000ac8 	.word	0x20000ac8

0000a764 <__sread>:
    a764:	b570      	push	{r4, r5, r6, lr}
    a766:	000c      	movs	r4, r1
    a768:	250e      	movs	r5, #14
    a76a:	5f49      	ldrsh	r1, [r1, r5]
    a76c:	f000 f8ea 	bl	a944 <_read_r>
    a770:	2800      	cmp	r0, #0
    a772:	db03      	blt.n	a77c <__sread+0x18>
    a774:	6d63      	ldr	r3, [r4, #84]	; 0x54
    a776:	181b      	adds	r3, r3, r0
    a778:	6563      	str	r3, [r4, #84]	; 0x54
    a77a:	bd70      	pop	{r4, r5, r6, pc}
    a77c:	89a3      	ldrh	r3, [r4, #12]
    a77e:	4a02      	ldr	r2, [pc, #8]	; (a788 <__sread+0x24>)
    a780:	4013      	ands	r3, r2
    a782:	81a3      	strh	r3, [r4, #12]
    a784:	e7f9      	b.n	a77a <__sread+0x16>
    a786:	46c0      	nop			; (mov r8, r8)
    a788:	ffffefff 	.word	0xffffefff

0000a78c <__swrite>:
    a78c:	b5f8      	push	{r3, r4, r5, r6, r7, lr}
    a78e:	001f      	movs	r7, r3
    a790:	898b      	ldrh	r3, [r1, #12]
    a792:	0005      	movs	r5, r0
    a794:	000c      	movs	r4, r1
    a796:	0016      	movs	r6, r2
    a798:	05db      	lsls	r3, r3, #23
    a79a:	d505      	bpl.n	a7a8 <__swrite+0x1c>
    a79c:	230e      	movs	r3, #14
    a79e:	5ec9      	ldrsh	r1, [r1, r3]
    a7a0:	2200      	movs	r2, #0
    a7a2:	2302      	movs	r3, #2
    a7a4:	f000 f874 	bl	a890 <_lseek_r>
    a7a8:	89a3      	ldrh	r3, [r4, #12]
    a7aa:	4a05      	ldr	r2, [pc, #20]	; (a7c0 <__swrite+0x34>)
    a7ac:	0028      	movs	r0, r5
    a7ae:	4013      	ands	r3, r2
    a7b0:	81a3      	strh	r3, [r4, #12]
    a7b2:	0032      	movs	r2, r6
    a7b4:	230e      	movs	r3, #14
    a7b6:	5ee1      	ldrsh	r1, [r4, r3]
    a7b8:	003b      	movs	r3, r7
    a7ba:	f000 f81f 	bl	a7fc <_write_r>
    a7be:	bdf8      	pop	{r3, r4, r5, r6, r7, pc}
    a7c0:	ffffefff 	.word	0xffffefff

0000a7c4 <__sseek>:
    a7c4:	b570      	push	{r4, r5, r6, lr}
    a7c6:	000c      	movs	r4, r1
    a7c8:	250e      	movs	r5, #14
    a7ca:	5f49      	ldrsh	r1, [r1, r5]
    a7cc:	f000 f860 	bl	a890 <_lseek_r>
    a7d0:	89a3      	ldrh	r3, [r4, #12]
    a7d2:	1c42      	adds	r2, r0, #1
    a7d4:	d103      	bne.n	a7de <__sseek+0x1a>
    a7d6:	4a05      	ldr	r2, [pc, #20]	; (a7ec <__sseek+0x28>)
    a7d8:	4013      	ands	r3, r2
    a7da:	81a3      	strh	r3, [r4, #12]
    a7dc:	bd70      	pop	{r4, r5, r6, pc}
    a7de:	2280      	movs	r2, #128	; 0x80
    a7e0:	0152      	lsls	r2, r2, #5
    a7e2:	4313      	orrs	r3, r2
    a7e4:	81a3      	strh	r3, [r4, #12]
    a7e6:	6560      	str	r0, [r4, #84]	; 0x54
    a7e8:	e7f8      	b.n	a7dc <__sseek+0x18>
    a7ea:	46c0      	nop			; (mov r8, r8)
    a7ec:	ffffefff 	.word	0xffffefff

0000a7f0 <__sclose>:
    a7f0:	b510      	push	{r4, lr}
    a7f2:	230e      	movs	r3, #14
    a7f4:	5ec9      	ldrsh	r1, [r1, r3]
    a7f6:	f000 f815 	bl	a824 <_close_r>
    a7fa:	bd10      	pop	{r4, pc}

0000a7fc <_write_r>:
    a7fc:	b570      	push	{r4, r5, r6, lr}
    a7fe:	0005      	movs	r5, r0
    a800:	0008      	movs	r0, r1
    a802:	0011      	movs	r1, r2
    a804:	2200      	movs	r2, #0
    a806:	4c06      	ldr	r4, [pc, #24]	; (a820 <_write_r+0x24>)
    a808:	6022      	str	r2, [r4, #0]
    a80a:	001a      	movs	r2, r3
    a80c:	f7fd f816 	bl	783c <_write>
    a810:	1c43      	adds	r3, r0, #1
    a812:	d103      	bne.n	a81c <_write_r+0x20>
    a814:	6823      	ldr	r3, [r4, #0]
    a816:	2b00      	cmp	r3, #0
    a818:	d000      	beq.n	a81c <_write_r+0x20>
    a81a:	602b      	str	r3, [r5, #0]
    a81c:	bd70      	pop	{r4, r5, r6, pc}
    a81e:	46c0      	nop			; (mov r8, r8)
    a820:	20000ac8 	.word	0x20000ac8

0000a824 <_close_r>:
    a824:	2300      	movs	r3, #0
    a826:	b570      	push	{r4, r5, r6, lr}
    a828:	4c06      	ldr	r4, [pc, #24]	; (a844 <_close_r+0x20>)
    a82a:	0005      	movs	r5, r0
    a82c:	0008      	movs	r0, r1
    a82e:	6023      	str	r3, [r4, #0]
    a830:	f7f8 f81a 	bl	2868 <_close>
    a834:	1c43      	adds	r3, r0, #1
    a836:	d103      	bne.n	a840 <_close_r+0x1c>
    a838:	6823      	ldr	r3, [r4, #0]
    a83a:	2b00      	cmp	r3, #0
    a83c:	d000      	beq.n	a840 <_close_r+0x1c>
    a83e:	602b      	str	r3, [r5, #0]
    a840:	bd70      	pop	{r4, r5, r6, pc}
    a842:	46c0      	nop			; (mov r8, r8)
    a844:	20000ac8 	.word	0x20000ac8

0000a848 <_fstat_r>:
    a848:	2300      	movs	r3, #0
    a84a:	b570      	push	{r4, r5, r6, lr}
    a84c:	4c06      	ldr	r4, [pc, #24]	; (a868 <_fstat_r+0x20>)
    a84e:	0005      	movs	r5, r0
    a850:	0008      	movs	r0, r1
    a852:	0011      	movs	r1, r2
    a854:	6023      	str	r3, [r4, #0]
    a856:	f7f8 f80a 	bl	286e <_fstat>
    a85a:	1c43      	adds	r3, r0, #1
    a85c:	d103      	bne.n	a866 <_fstat_r+0x1e>
    a85e:	6823      	ldr	r3, [r4, #0]
    a860:	2b00      	cmp	r3, #0
    a862:	d000      	beq.n	a866 <_fstat_r+0x1e>
    a864:	602b      	str	r3, [r5, #0]
    a866:	bd70      	pop	{r4, r5, r6, pc}
    a868:	20000ac8 	.word	0x20000ac8

0000a86c <_isatty_r>:
    a86c:	2300      	movs	r3, #0
    a86e:	b570      	push	{r4, r5, r6, lr}
    a870:	4c06      	ldr	r4, [pc, #24]	; (a88c <_isatty_r+0x20>)
    a872:	0005      	movs	r5, r0
    a874:	0008      	movs	r0, r1
    a876:	6023      	str	r3, [r4, #0]
    a878:	f7f7 fffe 	bl	2878 <_isatty>
    a87c:	1c43      	adds	r3, r0, #1
    a87e:	d103      	bne.n	a888 <_isatty_r+0x1c>
    a880:	6823      	ldr	r3, [r4, #0]
    a882:	2b00      	cmp	r3, #0
    a884:	d000      	beq.n	a888 <_isatty_r+0x1c>
    a886:	602b      	str	r3, [r5, #0]
    a888:	bd70      	pop	{r4, r5, r6, pc}
    a88a:	46c0      	nop			; (mov r8, r8)
    a88c:	20000ac8 	.word	0x20000ac8

0000a890 <_lseek_r>:
    a890:	b570      	push	{r4, r5, r6, lr}
    a892:	0005      	movs	r5, r0
    a894:	0008      	movs	r0, r1
    a896:	0011      	movs	r1, r2
    a898:	2200      	movs	r2, #0
    a89a:	4c06      	ldr	r4, [pc, #24]	; (a8b4 <_lseek_r+0x24>)
    a89c:	6022      	str	r2, [r4, #0]
    a89e:	001a      	movs	r2, r3
    a8a0:	f7f7 ffec 	bl	287c <_lseek>
    a8a4:	1c43      	adds	r3, r0, #1
    a8a6:	d103      	bne.n	a8b0 <_lseek_r+0x20>
    a8a8:	6823      	ldr	r3, [r4, #0]
    a8aa:	2b00      	cmp	r3, #0
    a8ac:	d000      	beq.n	a8b0 <_lseek_r+0x20>
    a8ae:	602b      	str	r3, [r5, #0]
    a8b0:	bd70      	pop	{r4, r5, r6, pc}
    a8b2:	46c0      	nop			; (mov r8, r8)
    a8b4:	20000ac8 	.word	0x20000ac8

0000a8b8 <memchr>:
    a8b8:	b2c9      	uxtb	r1, r1
    a8ba:	1882      	adds	r2, r0, r2
    a8bc:	4290      	cmp	r0, r2
    a8be:	d101      	bne.n	a8c4 <memchr+0xc>
    a8c0:	2000      	movs	r0, #0
    a8c2:	4770      	bx	lr
    a8c4:	7803      	ldrb	r3, [r0, #0]
    a8c6:	428b      	cmp	r3, r1
    a8c8:	d0fb      	beq.n	a8c2 <memchr+0xa>
    a8ca:	3001      	adds	r0, #1
    a8cc:	e7f6      	b.n	a8bc <memchr+0x4>

0000a8ce <memmove>:
    a8ce:	b510      	push	{r4, lr}
    a8d0:	4288      	cmp	r0, r1
    a8d2:	d902      	bls.n	a8da <memmove+0xc>
    a8d4:	188b      	adds	r3, r1, r2
    a8d6:	4298      	cmp	r0, r3
    a8d8:	d308      	bcc.n	a8ec <memmove+0x1e>
    a8da:	2300      	movs	r3, #0
    a8dc:	429a      	cmp	r2, r3
    a8de:	d007      	beq.n	a8f0 <memmove+0x22>
    a8e0:	5ccc      	ldrb	r4, [r1, r3]
    a8e2:	54c4      	strb	r4, [r0, r3]
    a8e4:	3301      	adds	r3, #1
    a8e6:	e7f9      	b.n	a8dc <memmove+0xe>
    a8e8:	5c8b      	ldrb	r3, [r1, r2]
    a8ea:	5483      	strb	r3, [r0, r2]
    a8ec:	3a01      	subs	r2, #1
    a8ee:	d2fb      	bcs.n	a8e8 <memmove+0x1a>
    a8f0:	bd10      	pop	{r4, pc}

0000a8f2 <__malloc_lock>:
    a8f2:	4770      	bx	lr

0000a8f4 <__malloc_unlock>:
    a8f4:	4770      	bx	lr

0000a8f6 <_realloc_r>:
    a8f6:	b5f8      	push	{r3, r4, r5, r6, r7, lr}
    a8f8:	0007      	movs	r7, r0
    a8fa:	000d      	movs	r5, r1
    a8fc:	0016      	movs	r6, r2
    a8fe:	2900      	cmp	r1, #0
    a900:	d105      	bne.n	a90e <_realloc_r+0x18>
    a902:	0011      	movs	r1, r2
    a904:	f7ff fa8c 	bl	9e20 <_malloc_r>
    a908:	0004      	movs	r4, r0
    a90a:	0020      	movs	r0, r4
    a90c:	bdf8      	pop	{r3, r4, r5, r6, r7, pc}
    a90e:	2a00      	cmp	r2, #0
    a910:	d103      	bne.n	a91a <_realloc_r+0x24>
    a912:	f7ff fa3b 	bl	9d8c <_free_r>
    a916:	0034      	movs	r4, r6
    a918:	e7f7      	b.n	a90a <_realloc_r+0x14>
    a91a:	f000 f827 	bl	a96c <_malloc_usable_size_r>
    a91e:	002c      	movs	r4, r5
    a920:	4286      	cmp	r6, r0
    a922:	d9f2      	bls.n	a90a <_realloc_r+0x14>
    a924:	0031      	movs	r1, r6
    a926:	0038      	movs	r0, r7
    a928:	f7ff fa7a 	bl	9e20 <_malloc_r>
    a92c:	1e04      	subs	r4, r0, #0
    a92e:	d0ec      	beq.n	a90a <_realloc_r+0x14>
    a930:	0029      	movs	r1, r5
    a932:	0032      	movs	r2, r6
    a934:	f7fe fdd5 	bl	94e2 <memcpy>
    a938:	0029      	movs	r1, r5
    a93a:	0038      	movs	r0, r7
    a93c:	f7ff fa26 	bl	9d8c <_free_r>
    a940:	e7e3      	b.n	a90a <_realloc_r+0x14>
	...

0000a944 <_read_r>:
    a944:	b570      	push	{r4, r5, r6, lr}
    a946:	0005      	movs	r5, r0
    a948:	0008      	movs	r0, r1
    a94a:	0011      	movs	r1, r2
    a94c:	2200      	movs	r2, #0
    a94e:	4c06      	ldr	r4, [pc, #24]	; (a968 <_read_r+0x24>)
    a950:	6022      	str	r2, [r4, #0]
    a952:	001a      	movs	r2, r3
    a954:	f7fc ff5e 	bl	7814 <_read>
    a958:	1c43      	adds	r3, r0, #1
    a95a:	d103      	bne.n	a964 <_read_r+0x20>
    a95c:	6823      	ldr	r3, [r4, #0]
    a95e:	2b00      	cmp	r3, #0
    a960:	d000      	beq.n	a964 <_read_r+0x20>
    a962:	602b      	str	r3, [r5, #0]
    a964:	bd70      	pop	{r4, r5, r6, pc}
    a966:	46c0      	nop			; (mov r8, r8)
    a968:	20000ac8 	.word	0x20000ac8

0000a96c <_malloc_usable_size_r>:
    a96c:	1f0b      	subs	r3, r1, #4
    a96e:	681b      	ldr	r3, [r3, #0]
    a970:	1f18      	subs	r0, r3, #4
    a972:	2b00      	cmp	r3, #0
    a974:	da01      	bge.n	a97a <_malloc_usable_size_r+0xe>
    a976:	580b      	ldr	r3, [r1, r0]
    a978:	18c0      	adds	r0, r0, r3
    a97a:	4770      	bx	lr
    a97c:	65620a0d 	.word	0x65620a0d
    a980:	65726f66 	.word	0x65726f66
    a984:	6d6f6320 	.word	0x6d6f6320
    a988:	69736f70 	.word	0x69736f70
    a98c:	64206574 	.word	0x64206574
    a990:	63697665 	.word	0x63697665
    a994:	74732065 	.word	0x74732065
    a998:	0d747261 	.word	0x0d747261
    a99c:	00000000 	.word	0x00000000
    a9a0:	682f2e2e 	.word	0x682f2e2e
    a9a4:	732f6c61 	.word	0x732f6c61
    a9a8:	682f6372 	.word	0x682f6372
    a9ac:	615f6c61 	.word	0x615f6c61
    a9b0:	615f6364 	.word	0x615f6364
    a9b4:	636e7973 	.word	0x636e7973
    a9b8:	0000632e 	.word	0x0000632e
    a9bc:	682f2e2e 	.word	0x682f2e2e
    a9c0:	732f6c61 	.word	0x732f6c61
    a9c4:	682f6372 	.word	0x682f6372
    a9c8:	645f6c61 	.word	0x645f6c61
    a9cc:	615f6361 	.word	0x615f6361
    a9d0:	636e7973 	.word	0x636e7973
    a9d4:	0000632e 	.word	0x0000632e
    a9d8:	682f2e2e 	.word	0x682f2e2e
    a9dc:	732f6c61 	.word	0x732f6c61
    a9e0:	682f6372 	.word	0x682f6372
    a9e4:	665f6c61 	.word	0x665f6c61
    a9e8:	6873616c 	.word	0x6873616c
    a9ec:	0000632e 	.word	0x0000632e
    a9f0:	682f2e2e 	.word	0x682f2e2e
    a9f4:	732f6c61 	.word	0x732f6c61
    a9f8:	682f6372 	.word	0x682f6372
    a9fc:	695f6c61 	.word	0x695f6c61
    aa00:	6d5f6332 	.word	0x6d5f6332
    aa04:	6e79735f 	.word	0x6e79735f
    aa08:	00632e63 	.word	0x00632e63
    aa0c:	682f2e2e 	.word	0x682f2e2e
    aa10:	732f6c61 	.word	0x732f6c61
    aa14:	682f6372 	.word	0x682f6372
    aa18:	695f6c61 	.word	0x695f6c61
    aa1c:	00632e6f 	.word	0x00632e6f
    aa20:	682f2e2e 	.word	0x682f2e2e
    aa24:	732f6c61 	.word	0x732f6c61
    aa28:	682f6372 	.word	0x682f6372
    aa2c:	735f6c61 	.word	0x735f6c61
    aa30:	6d5f6970 	.word	0x6d5f6970
    aa34:	6e79735f 	.word	0x6e79735f
    aa38:	00632e63 	.word	0x00632e63
    aa3c:	682f2e2e 	.word	0x682f2e2e
    aa40:	732f6c61 	.word	0x732f6c61
    aa44:	682f6372 	.word	0x682f6372
    aa48:	745f6c61 	.word	0x745f6c61
    aa4c:	72656d69 	.word	0x72656d69
    aa50:	0000632e 	.word	0x0000632e
    aa54:	682f2e2e 	.word	0x682f2e2e
    aa58:	732f6c61 	.word	0x732f6c61
    aa5c:	682f6372 	.word	0x682f6372
    aa60:	755f6c61 	.word	0x755f6c61
    aa64:	74726173 	.word	0x74726173
    aa68:	7973615f 	.word	0x7973615f
    aa6c:	632e636e 	.word	0x632e636e
    aa70:	00000000 	.word	0x00000000
    aa74:	682f2e2e 	.word	0x682f2e2e
    aa78:	732f6c61 	.word	0x732f6c61
    aa7c:	682f6372 	.word	0x682f6372
    aa80:	755f6c61 	.word	0x755f6c61
    aa84:	74726173 	.word	0x74726173
    aa88:	6e79735f 	.word	0x6e79735f
    aa8c:	00632e63 	.word	0x00632e63
    aa90:	682f2e2e 	.word	0x682f2e2e
    aa94:	752f6c61 	.word	0x752f6c61
    aa98:	736c6974 	.word	0x736c6974
    aa9c:	6372732f 	.word	0x6372732f
    aaa0:	6974752f 	.word	0x6974752f
    aaa4:	6c5f736c 	.word	0x6c5f736c
    aaa8:	2e747369 	.word	0x2e747369
    aaac:	00000063 	.word	0x00000063
    aab0:	682f2e2e 	.word	0x682f2e2e
    aab4:	752f6c61 	.word	0x752f6c61
    aab8:	736c6974 	.word	0x736c6974
    aabc:	6372732f 	.word	0x6372732f
    aac0:	6974752f 	.word	0x6974752f
    aac4:	725f736c 	.word	0x725f736c
    aac8:	62676e69 	.word	0x62676e69
    aacc:	65666675 	.word	0x65666675
    aad0:	00632e72 	.word	0x00632e72

0000aad4 <_adcs>:
    aad4:	03000200 00000000 00000000 00001801     ................
	...
    aaf0:	682f2e2e 612f6c70 682f6364 615f6c70     ../hpl/adc/hpl_a
    ab00:	632e6364 00000000 682f2e2e 642f6c70     dc.c....../hpl/d
    ab10:	682f6361 645f6c70 632e6361 00000000     ac/hpl_dac.c....

0000ab20 <_map>:
    ab20:	00000000 00000020 00000001 00000021     .... .......!...
    ab30:	00000002 00000022 00000003 00000023     ....".......#...
    ab40:	00000004 00000004 00000005 00000005     ................
    ab50:	00000006 00000006 00000007 00000007     ................
    ab60:	00000008 00000028 00000009 00000029     ....(.......)...
    ab70:	0000000a 0000002a 0000000b 0000002b     ....*.......+...
    ab80:	0000000c 0000002c 0000000d 0000002d     ....,.......-...
    ab90:	0000000e 0000002e 0000000f 0000002f     ............/...
    aba0:	682f2e2e 652f6c70 682f6369 655f6c70     ../hpl/eic/hpl_e
    abb0:	632e6369 00000000 682f2e2e 6e2f6c70     ic.c....../hpl/n
    abc0:	74636d76 682f6c72 6e5f6c70 74636d76     vmctrl/hpl_nvmct
    abd0:	632e6c72 00000000 682f2e2e 722f6c70     rl.c....../hpl/r
    abe0:	682f6374 725f6c70 632e6374 00000000     tc/hpl_rtc.c....

0000abf0 <_usarts>:
    abf0:	00000001 40100004 00030000 0000c504     .......@........
    ac00:	00000000 00000005 40310004 00030000     ..........1@....
    ac10:	0000c504 00000000                       ........

0000ac18 <_i2cms>:
    ac18:	00000003 00200014 00000100 00000022     ...... ....."...
    ac28:	00d70000 007a1200                       ......z.

0000ac30 <_i2css>:
	...

0000ac40 <sercomspi_regs>:
    ac40:	0030000c 00020000 00000000 01ff004f     ..0.........O...
    ac50:	00000000 682f2e2e 732f6c70 6f637265     ....../hpl/serco
    ac60:	70682f6d 65735f6c 6d6f6372 0000632e     m/hpl_sercom.c..
    ac70:	00004a25 00000804                       %J......

0000ac78 <_usb_ep_cfgs>:
    ac78:	20000700 00000000 00000040 00000000     ... ....@.......
	...
    ac90:	200006f8 00000000 00000008 200006b8     ... ........... 
    aca0:	00000000 00000040 00000000 00000000     ....@...........
	...
    acc0:	00005cf4 00005d0c 00005d24 00005d3c     .\...]..$]..<]..
    acd0:	00005d54 00005e02 00005e5c 00005e74     T]...^..\^..t^..
    ace0:	00005e44 00005d0a 00005e8c 00005ea8     D^...]...^...^..
    acf0:	0000697a 00006980 0000698e 00006b0e     zi...i...i...k..
    ad00:	00006994 000069b8 000069dc 00006a00     .i...i...i...j..
    ad10:	00006a24 00006b38 00006b14 00006b5c     $j..8k...k..\k..
    ad20:	00006c04 00006c28 00006c2e 00006cd6     .l..(l...l...l..
    ad30:	00006ca4 00006c96 00006c62 00006dc8     .l...l..bl...m..
    ad40:	00006dd6 00006e08 00006d80 00006d4c     .m...n...m..Lm..
    ad50:	00006d18 00006ce4 00006e16 00006e46     .m...l...n..Fn..
    ad60:	00006e40 00006e68 00006e76 00006e5a     @n..hn..vn..Zn..
    ad70:	00006e4c 00006ea8 00007142 0000710e     Ln...n..Bq...q..
    ad80:	0000710e 0000710e 0000714c 0000710e     .q...q..Lq...q..
    ad90:	0000710e 0000710e 00007170 00007156     .q...q..pq..Vq..
    ada0:	00007106 000070ec                       .q...p..

0000ada8 <set_error_text_PS_low>:
    ada8:	00121101 00000200                       ........

0000adb0 <set_error_text_PS_high>:
    adb0:	00121101 00000301                       ........

0000adb8 <set_error_text_USB_error>:
    adb8:	00121101 00000002                       ........

0000adc0 <simulation_trigger_LED_off>:
    adc0:	00001301 00001200                       ........

0000adc8 <man_trig_trigger_LED_off>:
    adc8:	00011301 00001300                       ........

0000add0 <man_trig_trigger_LED_on>:
    add0:	00011301 00001201                       ........

0000add8 <simulation_trigger_LED_on>:
    add8:	00001301 00001301                       ........

0000ade0 <set_trigg_slice_txt>:
    ade0:	000a1101 00001802                       ........

0000ade8 <set_trigg_volume_txt>:
    ade8:	000a1101 00001903                       ........

0000adf0 <set_no_of_slices_txt>:
    adf0:	000a1101 00001a00                       ........

0000adf8 <set_no_of_volumes_txt>:
    adf8:	000a1101 00001b01                       ........

0000ae00 <set_pulse_length_txt>:
    ae00:	000a1101 00001e04                       ........

0000ae08 <set_tr_time_txt>:
    ae08:	000a1101 00001f05                       ........

0000ae10 <ad>:
    ae10:	0003e000                                ....

0000ae14 <error_beep>:
    ae14:	02a9022d 030b02bb 027d02ca 02a6028e     -.........}.....
    ae24:	031d02c7 031c0306 02e9031a 03700331     ............1.p.
    ae34:	03f103d0 036003ce 02ad02c5 037802e4     ......`.......x.
    ae44:	03c803ea 02d30379 0214023f 02e00258     ....y...?...X...
    ae54:	02cd0318 02340237 029402a5 01d9022e     ....7.4.........
    ae64:	026901d8 022e02d9 015c013c 02360207     ..i.....<.\...6.
    ae74:	018901ef 01a2014e 016301e2 010000ef     ....N.....c.....
    ae84:	01e4017c 016401d7 004900b0 005d001d     |.....d...I...].
    ae94:	014c0100 00e00155 002b0052 0098003b     ..L.U...R.+.;...
    aea4:	012000de 00f60120 010a0124 01770140     .. . ...$...@.w.
    aeb4:	019e0183 0142017e 01a3016a 025001c1     ....~.B.j.....P.
    aec4:	02a20260 027602b8 02810262 02ce028d     `.....v.b.......
    aed4:	02df02f4 02d7030a 032e02e9 03cf0379     ............y...
    aee4:	039703ce 02a10300 031702bb 03d903b8     ................
    aef4:	032a039f 021c027a 029a0225 02ff0307     ..*.z...%.......
    af04:	0218027d 02ae026f 01ff0261 021101c7     }...o...a.......
    af14:	02a502b7 012a01a2 023301b7 01be021a     ......*...3.....
    af24:	016a0161 01b501da 00ec011d 01be0139     a.j.........9...
    af34:	01ad01ec 0076010e 002c0036 013500b4     ......v.6.,...5.
    af44:	012f015b 003a0090 0067002d 00ff00c4     [./...:.-.g.....
    af54:	01010133 011f010f 016a0115 01960179     3.........j.y...
    af64:	015f0196 01970144 020b01a2 02730265     .._.D.......e.s.
    af74:	029502c1 026d0264 02a00289 02de02f2     ....d.m.........
    af84:	02f802f6 030d02cd 03a9034a 03ba03d5     ........J.......
    af94:	02bc0353 02db02a6 03dd0368 037103be     S.......h.....q.
    afa4:	023d02cf 02550213 031302db 023502ca     ..=...U.......5.
    afb4:	02a20232 022d0292 01d701d9 02d60267     2.....-.....g...
    afc4:	013e022f 0208015e 01ef0236 0151018c     /.>.^...6.....Q.
    afd4:	01e501a4 00f30167 017e0105 01d901e5     ....g.....~.....
    afe4:	00b70168 00240051 01040060 0157014f     h...Q.$.`...O.W.
    aff4:	005600e4 003d0030 00e1009b 01230122     ..V.0.=.....".#.
    b004:	012600f7 0140010c 01830179 018001a0     ..&...@.y.......
    b014:	016a0143 01c001a5 02600250 02b802a0     C.j.....P.`.....
    b024:	02610275 028c027f 02f402cb 030902db     u.a.............
    b034:	02e602d6 0375032c 03cc03cc 03000396     ....,.u.........
    b044:	02ba029f 03b60314 039d03d8 0279032a     ............*.y.
    b054:	0224021b 03070299 027d02ff 026e0216     ..$.......}...n.
    b064:	026102af 01c701fe 02b70210 01a302a8     ..a.............
    b074:	01b70127 021b0235 016101bf 01da0169     '...5.....a.i...
    b084:	011d01b7 013900ec 01ed01bf 010f01ae     ......9.........
    b094:	00370077 00b3002c 015c0137 00910131     w.7.,...7.\.1...
    b0a4:	002e003a 00c50066 013500ff 010d0102     :...f.....5.....
    b0b4:	01140121 017a016b 01980196 0143015f     !...k.z....._.C.
    b0c4:	01a30197 02670209 02c20270 02630295     ......g.p.....c.
    b0d4:	0289026d 02f2029f 02f402df 02cb02f9     m...............
    b0e4:	0349030d 03d603a8 035503b9 02a402ba     ..I.......U.....
    b0f4:	036602da 03bd03de 02d00371 0212023b     ..f.....q...;...
    b104:	02db0253 02cb0314 022f0235 029302a3     S.......5./.....
    b114:	01d9022d 026501d6 023202d8 015b013c     -.....e...2.<.[.
    b124:	02380209 018c01f0 01a20150 016801e7     ..8.....P.....h.
    b134:	010400f2 01e7017d 016a01da 005100b7     ....}.....j...Q.
    b144:	005e0025 01500105 00e70158 00300055     %.^...P.X...U.0.
    b154:	009b003d 012100e2 00f50126 010d0127     =.....!.&...'...
    b164:	017c013e 01a10182 01430180 01a80168     >.|.......C.h...
    b174:	025101bd 029e0261 027402bb 027f0260     ..Q.a.....t.`...
    b184:	02c9028d 02da02f6 02d70309 032d02e3     ..............-.
    b194:	03cd0374 039603cc 029c0301 031202ba     t...............
    b1a4:	03da03b6 032c039d 021a0279 02970223     ......,.y...#...
    b1b4:	03010308 0213027f 02b1026c 01fe0262     ........l...b...
    b1c4:	020d01c6 02ac02b7 012301a4 023601b5     ..........#...6.
    b1d4:	01bf021c 01660161 01bb01db 00ea011d     ....a.f.........
    b1e4:	01bf0137 01af01ef 00760111 002b0037     7.........v.7.+.
    b1f4:	013900b1 0133015c 00390092 0064002e     ..9.\.3...9...d.
    b204:	00fe00c6 01040135 0124010b 016b0112     ....5.....$...k.
    b214:	0195017b 01600199 01960141 020501a5     {.....`.A.......
    b224:	026e026b 029702c3 026c0262 029e028a     k.n.....b.l.....
    b234:	02e102f2 02fc02f1 030c02c8 03a70349     ............I...
    b244:	03b903d7 02ba0357 02da02a2 03e00364     ....W.......d...
    b254:	037203be 023a02d2 02510211 031602db     ..r...:...Q.....
    b264:	023502cd 02a4022b 022d0296 01d401d9     ..5.+.....-.....
    b274:	02db0263 013a0238 02090156 01f1023a     c...8.:.V...:...
    b284:	014f018d 01ea019f 00f0016b 017c0102     ..O.....k.....|.
    b294:	01db01e8 00b8016c 0026004f 0104005b     ....l...O.&.[...
    b2a4:	01590152 005400ea 003c002f 00e30099     R.Y...T./.<.....
    b2b4:	01290120 012600f4 013a010f 0181017e      .)...&...:.~...
    b2c4:	018201a1 01650143 01bb01aa 02640250     ....C.e.....P.d.
    b2d4:	02bf029a 025f0273 028d027e 02f902c6     ....s._.~.......
    b2e4:	030902d8 02e002d9 0372032e 03cd03cd     ..........r.....
    b2f4:	03030397 02b9029a 03b40310 039c03de     ................
    b304:	0279032f 02220218 03090295 02810303     /.y...".........
    b314:	02690211 026302b5 01c501fe 02b6020a     ..i...c.........
    b324:	01a702b2 01b2011d 021e0239 016201c0     ........9.....b.
    b334:	01da0163 011d01c0 013500e8 01f101be     c.........5.....
    b344:	011401b1 00370075 00ad002a 015c013b     ....u.7.*...;.\.
    b354:	00940136 002e0036 00c70062 013600fe     6...6...b.....6.
    b364:	01070106 01100127 017d016a 019b0193     ....'...j.}.....
    b374:	01400161 01a80194 026f01ff 02c2026c     a.@.......o.l...
    b384:	025f029b 028a026b 02f0029d 02ed02e4     .._.k...........
    b394:	02c70300 034a0309 03d903a4 035a03b9     ......J.......Z.
    b3a4:	029f02ba 036002da 03c003e2 02d60372     ......`.....r...
    b3b4:	02100238 02da024e 02cf0318 02250236     8...N.......6.%.
    b3c4:	029a02a3 01d9022d 025f01d1 023f02de     ....-....._...?.
    b3d4:	014f0138 023e0209 018e01f2 019b014d     8.O...>.....M...
    b3e4:	017001ee 010000ee 01ea017a 016f01de     ..p.....z.....o.
    b3f4:	004e00bb 00570027 01540103 00ef0159     ..N.'.W...T.Y...
    b404:	002e0053 0097003c 011e00e5 00f3012c     S...<.......,...
    b414:	01130124 01810135 01a10181 01430184     $...5.........C.
    b424:	01ac0161 024c01ba 0294026a 027402c3     a.....L.j.....t.
    b434:	027e025d 02c3028e 02d802fb 02de0307     ].~.............
    b444:	032e02da 03cd0370 039703d0 02960307     ....p...........
    b454:	030e02b7 03e203b1 0331039c 0216027c     ..........1.|...
    b464:	02910220 0305030a 020f0284 02b80263      ...........c...
    b474:	01fe0266 020501c5 02ba02b4 011601ad     f...............
    b484:	023c01ad 01c10221 01600162 01c701d8     ..<.!...b.`.....
    b494:	00e4011e 01bd0133 01b401f4 00750118     ....3.........u.
    b4a4:	002a0036 013e00a8 0139015d 00330099     6.*...>.].9...3.
    b4b4:	0060002f 00ff00c6 010b0135 01290102     /.`.....5.....).
    b4c4:	01660110 01900182 0163019d 0191013e     ..f.......c.>...
    b4d4:	01f801ac 026c0272 02a102be 026a025d     ....r.l.....].j.
    b4e4:	029c028a 02e902ed 030302e9 030402c7     ................
    b4f4:	03a1034c 03bb03dc 02bc035c 02d9029a     L.......\.......
    b504:	03e3035b 037103c4 023802da 024c020d     [.....q...8...L.
    b514:	031b02d7 023802d3 02a1021f 022e02a0     ......8.........
    b524:	01cf01d9 02e10259 0138024a 02080145     ....Y...J.8.E...
    b534:	01f40243 014d018f 01f00196 00eb0177     C.....M.....w...
    b544:	017700fd 01e201ea 00be0172 0027004c     ..w.....r...L.'.
    b554:	00ff0053 01590159 005400f5 003c002b     S...Y.Y...T.+.<.
    b564:	00e60093 012e011d 012000f4 01300118     .......... ...0.
    b574:	01820182 0188019f 015c0144 01ba01ad     ........D.\.....
    b584:	02710245 02c6028e 02590278 028f027d     E.q.....x.Y.}...
    b594:	02fd02c0 030202da 02d502e3 0370032c     ............,.p.
    b5a4:	03d303ca 030c0398 02b30294 03ad030d     ................
    b5b4:	039e03e7 02800333 021e0212 030a028d     ....3...........
    b5c4:	0289030a 025b020d 026c02bc 01c401fd     ......[...l.....
    b5d4:	02b00200 01b702c3 01a3010e 02260240     ............@.&.
    b5e4:	016301c2 01d4015c 012301d0 013000df     ..c.\.....#...0.
    b5f4:	01f801bb 011d01b7 00340076 00a1002a     ........v.4.*...
    b604:	0161013e 009f013a 002e0030 00c4005e     >.a.:...0...^...
    b614:	01340101 00fe0110 0112012a 0186015f     ..4.....*..._...
    b624:	019e018e 013c0166 01b0018c 027201f1     ....f.<.......r.
    b634:	02b70270 025c02a9 028b0266 02e9029c     p.....\.f.......
    b644:	02e502ee 02cb0303 034d02fd 03dc039e     ..........M.....
    b654:	035f03be 029302c0 035702d7 03cb03e3     .._.......W.....
    b664:	02df0371 02090239 02d30248 02d8031e     q...9...H.......
    b674:	0218023c 02a9029c 01d70231 025101cd     <.......1.....Q.
    b684:	025902e2 0137013b 024a0204 018f01f8     ..Y.;.7...J.....
    b694:	018f014c 018201f2 00f600e9 01eb0174     L...........t...
    b6a4:	017601e7 004a00c2 004f0027 015e00f9     ..v...J.'.O...^.
    b6b4:	00fa015b 00260057 0090003c 011d00e7     [...W.&.<.......
    b6c4:	00f70130 011e011a 0180012c 019c0186     0.......,.......
    b6d4:	0146018b 01ac0156 023c01bd 028b0278     ..F.V.....<.x...
    b6e4:	027f02c5 027a0255 02bc0291 02de02fc     ....U.z.........
    b6f4:	02e902fc 032702d2 03c70371 039b03d7     ......'.q.......
    b704:	02930311 030b02ac 03ec03a7 033503a2     ..............5.
    b714:	020f0286 02880219 030f0309 020c028e     ................
    b724:	02be0250 01fd0275 01fa01c3 02cd02a9     P...u...........
    b734:	010701c6 02440195 01c3022f 01580164     ......D./...d.X.
    b744:	01d901cd 00d8012b 01b9012a 01bd01fb     ....+...*.......
    b754:	00780122 00290031 013d0099 013d0167     ".x.1.)...=.g.=.
    b764:	002e00a7 005d002a 010200c1 01150133     ....*.].....3...
    b774:	012800fc 01580117 018f018a 016b019d     ..(...X.......k.
    b784:	0185013b 01ed01b5 0277026e 02ae02b0     ;.......n.w.....
    b794:	0260025f 029d028b 02f302e4 030102e4     _.`.............
    b7a4:	02f502d0 039c034b 03c203dc 02c40363     ....K.......c...
    b7b4:	02d2028d 03e00353 037303d3 023c02e4     ....S.....s...<.
    b7c4:	02430204 032102ce 024002e0 02940210     ..C...!...@.....
    b7d4:	023802b2 01c901d5 02e10249 0143026b     ..8.....I...k.C.
    b7e4:	01fb0125 01fe0254 014c0190 01f10188     %...T.....L.....
    b7f4:	00eb0190 016e00ec 01ed01eb 00c8017c     ......n.....|...
    b804:	00250048 00f0004c 015f0161 005d0100     H.%.L...a._...].
    b814:	003a0021 00e7008d 0132011e 011300fc     !.:.......2.....
    b824:	012b0121 018b017b 018e019a 0151014a     !.+.{.......J.Q.
    b834:	01c101a9 027b0232 02c1028c 02530287     ....2.{.......S.
    b844:	02930275 02fa02b9 02f702e4 02d202ec     u...............
    b854:	0370031f 03da03c4 0317039f 02a30293     ..p.............
    b864:	03a20307 03aa03f0 028c0336 0212020e     ........6.......
    b874:	03070282 02970316 0243020c 028202bc     ..........C.....
    b884:	01bf01ff 02a101f4 01db02d5 017f0102     ................
    b894:	023c0244 016301c7 01c50154 013801e1     D.<...c.T.....8.
    b8a4:	011f00d2 020001b5 012901c4 002e007c     ..........).|...
    b8b4:	00920028 016e0138 00af0142 0025002e     (...8.n.B.....%.
    b8c4:	00be005b 01330104 00fc011a 011b0123     [.....3.....#...
    b8d4:	018a0152 019c0192 013c0170 01b7017c     R.......p.<.|...
    b8e4:	026601ec 02ac027e 026502b1 0287025a     ..f.~.....e.Z...
    b8f4:	02df029f 02e502f5 02d502fd 034602ef     ..............F.
    b904:	03d9039b 036203c2 028402c6 034202c4     ......b.......B.
    b914:	03c703ca 02dc0366 01fe023d 02ba0237     ....f...=...7...
    b924:	02d6030c 02080241 02a60279 01d8023c     ....A...y...<...
    b934:	023701ca 026e02c1 0134016b 025001ec     ..7...n.k.4...P.
    b944:	01a2020a 01960168 01b101f1 01180125     ....h.......%...
    b954:	01f00183 019f01f7 00aa0111 00af008e     ................
    b964:	01890129 0145018d 009b00ce 00ef00b0     ).....E.........
    b974:	015e0134 014c016e 01650156 01a0016d     4.^.n.L.V.e.m...
    b984:	01bb01b3 018a01b4 01c20188 021b01da     ................
    b994:	025b024f 02590277 02430234 0270025a     O.[.w.Y.4.C.Z.p.
    b9a4:	028b0294 028b0290 02a0027b 02ff02d1     ........{.......
    b9b4:	02ea030c 0251029e 02890253 030702db     ......Q.S.......
    b9c4:	02a302e4 0207024b 023c0205 028b0280     ....K.....<.....
    b9d4:	0207024e 02550219 02030243 01f601e0     N.....U.C.......
    b9e4:	02600242 019401fb 021801bd 01ec0220     B.`......... ...
    b9f4:	01b901c0 01f601e5 018d01ba 01e201a6     ................
    ba04:	01ee0201 017a01b7 015f015f 01bc0183     ......z._._.....
    ba14:	01c601d2 01710199 0181016d 01b701a0     ......q.m.......
    ba24:	01c101c6 01c301b9 01d201c5 01e501e1     ................
    ba34:	01de01e7 01df01d3 01fb01ef 021b0214     ................
    ba44:	02230222 02100214 021c0217 02290225     ".#.........%.).
    ba54:	02270225 02220220 0237022d 023a023e     %.'. .".-.7.>.:.
    ba64:	0218022c 0214020e 022d0221 0221022c     ,.......!.-.,.!.
    ba74:	02050213 020201ff 020f020c 0203020c     ................
    ba84:	02030200 02010206 01fd0200 01fe0201     ................
    ba94:	0262020c 029b0269 029a02d1 0265027a     ..b.i.......z.e.
    baa4:	02970281 02f5029f 02e902fb 03030312     ................
    bab4:	02f102e5 03670331 03ee03b2 03c203e6     ....1.g.........
    bac4:	02dc0362 02c102ad 037f02fc 03ec03e6     b...............
    bad4:	036a03bd 025a02e5 021e0220 02e0026d     ..j...Z. ...m...
    bae4:	030c0318 0232029e 028d022e 027e02b2     ......2.......~.
    baf4:	01e30226 020d01c7 02d6029c 01780261     &...........a.x.
    bb04:	017c0128 02390209 01c80211 014c0172     (.|...9.....r.L.
    bb14:	01db0183 014801be 00ed00e7 01a70132     ......H.....2...
    bb24:	01d801e6 00fc0190 00350080 0029000f     ..........5...).
    bb34:	0117009d 01510146 0087010f 00190035     ....F.Q.....5...
    bb44:	0065001e 00e000aa 011a0119 00f700fa     ..e.............
    bb54:	0104011e 016d011b 0189016a 0182019a     ......m.j.......
    bb64:	0132015c 019b0174 020c01a7 02670262     \.2.t.......b.g.
    bb74:	02cd029a 02770297 027f0264 029c0296     ......w.d.......
    bb84:	02f602f3 030e02e5 02e102ff 032d02ee     ..............-.
    bb94:	03ac0362 03e103e9 035d03be 02ab02d8     b.........].....
    bba4:	02fc02c0 03e3037e 03ba03e9 02e10366     ....~.......f...
    bbb4:	02200257 026e021f 031702e0 029b030a     W. ...n.........
    bbc4:	022e0230 02b1028e 0224027c 01c701e2     0.......|.$.....
    bbd4:	029d020f 025d02d5 01290175 020b017e     ......].u.).~...
    bbe4:	02100239 017201c7 0185014c 01be01dd     9.....r.L.......
    bbf4:	00e70147 013400ef 01e701aa 018f01d8     G.....4.........
    bc04:	008000fb 00110036 00a0002b 01470119     ....6...+.....G.
    bc14:	010f0152 00350085 001f001a 00ac0067     R.....5.....g...
    bc24:	011b00e1 00fa011b 011f00f7 011c0104     ................
    bc34:	016a016f 019a0189 015c0182 01760132     o.j.......\.2.v.
    bc44:	01a8019c 0263020d 029b0267 029602ce     ......c.g.......
    bc54:	02640277 0296027f 02f3029c 02e402f6     w.d.............
    bc64:	02fe030e 02ee02e0 0362032d 03e903ad     ........-.b.....
    bc74:	03bc03e0 02d6035b 02c002aa 038002fc     ....[...........
    bc84:	03e803e4 036403b8 025502de 021f021f     ......d...U.....
    bc94:	02e2026f 03090318 022e0299 0290022e     o...............
    bca4:	027b02b2 01e10223 021001c7 02d5029f     ..{.#...........
    bcb4:	0172025b 01800128 023a020d 01c6020f     [.r.(.....:.....
    bcc4:	014c0170 01de0186 014501bd 00f000e6     p.L.......E.....
    bcd4:	01ac0136 01d701e8 00f9018d 0035007e     6...........~.5.
    bce4:	002c0011 011b00a3 01520148 0083010e     ..,.....H.R.....
    bcf4:	001a0034 00680020 00e200ad 011b011c     4... .h.........
    bd04:	00f700fa 0104011f 0170011d 018a016a     ..........p.j...
    bd14:	0182019b 0132015b 019c0177 020f01a8     ....[.2.w.......
    bd24:	02670264 02ce029c 02760295 027f0263     d.g.......v.c...
    bd34:	029c0296 02f602f5 030f02e4 02e002fe     ................
    bd44:	032e02ee 03ae0363 03e003e9 035903bb     ....c.........Y.
    bd54:	02aa02d4 02fd02c0 03e50382 03b703e8     ................
    bd64:	02dc0363 021e0253 0271021f 031802e4     c...S.....q.....
    bd74:	02970309 022e022d 02b20291 0222027a     ....-.......z.".
    bd84:	01c701e0 02a20211 025902d6 0127016e     ..........Y.n.'.
    bd94:	020f0182 020e023a 016f01c5 0187014c     ....:.....o.L...
    bda4:	01bc01df 00e50143 013700f0 01e901ad     ....C.....7.....
    bdb4:	018c01d7 007d00f7 00110034 00a5002d     ......}.4...-...
    bdc4:	0148011d 010d0152 00330081 0020001a     ..H.R.....3... .
    bdd4:	00ae0069 011d00e3 00f9011b 012000f7     i............. .
    bde4:	011d0104 016a0171 019b018a 015b0181     ....q.j.......[.
    bdf4:	01780131 01a8019d 02660211 029c0267     1.x.......f.g...
    be04:	029402cf 02630275 0297027f 02f6029c     ....u.c.........
    be14:	02e302f6 02fd030f 02ee02df 0364032f     ............/.d.
    be24:	03ea03ae 03bb03e0 02d20358 02c102a9     ........X.......
    be34:	038302fe 03e803e7 036103b6 025102da     ..........a...Q.
    be44:	021f021d 02e60271 03090319 022b0296     ....q.........+.
    be54:	0292022e 027902b3 01df0221 021201c6     ......y.!.......
    be64:	02d602a4 016b0257 01830126 023b0211     ....W.k.&.....;.
    be74:	01c4020d 014c016e 01e10187 014101bc     ....n.L.......A.
    be84:	00f000e4 01af0138 01d601ea 00f5018b     ....8...........
    be94:	0034007b 002d0010 011f00a6 01520149     {.4...-.....I.R.
    bea4:	0080010c 001a0032 006a0020 00e400b0     ....2... .j.....
    beb4:	011b011d 00f700f9 01040120 0173011d     ........ .....s.
    bec4:	018a016a 0180019c 0131015b 019f0178     j.......[.1.x...
    bed4:	021201a8 02670267 02d0029c 02740293     ....g.g.......t.
    bee4:	027f0264 029c0298 02f702f6 031002e2     d...............
    bef4:	02df02fd 033002ef 03af0365 03df03eb     ......0.e.......
    bf04:	035703ba 02a802d0 02ff02c1 03e80385     ..W.............
    bf14:	03b603e8 02d90360 021c024f 02720220     ....`...O... .r.
    bf24:	031a02e7 02950308 022e022a 02b40293     ........*.......
    bf34:	02200278 01c601de 02a60213 025602d7     x. ...........V.
    bf44:	01240168 02120185 020c023d 016d01c3     h.$.....=.....m.
    bf54:	0188014b 01bc01e2 00e20140 013900f0     K.......@.....9.
    bf64:	01eb01b0 018b01d6 007900f3 00100033     ..........y.3...
    bf74:	00a7002d 014a0121 010c0151 0030007e     -...!.J.Q...~.0.
    bf84:	0020001a 00b1006b 011e00e4 00f8011b     .. .k...........
    bf94:	012000f7 011c0104 016b0174 019d0189     .. .....t.k.....
    bfa4:	015a0180 01780130 01a701a0 02690213     ..Z.0.x.......i.
    bfb4:	029c0267 029302d2 02640273 0299027f     g.......s.d.....
    bfc4:	02f7029c 02e102f8 02fe0310 02ef02de     ................
    bfd4:	03660330 03ec03af 03b903df 02ce0356     0.f.........V...
    bfe4:	02c202a7 038602ff 03e803ea 035f03b5     .............._.
    bff4:	024d02d7 0220021b 02e90272 0308031a     ..M... .r.......
    c004:	02280294 0294022e 027702b5 01dd021f     ..(.......w.....
    c014:	021301c6 02d802a7 01660256 01860122     ........V.f."...
    c024:	023e0214 01c2020c 014a016c 01e30188     ..>.....l.J.....
    c034:	013e01bd 00f000e1 01b1013a 01d501ed     ..>.....:.......
    c044:	00f2018a 00320077 002e0010 012300a8     ....w.2.......#.
    c054:	0151014b 007d010c 001a002f 006b0020     K.Q...}./... .k.
    c064:	00e500b2 011c011f 00f700f8 01050121     ............!...
    c074:	0175011b 0188016c 017f019e 0130015a     ..u.l.......Z.0.
    c084:	01a20178 021301a7 0268026a 02d3029b     x.......j.h.....
    c094:	02720293 027e0264 029c0299 02fa02f6     ..r.d.~.........
    c0a4:	031102e0 02dd02ff 033102ee 03af0367     ..........1.g...
    c0b4:	03e003ed 035503b8 02a502cd 030002c2     ......U.........
    c0c4:	03ec0386 03b403e8 02d6035e 021a024b     ........^...K...
    c0d4:	02720220 031b02ea 02930308 022d0226      .r.........&.-.
    c0e4:	02b60295 021e0277 01c601dc 02a90212     ....w...........
    c0f4:	025502da 011f0164 02150187 020b0240     ..U.d.......@...
    c104:	016b01c2 0188014a 01be01e4 00e0013d     ..k.J.......=...
    c114:	013b00ef 01ef01b1 018a01d5 007500f1     ..;...........u.
    c124:	000f0031 00a9002d 014c0125 010c0151     1...-...%.L.Q...
    c134:	002d007c 0020001a 00b4006b 011f00e5     |.-... .k.......
    c144:	00f8011d 012100f6 01190107 016e0176     ......!.....v.n.
    c154:	019f0187 015a017f 01760130 01a701a4     ......Z.0.v.....
    c164:	026c0212 029a0269 029402d4 02650270     ..l.i.......p.e.
    c174:	029a027d 02f5029c 02df02fd 03000310     }...............
    c184:	02ee02dc 03680331 03ee03af 03b703e0     ....1.h.........
    c194:	02cb0355 02c302a3 03870300 03e903ed     U...............
    c1a4:	035e03b3 024a02d5 02200218 02eb0272     ..^...J... .r...
    c1b4:	0308031d 02240294 0295022c 027702b8     ......$.,.....w.
    c1c4:	01db021d 021201c6 02dc02a9 01630256     ............V.c.
    c1d4:	0187011b 02420216 01c1020b 0149016b     ......B.....k.I.
    c1e4:	01e50187 013c01bf 00ee00de 01b2013c     ......<.....<...
    c1f4:	01d601f0 00f10189 00310073 002d000f     ........s.1...-.
    c204:	012600a9 0151014e 007c010d 001a002b     ..&.N.Q...|.+...
    c214:	006b0020 00e600b5 011e011f 00f600f7      .k.............
    c224:	01080120 01760118 01850170 018001a1      .....v.p.......
    c234:	01300159 01a60175 021101a7 026a026e     Y.0.u.......n.j.
    c244:	02d50298 026e0296 027d0265 029d029b     ......n.e.}.....
    c254:	02ff02f4 030f02de 02db0302 033102ed     ..............1.
    c264:	03af0369 03e103ef 035503b6 02a102cb     i.........U.....
    c274:	030002c3 03ef0386 03b303ea 02d5035d     ............]...
    c284:	02160249 02710221 031e02ec 02940308     I...!.q.........
    c294:	022a0223 02ba0294 021c0277 01c501da     #.*.....w.......
    c2a4:	02aa0211 025702de 01170162 02180186     ......W.b.......
    c2b4:	020c0244 016b01c0 01860148 01c201e5     D.....k.H.......
    c2c4:	00dd013c 013d00ed 01f201b2 018901d7     <.....=.........
    c2d4:	007100f2 000f0030 00a8002d 01500128     ..q.0...-...(.P.
    c2e4:	010e0150 0029007c 00210019 00b7006a     P...|.)...!.j...
    c2f4:	011f00e7 00f8011f 012000f5 0117010a     .......... .....
    c304:	01730175 01a10183 01580181 01720131     u.s.......X.1.r.
    c314:	01a901a8 0270020f 0296026c 029802d5     ......p.l.......
    c324:	0265026c 029b027d 02f2029e 02de0302     l.e.}...........
    c334:	0304030c 02ec02db 036a0331 03ef03af     ........1.j.....
    c344:	03b603e3 02cb0356 02c2029e 03850301     ....V...........
    c354:	03ec03f1 035c03b2 024802d5 02200214     ......\...H... .
    c364:	02ec0271 03080320 02220295 02940227     q... .....".'...
    c374:	027802bd 01d9021b 021001c5 02e102a9     ..x.............
    c384:	01620259 01850112 02460219 01bf020d     Y.b.......F.....
    c394:	0147016b 01e60185 013d01c5 00eb00db     k.G.......=.....
    c3a4:	01b2013d 01d801f4 00f30189 002e0070     =...........p...
    c3b4:	002c000f 012900a7 01500152 007d010f     ..,...).R.P...}.
    c3c4:	00190026 00690022 00e800b7 0121011e     &...".i.......!.
    c3d4:	00f400f8 010d011f 01730115 01820177     ..........s.w...
    c3e4:	018301a1 01310157 01a90170 020c01aa     ....W.1.p.......
    c3f4:	026f0271 02d50294 026a029c 027c0264     q.o.......j.d.|.
    c404:	029f029b 030402ef 030902df 02db0306     ................
    c414:	033002ea 03ae036b 03e403ef 035603b5     ..0.k.........V.
    c424:	029b02cb 030202c1 03f20383 03b203ee     ................
    c434:	02d6035c 02110247 02700220 032302eb     \...G... .p...#.
    c444:	02960309 02240221 02bf0292 021a027a     ....!.$.....z...
    c454:	01c401d8 02a8020e 025d02e4 010d0163     ..........].c...
    c464:	021a0181 020e0249 016b01be 01830146     ....I.....k.F...
    c474:	01c801e5 00d9013e 013d00e8 01f501b2     ....>.....=.....
    c484:	018901da 006f00f4 0010002d 00a5002b     ......o.-...+...
    c494:	0155012a 010f0150 0024007f 00220017     *.U.P.....$...".
    c4a4:	00b80068 011e00e9 00f90122 011e00f3     h.......".......
    c4b4:	0115010f 017b0171 019f0182 01570185     ....q.{.......W.
    c4c4:	016d0131 01ad01aa 02710208 02920273     1.m.......q.s...
    c4d4:	02a002d3 02620269 029b027c 02ec02a0     ....i.b.|.......
    c4e4:	02e10306 03080306 02e802dd 036c032f     ............/.l.
    c4f4:	03ee03ae 03b503e6 02cc0356 02bf0298     ........V.......
    c504:	03820302 03f103f2 035b03b2 024702d6     ..........[...G.
    c514:	021f020e 02ea026f 030b0325 02210298     ....o...%.....!.
    c524:	028f0221 027d02c2 01d7021a 020c01c4     !.....}.........
    c534:	02e602a6 01660262 017c0107 024d021b     ....b.f...|...M.
    c544:	01be0210 0145016b 01e40181 014101cd     ....k.E.......A.
    c554:	00e500d7 01b2013c 01dd01f7 00f60189     ....<...........
    c564:	002b006f 002b000f 012a00a3 01510158     o.+...+...*.X.Q.
    c574:	00820110 00150022 00660023 00eb00b8     ...."...#.f.....
    c584:	0125011e 00f600fe 01180121 0172011c     ..%.....!.....r.
    c594:	01880183 018e01a2 013e0162 01b10175     ........b.>.u...
    c5a4:	020501b6 026c0266 02bb0283 025d0292     ....f.l.......].
    c5b4:	026c0254 028b0287 02e102c9 02da02c2     T.l.............
    c5c4:	02ba02de 02f802bf 035e032b 038a0390     ........+.^.....
    c5d4:	0311035f 027502a3 02c90292 037d0328     _.....u.....(.}.
    c5e4:	034a037e 02a10305 02080235 02500215     ~.J.....5.....P.
    c5f4:	02d402a8 026d02c0 02140217 02870261     ......m.....a...
    c604:	02110258 01d701e3 026b0206 02430298     X.........k...C.
    c614:	015d019f 021101a8 020c0233 01a501d7     ..].....3.......
    c624:	01b2018e 01e401ee 01530193 0190015b     ..........S.[...
    c634:	01fb01d4 01bf01ee 01280170 00f90105     ........p.(.....
    c644:	014a010a 01ac0192 018901a9 01160145     ..J.........E...
    c654:	011c0111 0166013e 01980180 018c019c     ....>.f.........
    c664:	019b0188 019c019a 01cb01c0 01d701cd     ................
    c674:	01bd01d0 01c401ae 01e301df 02280201     ..............(.
    c684:	0234022d 023a0248 021f0224 02320228     -.4.H.:.$...(.2.
    c694:	02490234 02470252 024e024d 02410242     4.I.R.G.M.N.B.A.
    c6a4:	02650253 02830275 02710280 02330256     S.e.u.....q.V.3.
    c6b4:	022b0223 0256023b 026d026e 0247025d     #.+.;.V.n.m.].G.
    c6c4:	020e022b 02040201 02280213 022d0233     +.........(.3.-.
    c6d4:	02050219 02130203 0212021c 01fa0203     ................
    c6e4:	020001f8 02190211 01f2020b 01f301e8     ................
    c6f4:	02060202 01fb0201 01f501f6 01fe01f9     ................
    c704:	01f901fe 01f801f6 01fe01fb 01ff01ff     ................
    c714:	020001ff                                ....

0000c718 <click_sound>:
    c718:	01fd01ff 01fe01fe 020001ff 02020201     ................
    c728:	02020203 01fc01ff 01fb01f9 02070200     ................
    c738:	01fe0207 01f801f5 020e0206 01e401fe     ................
    c748:	020c0210 01f601f2 01eb021a 020f0201     ................
    c758:	021601e8 020c01ee 020201f8 01ff01fe     ................
    c768:	01fc0201 01fb0203 01fc0200 01fe0200     ................
    c778:	01fc0201 01f80206 02120200 020101f8     ................
    c788:	02060208 01fb01fb 02040208 01fe01fe     ................
    c798:	02060200 020601f8 020d01fb 020801f2     ................
    c7a8:	020401fc 01f30204 01eb0212 01ea0215     ................
    c7b8:	01d40221 01db022d 02150210 022e01d1     !...-...........
    c7c8:	020b01df 01e40214 022301fc 01f801e4     ..........#.....
    c7d8:	020c0210 01f201ee 02080209 01fb0204     ................
    c7e8:	01f901f8 020301fe 02030206 01f90201     ................
    c7f8:	01f801f3 02060200 02030207 01f701fd     ................
    c808:	01f701f8 01fa01fd 01f701fe 020101ff     ................
    c818:	0207020a 021401f0 020301ea 01f201fc     ................
    c828:	01f80204 01eb020b 01fc0216 020d0206     ................
    c838:	021a01f2 01ea0212 020301f4 01ef01e2     ................
    c848:	020001dd 01e101ee 01f201f7 01f60202     ................
    c858:	02120204 022a021d 02440232 024f0252     ......*.2.D.R.O.
    c868:	02200243 01ca0200 01670193 01890162     C. .......g.b...
    c878:	023f01cb 02c9028d 023b0272 0110005e     ..?.....r.;.^...
    c888:	03a602ec 0000026b 036f01f1 003f0304     ....k.....o...?.
    c898:	02e201c8 01d401fa 024c01c9 025201b4     ..........L...R.
    c8a8:	022401c6 021701d9 020501f8 01f80200     ..$.............
    c8b8:	01ef0209 01f3020f 01f5020c 01fa0205     ................
    c8c8:	01ff0201 01ff0201 01fe01ff 020001ff     ................
    c8d8:	020001ff 01ff01fe 020201fd 020101ff     ................
    c8e8:	020101fc 020d01f8 01f701fc 01f4020a     ................
    c8f8:	01f4020b 01fe0207 021001fa 01ff01e9     ................
    c908:	02060210 020001ea 01f80211 01fd01f8     ................
    c918:	01f5020d 01fe020d 01fe01f0 020f01ff     ................
    c928:	01fb01fc 01fc0204 01ff0201 020b01fe     ................
    c938:	020001ff 01fc01fc 02040201 01fb0203     ................
    c948:	020001fe 020001fe 02020204 02000200     ................
    c958:	02010201 02010201 02030203 02020201     ................
    c968:	02010202 02030201 02020203 02010202     ................
    c978:	02030204 02000201 02010202 02000201     ................
    c988:	02010201 02000200 01ff0200 01fd01fe     ................
    c998:	01fb01fc 01fa01fa 01f801f7 01f801f7     ................
    c9a8:	01f601f7 01f901f9 01fd01fa 01fe01fd     ................
    c9b8:	01fe01ff 02020201 02050204 01fe0203     ................
    c9c8:	020a0205 02020200 02010205 01ff0205     ................
    c9d8:	020301fe 02010202 020801f8 020501fa     ................
    c9e8:	01fa01fd 01fc0209 01fd0201 01fe0206     ................
    c9f8:	020001ff 020201ff 01f90200 02000204     ................

0000ca08 <beep_sound>:
    ca08:	01fb0200 01a301f0 017f0159 01d501ad     ........Y.......
    ca18:	022b0233 01fb0232 018d0195 01b20178     3.+.2.......x...
    ca28:	01f601af 027e025c 01c90254 018e01c4     ....\.~.T.......
    ca38:	0132014b 01f3016a 022e0203 02720263     K.2.j.......c.r.
    ca48:	01d10247 01aa01cc 01510150 024601a2     G.......P.Q...F.
    ca58:	02b4026f 029e0301 0155022a 00c5011f     o.......*.U.....
    ca68:	00ef0077 025e0167 02f90274 02d2032a     w...g.^.t...*...
    ca78:	015f025f 00d7015b 010d00de 02ab01b1     _._.[...........
    ca88:	033902ac 02e90316 00fd022d 004400cf     ..9.....-.....D.
    ca98:	00c70091 02e001b7 036902dd 0308031f     ..........i.....
    caa8:	013301ec 00940157 011c0106 02ff0244     ..3.W.......D...
    cab8:	038c02f1 02eb030f 00e4018b 003c00e5     ..............<.
    cac8:	00c900a3 028501f9 038502d1 02ff0311     ................
    cad8:	014c01d6 006c00f9 00f500e8 025d022b     ..L...l.....+.].
    cae8:	02f90276 0258027f 00e7011c 001e0099     v.....X.........
    caf8:	00cd009a 021a0204 03100293 026f02aa     ..............o.
    cb08:	01200124 003a00b6 00e10093 0213022d     $. ...:.....-...
    cb18:	031702a2 0251029b 01120107 0011006d     ......Q.....m...
    cb28:	00c2006e 01e501f8 02fe02be 023602b4     n.............6.
    cb38:	01620123 005a0076 01370084 021f0247     #.b.v.Z...7.G...
    cb48:	02ff031d 021d02d1 0151012e 0092004c     ..........Q.L...
    cb58:	017700bd 0246026e 02f50350 021902df     ..w.n.F.P.......
    cb68:	01790154 00c1005f 018700b7 025e0245     T.y._.......E.^.
    cb78:	02c5034a 01df02d1 014e015f 00dd0056     J......._.N.V...
    cb88:	01c000d2 027c024d 02e7035d 01e702ef     ....M.|.].......
    cb98:	010f0167 00d80053 01f300c5 029d023c     g...S.......<...
    cba8:	02d30356 01a302d1 01100190 00f80070     V...........p...
    cbb8:	022200f5 02b10237 02a6032a 01670294     ..".7...*.....g.
    cbc8:	00c6016a 00da0064 0253010b 02e20216     j...d.....S.....
    cbd8:	02a7031c 0141027b 00a6016d 00fd0097     ....{.A.m.......
    cbe8:	0277014a 03230245 02a0030a 0116023e     J.w.E.#.....>...
    cbf8:	00590156 00ce007a 02670142 0313023b     V.Y.z...B.g.;...
    cc08:	029802cd 00fe01f5 004b0146 00c60090     ........F.K.....
    cc18:	0235016d 03070200 02610288 00d7019b     m.5.......a.....
    cc28:	000100fa 00a30091 02340190 033b0235     ..........4.5.;.
    cc38:	02a902a5 012f01b5 002d0120 00e700db     ....../. .-.....
    cc48:	027101ec 037402a9 029a02b1 01120169     ..q...t.....i...
    cc58:	003000e9 010100e4 02730248 037102c1     ..0.....H.s...q.
    cc68:	02a602bd 0154017c 004500d6 012400ec     ....|.T...E...$.
    cc78:	026c026c 035602e7 029802b0 014b015a     l.l...V.....Z.K.
    cc88:	006a00b7 01340108 026d0278 034b0318     ..j...4.x.m...K.
    cc98:	028902b6 014b0133 006f0093 014f00f0     ....3.K...o...O.
    cca8:	02440295 02fd0312 020f027a 013000fc     ..D.....z.....0.
    ccb8:	0065003c 015800cc 02410276 02e40330     <.e...X.v.A.0...
    ccc8:	01de028a 011b00d0 00930027 017f00cf     ........'.......
    ccd8:	02460260 02ce034a 01d4029c 010700f9     `.F.J...........
    cce8:	00a7001f 01ac00d1 0263026a 02af034a     ........j.c.J...
    ccf8:	01a6029a 00ed010c 00a80000 01d100c7     ................
    cd08:	027a0245 02940348 016c029a 00ef011f     E.z.H.....l.....
    cd18:	00db0023 022f00f1 02c1026d 02a00355     #...../.m...U...
    cd28:	015d02a6 00c40135 00e8003a 025e0110     ..].5...:.....^.
    cd38:	02d30243 02980344 011f028b 00950135     C...D.......5...
    cd48:	00cd0035 024c00f5 02f10237 0293030d     5.....L.7.......
    cd58:	0118024e 007c0142 00d8006c 02640140     N...B.|.l...@.d.
    cd68:	031d0245 02b80302 011c0236 00560155     E.......6...U.V.
    cd78:	00fa0096 02950189 0368026d 02cd030e     ........m.h.....
    cd88:	01260220 0073016e 011400cb 02ad01d2      .&.n.s.........
    cd98:	0387029e 02c902fe 013a01f7 00590141     ..........:.A.Y.
    cda8:	011600f4 029d01ff 03820299 02be02d2     ................
    cdb8:	013501b1 002d010d 00ee00dd 024e0208     ..5...-.......N.
    cdc8:	033e0298 028f0295 012b0168 003b00d9     ..>.....h.+...;.
    cdd8:	00f300da 022e0227 031c028f 02720275     ....'.......u.r.
    cde8:	01240128 002400a2 00d200cb 02200222     (.$...$.....". .
    cdf8:	031c02c6 0259027c 01380112 0044007f     ....|.Y...8...D.
    ce08:	011b00ce 024c0257 0320030b 025502b4     ....W.L... ...U.
    ce18:	01500138 0085007f 015b00e2 02670289     8.P.......[...g.
    ce28:	031d0344 024802c7 0164013b 009f0061     D.....H.;.d.a...
    ce38:	018c00e7 02740297 02f60363 021b02cf     ......t.c.......
    ce48:	01640143 00d0005c 01e80109 0290029c     C.d.\...........
    ce58:	0314038f 020702eb 015f015c 00fc0071     ........\._.q...
    ce68:	021d011c 02e002c8 032003bc 01ee0303     .......... .....
    ce78:	0155017d 011c0087 025f0121 02df02bf     }.U.....!._.....
    ce88:	02fd0394 01b202e5 0102015b 00fd005e     ........[...^...
    ce98:	025f011f 02e90269 02d40381 017302b7     .._.i.........s.
    cea8:	00e0016c 0106007e 02880145 02ff0264     l...~...E...d...
    ceb8:	02ba034b 014d028b 00af0164 00f60077     K.....M.d...w...
    cec8:	0273013b 03180254 02a30318 012b0262     ;.s.T.......b.+.
    ced8:	008a015d 00dc0083 0277015c 033b023d     ].......\.w.=.;.
    cee8:	02b90312 013d0247 00700159 00f700b2     ....G.=.Y.p.....
    cef8:	027c019d 03660265 02d20304 0146020b     ..|.e.f.......F.
    cf08:	00600154 00e300cf 027301bd 037b0279     T.`.......s.y.{.
    cf18:	02d902e9 014a01e8 004f0140 00f000e1     ......J.@.O.....
    cf28:	0288020c 0378029d 02ca02de 014701a4     ......x.......G.
    cf38:	005d0126 01110107 028f0233 038f02e1     &.].....3.......
    cf48:	02c702d4 0172019e 00610107 013e010a     ......r...a...>.
    cf58:	0282026d 036502fc 02bf02db 017c0180     m.....e.......|.
    cf68:	008700f6 01560116 027e0291 037f032f     ......V...~./...
    cf78:	02b202e3 018f017f 00bc00e8 01790139     ............9.y.
    cf88:	02730292 03450349 027602d8 01840143     ..s.I.E...v.C...
    cf98:	00c000bc 0199011d 026c02a0 0326034f     ..........l.O.&.
    cfa8:	023a02cc 0177012d 00b4006e 019300fc     ..:.-.w.n.......
    cfb8:	02540281 02f3035c 01f902ce 015b0135     ..T.\.......5.[.
    cfc8:	00c80058 01d000f9 02760277 02f00377     X.......w.v.w...
    cfd8:	01e702da 012a0131 00e40050 01ef00e7     ....1.*.P.......
    cfe8:	027f0262 02c3035d 019202b5 01160140     b...].......@...
    cff8:	00f30040 022600f9 02b80270 02b50360     @.....&.p...`...
    d008:	017702ad 00f00149 00f80055 024b010b     ..w.I...U.....K.
    d018:	02e90260 02b8035a 017302b6 00c90168     `...Z.....s.h...
    d028:	00f80070 0274012b 03130264 02d70356     p...+.t.d...V...
    d038:	01610297 00bb016f 011700a7 027a0155     ..a.o.......U.z.
    d048:	034c0273 02e40348 01450288 00ac018b     s.L.H.....E.....
    d058:	013a00cb 02cc01bb 038f0290 030a034a     ..:.........J...
    d068:	016e027d 009b0197 013600f7 02dd01e5     }.n.......6.....
    d078:	03890298 02e30316 014f022b 0065015e     ........+.O.^.e.
    d088:	010800f4 02a301e6 037b0285 02d002da     ..........{.....
    d098:	012e01c8 00340121 00dc00d4 024901e2     ....!.4.......I.
    d0a8:	03380278 028c02a1 012e0177 002600e8     x.8.....w.....&.
    d0b8:	00cd00c3 023001f3 031e0283 02820288     ......0.........
    d0c8:	013d0150 004300c4 00e900d6 02470229     P.=...C.....).G.
    d0d8:	031602bf 0275028d 01310137 0047008f     ......u.7.1...G.
    d0e8:	010100d6 02240248 032e02f2 026402a8     ....H.$.......d.
    d0f8:	015c012e 007f008f 014000f4 025f0271     ..\.......@.q._.
    d108:	0327033f 026802c9 01580136 00a1007d     ?.'...h.6.X.}...
    d118:	017e0100 02530283 02f0033c 020302a5     ..~...S.<.......
    d128:	01480107 009f004b 018d00d2 024a026d     ..H.K.......m.J.
    d138:	02c50335 01d90299 0118011c 00c0003b     5...........;...
    d148:	01dd00f7 02870273 02d4036c 01dc02cb     ....s...l.......
    d158:	013f0137 00de005b 021a00fe 02ae0280     7.?.[...........
    d168:	02c7037c 01a302c5 01140152 00fa0054     |.......R...T...
    d178:	024b0113 02b5025e 02b10359 016002a9     ..K.^...Y.....`.
    d188:	00c60149 00e20046 024d0108 02de0231     I...F.....M.1...
    d198:	02b70350 01540299 00b3015b 00f9006c     P.....T.[...l...
    d1a8:	0265012b 02fb0254 02970317 010e0258     +.e.T.......X...
    d1b8:	005e012d 00c30045 0258011a 030b022a     -.^.E.....X.*...
    d1c8:	029c02eb 00f90229 003c0144 00c80078     ....)...D.<.x...
    d1d8:	02600164 03120215 029602cc 00ef01e4     d.`.............
    d1e8:	00250114 00c00090 025a0196 03510235     ..%.......Z.5.Q.
    d1f8:	02b802d2 012e01de 002b012d 00d300bc     ........-.+.....
    d208:	025401d1 03430264 02960294 0114018f     ..T.d.C.........
    d218:	002500ff 00d300be 026001f5 034e029d     ..%.......`...N.
    d228:	02b002b2 01330183 004700e1 00ed00e2     ......3...G.....
    d238:	0259022b 035802cb 02b102b7 01740175     +.Y...X.....u.t.
    d248:	006900de 011d0107 02700274 03570307     ..i.....t.p...W.
    d258:	02a802c2 0186016f 008700d0 01470105     ....o.........G.
    d268:	025c0274 03280317 026a02c1 01520136     t.\...(...j.6.R.
    d278:	00870092 014700e7 0234024f 02d5030a     ......G.O.4.....
    d288:	01db026e 012400d7 00a5005f 01b3010e     n.....$._.......
    d298:	02460286 02c10329 01550223 00c80088     ..F.)...#.U.....
    d2a8:	00c8003e 019d00f8 01ff024b 01e9028d     >.......K.......
    d2b8:	017501d3 011400ef 01450084 01a1013d     ..u.......E.=...
    d2c8:	01eb01f6 01e0029d 016001f7 00fa0122     ..........`."...
    d2d8:	01500093 01b30124 01d601a1 01b9021e     ..P.$...........
    d2e8:	01cd0229 01f20215 01f201bb 01e80197     )...............
    d2f8:	01530171 019001a6                       q.S.....

0000d300 <sync_beep>:
    d300:	01f60200 01e601e6 021401f5 0230022a     ............*.0.
    d310:	01fb0224 018801c7 01fa0193 02c9028b     $...............
    d320:	0188026d 013100ca 03f402af 01290333     m.....1.....3.).
    d330:	007a000d 02fd01ab 035f03b2 00fa0248     ..z......._.H...
    d340:	008c004b 028e0171 0336034d 014c0266     K...q...M.6.f.L.
    d350:	00bf009c 02840181 03460343 018a0293     ........C.F.....
    d360:	00d700d0 026c017d 0345032d 01b002ab     ....}.l.-.E.....
    d370:	00dd00ed 024e016e 033b030f 01cc02b8     ....n.N...;.....
    d380:	00df0103 022f015d 032e02f1 01e302c0     ....]./.........
    d390:	00e10116 0212014e 031f02d2 020002cb     ....N...........
    d3a0:	00df012f 01ef0134 031b02b7 021802db     /...4...........
    d3b0:	00db013d 01da0124 031202a5 022302dd     =...$.........#.
    d3c0:	00e8014e 01cb0125 02fb0287 023d02df     N...%.........=.
    d3d0:	00f4016c 01b8011c 02ef0273 024e02e1     l.......s.....N.
    d3e0:	01070184 01a5011f 02d2024f 027b02ea     ........O.....{.
    d3f0:	011701b4 0181010b 02d30237 028e02f9     ........7.......
    d400:	012301c8 0178010b 02c60229 029a02f6     ..#...x.).......
    d410:	013401de 0169010b 02b20212 02a702f0     ..4...i.........
    d420:	014701f6 015b010c 029f01fc 02b202eb     ..G...[.........
    d430:	015c020d 01510113 028801e6 02bd02e1     ..\...Q.........
    d440:	01730228 01400114 027901d0 02c502de     (.s...@...y.....
    d450:	01850237 013e0120 025701ba 02d102cb     7... .>...W.....
    d460:	01a8025c 012b0129 0245019f 02d702c5     \...).+...E.....
    d470:	01bf026d 01290139 022b018c 02e002b6     m...9.)...+.....
    d480:	01da028b 01090136 022b0170 02ef02c8     ....6...p.+.....
    d490:	01db0290 01100139 0219016d 02eb02b6     ....9...m.......
    d4a0:	01f4029e 01170150 02000160 02e902a2     ....P...`.......
    d4b0:	020702ab 0115015b 01f20156 02de0293     ....[...V.......
    d4c0:	021602ab 01250173 01da0151 02d30278     ....s.%.Q...x...
    d4d0:	022d02b5 012b0188 01c90147 02ca0267     ..-...+.G...g...
    d4e0:	024102bb 0133019e 01b4013f 02c00252     ..A...3.?...R...
    d4f0:	025502c0 013f01b4 01a3013a 02b1023d     ..U...?.:...=...
    d500:	026802c3 014d01cd 01900136 02a50226     ..h...M.6...&...
    d510:	027802c5 015e01e4 01810135 029b0215     ..x...^.5.......
    d520:	028102c6 016c01f3 017a013b 02870202     ......l.;.z.....
    d530:	028d02bf 017c020a 01650137 027f01ed     ......|.7.e.....
    d540:	029702c3 01880218 015f013c 026d01dd     ........<._...m.
    d550:	029f02bc 019c0228 0165014b 025501d3     ....(...K.e...U.
    d560:	029802a3 01b9023a 0160015f 023d01bc     ....:..._.`...=.
    d570:	029d0298 01cb024b 01570165 022e01ac     ....K...e.W.....
    d580:	029e0290 01dd0256 015a0174 0219019e     ....V...t.Z.....
    d590:	02a10282 01f00267 0155017e 020d0191     ....g...~.U.....
    d5a0:	02a1027c 01fc026d 015e018b 01fd018e     |...m.....^.....
    d5b0:	02980269 02120275 016501a2 01e80182     i...u.....e.....
    d5c0:	02950259 0220027d 016b01af 01d9017d     Y...}. ...k.}...
    d5d0:	028d0249 02300282 017301c1 01c80176     I.....0...s.v...
    d5e0:	02880239 02390288 017a01ca 01c00177     9.....9...z.w...
    d5f0:	02750228 024b0284 018901e5 01ab0170     (.u...K.....p...
    d600:	026e0214 02580289 019301f3 01a30172     ..n...X.....r...
    d610:	02640207 02630288 019d0205 0196016e     ..d...c.....n...
    d620:	025f01fb 0268028a 01a6020b 01970175     .._...h.....u...
    d630:	024d01f1 0268027c 01b90219 01910180     ..M.|.h.........
    d640:	023e01e1 026c0275 01c80227 018b0186     ..>.u.l.'.......
    d650:	023201d3 02760274 01d20234 0188018a     ..2.t.v.4.......
    d660:	022301c7 0279026a 01e60246 01810193     ..#.j.y.F.......
    d670:	021601b9 02780264 01f3024b 018501a1     ....d.x.K.......
    d680:	020201ac 027f025a 0201025b 018001a6     ....Z...[.......
    d690:	01f801a3 027a024f 02130262 018501b8     ....O.z.b.......
    d6a0:	01e40198 027b0242 021e026e 018101b9     ....B.{.n.......
    d6b0:	01e20196 0271023b 021f0265 019101c8     ....;.q.e.......
    d6c0:	01dc019b 0264022e 02280261 019e01d8     ......d.a.(.....
    d6d0:	01d6019f 02570220 0230025e 01ab01e5     .... .W.^.0.....
    d6e0:	01cc01a3 0246020e 023a0259 01b801f8     ......F.Y.:.....
    d6f0:	01bf01a2 023f01fd 0247025f 01bb0202     ......?._.G.....
    d700:	01ba019e 023e01fb 0246025d 01c40206     ......>.].F.....
    d710:	01bd01a7 023301f5 02480255 01cc020f     ......3.U.H.....
    d720:	01bb01a9 022f01f3 0240024f 01db0211     ....../.O.@.....
    d730:	01ba01b7 022001e4 0248024b 01da0217     ...... .K.H.....
    d740:	01c601b9 021901ed 02390238 01f1021c     ........8.9.....
    d750:	01c301cd 020201d6 024c0235 01fe0235     ........5.L.5...
    d760:	01b001c8 01f901c3 02540235 02080242     ........5.T.B...
    d770:	01ad01c9 01f801c1 024e0232 0205023a     ........2.N.:...
    d780:	01b501ce 01fd01c9 02450231 01fe0230     ........1.E.0...
    d790:	01bc01cd 020701d8 022b0226 020a021d     ........&.+.....
    d7a0:	01d301ee 01ed01d1 02290211 0212022a     ..........).*...
    d7b0:	01d601f1 01ee01d4 022a0213 020f0225     ..........*.%...
    d7c0:	01db01f1 01ee01d9 0224020d 02160227     ..........$.'...
    d7d0:	01d701f7 01e701ce 0223020d 02140224     ..........#.$...
    d7e0:	01e401fc 01e401d8 021501fe 021b0220     ............ ...
    d7f0:	01ea0206 01e501db 021001fc 02120218     ................
    d800:	01f40204 01ee01eb 020301f8 0218020f     ................
    d810:	01fd0212 01e501e7 020f01f9 02140219     ................
    d820:	01f50204 01f601f0 020601ff 020b020b     ................
    d830:	01ff0208 01f001f2 020401fa 020b0209     ................
    d840:	02010209 01f001f4 020301f9 02050205     ................
    d850:	02040205 01f601fd 01f801f5 020601fd     ................
    d860:	0208020f 01ee01f6 020501f7 02070209     ................
    d870:	01ff0205 01f201f3 020c01ff 0204020c     ................
    d880:	01ff01ff 01f801fc 01fe01f8 02080204     ................
    d890:	02050209 01ef01fa 01fd01f1 020a0207     ................
    d8a0:	02040209 01ec01f8 020201f0 02150213     ................
    d8b0:	01f60208 01eb01eb 020e01fa 02100217     ................
    d8c0:	01f40200 01e801ec 020d01f4 0212021b     ................
    d8d0:	01ea01fa 01f101e9 02110201 02040211     ................
    d8e0:	01f801f9 01f701fa 020101f8 020f020c     ................
    d8f0:	01fc0209 01ee01f2 020901f6 02160218     ................
    d900:	01f50205 01f001ef 020801f8 02160217     ................
    d910:	01f30205 01ed01eb 020a01f8 02160219     ................
    d920:	01f00203 01eb01e9 020801f3 0220021d     .............. .
    d930:	01ec020a 01e701de 021101fd 02120219     ................
    d940:	01f00200 01f501ee 020301fc 0210020b     ................
    d950:	0202020d 01ec01f6 01f701e9 021b020f     ................
    d960:	02010215 01e901ee 01fb01ed 0219020e     ................
    d970:	02000213 01e801ee 01fc01ee 0217020d     ................
    d980:	02000212 01eb01ef 01fb01f1 02120209     ................
    d990:	02050211 01eb01f6 01f301e9 02160207     ................
    d9a0:	02070215 01ed01f8 01ec01e7 02170200     ................
    d9b0:	020f021e 01e801f7 01f301e8 02120204     ................
    d9c0:	020a0213 01f301fc 01f201f1 020a01fb     ................
    d9d0:	02110214 01f60203 01f101f1 020801f9     ................
    d9e0:	02140214 01f50207 01ee01ec 020a01fa     ................
    d9f0:	02120215 01f10202 01f601ee 02090200     ................
    da00:	020c020f 01f20200 01f601ef 020d0202     ................
    da10:	0206020e 01f101f9 01fc01f2 020c0207     ................
    da20:	02000208 01f701fa 01ff01f9 02060203     ................
    da30:	02060207 01f401ff 01fc01f3 020b0206     ................
    da40:	0202020a 01f401fa 01fe01f5 02070205     ................
    da50:	02010206 01f501fa 020501f9 0205020b     ................
    da60:	01f401fa 020301fa 02010205 01fe01fd     ................
    da70:	02000200 01fd01fe 01ff01fd 01fc01fe     ................
    da80:	020101fd 02040206 01f401fa 020401fa     ................
    da90:	02070208 01ff0204 01f801f8 020301fd     ................
    daa0:	02070207 02000204 01fd01fe              ............

0000daac <switch_to_default_form>:
    daac:	00000a01 00000b00                       ........

0000dab4 <switch_to_session_running_form>:
    dab4:	00010a01 00000a00                       ........

0000dabc <switch_to_manual_trigger_form>:
    dabc:	00020a01 00000900                       ........

0000dac4 <switch_to_simulation_running_form>:
    dac4:	00030a01 00000800                       ........

0000dacc <switch_to_settings_1_form>:
    dacc:	00040a01 00000f00                       ........

0000dad4 <set_response_sound_on>:
    dad4:	00031101 00001201                       ........

0000dadc <set_response_sound_switch_on>:
    dadc:	00011e01 00001f01                       ........

0000dae4 <set_response_sound_off>:
    dae4:	00031101 00001300                       ........

0000daec <set_response_sound_switch_off>:
    daec:	00011e01 00001e00                       ........

0000daf4 <set_trigger_sound_on>:
    daf4:	00021101 00001301                       ........

0000dafc <set_trigger_sound_switch_on>:
    dafc:	00001e01 00001e01                       ........

0000db04 <set_trigger_sound_off>:
    db04:	00021101 00001200                       ........

0000db0c <set_trigger_sound_switch_off>:
    db0c:	00001e01 00001f00                       ........

0000db14 <switch_to_settings_2_form>:
    db14:	00050a01 00000e00                       ........

0000db1c <switch_to_settings_3_form>:
    db1c:	00080a01 00000300                       ........

0000db24 <switch_to_keyboard_form>:
    db24:	00060a01 00000d00                       ........

0000db2c <switch_to_menu_form>:
    db2c:	00070a01 00000c00                       ........

0000db34 <switch_to_about_form>:
    db34:	000a0a01 00000100                       ........

0000db3c <switch_to_error_form>:
    db3c:	000b0a01 00000000 74747562 70206e6f     ........button p
    db4c:	73736572 000d6465 73616c66 72772068     ressed..flash wr
    db5c:	20657469 6f206f6e 6c732066 73656369     ite no of slices
    db6c:	7525202c 00000a0d 73616c66 72772068     , %u....flash wr
    db7c:	65747469 6f6e206e 20666f20 63696c73     itten no of slic
    db8c:	202c7365 202c7525 0a0d7525 00000000     es, %u, %u......
    db9c:	73616c66 72772068 20657469 6f206f6e     flash write no o
    dbac:	6f762066 656d756c 25202c73 000a0d75     f volumes, %u...
    dbbc:	73616c66 72772068 65747469 6f6e206e     flash written no
    dbcc:	20666f20 756c6f76 2c73656d 2c752520      of volumes, %u,
    dbdc:	0d752520 0000000a 73616c66 72772068      %u.....flash wr
    dbec:	20657469 67697274 6e6f2067 696c7320     ite trigg on sli
    dbfc:	202c6563 0a0d7525 00000000 73616c66     ce, %u......flas
    dc0c:	72772068 65747469 7274206e 20676769     h written trigg 
    dc1c:	73206e6f 6563696c 7525202c 7525202c     on slice, %u, %u
    dc2c:	00000a0d 73616c66 72772068 20657469     ....flash write 
    dc3c:	67697274 6e6f2067 6c6f7620 2c656d75     trigg on volume,
    dc4c:	0d752520 0000000a 73616c66 72772068      %u.....flash wr
    dc5c:	65747469 7274206e 20676769 76206e6f     itten trigg on v
    dc6c:	6d756c6f 25202c65 25202c75 000a0d75     olume, %u, %u...
    dc7c:	73616c66 72772068 20657469 736c7570     flash write puls
    dc8c:	656c2065 6874676e 7525202c 00000a0d     e length, %u....
    dc9c:	73616c66 72772068 65747469 7570206e     flash written pu
    dcac:	2065736c 676e656c 202c7468 202c7525     lse lenght, %u, 
    dcbc:	0a0d7525 00000000 73616c66 72772068     %u......flash wr
    dccc:	20657469 74205254 2c656d69 756c2520     ite TR time, %lu
    dcdc:	00000a0d 73616c66 72772068 65747469     ....flash writte
    dcec:	5254206e 6d697420 25202c65 25202c75     n TR time, %u, %
    dcfc:	25202c75 25202c75 000a0d75 73616c66     u, %u, %u...flas
    dd0c:	72772068 20657469 67697274 20726567     h write trigger 
    dd1c:	6572202f 6e6f7073 73206573 646e756f     / response sound
    dd2c:	7525202c 00000a0d 73616c66 72772068     , %u....flash wr
    dd3c:	65747469 7274206e 65676769 202f2072     itten trigger / 
    dd4c:	70736572 65736e6f 756f7320 202c646e     response sound, 
    dd5c:	202c7525 0a0d7525 00000000 73616c66     %u, %u......flas
    dd6c:	72772068 20657469 6e756f73 6f762064     h write sound vo
    dd7c:	656d756c 7525202c 00000a0d 73616c66     lume, %u....flas
    dd8c:	72772068 65747469 6f73206e 20646e75     h written sound 
    dd9c:	756c6f76 202c656d 202c7525 0a0d7525     volume, %u, %u..
    ddac:	00000000 64616572 73657320 6e6f6973     ....read session
    ddbc:	74616420 72662061 66206d6f 6873616c      data from flash
    ddcc:	0000000d 6f5f6f6e 6c735f66 73656369     ....no_of_slices
    dddc:	61657220 72662064 66206d6f 6873616c      read from flash
    ddec:	7525203a 00000a0d 6f5f6f6e 6f765f66     : %u....no_of_vo
    ddfc:	656d756c 65722073 66206461 206d6f72     lumes read from 
    de0c:	73616c66 25203a68 000a0d75 67697274     flash: %u...trig
    de1c:	5f6e6f5f 63696c73 65722065 66206461     _on_slice read f
    de2c:	206d6f72 73616c66 25203a68 000a0d75     rom flash: %u...
    de3c:	67697274 5f6e6f5f 756c6f76 7220656d     trig_on_volume r
    de4c:	20646165 6d6f7266 616c6620 203a6873     ead from flash: 
    de5c:	0a0d7525 00000000 736c7570 656c5f65     %u......pulse_le
    de6c:	6874676e 61657220 72662064 66206d6f     ngth read from f
    de7c:	6873616c 7525203a 00000a0d 745f5254     lash: %u....TR_t
    de8c:	20656d69 64616572 6f726620 6c66206d     ime read from fl
    de9c:	3a687361 756c2520 00000a0d 67697274     ash: %lu....trig
    deac:	20726567 6572202f 6e6f7073 73206573     ger / response s
    debc:	646e756f 7525203a 7525202c 00000a0d     ound: %u, %u....
    decc:	6e756f73 6f762064 656d756c 61657220     sound volume rea
    dedc:	72662064 66206d6f 6873616c 7525203a     d from flash: %u
    deec:	00000a0d 41206f6e 72204b43 69656365     ....no ACK recei
    defc:	2c646576 73657220 00636e79 72617473     ved, resync.star
    df0c:	69742074 756f656d 00000074 65636572     t timeout...rece
    df1c:	64657669 206e6120 204b4341 616e6966     ived an ACK fina
    df2c:	2e796c6c 000d2e2e 656d6974 2074756f     lly.....timeout 
    df3c:	6e756f63 3a726574 0d752520 0000000a     counter: %u.....
    df4c:	646e6573 6d6f6320 646e616d 0000000d     send command....
    df5c:	255f5f5f 0000756c 626d756e 203a7265     ___%lu..number: 
    df6c:	0d756c25 0000000a 2e302e31 00000035     %lu.....1.0.5...
    df7c:	765f5f5f 69737265 203a6e6f 00007325     ___version: %s..
    df8c:	73726576 3a6e6f69 0d732520 0000000a     version: %s.....
    df9c:	74207773 6564206f 6c756166 6f662074     sw to default fo
    dfac:	000d6d72 74207773 6573206f 75722073     rm..sw to ses ru
    dfbc:	6e696e6e 6f662067 000d6d72 74207773     nning form..sw t
    dfcc:	616d206f 7274206e 66206769 0d6d726f     o man trig form.
    dfdc:	00000000 74207773 6973206f 7572206d     ....sw to sim ru
    dfec:	6e696e6e 6f662067 000d6d72 74697773     nning form..swit
    dffc:	74206863 6573206f 6e697474 31207367     ch to settings 1
    e00c:	726f6620 00000d6d 74746573 20676e69      form...setting 
    e01c:	70736572 65736e6f 756f7320 7320646e     response sound s
    e02c:	63746977 6e612068 65742064 6f207478     witch and text o
    e03c:	00000d6e 74746573 20676e69 70736572     n...setting resp
    e04c:	65736e6f 756f7320 7320646e 63746977     onse sound switc
    e05c:	6e612068 65742064 6f207478 000d6666     h and text off..
    e06c:	74746573 20676e69 67697274 20726567     setting trigger 
    e07c:	6e756f73 77732064 68637469 646e6120     sound switch and
    e08c:	78657420 6e6f2074 0000000d 74746573      text on....sett
    e09c:	20676e69 67697274 20726567 6e756f73     ing trigger soun
    e0ac:	77732064 68637469 646e6120 78657420     d switch and tex
    e0bc:	666f2074 00000d66 74746573 20676e69     t off...setting 
    e0cc:	67697274 206e6f20 63696c73 74732065     trig on slice st
    e0dc:	676e6972 0000000d 74746573 20676e69     ring....setting 
    e0ec:	67697274 206e6f20 756c6f76 7320656d     trig on volume s
    e0fc:	6e697274 00000d67 74207773 6573206f     tring...sw to se
    e10c:	6e697474 32207367 726f6620 00000d6d     ttings 2 form...
    e11c:	74746573 20676e69 6f206f6e 6f762066     setting no of vo
    e12c:	656d756c 74732073 676e6972 0000000d     lumes string....
    e13c:	74746573 20676e69 6f206f6e 6c732066     setting no of sl
    e14c:	73656369 72747320 0d676e69 00000000     ices string.....
    e15c:	74746573 20676e69 736c7570 656c2065     setting pulse le
    e16c:	6874676e 72747320 0d676e69 00000000     ngth string.....
    e17c:	74746573 20676e69 74205254 20656d69     setting TR time 
    e18c:	69727473 000d676e 74207773 6573206f     string..sw to se
    e19c:	6e697474 33207367 726f6620 00000d6d     ttings 3 form...
    e1ac:	74207773 656b206f 616f6279 66206472     sw to keyboard f
    e1bc:	0d6d726f 00000000 74207773 656d206f     orm.....sw to me
    e1cc:	6620756e 0d6d726f 00000000 74207773     nu form.....sw t
    e1dc:	6261206f 2074756f 6d726f66 0000000d     o about form....
    e1ec:	74207773 7265206f 20726f72 6d726f66     sw to error form
    e1fc:	0000000d 255f5f5f 202f2075 20207525     ....___%u / %u  
    e20c:	00002020 72727563 20746e65 63696c73       ..current slic
    e21c:	25203a65 000a0d75 2a2a2a2a 2a2a2a2a     e: %u...********
    e22c:	75632a2a 6e657272 6f762074 656d756c     **current volume
    e23c:	7525203a 00000a0d 21212121 21212121     : %u....!!!!!!!!
    e24c:	21212121 21212121 00212121 76207370     !!!!!!!!!!!.ps v
    e25c:	61746c6f 74206567 6c206f6f 0000776f     oltage too low..
    e26c:	76207370 61746c6f 74206567 68206f6f     ps voltage too h
    e27c:	00686769 70757370 6c6f7620 65676174     igh.psup voltage
    e28c:	20736920 0a0d6425 00000000 21212121      is %d......!!!!
    e29c:	21212121 21212121 21212121 0d212121     !!!!!!!!!!!!!!!.
    e2ac:	00000000 20425355 6f727265 00000d72     ....USB error...
    e2bc:	20425355 6e6e6f63 69746365 6f206e6f     USB connection o
    e2cc:	00000d6b 72617473 676e6974 6d697320     k...starting sim
    e2dc:	74616c75 0d6e6f69 00000000 74746573     ulation.....sett
    e2ec:	20676e69 72727563 20746e65 63696c73     ing current slic
    e2fc:	74732065 676e6972 0000000d 74746573     e string....sett
    e30c:	20676e69 72727563 20746e65 756c6f76     ing current volu
    e31c:	7320656d 6e697274 00000d67 79616c70     me string...play
    e32c:	20676e69 72617473 6f732074 0d646e75     ing start sound.
    e33c:	00000000 706f7473 676e6970 6d697320     ....stopping sim
    e34c:	74616c75 0d6e6f69 00000000 72617473     ulation.....star
    e35c:	676e6974 6e616d20 206c6175 67697274     ting manual trig
    e36c:	0d726567 00000000 706f7473 676e6970     ger.....stopping
    e37c:	6e616d20 206c6175 67697274 0d726567      manual trigger.
    e38c:	00000000 72617473 676e6974 73657320     ....starting ses
    e39c:	6e6f6973 0000000d 62616e65 5220656c     sion....enable R
    e3ac:	77702058 00000d72 65776f70 676e6972     X pwr...powering
    e3bc:	20707520 63205854 31202e68 0000000d      up TX ch. 1....
    e3cc:	65776f70 676e6972 20707520 63205854     powering up TX c
    e3dc:	32202e68 0000000d 706f7473 676e6970     h. 2....stopping
    e3ec:	73657320 6e6f6973 0000000d 65776f70      session....powe
    e3fc:	676e6972 776f6420 5854206e 2e686320     ring down TX ch.
    e40c:	000d3120 65776f70 676e6972 776f6420      1..powering dow
    e41c:	5854206e 2e686320 000d3220 61736964     n TX ch. 2..disa
    e42c:	20656c62 70205852 000d7277 4c460a0d     ble RX pwr....FL
    e43c:	20485341 65676170 7a697320 25203a65     ASH page size: %
    e44c:	000a0d64 65730a0d 6f697373 6164206e     d.....session da
    e45c:	73206174 3a657a69 0d642520 0000000a     ta size: %d.....
    e46c:	6f730a0d 20646e75 756c6f76 7320656d     ..sound volume s
    e47c:	3a657a69 0d642520 0000000a 65720a0d     ize: %d.......re
    e48c:	6e6f7073 73206573 646e756f 7a697320     sponse sound siz
    e49c:	25203a65 000a0d64 75630a0d 6e657272     e: %d.....curren
    e4ac:	6f662074 73206d72 3a657a69 0d642520     t form size: %d.
    e4bc:	0000000a 64616572 20676e69 74746573     ....reading sett
    e4cc:	73676e69 6f726620 4c46206d 20485341     ings from FLASH 
    e4dc:	6f6d656d 00007972 62616e65 676e696c     memory..enabling
    e4ec:	43414420 0000000d 69676572 72657473      DAC....register
    e4fc:	74786520 71726920 6e797320 72742063      ext irq sync tr
    e50c:	65676769 00000d72 69676572 72657473     igger...register
    e51c:	74786520 71726920 74756220 0d6e6f74      ext irq button.
    e52c:	00000000 65736572 434c2074 00000d44     ....reset LCD...
    e53c:	20746573 204b4341 65746661 69642072     set ACK after di
    e54c:	616c7073 65722079 0d746573 00000000     splay reset.....
    e55c:	62616e65 676e696c 64756120 61206f69     enabling audio a
    e56c:	000d706d 2a2a2a2a 2a2a2a2a 2a2a2a2a     mp..************
    e57c:	2a2a2a2a 2a2a2a2a 2a2a2a2a 2a2a2a2a     ****************
    e58c:	2a2a2a2a 2a2a2a2a 0d2a2a2a 00000000     ***********.....
    e59c:	74696e69 696c6169 6974617a 64206e6f     initialization d
    e5ac:	2c656e6f 61747320 6e697472 616d2067     one, starting ma
    e5bc:	6c206e69 0d706f6f 00000000 64207370     in loop.....ps d
    e5cc:	202c7069 746c6f76 3a656761 2c642520     ip, voltage: %d,
    e5dc:	756f6320 7265746e 7525203a 00000a0d      counter: %u....
    e5ec:	20425355 63736964 656e6e6f 64657463     USB disconnected
    e5fc:	00000d21 756d6973 6574616c 0d532064     !...simulated S.
    e60c:	00000000 74697773 74206863 67676972     ....switch trigg
    e61c:	4c207265 6f204445 00000d6e 206e616d     er LED on...man 
    e62c:	67697274 69777320 20686374 67697274     trig switch trig
    e63c:	20726567 2044454c 0d66666f 00000000     ger LED off.....
    e64c:	756d6973 6974616c 73206e6f 63746977     simulation switc
    e65c:	72742068 65676769 454c2072 6e6f2044     h trigger LED on
    e66c:	0000000d 756d6973 6974616c 73206e6f     ....simulation s
    e67c:	63746977 72742068 65676769 454c2072     witch trigger LE
    e68c:	666f2044 00000d66 706f7473 73657320     D off...stop ses
    e69c:	6e6f6973 20796220 68737570 74747562     sion by pushbutt
    e6ac:	000d6e6f 72617473 65732074 6f697373     on..start sessio
    e6bc:	7962206e 73757020 74756268 0d6e6f74     n by pushbutton.
    e6cc:	00000000 69770a0d 7475626e 206e6f74     ......winbutton 
    e6dc:	73657270 2c646573 646e6920 203a7865     pressed, index: 
    e6ec:	0a0d7525 00000000 74697773 6e696863     %u......switchin
    e6fc:	6f742067 726f6620 0d37206d 00000000     g to form 7.....
    e70c:	756d6973 6574616c 0d412064 00000000     simulated A.....
    e71c:	756d6973 6574616c 0d422064 00000000     simulated B.....
    e72c:	756d6973 6574616c 0d432064 00000000     simulated C.....
    e73c:	756d6973 6574616c 0d442064 00000000     simulated D.....
    e74c:	72617473 79732074 7320636e 646e756f     start sync sound
    e75c:	0000000d 20746573 63696c73 72742065     ....set slice tr
    e76c:	20676769 202c6f6e 74697773 74206863     igg no, switch t
    e77c:	6f66206f 36206d72 0000000d 20746573     o form 6....set 
    e78c:	756c6f76 7420656d 67676972 2c6f6e20     volume trigg no,
    e79c:	69777320 20686374 66206f74 206d726f      switch to form 
    e7ac:	00000d36 6d726f66 6f6d2034 202c6572     6...form4 more, 
    e7bc:	74697773 74206863 6f66206f 35206d72     switch to form 5
    e7cc:	0000000d 6d726f66 63612034 74706563     ....form4 accept
    e7dc:	7773202c 68637469 206f7420 6d726f66     , switch to form
    e7ec:	000d3720 53414c46 72772048 65747469      7..FLASH writte
    e7fc:	00000d6e 6d726f66 61632034 6c65636e     n...form4 cancel
    e80c:	7773202c 68637469 206f7420 6d726f66     , switch to form
    e81c:	000d3720 20746573 63696c73 6e207365      7..set slices n
    e82c:	73202c6f 63746977 6f742068 726f6620     o, switch to for
    e83c:	0d36206d 00000000 20746573 756c6f76     m 6.....set volu
    e84c:	2073656d 202c6f6e 74697773 74206863     mes no, switch t
    e85c:	6f66206f 36206d72 0000000d 20746573     o form 6....set 
    e86c:	736c7570 656c2065 6874676e 7773202c     pulse length, sw
    e87c:	68637469 206f7420 6d726f66 000d3620     itch to form 6..
    e88c:	20746573 74205254 2c656d69 69777320     set TR time, swi
    e89c:	74686374 6f66206f 36206d72 0000000d     tchto form 6....
    e8ac:	6d726f66 6f6d2038 202c6572 74697773     form8 more, swit
    e8bc:	74206863 6f66206f 38206d72 0000000d     ch to form 8....
    e8cc:	6d726f66 63612035 74706563 7773202c     form5 accept, sw
    e8dc:	68637469 206f7420 6d726f66 000d3720     itch to form 7..
    e8ec:	6d726f66 61632035 6c65636e 7773202c     form5 cancel, sw
    e8fc:	68637469 206f7420 6d726f66 000d3720     itch to form 7..
    e90c:	74746573 73676e69 7773202c 68637469     settings, switch
    e91c:	206f7420 6d726f66 000d3420 756e656d      to form 4..menu
    e92c:	63616220 73202c6b 63746977 6f742068      back, switch to
    e93c:	726f6620 0d30206d 00000000 756f6261      form 0.....abou
    e94c:	73202c74 63746977 6f742068 726f6620     t, switch to for
    e95c:	0d30206d 00000000 6d726f66 6f6d2034     m 0.....form4 mo
    e96c:	202c6572 74697773 74206863 6f66206f     re, switch to fo
    e97c:	34206d72 000d2020 6d726f66 62203031     rm 4  ..form10 b
    e98c:	2c6b6361 69777320 20686374 6d206f74     ack, switch to m
    e99c:	20756e65 6d726f66 000d2020 75626434     enu form  ..4dbu
    e9ac:	6e6f7474 65727020 64657373 6e69202c     tton pressed, in
    e9bc:	3a786564 2c752520 6c617620 203a6575     dex: %u, value: 
    e9cc:	0a0d7525 00000000 67697274 20726567     %u......trigger 
    e9dc:	20646e73 74697773 69206863 6e6f2073     snd switch is on
    e9ec:	0000000d 67697274 20726567 20646e73     ....trigger snd 
    e9fc:	74697773 69206863 666f2073 00000d66     switch is off...
    ea0c:	70736572 65736e6f 646e7320 69777320     response snd swi
    ea1c:	20686374 6f207369 00000d6e 70736572     tch is on...resp
    ea2c:	65736e6f 646e7320 69777320 20686374     onse snd switch 
    ea3c:	6f207369 000d6666 6279656b 6472616f     is off..keyboard
    ea4c:	0d6b6f20 00000000 7220626b 72757465      ok.....kb retur
    ea5c:	6176206e 3a65756c 756c2520 00000a0d     n value: %lu....
    ea6c:	6279656b 6472616f 2c6b6f20 69777320     keyboard ok, swi
    ea7c:	20686374 6b636162 206f7420 6d726f66     tch back to form
    ea8c:	0d752520 0000000a 636e6163 000d6c65      %u.....cancel..
    ea9c:	6279656b 6472616f 6e616320 2c6c6563     keyboard cancel,
    eaac:	69777320 20686374 6b636162 206f7420      switch back to 
    eabc:	6d726f66 0d752520 0000000a 0a0d6925     form %u.....%i..
    eacc:	00000000 7620626b 65756c61 6c25203a     ....kb value: %l
    eadc:	70202c75 20766572 7620626b 65756c61     u, prev kb value
    eaec:	6c25203a 000a0d75 6e657645 65722074     : %lu...Event re
    eafc:	76696563 66206465 206d6f72 202c7525     ceived from %u, 
    eb0c:	65646e69 25203a78 000a0d75 702f2e2e     index: %u...../p
    eb1c:	69737265 6e657473 74735f74 6761726f     ersistent_storag
    eb2c:	766e2f65 746e695f 616e7265 6c665f6c     e/nv_internal_fl
    eb3c:	5f687361 72746c75 00632e61 524f5453     ash_ultra.c.STOR
    eb4c:	00454741 702f2e2e 69737265 6e657473     AGE.../persisten
    eb5c:	74735f74 6761726f 766e2f65 6f74735f     t_storage/nv_sto
    eb6c:	65676172 0000632e 00007938 0000796c     rage.c..8y..ly..
    eb7c:	00007986 000079a0 000079ba 000079d4     .y...y...y...y..
    eb8c:	69676572 72657473 20787220 6c6c6163     register rx call
    eb9c:	6b636162 0000000d 69676572 72657473     back....register
    ebac:	20787420 6c6c6163 6b636162 0000000d      tx callback....
    ebbc:	62616e45 7520656c 31747261 0000000d     Enable uart1....

0000ebcc <keyboard_report_desc>:
    ebcc:	06090105 070501a1 e729e019 01250015     ..........)...%.
    ebdc:	08950175 01810281 65290019 65250015     u.........)e..%e
    ebec:	06950875 08050081 05290119 01250015     u.........)...%.
    ebfc:	05950175 03950291 00c00191              u...........

0000ec08 <mouse_report_desc>:
    ec08:	02090105 010901a1 090500a1 03290119     ..............).
    ec18:	01250015 03950175 05750281 01810195     ..%.u.....u.....
    ec28:	30090105 38093109 7f258115 03950875     ...0.1.8..%.u...
    ec38:	c0c00681 0000878e 0000876a 0000878e     ........j.......
    ec48:	00008770 0000878e 0000873a 0000878e     p.......:.......
    ec58:	0000878e 0000878e 0000874c 0000878e     ........L.......
    ec68:	00008776 752f2e2e 642f6273 63697665     v...../usb/devic
    ec78:	73752f65 2e636462 00000063 73750a0d     e/usbdc.c.....us
    ec88:	20636462 74696e69 0000000d 64630a0d     bdc init......cd
    ec98:	615f6663 69206d63 0d74696e 00000000     cf_acm init.....
    eca8:	656b0a0d 616f6279 69206472 0d74696e     ..keyboard init.
    ecb8:	00000000 73750a0d 20636462 72617473     ......usbdc star
    ecc8:	00000d74 73750a0d 20636462 61747461     t.....usbdc atta
    ecd8:	000d6863 6f630a0d 736f706d 20657469     ch....composite 
    ece8:	69766564 69206563 0d74696e 00000000     device init.....

0000ecf8 <_global_impure_ptr>:
    ecf8:	200000e0                                ... 

0000ecfc <__sf_fake_stderr>:
	...

0000ed1c <__sf_fake_stdin>:
	...

0000ed3c <__sf_fake_stdout>:
	...
    ed5c:	2b302d23 6c680020 6665004c 47464567     #-0+ .hlL.efgEFG
    ed6c:	32313000 36353433 41393837 45444342     .0123456789ABCDE
    ed7c:	31300046 35343332 39383736 64636261     F.0123456789abcd
    ed8c:	00006665                                ef..

0000ed90 <_init>:
    ed90:	b5f8      	push	{r3, r4, r5, r6, r7, lr}
    ed92:	46c0      	nop			; (mov r8, r8)
    ed94:	bcf8      	pop	{r3, r4, r5, r6, r7}
    ed96:	bc08      	pop	{r3}
    ed98:	469e      	mov	lr, r3
    ed9a:	4770      	bx	lr

0000ed9c <__init_array_start>:
    ed9c:	000000dd 	.word	0x000000dd

0000eda0 <_fini>:
    eda0:	b5f8      	push	{r3, r4, r5, r6, r7, lr}
    eda2:	46c0      	nop			; (mov r8, r8)
    eda4:	bcf8      	pop	{r3, r4, r5, r6, r7}
    eda6:	bc08      	pop	{r3}
    eda8:	469e      	mov	lr, r3
    edaa:	4770      	bx	lr

0000edac <__fini_array_start>:
    edac:	000000b5 	.word	0x000000b5
